///////////////////////////////////////////////////////////////////////////////
//
// IAR C/C++ Compiler V10.10.1.4655 for 8051              20/Nov/2021  20:28:20
// Copyright 2004-2017 IAR Systems AB.
// Standalone license - IAR Embedded Workbench for 8051
//
//    Core               =  plain
//    Code model         =  banked
//    Data model         =  large
//    Calling convention =  xdata reentrant
//    Constant location  =  data_rom
//    Dptr setup         =  1,16
//                          
//    Source file        =  
//        D:\Z-Stack Home
//        1.2.2a.44539\Projects\zstack\HomeAutomation\ZigUP\Source\utils.c
//    Command line       =  
//        -f C:\Users\tatbo\AppData\Local\Temp\EW697C.tmp ("D:\Z-Stack Home
//        1.2.2a.44539\Projects\zstack\HomeAutomation\ZigUP\Source\utils.c" -D
//        SECURE=1 -D HAL_KEY=FALSE -D HAL_LED=FALSE -D HAL_LCD=FALSE -D
//        HAL_UART=FALSE -D TC_LINKKEY_JOIN -D NV_INIT -D NV_RESTORE -D
//        xHOLD_AUTO_START -D ZTOOL_P1 -D MT_TASK -D MT_APP_FUNC -D MT_SYS_FUNC
//        -D MT_ZDO_FUNC -D LCD_SUPPORTED=FALSE -D MULTICAST_ENABLED=FALSE -D
//        ZCL_READ -D ZCL_WRITE -D ZCL_REPORT -D xZCL_EZMODE -D ZCL_BASIC -D
//        ZCL_IDENTIFY -D ZCL_ON_OFF -D ZCL_SCENES -D ZCL_GROUPS -D
//        xZCL_LEVEL_CTRL -D ZCL_DIAGNOSTIC -D FEATURE_SYSTEM_STATS -D
//        ZCL_DOORLOCK -lC "D:\Z-Stack Home
//        1.2.2a.44539\Projects\zstack\HomeAutomation\ZigUP\CC2530DB\EndDeviceEB\List"
//        -lA "D:\Z-Stack Home
//        1.2.2a.44539\Projects\zstack\HomeAutomation\ZigUP\CC2530DB\EndDeviceEB\List"
//        --diag_suppress Pe001,Pa010 -o "D:\Z-Stack Home
//        1.2.2a.44539\Projects\zstack\HomeAutomation\ZigUP\CC2530DB\EndDeviceEB\Obj"
//        -e --debug --core=plain --dptr=16,1 --data_model=large
//        --code_model=banked --calling_convention=xdata_reentrant
//        --place_constants=data_rom --nr_virtual_regs 16 -f "D:\Z-Stack Home
//        1.2.2a.44539\Projects\zstack\HomeAutomation\ZigUP\CC2530DB\..\..\..\Tools\CC2530DB\f8wEndev.cfg"
//        (-DCPU32MHZ -DROOT=__near_func -DMAC_CFG_TX_DATA_MAX=3
//        -DMAC_CFG_TX_MAX=6 -DMAC_CFG_RX_MAX=3) -f "D:\Z-Stack Home
//        1.2.2a.44539\Projects\zstack\HomeAutomation\ZigUP\CC2530DB\..\..\..\Tools\CC2530DB\f8wConfig.cfg"
//        (-DZIGBEEPRO -DSECURE=1 -DZG_SECURE_DYNAMIC=0 -DREFLECTOR
//        -DDEFAULT_CHANLIST=0x00000800 -DZDAPP_CONFIG_PAN_ID=0xFFFF
//        -DNWK_START_DELAY=100 -DEXTENDED_JOINING_RANDOM_MASK=0x007F
//        -DBEACON_REQUEST_DELAY=100 -DBEACON_REQ_DELAY_MASK=0x00FF
//        -DLINK_STATUS_JITTER_MASK=0x007F -DROUTE_EXPIRY_TIME=30
//        -DAPSC_ACK_WAIT_DURATION_POLLED=3000 -DNWK_INDIRECT_MSG_TIMEOUT=7
//        -DMAX_RREQ_ENTRIES=8 -DAPSC_MAX_FRAME_RETRIES=3
//        -DNWK_MAX_DATA_RETRIES=2 -DMAX_POLL_FAILURE_RETRIES=2 -DMAX_BCAST=9
//        -DAPS_MAX_GROUPS=16 -DMAX_RTG_ENTRIES=40 -DNWK_MAX_BINDING_ENTRIES=4
//        -DMAX_BINDING_CLUSTER_IDS=4 "-DDEFAULT_KEY={0x01, 0x03, 0x05, 0x07,
//        0x09, 0x0B, 0x0D, 0x0F, 0x00, 0x02, 0x04, 0x06, 0x08, 0x0A, 0x0C,
//        0x0D}" -DMAC_MAX_FRAME_SIZE=116 -DZDNWKMGR_MIN_TRANSMISSIONS=20
//        "-DCONST=const __code" -DGENERIC=__generic -DRFD_RCVC_ALWAYS_ON=FALSE
//        -DPOLL_RATE=1000 -DQUEUED_POLL_RATE=100 -DRESPONSE_POLL_RATE=100
//        -DREJOIN_POLL_RATE=440 -DREJOIN_BACKOFF=900000 -DREJOIN_SCAN=900000)
//        -f "D:\Z-Stack Home
//        1.2.2a.44539\Projects\zstack\HomeAutomation\ZigUP\CC2530DB\..\..\..\Tools\CC2530DB\f8wZCL.cfg"
//        -I "D:\Z-Stack Home
//        1.2.2a.44539\Projects\zstack\HomeAutomation\ZigUP\CC2530DB\" -I
//        "D:\Z-Stack Home
//        1.2.2a.44539\Projects\zstack\HomeAutomation\ZigUP\CC2530DB\..\Source\"
//        -I "D:\Z-Stack Home
//        1.2.2a.44539\Projects\zstack\HomeAutomation\ZigUP\CC2530DB\..\..\Source\"
//        -I "D:\Z-Stack Home
//        1.2.2a.44539\Projects\zstack\HomeAutomation\ZigUP\CC2530DB\..\..\..\ZMain\TI2530DB\"
//        -I "D:\Z-Stack Home
//        1.2.2a.44539\Projects\zstack\HomeAutomation\ZigUP\CC2530DB\..\..\..\..\..\Components\hal\include\"
//        -I "D:\Z-Stack Home
//        1.2.2a.44539\Projects\zstack\HomeAutomation\ZigUP\CC2530DB\..\..\..\..\..\Components\hal\target\CC2530EB\"
//        -I "D:\Z-Stack Home
//        1.2.2a.44539\Projects\zstack\HomeAutomation\ZigUP\CC2530DB\..\..\..\..\..\Components\mac\include\"
//        -I "D:\Z-Stack Home
//        1.2.2a.44539\Projects\zstack\HomeAutomation\ZigUP\CC2530DB\..\..\..\..\..\Components\mac\high_level\"
//        -I "D:\Z-Stack Home
//        1.2.2a.44539\Projects\zstack\HomeAutomation\ZigUP\CC2530DB\..\..\..\..\..\Components\mac\low_level\srf04\"
//        -I "D:\Z-Stack Home
//        1.2.2a.44539\Projects\zstack\HomeAutomation\ZigUP\CC2530DB\..\..\..\..\..\Components\mac\low_level\srf04\single_chip\"
//        -I "D:\Z-Stack Home
//        1.2.2a.44539\Projects\zstack\HomeAutomation\ZigUP\CC2530DB\..\..\..\..\..\Components\mt\"
//        -I "D:\Z-Stack Home
//        1.2.2a.44539\Projects\zstack\HomeAutomation\ZigUP\CC2530DB\..\..\..\..\..\Components\osal\include\"
//        -I "D:\Z-Stack Home
//        1.2.2a.44539\Projects\zstack\HomeAutomation\ZigUP\CC2530DB\..\..\..\..\..\Components\services\saddr\"
//        -I "D:\Z-Stack Home
//        1.2.2a.44539\Projects\zstack\HomeAutomation\ZigUP\CC2530DB\..\..\..\..\..\Components\services\sdata\"
//        -I "D:\Z-Stack Home
//        1.2.2a.44539\Projects\zstack\HomeAutomation\ZigUP\CC2530DB\..\..\..\..\..\Components\stack\af\"
//        -I "D:\Z-Stack Home
//        1.2.2a.44539\Projects\zstack\HomeAutomation\ZigUP\CC2530DB\..\..\..\..\..\Components\stack\nwk\"
//        -I "D:\Z-Stack Home
//        1.2.2a.44539\Projects\zstack\HomeAutomation\ZigUP\CC2530DB\..\..\..\..\..\Components\stack\sapi\"
//        -I "D:\Z-Stack Home
//        1.2.2a.44539\Projects\zstack\HomeAutomation\ZigUP\CC2530DB\..\..\..\..\..\Components\stack\sec\"
//        -I "D:\Z-Stack Home
//        1.2.2a.44539\Projects\zstack\HomeAutomation\ZigUP\CC2530DB\..\..\..\..\..\Components\stack\sys\"
//        -I "D:\Z-Stack Home
//        1.2.2a.44539\Projects\zstack\HomeAutomation\ZigUP\CC2530DB\..\..\..\..\..\Components\stack\zcl\"
//        -I "D:\Z-Stack Home
//        1.2.2a.44539\Projects\zstack\HomeAutomation\ZigUP\CC2530DB\..\..\..\..\..\Components\stack\zdo\"
//        -I "D:\Z-Stack Home
//        1.2.2a.44539\Projects\zstack\HomeAutomation\ZigUP\CC2530DB\..\..\..\..\..\Components\zmac\"
//        -I "D:\Z-Stack Home
//        1.2.2a.44539\Projects\zstack\HomeAutomation\ZigUP\CC2530DB\..\..\..\..\..\Components\zmac\f8w\"
//        -Ohz --require_prototypes)
//    Locale             =  Chinese (Simplified)_China.936
//    List file          =  
//        D:\Z-Stack Home
//        1.2.2a.44539\Projects\zstack\HomeAutomation\ZigUP\CC2530DB\EndDeviceEB\List\utils.s51
//
///////////////////////////////////////////////////////////////////////////////

        NAME utils

        RTMODEL "__SystemLibrary", "CLib"
        RTMODEL "__calling_convention", "xdata_reentrant"
        RTMODEL "__code_model", "banked"
        RTMODEL "__core", "plain"
        RTMODEL "__data_model", "large"
        RTMODEL "__dptr_size", "16"
        RTMODEL "__extended_stack", "disabled"
        RTMODEL "__iar_require _formatted_write", "flags,floats,widths"
        RTMODEL "__location_for_constants", "data"
        RTMODEL "__number_of_dptrs", "1"
        RTMODEL "__register_banks", "*"
        RTMODEL "__rt_version", "1"

        RSEG DOVERLAY:DATA:NOROOT(0)
        RSEG IOVERLAY:IDATA:NOROOT(0)
        RSEG ISTACK:IDATA:NOROOT(0)
        RSEG PSTACK:XDATA:NOROOT(0)
        RSEG XSTACK:XDATA:NOROOT(0)

        EXTERN ?V0
        EXTERN ?V1
        EXTERN ?V2
        EXTERN ?V3
        EXTERN ?V4
        EXTERN ?V5
        EXTERN ?V6
        EXTERN ?V7
        EXTERN ?V8
        EXTERN ?V9
        EXTERN ?V10
        EXTERN ?V11
        EXTERN ?V12
        EXTERN ?V13
        EXTERN ?V14
        EXTERN ?V15
        EXTERN ?ALLOC_XSTACK8
        EXTERN ?BANKED_ENTER_XDATA
        EXTERN ?BANKED_LEAVE_XDATA
        EXTERN ?BDISPATCH
        EXTERN ?BRET
        EXTERN ?DEALLOC_XSTACK8
        EXTERN ?L_MOV_TO_X
        EXTERN ?PUSH_XSTACK8_X_FOUR
        EXTERN ?PUSH_XSTACK_I_FOUR
        EXTERN ?PUSH_XSTACK_I_TWO
        EXTERN ?S_SHL
        EXTERN ?XLOAD_R0123
        EXTERN ?XSP
        EXTERN ?XSTACK_DISP101_8
        EXTERN ?XSTORE_R0123
        EXTERN __INIT_XDATA_Z

        PUBLIC `??FactoryReset::?relay`
        FUNCTION `??FactoryReset::?relay`,0203H
        PUBLIC `??Measure_Sensor::?relay`
        FUNCTION `??Measure_Sensor::?relay`,0203H
        PUBLIC `??Relais::?relay`
        FUNCTION `??Relais::?relay`,0203H
        PUBLIC FactoryReset
        FUNCTION FactoryReset,021203H
        ARGFRAME XSTACK, 0, STACK
        LOCFRAME XSTACK, 9, STACK
        PUBLIC Measure_Sensor
        FUNCTION Measure_Sensor,0a1203H
        ARGFRAME XSTACK, 0, STACK
        LOCFRAME XSTACK, 146, STACK
        PUBLIC Relais
        FUNCTION Relais,0203H
        ARGFRAME XSTACK, 0, STACK
        PUBWEAK WDCTL
        PUBWEAK _A_IEN0
        PUBLIC dat
        
          CFI Names cfiNames0
          CFI StackFrame CFA_SP SP IDATA
          CFI StackFrame CFA_PSP16 PSP16 XDATA
          CFI StackFrame CFA_XSP16 XSP16 XDATA
          CFI StaticOverlayFrame CFA_IOVERLAY IOVERLAY
          CFI StaticOverlayFrame CFA_DOVERLAY DOVERLAY
          CFI Resource `PSW.CY`:1, `B.BR0`:1, `B.BR1`:1, `B.BR2`:1, `B.BR3`:1
          CFI Resource `B.BR4`:1, `B.BR5`:1, `B.BR6`:1, `B.BR7`:1, `VB.BR8`:1
          CFI Resource `VB.BR9`:1, `VB.BR10`:1, `VB.BR11`:1, `VB.BR12`:1
          CFI Resource `VB.BR13`:1, `VB.BR14`:1, `VB.BR15`:1, VB:8, B:8, A:8
          CFI Resource PSW:8, DPL0:8, DPH0:8, R0:8, R1:8, R2:8, R3:8, R4:8, R5:8
          CFI Resource R6:8, R7:8, V0:8, V1:8, V2:8, V3:8, V4:8, V5:8, V6:8, V7:8
          CFI Resource V8:8, V9:8, V10:8, V11:8, V12:8, V13:8, V14:8, V15:8, SP:8
          CFI Resource PSPH:8, PSPL:8, PSP16:16, XSPH:8, XSPL:8, XSP16:16
          CFI VirtualResource ?RET:24
          CFI Resource ?BRET_EXT:8
          CFI VirtualResource ?RET_HIGH:8, ?RET_LOW:8
          CFI ResourceParts PSP16 PSPH, PSPL
          CFI ResourceParts XSP16 XSPH, XSPL
          CFI ResourceParts ?RET ?BRET_EXT, ?RET_HIGH, ?RET_LOW
          CFI EndNames cfiNames0
        
          CFI Common cfiCommon0 Using cfiNames0
          CFI CodeAlign 1
          CFI DataAlign -1
          CFI ReturnAddress ?RET CODE
          CFI CFA_DOVERLAY Used
          CFI CFA_IOVERLAY Used
          CFI CFA_SP SP+-3
          CFI CFA_PSP16 PSP16+0
          CFI CFA_XSP16 XSP16+0
          CFI `PSW.CY` SameValue
          CFI `B.BR0` SameValue
          CFI `B.BR1` SameValue
          CFI `B.BR2` SameValue
          CFI `B.BR3` SameValue
          CFI `B.BR4` SameValue
          CFI `B.BR5` SameValue
          CFI `B.BR6` SameValue
          CFI `B.BR7` SameValue
          CFI `VB.BR8` SameValue
          CFI `VB.BR9` SameValue
          CFI `VB.BR10` SameValue
          CFI `VB.BR11` SameValue
          CFI `VB.BR12` SameValue
          CFI `VB.BR13` SameValue
          CFI `VB.BR14` SameValue
          CFI `VB.BR15` SameValue
          CFI VB SameValue
          CFI B Undefined
          CFI A Undefined
          CFI PSW SameValue
          CFI DPL0 SameValue
          CFI DPH0 SameValue
          CFI R0 Undefined
          CFI R1 Undefined
          CFI R2 Undefined
          CFI R3 Undefined
          CFI R4 Undefined
          CFI R5 Undefined
          CFI R6 SameValue
          CFI R7 SameValue
          CFI V0 SameValue
          CFI V1 SameValue
          CFI V2 SameValue
          CFI V3 SameValue
          CFI V4 SameValue
          CFI V5 SameValue
          CFI V6 SameValue
          CFI V7 SameValue
          CFI V8 SameValue
          CFI V9 SameValue
          CFI V10 SameValue
          CFI V11 SameValue
          CFI V12 SameValue
          CFI V13 SameValue
          CFI V14 SameValue
          CFI V15 SameValue
          CFI PSPH Undefined
          CFI PSPL Undefined
          CFI XSPH Undefined
          CFI XSPL Undefined
          CFI ?RET Concat
          CFI ?BRET_EXT Frame(CFA_SP, 3)
          CFI ?RET_HIGH Frame(CFA_SP, 2)
          CFI ?RET_LOW Frame(CFA_SP, 1)
          CFI EndCommon cfiCommon0
        
        
          CFI Common cfiCommon1 Using cfiNames0
          CFI CodeAlign 1
          CFI DataAlign -1
          CFI ReturnAddress ?RET CODE
          CFI CFA_DOVERLAY Used
          CFI CFA_IOVERLAY Used
          CFI CFA_SP SP+-2
          CFI CFA_PSP16 PSP16+0
          CFI CFA_XSP16 XSP16+0
          CFI `PSW.CY` SameValue
          CFI `B.BR0` SameValue
          CFI `B.BR1` SameValue
          CFI `B.BR2` SameValue
          CFI `B.BR3` SameValue
          CFI `B.BR4` SameValue
          CFI `B.BR5` SameValue
          CFI `B.BR6` SameValue
          CFI `B.BR7` SameValue
          CFI `VB.BR8` SameValue
          CFI `VB.BR9` SameValue
          CFI `VB.BR10` SameValue
          CFI `VB.BR11` SameValue
          CFI `VB.BR12` SameValue
          CFI `VB.BR13` SameValue
          CFI `VB.BR14` SameValue
          CFI `VB.BR15` SameValue
          CFI VB SameValue
          CFI B SameValue
          CFI A SameValue
          CFI PSW SameValue
          CFI DPL0 SameValue
          CFI DPH0 SameValue
          CFI R0 SameValue
          CFI R1 SameValue
          CFI R2 SameValue
          CFI R3 SameValue
          CFI R4 SameValue
          CFI R5 SameValue
          CFI R6 SameValue
          CFI R7 SameValue
          CFI V0 SameValue
          CFI V1 SameValue
          CFI V2 SameValue
          CFI V3 SameValue
          CFI V4 SameValue
          CFI V5 SameValue
          CFI V6 SameValue
          CFI V7 SameValue
          CFI V8 SameValue
          CFI V9 SameValue
          CFI V10 SameValue
          CFI V11 SameValue
          CFI V12 SameValue
          CFI V13 SameValue
          CFI V14 SameValue
          CFI V15 SameValue
          CFI PSPH Undefined
          CFI PSPL Undefined
          CFI XSPH Undefined
          CFI XSPL Undefined
          CFI ?RET Concat
          CFI ?BRET_EXT SameValue
          CFI ?RET_HIGH Frame(CFA_SP, 2)
          CFI ?RET_LOW Frame(CFA_SP, 1)
          CFI EndCommon cfiCommon1
        
DHT22_Measure       SYMBOL "DHT22_Measure"
`??DHT22_Measure::?relay` SYMBOL "?relay", DHT22_Measure
HalFlashErase       SYMBOL "HalFlashErase"
`??HalFlashErase::?relay` SYMBOL "?relay", HalFlashErase
UART_String         SYMBOL "UART_String"
`??UART_String::?relay` SYMBOL "?relay", UART_String
ds18b20_get_sensor_temperature SYMBOL "ds18b20_get_sensor_temperature"
`??ds18b20_get_sensor_temperature::?relay` SYMBOL "?relay", ds18b20_get_sensor_temperature
ds18b20_start_conversion SYMBOL "ds18b20_start_conversion"
`??ds18b20_start_conversion::?relay` SYMBOL "?relay", ds18b20_start_conversion
sprintf             SYMBOL "sprintf"
`??sprintf::?relay` SYMBOL "?relay", sprintf
strlen              SYMBOL "strlen"
`??strlen::?relay`  SYMBOL "?relay", strlen
FactoryReset        SYMBOL "FactoryReset"
`??FactoryReset::?relay` SYMBOL "?relay", FactoryReset
Measure_Sensor      SYMBOL "Measure_Sensor"
`??Measure_Sensor::?relay` SYMBOL "?relay", Measure_Sensor
Relais              SYMBOL "Relais"
`??Relais::?relay`  SYMBOL "?relay", Relais

        EXTERN `??DHT22_Measure::?relay`
        FUNCTION `??DHT22_Measure::?relay`,00H
        EXTERN `??HalFlashErase::?relay`
        FUNCTION `??HalFlashErase::?relay`,00H
        EXTERN `??UART_String::?relay`
        FUNCTION `??UART_String::?relay`,00H
        EXTERN `??ds18b20_get_sensor_temperature::?relay`
        FUNCTION `??ds18b20_get_sensor_temperature::?relay`,00H
        EXTERN `??ds18b20_start_conversion::?relay`
        FUNCTION `??ds18b20_start_conversion::?relay`,00H
        EXTERN `??sprintf::?relay`
        FUNCTION `??sprintf::?relay`,00H
        EXTERN `??strlen::?relay`
        FUNCTION `??strlen::?relay`,00H
        EXTERN DHT22_Measure
        FUNCTION DHT22_Measure,0202H
        ARGFRAME ISTACK, 0, STACK
        ARGFRAME PSTACK, 0, STACK
        ARGFRAME XSTACK, 126, STACK
        ARGFRAME IOVERLAY, 0, STATIC
        ARGFRAME DOVERLAY, 0, STATIC
        EXTERN EXT_Temperature
        EXTERN EXT_Temperature_string
        EXTERN EXT_Temperatures
        EXTERN HalFlashErase
        FUNCTION HalFlashErase,0202H
        ARGFRAME ISTACK, 0, STACK
        ARGFRAME PSTACK, 0, STACK
        ARGFRAME XSTACK, 9, STACK
        ARGFRAME IOVERLAY, 0, STATIC
        ARGFRAME DOVERLAY, 0, STATIC
        EXTERN TEMP_SENSOR
        EXTERN UART_String
        FUNCTION UART_String,0202H
        ARGFRAME ISTACK, 0, STACK
        ARGFRAME PSTACK, 0, STACK
        ARGFRAME XSTACK, 126, STACK
        ARGFRAME IOVERLAY, 0, STATIC
        ARGFRAME DOVERLAY, 0, STATIC
        EXTERN ds18b20_FoundROM
        EXTERN ds18b20_current
        EXTERN ds18b20_get_sensor_temperature
        FUNCTION ds18b20_get_sensor_temperature,0202H
        ARGFRAME ISTACK, 0, STACK
        ARGFRAME PSTACK, 0, STACK
        ARGFRAME XSTACK, 126, STACK
        ARGFRAME IOVERLAY, 0, STATIC
        ARGFRAME DOVERLAY, 0, STATIC
        EXTERN ds18b20_numROMs
        EXTERN ds18b20_start_conversion
        FUNCTION ds18b20_start_conversion,0202H
        ARGFRAME ISTACK, 0, STACK
        ARGFRAME PSTACK, 0, STACK
        ARGFRAME XSTACK, 126, STACK
        ARGFRAME IOVERLAY, 0, STATIC
        ARGFRAME DOVERLAY, 0, STATIC
        EXTERN sprintf
        FUNCTION sprintf,0202H
        ARGFRAME ISTACK, 0, STACK
        ARGFRAME PSTACK, 0, STACK
        ARGFRAME XSTACK, 146, STACK
        ARGFRAME IOVERLAY, 0, STATIC
        ARGFRAME DOVERLAY, 0, STATIC
        EXTERN strlen
        FUNCTION strlen,010202H
        ARGFRAME ISTACK, 0, STACK
        ARGFRAME PSTACK, 0, STACK
        ARGFRAME XSTACK, 126, STACK
        ARGFRAME IOVERLAY, 0, STATIC
        ARGFRAME DOVERLAY, 0, STATIC

// D:\Z-Stack Home 1.2.2a.44539\Projects\zstack\HomeAutomation\ZigUP\Source\utils.c
//    1 #include <stdio.h>
//    2 #include <string.h>
//    3 #include "hal_flash.h"

        ASEGN SFR_AN:DATA:NOROOT,0a8H
// union <unnamed> volatile __sfr _A_IEN0
_A_IEN0:
        DATA8
        DS 1

        ASEGN SFR_AN:DATA:NOROOT,0c9H
// unsigned char volatile __sfr WDCTL
WDCTL:
        DATA8
        DS 1
//    4 #include "onboard.h"
//    5 #include "delay.h"
//    6 #include "uart.h"
//    7 #include "global.h"
//    8 #include "utils.h"
//    9 #include "ds18b20.h"
//   10 #include "adc.h"
//   11 #include "dht22.h"
//   12 
//   13 #include "app.h"
//   14 

        RSEG BANKED_CODE:HUGECODE:NOROOT(0)
//   15 void FactoryReset(void)
FactoryReset:
          CFI Block cfiBlock0 Using cfiCommon0
          CFI Function FactoryReset
        CODE
//   16 {
        FUNCALL FactoryReset, UART_String
        LOCFRAME ISTACK, 0, STACK
        LOCFRAME PSTACK, 0, STACK
        LOCFRAME XSTACK, 9, STACK
        LOCFRAME IOVERLAY, 0, STATIC
        LOCFRAME DOVERLAY, 0, STATIC
        ARGFRAME ISTACK, 0, STACK
        ARGFRAME PSTACK, 0, STACK
        ARGFRAME XSTACK, 9, STACK
        ARGFRAME IOVERLAY, 0, STATIC
        ARGFRAME DOVERLAY, 0, STATIC
        FUNCALL FactoryReset, HalFlashErase
        LOCFRAME ISTACK, 0, STACK
        LOCFRAME PSTACK, 0, STACK
        LOCFRAME XSTACK, 9, STACK
        LOCFRAME IOVERLAY, 0, STATIC
        LOCFRAME DOVERLAY, 0, STATIC
        ARGFRAME ISTACK, 0, STACK
        ARGFRAME PSTACK, 0, STACK
        ARGFRAME XSTACK, 9, STACK
        ARGFRAME IOVERLAY, 0, STATIC
        ARGFRAME DOVERLAY, 0, STATIC
        FUNCALL FactoryReset, UART_String
        LOCFRAME ISTACK, 0, STACK
        LOCFRAME PSTACK, 0, STACK
        LOCFRAME XSTACK, 9, STACK
        LOCFRAME IOVERLAY, 0, STATIC
        LOCFRAME DOVERLAY, 0, STATIC
        ARGFRAME ISTACK, 0, STACK
        ARGFRAME PSTACK, 0, STACK
        ARGFRAME XSTACK, 9, STACK
        ARGFRAME IOVERLAY, 0, STATIC
        ARGFRAME DOVERLAY, 0, STATIC
        MOV       A,#-0x9
        LCALL     ?BANKED_ENTER_XDATA
          CFI DPH0 load(1, XDATA, add(CFA_XSP16, literal(-1)))
          CFI DPL0 load(1, XDATA, add(CFA_XSP16, literal(-2)))
          CFI ?BRET_EXT load(1, XDATA, add(CFA_XSP16, literal(-3)))
          CFI ?RET_HIGH load(1, XDATA, add(CFA_XSP16, literal(-4)))
          CFI ?RET_LOW load(1, XDATA, add(CFA_XSP16, literal(-5)))
          CFI R7 load(1, XDATA, add(CFA_XSP16, literal(-6)))
          CFI V0 load(1, XDATA, add(CFA_XSP16, literal(-7)))
          CFI VB load(1, XDATA, add(CFA_XSP16, literal(-8)))
          CFI R6 load(1, XDATA, add(CFA_XSP16, literal(-9)))
          CFI CFA_SP SP+0
          CFI CFA_XSP16 add(XSP16, 9)
        ; Saved register size: 9
        ; Auto size: 0
//   17   UART_String("Performing factory reset...");
        ; Setup parameters for call to function UART_String
        MOV       R2,#`?<Constant "Performing factory re...">` & 0xff
        MOV       R3,#(`?<Constant "Performing factory re...">` >> 8) & 0xff
        LCALL     `??UART_String::?relay`; Banked call to: UART_String
//   18   for (int i = HAL_NV_PAGE_BEG; i <= (HAL_NV_PAGE_BEG + HAL_NV_PAGE_CNT); i++)
        MOV       R6,#0x79
        MOV       R7,#0x0
//   19   {
//   20     HalFlashErase(i);
??FactoryReset_0:
        ; Setup parameters for call to function HalFlashErase
        MOV       A,R6
        MOV       R1,A
        LCALL     `??HalFlashErase::?relay`; Banked call to: HalFlashErase
//   21   }
        INC       R6
        MOV       A,R6
        JNZ       ??FactoryReset_1
        INC       R7
??FactoryReset_1:
        CLR       C
        SUBB      A,#-0x80
        MOV       A,R7
        SUBB      A,#0x0
        MOV       C,0xD0 /* PSW */.2
        XRL       A,PSW
        RLC       A
        JC        ??FactoryReset_0
//   22   
//   23   UART_String("Performing system reset...");
        ; Setup parameters for call to function UART_String
        MOV       R2,#`?<Constant "Performing system res...">` & 0xff
        MOV       R3,#(`?<Constant "Performing system res...">` >> 8) & 0xff
        LCALL     `??UART_String::?relay`; Banked call to: UART_String
//   24   SystemReset();
        CLR       0xa8.7
        CLR       0xa8.7
        MOV       0xc9,#-0x55
        MOV       0xc9,#0x5b
??FactoryReset_2:
        SJMP      ??FactoryReset_2
          CFI EndBlock cfiBlock0
        REQUIRE _A_IEN0
        REQUIRE WDCTL
//   25 }
//   26 

        RSEG BANKED_CODE:HUGECODE:NOROOT(0)
//   27 void Relais(uint8 state)
Relais:
          CFI Block cfiBlock1 Using cfiCommon0
          CFI Function Relais
        CODE
//   28 {
        ; Saved register size: 0
        ; Auto size: 0
//   29   /*
//   30   if (state)	
//   31   {
//   32     sysPwmSet(TWO);
//   33   }
//   34   else
//   35   {
//   36     sysPwmSet(OFF);
//   37   }
//   38   STATE_LIGHT = state;
//   39   */
//   40 }
        LJMP      ?BRET
          CFI EndBlock cfiBlock1
//   41 

        RSEG XDATA_Z:XDATA:NOROOT(0)
        DATA32
//   42 unsigned char dat[4];
dat:
        DS 4
        REQUIRE __INIT_XDATA_Z

        RSEG BANKED_CODE:HUGECODE:NOROOT(0)
//   43 void Measure_Sensor(void)
Measure_Sensor:
          CFI Block cfiBlock2 Using cfiCommon0
          CFI Function Measure_Sensor
        CODE
//   44 {
        FUNCALL Measure_Sensor, DHT22_Measure
        LOCFRAME ISTACK, 0, STACK
        LOCFRAME PSTACK, 0, STACK
        LOCFRAME XSTACK, 126, STACK
        LOCFRAME IOVERLAY, 0, STATIC
        LOCFRAME DOVERLAY, 0, STATIC
        ARGFRAME ISTACK, 0, STACK
        ARGFRAME PSTACK, 0, STACK
        ARGFRAME XSTACK, 126, STACK
        ARGFRAME IOVERLAY, 0, STATIC
        ARGFRAME DOVERLAY, 0, STATIC
        FUNCALL Measure_Sensor, ds18b20_start_conversion
        LOCFRAME ISTACK, 0, STACK
        LOCFRAME PSTACK, 0, STACK
        LOCFRAME XSTACK, 126, STACK
        LOCFRAME IOVERLAY, 0, STATIC
        LOCFRAME DOVERLAY, 0, STATIC
        ARGFRAME ISTACK, 0, STACK
        ARGFRAME PSTACK, 0, STACK
        ARGFRAME XSTACK, 126, STACK
        ARGFRAME IOVERLAY, 0, STATIC
        ARGFRAME DOVERLAY, 0, STATIC
        FUNCALL Measure_Sensor, ds18b20_get_sensor_temperature
        LOCFRAME ISTACK, 0, STACK
        LOCFRAME PSTACK, 0, STACK
        LOCFRAME XSTACK, 126, STACK
        LOCFRAME IOVERLAY, 0, STATIC
        LOCFRAME DOVERLAY, 0, STATIC
        ARGFRAME ISTACK, 0, STACK
        ARGFRAME PSTACK, 0, STACK
        ARGFRAME XSTACK, 126, STACK
        ARGFRAME IOVERLAY, 0, STATIC
        ARGFRAME DOVERLAY, 0, STATIC
        FUNCALL Measure_Sensor, sprintf
        LOCFRAME ISTACK, 0, STACK
        LOCFRAME PSTACK, 0, STACK
        LOCFRAME XSTACK, 146, STACK
        LOCFRAME IOVERLAY, 0, STATIC
        LOCFRAME DOVERLAY, 0, STATIC
        ARGFRAME ISTACK, 0, STACK
        ARGFRAME PSTACK, 0, STACK
        ARGFRAME XSTACK, 146, STACK
        ARGFRAME IOVERLAY, 0, STATIC
        ARGFRAME DOVERLAY, 0, STATIC
        FUNCALL Measure_Sensor, UART_String
        LOCFRAME ISTACK, 0, STACK
        LOCFRAME PSTACK, 0, STACK
        LOCFRAME XSTACK, 126, STACK
        LOCFRAME IOVERLAY, 0, STATIC
        LOCFRAME DOVERLAY, 0, STATIC
        ARGFRAME ISTACK, 0, STACK
        ARGFRAME PSTACK, 0, STACK
        ARGFRAME XSTACK, 126, STACK
        ARGFRAME IOVERLAY, 0, STATIC
        ARGFRAME DOVERLAY, 0, STATIC
        FUNCALL Measure_Sensor, sprintf
        LOCFRAME ISTACK, 0, STACK
        LOCFRAME PSTACK, 0, STACK
        LOCFRAME XSTACK, 146, STACK
        LOCFRAME IOVERLAY, 0, STATIC
        LOCFRAME DOVERLAY, 0, STATIC
        ARGFRAME ISTACK, 0, STACK
        ARGFRAME PSTACK, 0, STACK
        ARGFRAME XSTACK, 146, STACK
        ARGFRAME IOVERLAY, 0, STATIC
        ARGFRAME DOVERLAY, 0, STATIC
        FUNCALL Measure_Sensor, strlen
        LOCFRAME ISTACK, 0, STACK
        LOCFRAME PSTACK, 0, STACK
        LOCFRAME XSTACK, 126, STACK
        LOCFRAME IOVERLAY, 0, STATIC
        LOCFRAME DOVERLAY, 0, STATIC
        ARGFRAME ISTACK, 0, STACK
        ARGFRAME PSTACK, 0, STACK
        ARGFRAME XSTACK, 126, STACK
        ARGFRAME IOVERLAY, 0, STATIC
        ARGFRAME DOVERLAY, 0, STATIC
        REQUIRE ?V0
        REQUIRE ?V1
        REQUIRE ?V2
        REQUIRE ?V3
        REQUIRE ?V4
        REQUIRE ?V5
        REQUIRE ?V6
        REQUIRE ?V7
        REQUIRE ?V8
        REQUIRE ?V9
        REQUIRE ?V10
        REQUIRE ?V11
        REQUIRE ?V12
        REQUIRE ?V13
        REQUIRE ?V14
        REQUIRE ?V15
        MOV       A,#-0x18
        LCALL     ?BANKED_ENTER_XDATA
          CFI DPH0 load(1, XDATA, add(CFA_XSP16, literal(-1)))
          CFI DPL0 load(1, XDATA, add(CFA_XSP16, literal(-2)))
          CFI ?BRET_EXT load(1, XDATA, add(CFA_XSP16, literal(-3)))
          CFI ?RET_HIGH load(1, XDATA, add(CFA_XSP16, literal(-4)))
          CFI ?RET_LOW load(1, XDATA, add(CFA_XSP16, literal(-5)))
          CFI R7 load(1, XDATA, add(CFA_XSP16, literal(-6)))
          CFI V15 load(1, XDATA, add(CFA_XSP16, literal(-7)))
          CFI V14 load(1, XDATA, add(CFA_XSP16, literal(-8)))
          CFI V13 load(1, XDATA, add(CFA_XSP16, literal(-9)))
          CFI V12 load(1, XDATA, add(CFA_XSP16, literal(-10)))
          CFI V11 load(1, XDATA, add(CFA_XSP16, literal(-11)))
          CFI V10 load(1, XDATA, add(CFA_XSP16, literal(-12)))
          CFI V9 load(1, XDATA, add(CFA_XSP16, literal(-13)))
          CFI V8 load(1, XDATA, add(CFA_XSP16, literal(-14)))
          CFI V7 load(1, XDATA, add(CFA_XSP16, literal(-15)))
          CFI V6 load(1, XDATA, add(CFA_XSP16, literal(-16)))
          CFI V5 load(1, XDATA, add(CFA_XSP16, literal(-17)))
          CFI V4 load(1, XDATA, add(CFA_XSP16, literal(-18)))
          CFI V3 load(1, XDATA, add(CFA_XSP16, literal(-19)))
          CFI V2 load(1, XDATA, add(CFA_XSP16, literal(-20)))
          CFI V1 load(1, XDATA, add(CFA_XSP16, literal(-21)))
          CFI V0 load(1, XDATA, add(CFA_XSP16, literal(-22)))
          CFI VB load(1, XDATA, add(CFA_XSP16, literal(-23)))
          CFI R6 load(1, XDATA, add(CFA_XSP16, literal(-24)))
          CFI CFA_SP SP+0
          CFI CFA_XSP16 add(XSP16, 24)
        ; Saved register size: 24
        ; Auto size: 102
        MOV       A,#-0x66
        LCALL     ?ALLOC_XSTACK8
          CFI CFA_XSP16 add(XSP16, 126)
//   45   char buffer[100];
//   46   uint8 i;
//   47   
//   48   // make new measurement depending of autodetected sensor type
//   49   if (TEMP_SENSOR == -1) 
        MOV       DPTR,#TEMP_SENSOR
        MOVX      A,@DPTR
        CPL       A
        JNZ       ??Measure_Sensor_0
//   50     DHT22_Measure();
        ; Setup parameters for call to function DHT22_Measure
        LCALL     `??DHT22_Measure::?relay`; Banked call to: DHT22_Measure
        LJMP      ??Measure_Sensor_1 & 0xFFFF
//   51   else if (TEMP_SENSOR != 0) 
??Measure_Sensor_0:
        MOVX      A,@DPTR
        JNZ       $+5
        LJMP      ??Measure_Sensor_1 & 0xFFFF
//   52   {
//   53     ds18b20_start_conversion();
        ; Setup parameters for call to function ds18b20_start_conversion
        LCALL     `??ds18b20_start_conversion::?relay`; Banked call to: ds18b20_start_conversion
//   54     
//   55     i = ds18b20_current;
        MOV       DPTR,#ds18b20_current
        MOVX      A,@DPTR
        MOV       ?V2,A
//   56     
//   57     EXT_Temperatures[i] = ds18b20_get_sensor_temperature(i);
        ; Setup parameters for call to function ds18b20_get_sensor_temperature
        MOV       R1,A
        LCALL     `??ds18b20_get_sensor_temperature::?relay`; Banked call to: ds18b20_get_sensor_temperature
        MOV       ?V4,R2
        MOV       ?V5,R3
        MOV       ?V6,R4
        MOV       ?V7,R5
        MOV       A,?V2
        MOV       ?V0,A
        MOV       ?V1,#0x0
        MOV       ?V8,A
        MOV       ?V9,?V1
        MOV       A,#0x2
        MOV       R0,#?V8
        LCALL     ?S_SHL
        MOV       A,#EXT_Temperatures & 0xff
        ADD       A,?V8
        MOV       R0,A
        MOV       A,#(EXT_Temperatures >> 8) & 0xff
        ADDC      A,?V9
        MOV       R1,A
        MOV       DPL,?XSP + 0
        MOV       DPH,?XSP + 1
        MOV       A,R0
        MOVX      @DPTR,A
        INC       DPTR
        MOV       A,R1
        MOVX      @DPTR,A
        LCALL     ?Subroutine2 & 0xFFFF
??CrossCallReturnLabel_0:
        MOV       R0,#?V4
        LCALL     ?L_MOV_TO_X
//   58     sprintf(buffer, "%02X%02X%02X%02X%02X%02X%02X%02X: %.2f °C",
//   59             ds18b20_FoundROM[i][7],ds18b20_FoundROM[i][6],ds18b20_FoundROM[i][5],ds18b20_FoundROM[i][4],
//   60             ds18b20_FoundROM[i][3],ds18b20_FoundROM[i][2],ds18b20_FoundROM[i][1],ds18b20_FoundROM[i][0],
//   61             EXT_Temperatures[i]);
        MOV       A,#0x3
        MOV       R0,#?V0
        LCALL     ?S_SHL
        MOV       A,#ds18b20_FoundROM & 0xff
        ADD       A,?V0
        MOV       R6,A
        MOV       A,#(ds18b20_FoundROM >> 8) & 0xff
        ADDC      A,?V1
        MOV       R7,A
        MOV       A,R6
        ADD       A,#0x5
        MOV       ?V14,A
        CLR       A
        ADDC      A,R7
        MOV       ?V15,A
        MOV       A,R6
        ADD       A,#0x4
        MOV       ?V12,A
        CLR       A
        ADDC      A,R7
        MOV       ?V13,A
        MOV       A,R6
        ADD       A,#0x3
        MOV       ?V10,A
        CLR       A
        ADDC      A,R7
        MOV       ?V11,A
        MOV       A,R6
        ADD       A,#0x2
        MOV       ?V8,A
        CLR       A
        ADDC      A,R7
        MOV       ?V9,A
        MOV       DPL,R6
        MOV       DPH,R7
        INC       DPTR
        MOV       ?V0,DPL
        MOV       ?V1,DPH
        ; Setup parameters for call to function sprintf
        MOV       R0,#?V4
        LCALL     ?PUSH_XSTACK_I_FOUR
          CFI CFA_XSP16 add(XSP16, 130)
        MOV       DPL,R6
        MOV       DPH,R7
        MOVX      A,@DPTR
        MOV       ?V4,A
        MOV       ?V5,#0x0
        MOV       R0,#?V4
        LCALL     ?PUSH_XSTACK_I_TWO
          CFI CFA_XSP16 add(XSP16, 132)
        MOV       DPL,?V0
        MOV       DPH,?V1
        LCALL     ??Subroutine4_0 & 0xFFFF
??CrossCallReturnLabel_8:
        LCALL     ?PUSH_XSTACK_I_TWO
          CFI CFA_XSP16 add(XSP16, 134)
        MOV       DPL,?V8
        MOV       DPH,?V9
        LCALL     ??Subroutine4_0 & 0xFFFF
??CrossCallReturnLabel_9:
        LCALL     ?PUSH_XSTACK_I_TWO
          CFI CFA_XSP16 add(XSP16, 136)
        MOV       DPL,?V10
        MOV       DPH,?V11
        LCALL     ??Subroutine4_0 & 0xFFFF
??CrossCallReturnLabel_10:
        LCALL     ?PUSH_XSTACK_I_TWO
          CFI CFA_XSP16 add(XSP16, 138)
        MOV       DPL,?V12
        MOV       DPH,?V13
        LCALL     ??Subroutine4_0 & 0xFFFF
??CrossCallReturnLabel_11:
        LCALL     ?PUSH_XSTACK_I_TWO
          CFI CFA_XSP16 add(XSP16, 140)
        MOV       DPL,?V14
        MOV       DPH,?V15
        LCALL     ??Subroutine4_0 & 0xFFFF
??CrossCallReturnLabel_12:
        LCALL     ?PUSH_XSTACK_I_TWO
          CFI CFA_XSP16 add(XSP16, 142)
        MOV       DPL,R6
        MOV       DPH,R7
        LCALL     ?Subroutine0 & 0xFFFF
??CrossCallReturnLabel_13:
        LCALL     ?PUSH_XSTACK_I_TWO
          CFI CFA_XSP16 add(XSP16, 144)
        MOV       DPL,R6
        MOV       DPH,R7
        INC       DPTR
        LCALL     ?Subroutine0 & 0xFFFF
??CrossCallReturnLabel_14:
        LCALL     ?PUSH_XSTACK_I_TWO
          CFI CFA_XSP16 add(XSP16, 146)
        MOV       R4,#`?<Constant "%02X%02X%02X%02X%02X%...">` & 0xff
        MOV       R5,#(`?<Constant "%02X%02X%02X%02X%02X%...">` >> 8) & 0xff
        MOV       A,#0x16
        LCALL     ?XSTACK_DISP101_8
        LCALL     `??sprintf::?relay`; Banked call to: sprintf
        MOV       A,#0x14
        LCALL     ?DEALLOC_XSTACK8
          CFI CFA_XSP16 add(XSP16, 126)
//   62     if(i==0)
        MOV       A,?V2
        JNZ       ??Measure_Sensor_2
//   63       EXT_Temperature = EXT_Temperatures[0];
        MOV       DPTR,#EXT_Temperatures
        LCALL     ?XLOAD_R0123
        MOV       DPTR,#EXT_Temperature
        LCALL     ?XSTORE_R0123
//   64     UART_String(buffer);
??Measure_Sensor_2:
        ; Setup parameters for call to function UART_String
        MOV       A,#0x2
        LCALL     ?XSTACK_DISP101_8
        LCALL     `??UART_String::?relay`; Banked call to: UART_String
//   65     
//   66     sprintf(EXT_Temperature_string, "\x01%02X%02X%02X%02X%02X%02X%02X%02X:%.2f",
//   67             ds18b20_FoundROM[i][7],ds18b20_FoundROM[i][6],ds18b20_FoundROM[i][5],ds18b20_FoundROM[i][4],
//   68             ds18b20_FoundROM[i][3],ds18b20_FoundROM[i][2],ds18b20_FoundROM[i][1],ds18b20_FoundROM[i][0],
//   69             EXT_Temperatures[i]);
        ; Setup parameters for call to function sprintf
        LCALL     ?Subroutine2 & 0xFFFF
??CrossCallReturnLabel_1:
        LCALL     ?PUSH_XSTACK8_X_FOUR
          CFI CFA_XSP16 add(XSP16, 130)
        MOV       DPL,R6
        MOV       DPH,R7
        MOVX      A,@DPTR
        MOV       ?V2,A
        MOV       ?V3,#0x0
        MOV       R0,#?V2
        LCALL     ?PUSH_XSTACK_I_TWO
          CFI CFA_XSP16 add(XSP16, 132)
        MOV       DPL,?V0
        MOV       DPH,?V1
        MOVX      A,@DPTR
        MOV       ?V0,A
        MOV       ?V1,#0x0
        MOV       R0,#?V0
        LCALL     ?PUSH_XSTACK_I_TWO
          CFI CFA_XSP16 add(XSP16, 134)
        MOV       DPL,?V8
        MOV       DPH,?V9
        LCALL     ??Subroutine3_0 & 0xFFFF
??CrossCallReturnLabel_2:
        LCALL     ?PUSH_XSTACK_I_TWO
          CFI CFA_XSP16 add(XSP16, 136)
        MOV       DPL,?V10
        MOV       DPH,?V11
        LCALL     ??Subroutine3_0 & 0xFFFF
??CrossCallReturnLabel_3:
        LCALL     ?PUSH_XSTACK_I_TWO
          CFI CFA_XSP16 add(XSP16, 138)
        MOV       DPL,?V12
        MOV       DPH,?V13
        LCALL     ??Subroutine3_0 & 0xFFFF
??CrossCallReturnLabel_4:
        LCALL     ?PUSH_XSTACK_I_TWO
          CFI CFA_XSP16 add(XSP16, 140)
        MOV       DPL,?V14
        MOV       DPH,?V15
        LCALL     ??Subroutine3_0 & 0xFFFF
??CrossCallReturnLabel_5:
        LCALL     ?PUSH_XSTACK_I_TWO
          CFI CFA_XSP16 add(XSP16, 142)
        MOV       DPL,R6
        MOV       DPH,R7
        LCALL     ?Subroutine1 & 0xFFFF
??CrossCallReturnLabel_6:
        LCALL     ?PUSH_XSTACK_I_TWO
          CFI CFA_XSP16 add(XSP16, 144)
        MOV       DPL,R6
        MOV       DPH,R7
        INC       DPTR
        LCALL     ?Subroutine1 & 0xFFFF
??CrossCallReturnLabel_7:
        LCALL     ?PUSH_XSTACK_I_TWO
          CFI CFA_XSP16 add(XSP16, 146)
        MOV       R4,#`?<Constant "\\001%02X%02X%02X%02X%02X...">` & 0xff
        MOV       R5,#(`?<Constant "\\001%02X%02X%02X%02X%02X...">` >> 8) & 0xff
        MOV       R2,#EXT_Temperature_string & 0xff
        MOV       R3,#(EXT_Temperature_string >> 8) & 0xff
        LCALL     `??sprintf::?relay`; Banked call to: sprintf
        MOV       A,#0x14
        LCALL     ?DEALLOC_XSTACK8
          CFI CFA_XSP16 add(XSP16, 126)
//   70     EXT_Temperature_string[0] = strlen(EXT_Temperature_string) - 1;
        ; Setup parameters for call to function strlen
        MOV       R2,#EXT_Temperature_string & 0xff
        MOV       R3,#(EXT_Temperature_string >> 8) & 0xff
        LCALL     `??strlen::?relay`; Banked call to: strlen
        MOV       A,R2
        DEC       A
        MOV       DPTR,#EXT_Temperature_string
        MOVX      @DPTR,A
//   71     
//   72     
//   73     ds18b20_current++;
        MOV       DPTR,#ds18b20_current
        MOVX      A,@DPTR
        INC       A
        MOVX      @DPTR,A
//   74     
//   75     if(ds18b20_current >= ds18b20_numROMs)
        MOV       DPTR,#ds18b20_numROMs
        MOVX      A,@DPTR
        MOV       R0,A
        MOV       DPTR,#ds18b20_current
        MOVX      A,@DPTR
        CLR       C
        SUBB      A,R0
        JC        ??Measure_Sensor_1
//   76       ds18b20_current = 0;
        CLR       A
        MOVX      @DPTR,A
//   77     
//   78   }
//   79 }
??Measure_Sensor_1:
        MOV       A,#0x66
        LCALL     ?DEALLOC_XSTACK8
          CFI CFA_XSP16 add(XSP16, 24)
        MOV       R7,#0x10
        LJMP      ?BANKED_LEAVE_XDATA
          CFI EndBlock cfiBlock2

        RSEG BANKED_CODE:HUGECODE:NOROOT(0)
?Subroutine2:
          CFI Block cfiCond3 Using cfiCommon0
          CFI Function Measure_Sensor
          CFI Conditional ??CrossCallReturnLabel_0
          CFI R6 load(1, XDATA, add(CFA_XSP16, literal(-24)))
          CFI VB load(1, XDATA, add(CFA_XSP16, literal(-23)))
          CFI V0 load(1, XDATA, add(CFA_XSP16, literal(-22)))
          CFI V1 load(1, XDATA, add(CFA_XSP16, literal(-21)))
          CFI V2 load(1, XDATA, add(CFA_XSP16, literal(-20)))
          CFI V3 load(1, XDATA, add(CFA_XSP16, literal(-19)))
          CFI V4 load(1, XDATA, add(CFA_XSP16, literal(-18)))
          CFI V5 load(1, XDATA, add(CFA_XSP16, literal(-17)))
          CFI V6 load(1, XDATA, add(CFA_XSP16, literal(-16)))
          CFI V7 load(1, XDATA, add(CFA_XSP16, literal(-15)))
          CFI V8 load(1, XDATA, add(CFA_XSP16, literal(-14)))
          CFI V9 load(1, XDATA, add(CFA_XSP16, literal(-13)))
          CFI V10 load(1, XDATA, add(CFA_XSP16, literal(-12)))
          CFI V11 load(1, XDATA, add(CFA_XSP16, literal(-11)))
          CFI V12 load(1, XDATA, add(CFA_XSP16, literal(-10)))
          CFI V13 load(1, XDATA, add(CFA_XSP16, literal(-9)))
          CFI V14 load(1, XDATA, add(CFA_XSP16, literal(-8)))
          CFI V15 load(1, XDATA, add(CFA_XSP16, literal(-7)))
          CFI R7 load(1, XDATA, add(CFA_XSP16, literal(-6)))
          CFI ?RET_LOW load(1, XDATA, add(CFA_XSP16, literal(-5)))
          CFI ?RET_HIGH load(1, XDATA, add(CFA_XSP16, literal(-4)))
          CFI ?BRET_EXT load(1, XDATA, add(CFA_XSP16, literal(-3)))
          CFI DPL0 load(1, XDATA, add(CFA_XSP16, literal(-2)))
          CFI DPH0 load(1, XDATA, add(CFA_XSP16, literal(-1)))
          CFI CFA_SP SP+-2
          CFI CFA_XSP16 add(XSP16, 126)
          CFI Block cfiCond4 Using cfiCommon0
          CFI (cfiCond4) Function Measure_Sensor
          CFI (cfiCond4) Conditional ??CrossCallReturnLabel_1
          CFI (cfiCond4) R6 load(1, XDATA, add(CFA_XSP16, literal(-24)))
          CFI (cfiCond4) VB load(1, XDATA, add(CFA_XSP16, literal(-23)))
          CFI (cfiCond4) V0 load(1, XDATA, add(CFA_XSP16, literal(-22)))
          CFI (cfiCond4) V1 load(1, XDATA, add(CFA_XSP16, literal(-21)))
          CFI (cfiCond4) V2 load(1, XDATA, add(CFA_XSP16, literal(-20)))
          CFI (cfiCond4) V3 load(1, XDATA, add(CFA_XSP16, literal(-19)))
          CFI (cfiCond4) V4 load(1, XDATA, add(CFA_XSP16, literal(-18)))
          CFI (cfiCond4) V5 load(1, XDATA, add(CFA_XSP16, literal(-17)))
          CFI (cfiCond4) V6 load(1, XDATA, add(CFA_XSP16, literal(-16)))
          CFI (cfiCond4) V7 load(1, XDATA, add(CFA_XSP16, literal(-15)))
          CFI (cfiCond4) V8 load(1, XDATA, add(CFA_XSP16, literal(-14)))
          CFI (cfiCond4) V9 load(1, XDATA, add(CFA_XSP16, literal(-13)))
          CFI (cfiCond4) V10 load(1, XDATA, add(CFA_XSP16, literal(-12)))
          CFI (cfiCond4) V11 load(1, XDATA, add(CFA_XSP16, literal(-11)))
          CFI (cfiCond4) V12 load(1, XDATA, add(CFA_XSP16, literal(-10)))
          CFI (cfiCond4) V13 load(1, XDATA, add(CFA_XSP16, literal(-9)))
          CFI (cfiCond4) V14 load(1, XDATA, add(CFA_XSP16, literal(-8)))
          CFI (cfiCond4) V15 load(1, XDATA, add(CFA_XSP16, literal(-7)))
          CFI (cfiCond4) R7 load(1, XDATA, add(CFA_XSP16, literal(-6)))
          CFI (cfiCond4) ?RET_LOW load(1, XDATA, add(CFA_XSP16, literal(-5)))
          CFI (cfiCond4) ?RET_HIGH load(1, XDATA, add(CFA_XSP16, literal(-4)))
          CFI (cfiCond4) ?BRET_EXT load(1, XDATA, add(CFA_XSP16, literal(-3)))
          CFI (cfiCond4) DPL0 load(1, XDATA, add(CFA_XSP16, literal(-2)))
          CFI (cfiCond4) DPH0 load(1, XDATA, add(CFA_XSP16, literal(-1)))
          CFI (cfiCond4) CFA_SP SP+-2
          CFI (cfiCond4) CFA_XSP16 add(XSP16, 126)
          CFI Block cfiPicker5 Using cfiCommon1
          CFI (cfiPicker5) NoFunction
          CFI (cfiPicker5) Picker
        MOV       DPL,?XSP + 0
        MOV       DPH,?XSP + 1
        MOVX      A,@DPTR
        MOV       R0,A
        INC       DPTR
        MOVX      A,@DPTR
        MOV       DPH,A
        MOV       DPL,R0
        RET
          CFI EndBlock cfiCond3
          CFI EndBlock cfiCond4
          CFI EndBlock cfiPicker5

        RSEG BANKED_CODE:HUGECODE:NOROOT(0)
?Subroutine1:
          CFI Block cfiCond6 Using cfiCommon0
          CFI Function Measure_Sensor
          CFI Conditional ??CrossCallReturnLabel_6
          CFI R6 load(1, XDATA, add(CFA_XSP16, literal(-24)))
          CFI VB load(1, XDATA, add(CFA_XSP16, literal(-23)))
          CFI V0 load(1, XDATA, add(CFA_XSP16, literal(-22)))
          CFI V1 load(1, XDATA, add(CFA_XSP16, literal(-21)))
          CFI V2 load(1, XDATA, add(CFA_XSP16, literal(-20)))
          CFI V3 load(1, XDATA, add(CFA_XSP16, literal(-19)))
          CFI V4 load(1, XDATA, add(CFA_XSP16, literal(-18)))
          CFI V5 load(1, XDATA, add(CFA_XSP16, literal(-17)))
          CFI V6 load(1, XDATA, add(CFA_XSP16, literal(-16)))
          CFI V7 load(1, XDATA, add(CFA_XSP16, literal(-15)))
          CFI V8 load(1, XDATA, add(CFA_XSP16, literal(-14)))
          CFI V9 load(1, XDATA, add(CFA_XSP16, literal(-13)))
          CFI V10 load(1, XDATA, add(CFA_XSP16, literal(-12)))
          CFI V11 load(1, XDATA, add(CFA_XSP16, literal(-11)))
          CFI V12 load(1, XDATA, add(CFA_XSP16, literal(-10)))
          CFI V13 load(1, XDATA, add(CFA_XSP16, literal(-9)))
          CFI V14 load(1, XDATA, add(CFA_XSP16, literal(-8)))
          CFI V15 load(1, XDATA, add(CFA_XSP16, literal(-7)))
          CFI R7 load(1, XDATA, add(CFA_XSP16, literal(-6)))
          CFI ?RET_LOW load(1, XDATA, add(CFA_XSP16, literal(-5)))
          CFI ?RET_HIGH load(1, XDATA, add(CFA_XSP16, literal(-4)))
          CFI ?BRET_EXT load(1, XDATA, add(CFA_XSP16, literal(-3)))
          CFI DPL0 load(1, XDATA, add(CFA_XSP16, literal(-2)))
          CFI DPH0 load(1, XDATA, add(CFA_XSP16, literal(-1)))
          CFI CFA_SP SP+-2
          CFI CFA_XSP16 add(XSP16, 142)
          CFI Block cfiCond7 Using cfiCommon0
          CFI (cfiCond7) Function Measure_Sensor
          CFI (cfiCond7) Conditional ??CrossCallReturnLabel_7
          CFI (cfiCond7) R6 load(1, XDATA, add(CFA_XSP16, literal(-24)))
          CFI (cfiCond7) VB load(1, XDATA, add(CFA_XSP16, literal(-23)))
          CFI (cfiCond7) V0 load(1, XDATA, add(CFA_XSP16, literal(-22)))
          CFI (cfiCond7) V1 load(1, XDATA, add(CFA_XSP16, literal(-21)))
          CFI (cfiCond7) V2 load(1, XDATA, add(CFA_XSP16, literal(-20)))
          CFI (cfiCond7) V3 load(1, XDATA, add(CFA_XSP16, literal(-19)))
          CFI (cfiCond7) V4 load(1, XDATA, add(CFA_XSP16, literal(-18)))
          CFI (cfiCond7) V5 load(1, XDATA, add(CFA_XSP16, literal(-17)))
          CFI (cfiCond7) V6 load(1, XDATA, add(CFA_XSP16, literal(-16)))
          CFI (cfiCond7) V7 load(1, XDATA, add(CFA_XSP16, literal(-15)))
          CFI (cfiCond7) V8 load(1, XDATA, add(CFA_XSP16, literal(-14)))
          CFI (cfiCond7) V9 load(1, XDATA, add(CFA_XSP16, literal(-13)))
          CFI (cfiCond7) V10 load(1, XDATA, add(CFA_XSP16, literal(-12)))
          CFI (cfiCond7) V11 load(1, XDATA, add(CFA_XSP16, literal(-11)))
          CFI (cfiCond7) V12 load(1, XDATA, add(CFA_XSP16, literal(-10)))
          CFI (cfiCond7) V13 load(1, XDATA, add(CFA_XSP16, literal(-9)))
          CFI (cfiCond7) V14 load(1, XDATA, add(CFA_XSP16, literal(-8)))
          CFI (cfiCond7) V15 load(1, XDATA, add(CFA_XSP16, literal(-7)))
          CFI (cfiCond7) R7 load(1, XDATA, add(CFA_XSP16, literal(-6)))
          CFI (cfiCond7) ?RET_LOW load(1, XDATA, add(CFA_XSP16, literal(-5)))
          CFI (cfiCond7) ?RET_HIGH load(1, XDATA, add(CFA_XSP16, literal(-4)))
          CFI (cfiCond7) ?BRET_EXT load(1, XDATA, add(CFA_XSP16, literal(-3)))
          CFI (cfiCond7) DPL0 load(1, XDATA, add(CFA_XSP16, literal(-2)))
          CFI (cfiCond7) DPH0 load(1, XDATA, add(CFA_XSP16, literal(-1)))
          CFI (cfiCond7) CFA_SP SP+-2
          CFI (cfiCond7) CFA_XSP16 add(XSP16, 144)
          CFI Block cfiPicker8 Using cfiCommon1
          CFI (cfiPicker8) NoFunction
          CFI (cfiPicker8) Picker
        INC       DPTR
        INC       DPTR
        INC       DPTR
        INC       DPTR
        INC       DPTR
        INC       DPTR
          CFI EndBlock cfiCond6
          CFI EndBlock cfiCond7
          CFI EndBlock cfiPicker8
        REQUIRE ??Subroutine3_0
        ; // Fall through to label ??Subroutine3_0

        RSEG BANKED_CODE:HUGECODE:NOROOT(0)
??Subroutine3_0:
          CFI Block cfiCond9 Using cfiCommon0
          CFI Function Measure_Sensor
          CFI Conditional ??CrossCallReturnLabel_2
          CFI R6 load(1, XDATA, add(CFA_XSP16, literal(-24)))
          CFI VB load(1, XDATA, add(CFA_XSP16, literal(-23)))
          CFI V0 load(1, XDATA, add(CFA_XSP16, literal(-22)))
          CFI V1 load(1, XDATA, add(CFA_XSP16, literal(-21)))
          CFI V2 load(1, XDATA, add(CFA_XSP16, literal(-20)))
          CFI V3 load(1, XDATA, add(CFA_XSP16, literal(-19)))
          CFI V4 load(1, XDATA, add(CFA_XSP16, literal(-18)))
          CFI V5 load(1, XDATA, add(CFA_XSP16, literal(-17)))
          CFI V6 load(1, XDATA, add(CFA_XSP16, literal(-16)))
          CFI V7 load(1, XDATA, add(CFA_XSP16, literal(-15)))
          CFI V8 load(1, XDATA, add(CFA_XSP16, literal(-14)))
          CFI V9 load(1, XDATA, add(CFA_XSP16, literal(-13)))
          CFI V10 load(1, XDATA, add(CFA_XSP16, literal(-12)))
          CFI V11 load(1, XDATA, add(CFA_XSP16, literal(-11)))
          CFI V12 load(1, XDATA, add(CFA_XSP16, literal(-10)))
          CFI V13 load(1, XDATA, add(CFA_XSP16, literal(-9)))
          CFI V14 load(1, XDATA, add(CFA_XSP16, literal(-8)))
          CFI V15 load(1, XDATA, add(CFA_XSP16, literal(-7)))
          CFI R7 load(1, XDATA, add(CFA_XSP16, literal(-6)))
          CFI ?RET_LOW load(1, XDATA, add(CFA_XSP16, literal(-5)))
          CFI ?RET_HIGH load(1, XDATA, add(CFA_XSP16, literal(-4)))
          CFI ?BRET_EXT load(1, XDATA, add(CFA_XSP16, literal(-3)))
          CFI DPL0 load(1, XDATA, add(CFA_XSP16, literal(-2)))
          CFI DPH0 load(1, XDATA, add(CFA_XSP16, literal(-1)))
          CFI CFA_SP SP+-2
          CFI CFA_XSP16 add(XSP16, 134)
          CFI Block cfiCond10 Using cfiCommon0
          CFI (cfiCond10) Function Measure_Sensor
          CFI (cfiCond10) Conditional ??CrossCallReturnLabel_3
          CFI (cfiCond10) R6 load(1, XDATA, add(CFA_XSP16, literal(-24)))
          CFI (cfiCond10) VB load(1, XDATA, add(CFA_XSP16, literal(-23)))
          CFI (cfiCond10) V0 load(1, XDATA, add(CFA_XSP16, literal(-22)))
          CFI (cfiCond10) V1 load(1, XDATA, add(CFA_XSP16, literal(-21)))
          CFI (cfiCond10) V2 load(1, XDATA, add(CFA_XSP16, literal(-20)))
          CFI (cfiCond10) V3 load(1, XDATA, add(CFA_XSP16, literal(-19)))
          CFI (cfiCond10) V4 load(1, XDATA, add(CFA_XSP16, literal(-18)))
          CFI (cfiCond10) V5 load(1, XDATA, add(CFA_XSP16, literal(-17)))
          CFI (cfiCond10) V6 load(1, XDATA, add(CFA_XSP16, literal(-16)))
          CFI (cfiCond10) V7 load(1, XDATA, add(CFA_XSP16, literal(-15)))
          CFI (cfiCond10) V8 load(1, XDATA, add(CFA_XSP16, literal(-14)))
          CFI (cfiCond10) V9 load(1, XDATA, add(CFA_XSP16, literal(-13)))
          CFI (cfiCond10) V10 load(1, XDATA, add(CFA_XSP16, literal(-12)))
          CFI (cfiCond10) V11 load(1, XDATA, add(CFA_XSP16, literal(-11)))
          CFI (cfiCond10) V12 load(1, XDATA, add(CFA_XSP16, literal(-10)))
          CFI (cfiCond10) V13 load(1, XDATA, add(CFA_XSP16, literal(-9)))
          CFI (cfiCond10) V14 load(1, XDATA, add(CFA_XSP16, literal(-8)))
          CFI (cfiCond10) V15 load(1, XDATA, add(CFA_XSP16, literal(-7)))
          CFI (cfiCond10) R7 load(1, XDATA, add(CFA_XSP16, literal(-6)))
          CFI (cfiCond10) ?RET_LOW load(1, XDATA, add(CFA_XSP16, literal(-5)))
          CFI (cfiCond10) ?RET_HIGH load(1, XDATA, add(CFA_XSP16, literal(-4)))
          CFI (cfiCond10) ?BRET_EXT load(1, XDATA, add(CFA_XSP16, literal(-3)))
          CFI (cfiCond10) DPL0 load(1, XDATA, add(CFA_XSP16, literal(-2)))
          CFI (cfiCond10) DPH0 load(1, XDATA, add(CFA_XSP16, literal(-1)))
          CFI (cfiCond10) CFA_SP SP+-2
          CFI (cfiCond10) CFA_XSP16 add(XSP16, 136)
          CFI Block cfiCond11 Using cfiCommon0
          CFI (cfiCond11) Function Measure_Sensor
          CFI (cfiCond11) Conditional ??CrossCallReturnLabel_4
          CFI (cfiCond11) R6 load(1, XDATA, add(CFA_XSP16, literal(-24)))
          CFI (cfiCond11) VB load(1, XDATA, add(CFA_XSP16, literal(-23)))
          CFI (cfiCond11) V0 load(1, XDATA, add(CFA_XSP16, literal(-22)))
          CFI (cfiCond11) V1 load(1, XDATA, add(CFA_XSP16, literal(-21)))
          CFI (cfiCond11) V2 load(1, XDATA, add(CFA_XSP16, literal(-20)))
          CFI (cfiCond11) V3 load(1, XDATA, add(CFA_XSP16, literal(-19)))
          CFI (cfiCond11) V4 load(1, XDATA, add(CFA_XSP16, literal(-18)))
          CFI (cfiCond11) V5 load(1, XDATA, add(CFA_XSP16, literal(-17)))
          CFI (cfiCond11) V6 load(1, XDATA, add(CFA_XSP16, literal(-16)))
          CFI (cfiCond11) V7 load(1, XDATA, add(CFA_XSP16, literal(-15)))
          CFI (cfiCond11) V8 load(1, XDATA, add(CFA_XSP16, literal(-14)))
          CFI (cfiCond11) V9 load(1, XDATA, add(CFA_XSP16, literal(-13)))
          CFI (cfiCond11) V10 load(1, XDATA, add(CFA_XSP16, literal(-12)))
          CFI (cfiCond11) V11 load(1, XDATA, add(CFA_XSP16, literal(-11)))
          CFI (cfiCond11) V12 load(1, XDATA, add(CFA_XSP16, literal(-10)))
          CFI (cfiCond11) V13 load(1, XDATA, add(CFA_XSP16, literal(-9)))
          CFI (cfiCond11) V14 load(1, XDATA, add(CFA_XSP16, literal(-8)))
          CFI (cfiCond11) V15 load(1, XDATA, add(CFA_XSP16, literal(-7)))
          CFI (cfiCond11) R7 load(1, XDATA, add(CFA_XSP16, literal(-6)))
          CFI (cfiCond11) ?RET_LOW load(1, XDATA, add(CFA_XSP16, literal(-5)))
          CFI (cfiCond11) ?RET_HIGH load(1, XDATA, add(CFA_XSP16, literal(-4)))
          CFI (cfiCond11) ?BRET_EXT load(1, XDATA, add(CFA_XSP16, literal(-3)))
          CFI (cfiCond11) DPL0 load(1, XDATA, add(CFA_XSP16, literal(-2)))
          CFI (cfiCond11) DPH0 load(1, XDATA, add(CFA_XSP16, literal(-1)))
          CFI (cfiCond11) CFA_SP SP+-2
          CFI (cfiCond11) CFA_XSP16 add(XSP16, 138)
          CFI Block cfiCond12 Using cfiCommon0
          CFI (cfiCond12) Function Measure_Sensor
          CFI (cfiCond12) Conditional ??CrossCallReturnLabel_5
          CFI (cfiCond12) R6 load(1, XDATA, add(CFA_XSP16, literal(-24)))
          CFI (cfiCond12) VB load(1, XDATA, add(CFA_XSP16, literal(-23)))
          CFI (cfiCond12) V0 load(1, XDATA, add(CFA_XSP16, literal(-22)))
          CFI (cfiCond12) V1 load(1, XDATA, add(CFA_XSP16, literal(-21)))
          CFI (cfiCond12) V2 load(1, XDATA, add(CFA_XSP16, literal(-20)))
          CFI (cfiCond12) V3 load(1, XDATA, add(CFA_XSP16, literal(-19)))
          CFI (cfiCond12) V4 load(1, XDATA, add(CFA_XSP16, literal(-18)))
          CFI (cfiCond12) V5 load(1, XDATA, add(CFA_XSP16, literal(-17)))
          CFI (cfiCond12) V6 load(1, XDATA, add(CFA_XSP16, literal(-16)))
          CFI (cfiCond12) V7 load(1, XDATA, add(CFA_XSP16, literal(-15)))
          CFI (cfiCond12) V8 load(1, XDATA, add(CFA_XSP16, literal(-14)))
          CFI (cfiCond12) V9 load(1, XDATA, add(CFA_XSP16, literal(-13)))
          CFI (cfiCond12) V10 load(1, XDATA, add(CFA_XSP16, literal(-12)))
          CFI (cfiCond12) V11 load(1, XDATA, add(CFA_XSP16, literal(-11)))
          CFI (cfiCond12) V12 load(1, XDATA, add(CFA_XSP16, literal(-10)))
          CFI (cfiCond12) V13 load(1, XDATA, add(CFA_XSP16, literal(-9)))
          CFI (cfiCond12) V14 load(1, XDATA, add(CFA_XSP16, literal(-8)))
          CFI (cfiCond12) V15 load(1, XDATA, add(CFA_XSP16, literal(-7)))
          CFI (cfiCond12) R7 load(1, XDATA, add(CFA_XSP16, literal(-6)))
          CFI (cfiCond12) ?RET_LOW load(1, XDATA, add(CFA_XSP16, literal(-5)))
          CFI (cfiCond12) ?RET_HIGH load(1, XDATA, add(CFA_XSP16, literal(-4)))
          CFI (cfiCond12) ?BRET_EXT load(1, XDATA, add(CFA_XSP16, literal(-3)))
          CFI (cfiCond12) DPL0 load(1, XDATA, add(CFA_XSP16, literal(-2)))
          CFI (cfiCond12) DPH0 load(1, XDATA, add(CFA_XSP16, literal(-1)))
          CFI (cfiCond12) CFA_SP SP+-2
          CFI (cfiCond12) CFA_XSP16 add(XSP16, 140)
          CFI Block cfiCond13 Using cfiCommon0
          CFI (cfiCond13) Function Measure_Sensor
          CFI (cfiCond13) Conditional ??CrossCallReturnLabel_6
          CFI (cfiCond13) R6 load(1, XDATA, add(CFA_XSP16, literal(-24)))
          CFI (cfiCond13) VB load(1, XDATA, add(CFA_XSP16, literal(-23)))
          CFI (cfiCond13) V0 load(1, XDATA, add(CFA_XSP16, literal(-22)))
          CFI (cfiCond13) V1 load(1, XDATA, add(CFA_XSP16, literal(-21)))
          CFI (cfiCond13) V2 load(1, XDATA, add(CFA_XSP16, literal(-20)))
          CFI (cfiCond13) V3 load(1, XDATA, add(CFA_XSP16, literal(-19)))
          CFI (cfiCond13) V4 load(1, XDATA, add(CFA_XSP16, literal(-18)))
          CFI (cfiCond13) V5 load(1, XDATA, add(CFA_XSP16, literal(-17)))
          CFI (cfiCond13) V6 load(1, XDATA, add(CFA_XSP16, literal(-16)))
          CFI (cfiCond13) V7 load(1, XDATA, add(CFA_XSP16, literal(-15)))
          CFI (cfiCond13) V8 load(1, XDATA, add(CFA_XSP16, literal(-14)))
          CFI (cfiCond13) V9 load(1, XDATA, add(CFA_XSP16, literal(-13)))
          CFI (cfiCond13) V10 load(1, XDATA, add(CFA_XSP16, literal(-12)))
          CFI (cfiCond13) V11 load(1, XDATA, add(CFA_XSP16, literal(-11)))
          CFI (cfiCond13) V12 load(1, XDATA, add(CFA_XSP16, literal(-10)))
          CFI (cfiCond13) V13 load(1, XDATA, add(CFA_XSP16, literal(-9)))
          CFI (cfiCond13) V14 load(1, XDATA, add(CFA_XSP16, literal(-8)))
          CFI (cfiCond13) V15 load(1, XDATA, add(CFA_XSP16, literal(-7)))
          CFI (cfiCond13) R7 load(1, XDATA, add(CFA_XSP16, literal(-6)))
          CFI (cfiCond13) ?RET_LOW load(1, XDATA, add(CFA_XSP16, literal(-5)))
          CFI (cfiCond13) ?RET_HIGH load(1, XDATA, add(CFA_XSP16, literal(-4)))
          CFI (cfiCond13) ?BRET_EXT load(1, XDATA, add(CFA_XSP16, literal(-3)))
          CFI (cfiCond13) DPL0 load(1, XDATA, add(CFA_XSP16, literal(-2)))
          CFI (cfiCond13) DPH0 load(1, XDATA, add(CFA_XSP16, literal(-1)))
          CFI (cfiCond13) CFA_SP SP+-2
          CFI (cfiCond13) CFA_XSP16 add(XSP16, 142)
          CFI Block cfiCond14 Using cfiCommon0
          CFI (cfiCond14) Function Measure_Sensor
          CFI (cfiCond14) Conditional ??CrossCallReturnLabel_7
          CFI (cfiCond14) R6 load(1, XDATA, add(CFA_XSP16, literal(-24)))
          CFI (cfiCond14) VB load(1, XDATA, add(CFA_XSP16, literal(-23)))
          CFI (cfiCond14) V0 load(1, XDATA, add(CFA_XSP16, literal(-22)))
          CFI (cfiCond14) V1 load(1, XDATA, add(CFA_XSP16, literal(-21)))
          CFI (cfiCond14) V2 load(1, XDATA, add(CFA_XSP16, literal(-20)))
          CFI (cfiCond14) V3 load(1, XDATA, add(CFA_XSP16, literal(-19)))
          CFI (cfiCond14) V4 load(1, XDATA, add(CFA_XSP16, literal(-18)))
          CFI (cfiCond14) V5 load(1, XDATA, add(CFA_XSP16, literal(-17)))
          CFI (cfiCond14) V6 load(1, XDATA, add(CFA_XSP16, literal(-16)))
          CFI (cfiCond14) V7 load(1, XDATA, add(CFA_XSP16, literal(-15)))
          CFI (cfiCond14) V8 load(1, XDATA, add(CFA_XSP16, literal(-14)))
          CFI (cfiCond14) V9 load(1, XDATA, add(CFA_XSP16, literal(-13)))
          CFI (cfiCond14) V10 load(1, XDATA, add(CFA_XSP16, literal(-12)))
          CFI (cfiCond14) V11 load(1, XDATA, add(CFA_XSP16, literal(-11)))
          CFI (cfiCond14) V12 load(1, XDATA, add(CFA_XSP16, literal(-10)))
          CFI (cfiCond14) V13 load(1, XDATA, add(CFA_XSP16, literal(-9)))
          CFI (cfiCond14) V14 load(1, XDATA, add(CFA_XSP16, literal(-8)))
          CFI (cfiCond14) V15 load(1, XDATA, add(CFA_XSP16, literal(-7)))
          CFI (cfiCond14) R7 load(1, XDATA, add(CFA_XSP16, literal(-6)))
          CFI (cfiCond14) ?RET_LOW load(1, XDATA, add(CFA_XSP16, literal(-5)))
          CFI (cfiCond14) ?RET_HIGH load(1, XDATA, add(CFA_XSP16, literal(-4)))
          CFI (cfiCond14) ?BRET_EXT load(1, XDATA, add(CFA_XSP16, literal(-3)))
          CFI (cfiCond14) DPL0 load(1, XDATA, add(CFA_XSP16, literal(-2)))
          CFI (cfiCond14) DPH0 load(1, XDATA, add(CFA_XSP16, literal(-1)))
          CFI (cfiCond14) CFA_SP SP+-2
          CFI (cfiCond14) CFA_XSP16 add(XSP16, 144)
          CFI Block cfiPicker15 Using cfiCommon1
          CFI (cfiPicker15) NoFunction
          CFI (cfiPicker15) Picker
        MOVX      A,@DPTR
        MOV       ?V0,A
        MOV       R0,#?V0
        RET
          CFI EndBlock cfiCond9
          CFI EndBlock cfiCond10
          CFI EndBlock cfiCond11
          CFI EndBlock cfiCond12
          CFI EndBlock cfiCond13
          CFI EndBlock cfiCond14
          CFI EndBlock cfiPicker15

        RSEG BANKED_CODE:HUGECODE:NOROOT(0)
?Subroutine0:
          CFI Block cfiCond16 Using cfiCommon0
          CFI Function Measure_Sensor
          CFI Conditional ??CrossCallReturnLabel_13
          CFI R6 load(1, XDATA, add(CFA_XSP16, literal(-24)))
          CFI VB load(1, XDATA, add(CFA_XSP16, literal(-23)))
          CFI V0 load(1, XDATA, add(CFA_XSP16, literal(-22)))
          CFI V1 load(1, XDATA, add(CFA_XSP16, literal(-21)))
          CFI V2 load(1, XDATA, add(CFA_XSP16, literal(-20)))
          CFI V3 load(1, XDATA, add(CFA_XSP16, literal(-19)))
          CFI V4 load(1, XDATA, add(CFA_XSP16, literal(-18)))
          CFI V5 load(1, XDATA, add(CFA_XSP16, literal(-17)))
          CFI V6 load(1, XDATA, add(CFA_XSP16, literal(-16)))
          CFI V7 load(1, XDATA, add(CFA_XSP16, literal(-15)))
          CFI V8 load(1, XDATA, add(CFA_XSP16, literal(-14)))
          CFI V9 load(1, XDATA, add(CFA_XSP16, literal(-13)))
          CFI V10 load(1, XDATA, add(CFA_XSP16, literal(-12)))
          CFI V11 load(1, XDATA, add(CFA_XSP16, literal(-11)))
          CFI V12 load(1, XDATA, add(CFA_XSP16, literal(-10)))
          CFI V13 load(1, XDATA, add(CFA_XSP16, literal(-9)))
          CFI V14 load(1, XDATA, add(CFA_XSP16, literal(-8)))
          CFI V15 load(1, XDATA, add(CFA_XSP16, literal(-7)))
          CFI R7 load(1, XDATA, add(CFA_XSP16, literal(-6)))
          CFI ?RET_LOW load(1, XDATA, add(CFA_XSP16, literal(-5)))
          CFI ?RET_HIGH load(1, XDATA, add(CFA_XSP16, literal(-4)))
          CFI ?BRET_EXT load(1, XDATA, add(CFA_XSP16, literal(-3)))
          CFI DPL0 load(1, XDATA, add(CFA_XSP16, literal(-2)))
          CFI DPH0 load(1, XDATA, add(CFA_XSP16, literal(-1)))
          CFI CFA_SP SP+-2
          CFI CFA_XSP16 add(XSP16, 142)
          CFI Block cfiCond17 Using cfiCommon0
          CFI (cfiCond17) Function Measure_Sensor
          CFI (cfiCond17) Conditional ??CrossCallReturnLabel_14
          CFI (cfiCond17) R6 load(1, XDATA, add(CFA_XSP16, literal(-24)))
          CFI (cfiCond17) VB load(1, XDATA, add(CFA_XSP16, literal(-23)))
          CFI (cfiCond17) V0 load(1, XDATA, add(CFA_XSP16, literal(-22)))
          CFI (cfiCond17) V1 load(1, XDATA, add(CFA_XSP16, literal(-21)))
          CFI (cfiCond17) V2 load(1, XDATA, add(CFA_XSP16, literal(-20)))
          CFI (cfiCond17) V3 load(1, XDATA, add(CFA_XSP16, literal(-19)))
          CFI (cfiCond17) V4 load(1, XDATA, add(CFA_XSP16, literal(-18)))
          CFI (cfiCond17) V5 load(1, XDATA, add(CFA_XSP16, literal(-17)))
          CFI (cfiCond17) V6 load(1, XDATA, add(CFA_XSP16, literal(-16)))
          CFI (cfiCond17) V7 load(1, XDATA, add(CFA_XSP16, literal(-15)))
          CFI (cfiCond17) V8 load(1, XDATA, add(CFA_XSP16, literal(-14)))
          CFI (cfiCond17) V9 load(1, XDATA, add(CFA_XSP16, literal(-13)))
          CFI (cfiCond17) V10 load(1, XDATA, add(CFA_XSP16, literal(-12)))
          CFI (cfiCond17) V11 load(1, XDATA, add(CFA_XSP16, literal(-11)))
          CFI (cfiCond17) V12 load(1, XDATA, add(CFA_XSP16, literal(-10)))
          CFI (cfiCond17) V13 load(1, XDATA, add(CFA_XSP16, literal(-9)))
          CFI (cfiCond17) V14 load(1, XDATA, add(CFA_XSP16, literal(-8)))
          CFI (cfiCond17) V15 load(1, XDATA, add(CFA_XSP16, literal(-7)))
          CFI (cfiCond17) R7 load(1, XDATA, add(CFA_XSP16, literal(-6)))
          CFI (cfiCond17) ?RET_LOW load(1, XDATA, add(CFA_XSP16, literal(-5)))
          CFI (cfiCond17) ?RET_HIGH load(1, XDATA, add(CFA_XSP16, literal(-4)))
          CFI (cfiCond17) ?BRET_EXT load(1, XDATA, add(CFA_XSP16, literal(-3)))
          CFI (cfiCond17) DPL0 load(1, XDATA, add(CFA_XSP16, literal(-2)))
          CFI (cfiCond17) DPH0 load(1, XDATA, add(CFA_XSP16, literal(-1)))
          CFI (cfiCond17) CFA_SP SP+-2
          CFI (cfiCond17) CFA_XSP16 add(XSP16, 144)
          CFI Block cfiPicker18 Using cfiCommon1
          CFI (cfiPicker18) NoFunction
          CFI (cfiPicker18) Picker
        INC       DPTR
        INC       DPTR
        INC       DPTR
        INC       DPTR
        INC       DPTR
        INC       DPTR
          CFI EndBlock cfiCond16
          CFI EndBlock cfiCond17
          CFI EndBlock cfiPicker18
        REQUIRE ??Subroutine4_0
        ; // Fall through to label ??Subroutine4_0

        RSEG BANKED_CODE:HUGECODE:NOROOT(0)
??Subroutine4_0:
          CFI Block cfiCond19 Using cfiCommon0
          CFI Function Measure_Sensor
          CFI Conditional ??CrossCallReturnLabel_8
          CFI R6 load(1, XDATA, add(CFA_XSP16, literal(-24)))
          CFI VB load(1, XDATA, add(CFA_XSP16, literal(-23)))
          CFI V0 load(1, XDATA, add(CFA_XSP16, literal(-22)))
          CFI V1 load(1, XDATA, add(CFA_XSP16, literal(-21)))
          CFI V2 load(1, XDATA, add(CFA_XSP16, literal(-20)))
          CFI V3 load(1, XDATA, add(CFA_XSP16, literal(-19)))
          CFI V4 load(1, XDATA, add(CFA_XSP16, literal(-18)))
          CFI V5 load(1, XDATA, add(CFA_XSP16, literal(-17)))
          CFI V6 load(1, XDATA, add(CFA_XSP16, literal(-16)))
          CFI V7 load(1, XDATA, add(CFA_XSP16, literal(-15)))
          CFI V8 load(1, XDATA, add(CFA_XSP16, literal(-14)))
          CFI V9 load(1, XDATA, add(CFA_XSP16, literal(-13)))
          CFI V10 load(1, XDATA, add(CFA_XSP16, literal(-12)))
          CFI V11 load(1, XDATA, add(CFA_XSP16, literal(-11)))
          CFI V12 load(1, XDATA, add(CFA_XSP16, literal(-10)))
          CFI V13 load(1, XDATA, add(CFA_XSP16, literal(-9)))
          CFI V14 load(1, XDATA, add(CFA_XSP16, literal(-8)))
          CFI V15 load(1, XDATA, add(CFA_XSP16, literal(-7)))
          CFI R7 load(1, XDATA, add(CFA_XSP16, literal(-6)))
          CFI ?RET_LOW load(1, XDATA, add(CFA_XSP16, literal(-5)))
          CFI ?RET_HIGH load(1, XDATA, add(CFA_XSP16, literal(-4)))
          CFI ?BRET_EXT load(1, XDATA, add(CFA_XSP16, literal(-3)))
          CFI DPL0 load(1, XDATA, add(CFA_XSP16, literal(-2)))
          CFI DPH0 load(1, XDATA, add(CFA_XSP16, literal(-1)))
          CFI CFA_SP SP+-2
          CFI CFA_XSP16 add(XSP16, 132)
          CFI Block cfiCond20 Using cfiCommon0
          CFI (cfiCond20) Function Measure_Sensor
          CFI (cfiCond20) Conditional ??CrossCallReturnLabel_9
          CFI (cfiCond20) R6 load(1, XDATA, add(CFA_XSP16, literal(-24)))
          CFI (cfiCond20) VB load(1, XDATA, add(CFA_XSP16, literal(-23)))
          CFI (cfiCond20) V0 load(1, XDATA, add(CFA_XSP16, literal(-22)))
          CFI (cfiCond20) V1 load(1, XDATA, add(CFA_XSP16, literal(-21)))
          CFI (cfiCond20) V2 load(1, XDATA, add(CFA_XSP16, literal(-20)))
          CFI (cfiCond20) V3 load(1, XDATA, add(CFA_XSP16, literal(-19)))
          CFI (cfiCond20) V4 load(1, XDATA, add(CFA_XSP16, literal(-18)))
          CFI (cfiCond20) V5 load(1, XDATA, add(CFA_XSP16, literal(-17)))
          CFI (cfiCond20) V6 load(1, XDATA, add(CFA_XSP16, literal(-16)))
          CFI (cfiCond20) V7 load(1, XDATA, add(CFA_XSP16, literal(-15)))
          CFI (cfiCond20) V8 load(1, XDATA, add(CFA_XSP16, literal(-14)))
          CFI (cfiCond20) V9 load(1, XDATA, add(CFA_XSP16, literal(-13)))
          CFI (cfiCond20) V10 load(1, XDATA, add(CFA_XSP16, literal(-12)))
          CFI (cfiCond20) V11 load(1, XDATA, add(CFA_XSP16, literal(-11)))
          CFI (cfiCond20) V12 load(1, XDATA, add(CFA_XSP16, literal(-10)))
          CFI (cfiCond20) V13 load(1, XDATA, add(CFA_XSP16, literal(-9)))
          CFI (cfiCond20) V14 load(1, XDATA, add(CFA_XSP16, literal(-8)))
          CFI (cfiCond20) V15 load(1, XDATA, add(CFA_XSP16, literal(-7)))
          CFI (cfiCond20) R7 load(1, XDATA, add(CFA_XSP16, literal(-6)))
          CFI (cfiCond20) ?RET_LOW load(1, XDATA, add(CFA_XSP16, literal(-5)))
          CFI (cfiCond20) ?RET_HIGH load(1, XDATA, add(CFA_XSP16, literal(-4)))
          CFI (cfiCond20) ?BRET_EXT load(1, XDATA, add(CFA_XSP16, literal(-3)))
          CFI (cfiCond20) DPL0 load(1, XDATA, add(CFA_XSP16, literal(-2)))
          CFI (cfiCond20) DPH0 load(1, XDATA, add(CFA_XSP16, literal(-1)))
          CFI (cfiCond20) CFA_SP SP+-2
          CFI (cfiCond20) CFA_XSP16 add(XSP16, 134)
          CFI Block cfiCond21 Using cfiCommon0
          CFI (cfiCond21) Function Measure_Sensor
          CFI (cfiCond21) Conditional ??CrossCallReturnLabel_10
          CFI (cfiCond21) R6 load(1, XDATA, add(CFA_XSP16, literal(-24)))
          CFI (cfiCond21) VB load(1, XDATA, add(CFA_XSP16, literal(-23)))
          CFI (cfiCond21) V0 load(1, XDATA, add(CFA_XSP16, literal(-22)))
          CFI (cfiCond21) V1 load(1, XDATA, add(CFA_XSP16, literal(-21)))
          CFI (cfiCond21) V2 load(1, XDATA, add(CFA_XSP16, literal(-20)))
          CFI (cfiCond21) V3 load(1, XDATA, add(CFA_XSP16, literal(-19)))
          CFI (cfiCond21) V4 load(1, XDATA, add(CFA_XSP16, literal(-18)))
          CFI (cfiCond21) V5 load(1, XDATA, add(CFA_XSP16, literal(-17)))
          CFI (cfiCond21) V6 load(1, XDATA, add(CFA_XSP16, literal(-16)))
          CFI (cfiCond21) V7 load(1, XDATA, add(CFA_XSP16, literal(-15)))
          CFI (cfiCond21) V8 load(1, XDATA, add(CFA_XSP16, literal(-14)))
          CFI (cfiCond21) V9 load(1, XDATA, add(CFA_XSP16, literal(-13)))
          CFI (cfiCond21) V10 load(1, XDATA, add(CFA_XSP16, literal(-12)))
          CFI (cfiCond21) V11 load(1, XDATA, add(CFA_XSP16, literal(-11)))
          CFI (cfiCond21) V12 load(1, XDATA, add(CFA_XSP16, literal(-10)))
          CFI (cfiCond21) V13 load(1, XDATA, add(CFA_XSP16, literal(-9)))
          CFI (cfiCond21) V14 load(1, XDATA, add(CFA_XSP16, literal(-8)))
          CFI (cfiCond21) V15 load(1, XDATA, add(CFA_XSP16, literal(-7)))
          CFI (cfiCond21) R7 load(1, XDATA, add(CFA_XSP16, literal(-6)))
          CFI (cfiCond21) ?RET_LOW load(1, XDATA, add(CFA_XSP16, literal(-5)))
          CFI (cfiCond21) ?RET_HIGH load(1, XDATA, add(CFA_XSP16, literal(-4)))
          CFI (cfiCond21) ?BRET_EXT load(1, XDATA, add(CFA_XSP16, literal(-3)))
          CFI (cfiCond21) DPL0 load(1, XDATA, add(CFA_XSP16, literal(-2)))
          CFI (cfiCond21) DPH0 load(1, XDATA, add(CFA_XSP16, literal(-1)))
          CFI (cfiCond21) CFA_SP SP+-2
          CFI (cfiCond21) CFA_XSP16 add(XSP16, 136)
          CFI Block cfiCond22 Using cfiCommon0
          CFI (cfiCond22) Function Measure_Sensor
          CFI (cfiCond22) Conditional ??CrossCallReturnLabel_11
          CFI (cfiCond22) R6 load(1, XDATA, add(CFA_XSP16, literal(-24)))
          CFI (cfiCond22) VB load(1, XDATA, add(CFA_XSP16, literal(-23)))
          CFI (cfiCond22) V0 load(1, XDATA, add(CFA_XSP16, literal(-22)))
          CFI (cfiCond22) V1 load(1, XDATA, add(CFA_XSP16, literal(-21)))
          CFI (cfiCond22) V2 load(1, XDATA, add(CFA_XSP16, literal(-20)))
          CFI (cfiCond22) V3 load(1, XDATA, add(CFA_XSP16, literal(-19)))
          CFI (cfiCond22) V4 load(1, XDATA, add(CFA_XSP16, literal(-18)))
          CFI (cfiCond22) V5 load(1, XDATA, add(CFA_XSP16, literal(-17)))
          CFI (cfiCond22) V6 load(1, XDATA, add(CFA_XSP16, literal(-16)))
          CFI (cfiCond22) V7 load(1, XDATA, add(CFA_XSP16, literal(-15)))
          CFI (cfiCond22) V8 load(1, XDATA, add(CFA_XSP16, literal(-14)))
          CFI (cfiCond22) V9 load(1, XDATA, add(CFA_XSP16, literal(-13)))
          CFI (cfiCond22) V10 load(1, XDATA, add(CFA_XSP16, literal(-12)))
          CFI (cfiCond22) V11 load(1, XDATA, add(CFA_XSP16, literal(-11)))
          CFI (cfiCond22) V12 load(1, XDATA, add(CFA_XSP16, literal(-10)))
          CFI (cfiCond22) V13 load(1, XDATA, add(CFA_XSP16, literal(-9)))
          CFI (cfiCond22) V14 load(1, XDATA, add(CFA_XSP16, literal(-8)))
          CFI (cfiCond22) V15 load(1, XDATA, add(CFA_XSP16, literal(-7)))
          CFI (cfiCond22) R7 load(1, XDATA, add(CFA_XSP16, literal(-6)))
          CFI (cfiCond22) ?RET_LOW load(1, XDATA, add(CFA_XSP16, literal(-5)))
          CFI (cfiCond22) ?RET_HIGH load(1, XDATA, add(CFA_XSP16, literal(-4)))
          CFI (cfiCond22) ?BRET_EXT load(1, XDATA, add(CFA_XSP16, literal(-3)))
          CFI (cfiCond22) DPL0 load(1, XDATA, add(CFA_XSP16, literal(-2)))
          CFI (cfiCond22) DPH0 load(1, XDATA, add(CFA_XSP16, literal(-1)))
          CFI (cfiCond22) CFA_SP SP+-2
          CFI (cfiCond22) CFA_XSP16 add(XSP16, 138)
          CFI Block cfiCond23 Using cfiCommon0
          CFI (cfiCond23) Function Measure_Sensor
          CFI (cfiCond23) Conditional ??CrossCallReturnLabel_12
          CFI (cfiCond23) R6 load(1, XDATA, add(CFA_XSP16, literal(-24)))
          CFI (cfiCond23) VB load(1, XDATA, add(CFA_XSP16, literal(-23)))
          CFI (cfiCond23) V0 load(1, XDATA, add(CFA_XSP16, literal(-22)))
          CFI (cfiCond23) V1 load(1, XDATA, add(CFA_XSP16, literal(-21)))
          CFI (cfiCond23) V2 load(1, XDATA, add(CFA_XSP16, literal(-20)))
          CFI (cfiCond23) V3 load(1, XDATA, add(CFA_XSP16, literal(-19)))
          CFI (cfiCond23) V4 load(1, XDATA, add(CFA_XSP16, literal(-18)))
          CFI (cfiCond23) V5 load(1, XDATA, add(CFA_XSP16, literal(-17)))
          CFI (cfiCond23) V6 load(1, XDATA, add(CFA_XSP16, literal(-16)))
          CFI (cfiCond23) V7 load(1, XDATA, add(CFA_XSP16, literal(-15)))
          CFI (cfiCond23) V8 load(1, XDATA, add(CFA_XSP16, literal(-14)))
          CFI (cfiCond23) V9 load(1, XDATA, add(CFA_XSP16, literal(-13)))
          CFI (cfiCond23) V10 load(1, XDATA, add(CFA_XSP16, literal(-12)))
          CFI (cfiCond23) V11 load(1, XDATA, add(CFA_XSP16, literal(-11)))
          CFI (cfiCond23) V12 load(1, XDATA, add(CFA_XSP16, literal(-10)))
          CFI (cfiCond23) V13 load(1, XDATA, add(CFA_XSP16, literal(-9)))
          CFI (cfiCond23) V14 load(1, XDATA, add(CFA_XSP16, literal(-8)))
          CFI (cfiCond23) V15 load(1, XDATA, add(CFA_XSP16, literal(-7)))
          CFI (cfiCond23) R7 load(1, XDATA, add(CFA_XSP16, literal(-6)))
          CFI (cfiCond23) ?RET_LOW load(1, XDATA, add(CFA_XSP16, literal(-5)))
          CFI (cfiCond23) ?RET_HIGH load(1, XDATA, add(CFA_XSP16, literal(-4)))
          CFI (cfiCond23) ?BRET_EXT load(1, XDATA, add(CFA_XSP16, literal(-3)))
          CFI (cfiCond23) DPL0 load(1, XDATA, add(CFA_XSP16, literal(-2)))
          CFI (cfiCond23) DPH0 load(1, XDATA, add(CFA_XSP16, literal(-1)))
          CFI (cfiCond23) CFA_SP SP+-2
          CFI (cfiCond23) CFA_XSP16 add(XSP16, 140)
          CFI Block cfiCond24 Using cfiCommon0
          CFI (cfiCond24) Function Measure_Sensor
          CFI (cfiCond24) Conditional ??CrossCallReturnLabel_13
          CFI (cfiCond24) R6 load(1, XDATA, add(CFA_XSP16, literal(-24)))
          CFI (cfiCond24) VB load(1, XDATA, add(CFA_XSP16, literal(-23)))
          CFI (cfiCond24) V0 load(1, XDATA, add(CFA_XSP16, literal(-22)))
          CFI (cfiCond24) V1 load(1, XDATA, add(CFA_XSP16, literal(-21)))
          CFI (cfiCond24) V2 load(1, XDATA, add(CFA_XSP16, literal(-20)))
          CFI (cfiCond24) V3 load(1, XDATA, add(CFA_XSP16, literal(-19)))
          CFI (cfiCond24) V4 load(1, XDATA, add(CFA_XSP16, literal(-18)))
          CFI (cfiCond24) V5 load(1, XDATA, add(CFA_XSP16, literal(-17)))
          CFI (cfiCond24) V6 load(1, XDATA, add(CFA_XSP16, literal(-16)))
          CFI (cfiCond24) V7 load(1, XDATA, add(CFA_XSP16, literal(-15)))
          CFI (cfiCond24) V8 load(1, XDATA, add(CFA_XSP16, literal(-14)))
          CFI (cfiCond24) V9 load(1, XDATA, add(CFA_XSP16, literal(-13)))
          CFI (cfiCond24) V10 load(1, XDATA, add(CFA_XSP16, literal(-12)))
          CFI (cfiCond24) V11 load(1, XDATA, add(CFA_XSP16, literal(-11)))
          CFI (cfiCond24) V12 load(1, XDATA, add(CFA_XSP16, literal(-10)))
          CFI (cfiCond24) V13 load(1, XDATA, add(CFA_XSP16, literal(-9)))
          CFI (cfiCond24) V14 load(1, XDATA, add(CFA_XSP16, literal(-8)))
          CFI (cfiCond24) V15 load(1, XDATA, add(CFA_XSP16, literal(-7)))
          CFI (cfiCond24) R7 load(1, XDATA, add(CFA_XSP16, literal(-6)))
          CFI (cfiCond24) ?RET_LOW load(1, XDATA, add(CFA_XSP16, literal(-5)))
          CFI (cfiCond24) ?RET_HIGH load(1, XDATA, add(CFA_XSP16, literal(-4)))
          CFI (cfiCond24) ?BRET_EXT load(1, XDATA, add(CFA_XSP16, literal(-3)))
          CFI (cfiCond24) DPL0 load(1, XDATA, add(CFA_XSP16, literal(-2)))
          CFI (cfiCond24) DPH0 load(1, XDATA, add(CFA_XSP16, literal(-1)))
          CFI (cfiCond24) CFA_SP SP+-2
          CFI (cfiCond24) CFA_XSP16 add(XSP16, 142)
          CFI Block cfiCond25 Using cfiCommon0
          CFI (cfiCond25) Function Measure_Sensor
          CFI (cfiCond25) Conditional ??CrossCallReturnLabel_14
          CFI (cfiCond25) R6 load(1, XDATA, add(CFA_XSP16, literal(-24)))
          CFI (cfiCond25) VB load(1, XDATA, add(CFA_XSP16, literal(-23)))
          CFI (cfiCond25) V0 load(1, XDATA, add(CFA_XSP16, literal(-22)))
          CFI (cfiCond25) V1 load(1, XDATA, add(CFA_XSP16, literal(-21)))
          CFI (cfiCond25) V2 load(1, XDATA, add(CFA_XSP16, literal(-20)))
          CFI (cfiCond25) V3 load(1, XDATA, add(CFA_XSP16, literal(-19)))
          CFI (cfiCond25) V4 load(1, XDATA, add(CFA_XSP16, literal(-18)))
          CFI (cfiCond25) V5 load(1, XDATA, add(CFA_XSP16, literal(-17)))
          CFI (cfiCond25) V6 load(1, XDATA, add(CFA_XSP16, literal(-16)))
          CFI (cfiCond25) V7 load(1, XDATA, add(CFA_XSP16, literal(-15)))
          CFI (cfiCond25) V8 load(1, XDATA, add(CFA_XSP16, literal(-14)))
          CFI (cfiCond25) V9 load(1, XDATA, add(CFA_XSP16, literal(-13)))
          CFI (cfiCond25) V10 load(1, XDATA, add(CFA_XSP16, literal(-12)))
          CFI (cfiCond25) V11 load(1, XDATA, add(CFA_XSP16, literal(-11)))
          CFI (cfiCond25) V12 load(1, XDATA, add(CFA_XSP16, literal(-10)))
          CFI (cfiCond25) V13 load(1, XDATA, add(CFA_XSP16, literal(-9)))
          CFI (cfiCond25) V14 load(1, XDATA, add(CFA_XSP16, literal(-8)))
          CFI (cfiCond25) V15 load(1, XDATA, add(CFA_XSP16, literal(-7)))
          CFI (cfiCond25) R7 load(1, XDATA, add(CFA_XSP16, literal(-6)))
          CFI (cfiCond25) ?RET_LOW load(1, XDATA, add(CFA_XSP16, literal(-5)))
          CFI (cfiCond25) ?RET_HIGH load(1, XDATA, add(CFA_XSP16, literal(-4)))
          CFI (cfiCond25) ?BRET_EXT load(1, XDATA, add(CFA_XSP16, literal(-3)))
          CFI (cfiCond25) DPL0 load(1, XDATA, add(CFA_XSP16, literal(-2)))
          CFI (cfiCond25) DPH0 load(1, XDATA, add(CFA_XSP16, literal(-1)))
          CFI (cfiCond25) CFA_SP SP+-2
          CFI (cfiCond25) CFA_XSP16 add(XSP16, 144)
          CFI Block cfiPicker26 Using cfiCommon1
          CFI (cfiPicker26) NoFunction
          CFI (cfiPicker26) Picker
        MOVX      A,@DPTR
        MOV       ?V4,A
        MOV       R0,#?V4
        RET
          CFI EndBlock cfiCond19
          CFI EndBlock cfiCond20
          CFI EndBlock cfiCond21
          CFI EndBlock cfiCond22
          CFI EndBlock cfiCond23
          CFI EndBlock cfiCond24
          CFI EndBlock cfiCond25
          CFI EndBlock cfiPicker26

        RSEG BANK_RELAYS:CODE:REORDER:NOROOT(0)
`??FactoryReset::?relay`:
        CODE
        LCALL   ?BDISPATCH
        DATA24
        DC24    FactoryReset

        RSEG BANK_RELAYS:CODE:REORDER:NOROOT(0)
`??Relais::?relay`:
        CODE
        LCALL   ?BDISPATCH
        DATA24
        DC24    Relais

        RSEG BANK_RELAYS:CODE:REORDER:NOROOT(0)
`??Measure_Sensor::?relay`:
        CODE
        LCALL   ?BDISPATCH
        DATA24
        DC24    Measure_Sensor

        RSEG XDATA_ROM_C:CONST:REORDER:NOROOT(0)
        DATA8
`?<Constant "Performing factory re...">`:
        DB "Performing factory reset..."

        RSEG XDATA_ROM_C:CONST:REORDER:NOROOT(0)
        DATA8
`?<Constant "Performing system res...">`:
        DB "Performing system reset..."

        RSEG XDATA_ROM_C:CONST:REORDER:NOROOT(0)
        DATA8
`?<Constant "%02X%02X%02X%02X%02X%...">`:
        DB "%02X%02X%02X%02X%02X%02X%02X%02X: %.2f \260C"

        RSEG XDATA_ROM_C:CONST:REORDER:NOROOT(0)
        DATA8
`?<Constant "\\001%02X%02X%02X%02X%02X...">`:
        DB "\001%02X%02X%02X%02X%02X%02X%02X%02X:%.2f"

        END
// 
// 571 bytes in segment BANKED_CODE
//  18 bytes in segment BANK_RELAYS
//   2 bytes in segment SFR_AN
// 136 bytes in segment XDATA_ROM_C
//   4 bytes in segment XDATA_Z
// 
//  18 bytes of CODE     memory
// 136 bytes of CONST    memory
//   0 bytes of DATA     memory (+ 2 bytes shared)
// 571 bytes of HUGECODE memory
//   4 bytes of XDATA    memory
//
//Errors: none
//Warnings: none
