///////////////////////////////////////////////////////////////////////////////
//
// IAR C/C++ Compiler V10.10.1.4655 for 8051              20/Nov/2021  20:28:20
// Copyright 2004-2017 IAR Systems AB.
// Standalone license - IAR Embedded Workbench for 8051
//
//    Core               =  plain
//    Code model         =  banked
//    Data model         =  large
//    Calling convention =  xdata reentrant
//    Constant location  =  data_rom
//    Dptr setup         =  1,16
//                          
//    Source file        =  
//        D:\Z-Stack Home
//        1.2.2a.44539\Projects\zstack\HomeAutomation\ZigUP\Source\zcl_zigup.c
//    Command line       =  
//        -f C:\Users\tatbo\AppData\Local\Temp\EW6B14.tmp ("D:\Z-Stack Home
//        1.2.2a.44539\Projects\zstack\HomeAutomation\ZigUP\Source\zcl_zigup.c"
//        -D SECURE=1 -D HAL_KEY=FALSE -D HAL_LED=FALSE -D HAL_LCD=FALSE -D
//        HAL_UART=FALSE -D TC_LINKKEY_JOIN -D NV_INIT -D NV_RESTORE -D
//        xHOLD_AUTO_START -D ZTOOL_P1 -D MT_TASK -D MT_APP_FUNC -D MT_SYS_FUNC
//        -D MT_ZDO_FUNC -D LCD_SUPPORTED=FALSE -D MULTICAST_ENABLED=FALSE -D
//        ZCL_READ -D ZCL_WRITE -D ZCL_REPORT -D xZCL_EZMODE -D ZCL_BASIC -D
//        ZCL_IDENTIFY -D ZCL_ON_OFF -D ZCL_SCENES -D ZCL_GROUPS -D
//        xZCL_LEVEL_CTRL -D ZCL_DIAGNOSTIC -D FEATURE_SYSTEM_STATS -D
//        ZCL_DOORLOCK -lC "D:\Z-Stack Home
//        1.2.2a.44539\Projects\zstack\HomeAutomation\ZigUP\CC2530DB\EndDeviceEB\List"
//        -lA "D:\Z-Stack Home
//        1.2.2a.44539\Projects\zstack\HomeAutomation\ZigUP\CC2530DB\EndDeviceEB\List"
//        --diag_suppress Pe001,Pa010 -o "D:\Z-Stack Home
//        1.2.2a.44539\Projects\zstack\HomeAutomation\ZigUP\CC2530DB\EndDeviceEB\Obj"
//        -e --debug --core=plain --dptr=16,1 --data_model=large
//        --code_model=banked --calling_convention=xdata_reentrant
//        --place_constants=data_rom --nr_virtual_regs 16 -f "D:\Z-Stack Home
//        1.2.2a.44539\Projects\zstack\HomeAutomation\ZigUP\CC2530DB\..\..\..\Tools\CC2530DB\f8wEndev.cfg"
//        (-DCPU32MHZ -DROOT=__near_func -DMAC_CFG_TX_DATA_MAX=3
//        -DMAC_CFG_TX_MAX=6 -DMAC_CFG_RX_MAX=3) -f "D:\Z-Stack Home
//        1.2.2a.44539\Projects\zstack\HomeAutomation\ZigUP\CC2530DB\..\..\..\Tools\CC2530DB\f8wConfig.cfg"
//        (-DZIGBEEPRO -DSECURE=1 -DZG_SECURE_DYNAMIC=0 -DREFLECTOR
//        -DDEFAULT_CHANLIST=0x00000800 -DZDAPP_CONFIG_PAN_ID=0xFFFF
//        -DNWK_START_DELAY=100 -DEXTENDED_JOINING_RANDOM_MASK=0x007F
//        -DBEACON_REQUEST_DELAY=100 -DBEACON_REQ_DELAY_MASK=0x00FF
//        -DLINK_STATUS_JITTER_MASK=0x007F -DROUTE_EXPIRY_TIME=30
//        -DAPSC_ACK_WAIT_DURATION_POLLED=3000 -DNWK_INDIRECT_MSG_TIMEOUT=7
//        -DMAX_RREQ_ENTRIES=8 -DAPSC_MAX_FRAME_RETRIES=3
//        -DNWK_MAX_DATA_RETRIES=2 -DMAX_POLL_FAILURE_RETRIES=2 -DMAX_BCAST=9
//        -DAPS_MAX_GROUPS=16 -DMAX_RTG_ENTRIES=40 -DNWK_MAX_BINDING_ENTRIES=4
//        -DMAX_BINDING_CLUSTER_IDS=4 "-DDEFAULT_KEY={0x01, 0x03, 0x05, 0x07,
//        0x09, 0x0B, 0x0D, 0x0F, 0x00, 0x02, 0x04, 0x06, 0x08, 0x0A, 0x0C,
//        0x0D}" -DMAC_MAX_FRAME_SIZE=116 -DZDNWKMGR_MIN_TRANSMISSIONS=20
//        "-DCONST=const __code" -DGENERIC=__generic -DRFD_RCVC_ALWAYS_ON=FALSE
//        -DPOLL_RATE=1000 -DQUEUED_POLL_RATE=100 -DRESPONSE_POLL_RATE=100
//        -DREJOIN_POLL_RATE=440 -DREJOIN_BACKOFF=900000 -DREJOIN_SCAN=900000)
//        -f "D:\Z-Stack Home
//        1.2.2a.44539\Projects\zstack\HomeAutomation\ZigUP\CC2530DB\..\..\..\Tools\CC2530DB\f8wZCL.cfg"
//        -I "D:\Z-Stack Home
//        1.2.2a.44539\Projects\zstack\HomeAutomation\ZigUP\CC2530DB\" -I
//        "D:\Z-Stack Home
//        1.2.2a.44539\Projects\zstack\HomeAutomation\ZigUP\CC2530DB\..\Source\"
//        -I "D:\Z-Stack Home
//        1.2.2a.44539\Projects\zstack\HomeAutomation\ZigUP\CC2530DB\..\..\Source\"
//        -I "D:\Z-Stack Home
//        1.2.2a.44539\Projects\zstack\HomeAutomation\ZigUP\CC2530DB\..\..\..\ZMain\TI2530DB\"
//        -I "D:\Z-Stack Home
//        1.2.2a.44539\Projects\zstack\HomeAutomation\ZigUP\CC2530DB\..\..\..\..\..\Components\hal\include\"
//        -I "D:\Z-Stack Home
//        1.2.2a.44539\Projects\zstack\HomeAutomation\ZigUP\CC2530DB\..\..\..\..\..\Components\hal\target\CC2530EB\"
//        -I "D:\Z-Stack Home
//        1.2.2a.44539\Projects\zstack\HomeAutomation\ZigUP\CC2530DB\..\..\..\..\..\Components\mac\include\"
//        -I "D:\Z-Stack Home
//        1.2.2a.44539\Projects\zstack\HomeAutomation\ZigUP\CC2530DB\..\..\..\..\..\Components\mac\high_level\"
//        -I "D:\Z-Stack Home
//        1.2.2a.44539\Projects\zstack\HomeAutomation\ZigUP\CC2530DB\..\..\..\..\..\Components\mac\low_level\srf04\"
//        -I "D:\Z-Stack Home
//        1.2.2a.44539\Projects\zstack\HomeAutomation\ZigUP\CC2530DB\..\..\..\..\..\Components\mac\low_level\srf04\single_chip\"
//        -I "D:\Z-Stack Home
//        1.2.2a.44539\Projects\zstack\HomeAutomation\ZigUP\CC2530DB\..\..\..\..\..\Components\mt\"
//        -I "D:\Z-Stack Home
//        1.2.2a.44539\Projects\zstack\HomeAutomation\ZigUP\CC2530DB\..\..\..\..\..\Components\osal\include\"
//        -I "D:\Z-Stack Home
//        1.2.2a.44539\Projects\zstack\HomeAutomation\ZigUP\CC2530DB\..\..\..\..\..\Components\services\saddr\"
//        -I "D:\Z-Stack Home
//        1.2.2a.44539\Projects\zstack\HomeAutomation\ZigUP\CC2530DB\..\..\..\..\..\Components\services\sdata\"
//        -I "D:\Z-Stack Home
//        1.2.2a.44539\Projects\zstack\HomeAutomation\ZigUP\CC2530DB\..\..\..\..\..\Components\stack\af\"
//        -I "D:\Z-Stack Home
//        1.2.2a.44539\Projects\zstack\HomeAutomation\ZigUP\CC2530DB\..\..\..\..\..\Components\stack\nwk\"
//        -I "D:\Z-Stack Home
//        1.2.2a.44539\Projects\zstack\HomeAutomation\ZigUP\CC2530DB\..\..\..\..\..\Components\stack\sapi\"
//        -I "D:\Z-Stack Home
//        1.2.2a.44539\Projects\zstack\HomeAutomation\ZigUP\CC2530DB\..\..\..\..\..\Components\stack\sec\"
//        -I "D:\Z-Stack Home
//        1.2.2a.44539\Projects\zstack\HomeAutomation\ZigUP\CC2530DB\..\..\..\..\..\Components\stack\sys\"
//        -I "D:\Z-Stack Home
//        1.2.2a.44539\Projects\zstack\HomeAutomation\ZigUP\CC2530DB\..\..\..\..\..\Components\stack\zcl\"
//        -I "D:\Z-Stack Home
//        1.2.2a.44539\Projects\zstack\HomeAutomation\ZigUP\CC2530DB\..\..\..\..\..\Components\stack\zdo\"
//        -I "D:\Z-Stack Home
//        1.2.2a.44539\Projects\zstack\HomeAutomation\ZigUP\CC2530DB\..\..\..\..\..\Components\zmac\"
//        -I "D:\Z-Stack Home
//        1.2.2a.44539\Projects\zstack\HomeAutomation\ZigUP\CC2530DB\..\..\..\..\..\Components\zmac\f8w\"
//        -Ohz --require_prototypes)
//    Locale             =  Chinese (Simplified)_China.936
//    List file          =  
//        D:\Z-Stack Home
//        1.2.2a.44539\Projects\zstack\HomeAutomation\ZigUP\CC2530DB\EndDeviceEB\List\zcl_zigup.s51
//
///////////////////////////////////////////////////////////////////////////////

        NAME zcl_zigup

        RTMODEL "__SystemLibrary", "CLib"
        RTMODEL "__calling_convention", "xdata_reentrant"
        RTMODEL "__code_model", "banked"
        RTMODEL "__core", "plain"
        RTMODEL "__data_model", "large"
        RTMODEL "__dptr_size", "16"
        RTMODEL "__extended_stack", "disabled"
        RTMODEL "__iar_require _formatted_write", "int_specials"
        RTMODEL "__location_for_constants", "data"
        RTMODEL "__number_of_dptrs", "1"
        RTMODEL "__register_banks", "*"
        RTMODEL "__rt_version", "1"

        RSEG DOVERLAY:DATA:NOROOT(0)
        RSEG IOVERLAY:IDATA:NOROOT(0)
        RSEG ISTACK:IDATA:NOROOT(0)
        RSEG PSTACK:XDATA:NOROOT(0)
        RSEG XSTACK:XDATA:NOROOT(0)

        EXTERN ?V0
        EXTERN ?V1
        EXTERN ?V2
        EXTERN ?V3
        EXTERN ?V4
        EXTERN ?V5
        EXTERN ?V6
        EXTERN ?V7
        EXTERN ?V8
        EXTERN ?V9
        EXTERN ?V10
        EXTERN ?V11
        EXTERN ?V12
        EXTERN ?V13
        EXTERN ?V14
        EXTERN ?V15
        EXTERN ?ALLOC_XSTACK8
        EXTERN ?BANKED_ENTER_XDATA
        EXTERN ?BANKED_LEAVE_XDATA
        EXTERN ?BDISPATCH
        EXTERN ?BRET
        EXTERN ?DEALLOC_XSTACK8
        EXTERN ?FLT_ADD
        EXTERN ?FLT_DIV
        EXTERN ?FLT_GE
        EXTERN ?FLT_LT
        EXTERN ?FLT_MUL
        EXTERN ?FLT_SUB
        EXTERN ?FLT_TO_L
        EXTERN ?L_MOV_TO_X
        EXTERN ?L_MOV_X
        EXTERN ?PUSH_XSTACK8_X_FOUR
        EXTERN ?PUSH_XSTACK8_X_TWO
        EXTERN ?PUSH_XSTACK_I_ONE
        EXTERN ?PUSH_XSTACK_I_TWO
        EXTERN ?UL_TO_FLT
        EXTERN ?XSP
        EXTERN ?XSTACK_DISP0_8
        EXTERN ?XSTACK_DISP101_8
        EXTERN __INIT_XDATA_I
        EXTERN __INIT_XDATA_Z

        FUNCTION `??zclZigUP_BasicResetCB::?relay`,0203H
        FUNCTION `??zclZigUP_DoorLockCB::?relay`,0203H
        FUNCTION `??zclZigUP_DoorLockRspCB::?relay`,0203H
        FUNCTION `??zclZigUP_IdentifyCB::?relay`,0203H
        FUNCTION `??zclZigUP_IdentifyQueryRspCB::?relay`,0203H
        PUBLIC `??zclZigUP_Init::?relay`
        FUNCTION `??zclZigUP_Init::?relay`,0203H
        PUBLIC `??zclZigUP_MoveToColorCB::?relay`
        FUNCTION `??zclZigUP_MoveToColorCB::?relay`,0203H
        FUNCTION `??zclZigUP_OnOffCB::?relay`,0203H
        FUNCTION `??zclZigUP_ProcessIdentifyTimeChange::?relay`,0203H
        PUBLIC `??zclZigUP_Reporting::?relay`
        FUNCTION `??zclZigUP_Reporting::?relay`,0203H
        PUBLIC `??zclZigUP_event_loop::?relay`
        FUNCTION `??zclZigUP_event_loop::?relay`,0203H
        PUBWEAK __Constant_37800000
        PUBWEAK __Constant_3b4d2e1d
        PUBWEAK __Constant_3d14141f
        PUBWEAK __Constant_3d53d103
        PUBWEAK __Constant_3e8
        PUBWEAK __Constant_3e829457
        PUBWEAK __Constant_3ed55555
        PUBWEAK __Constant_3f000000
        PUBWEAK __Constant_3f800001
        PUBWEAK __Constant_3f8179d1
        PUBWEAK __Constant_3f870a3d
        PUBWEAK __Constant_3fd3e40d
        PUBWEAK __Constant_3fd407ee
        PUBWEAK __Constant_414eb852
        PUBWEAK __Constant_437e8001
        PUBWEAK __Constant_437f0000
        PUBWEAK __Constant_bd6147ae
        PUBWEAK __Constant_bdf88db0
        PUBWEAK __Constant_beb5af08
        PUBWEAK __Constant_bf350acc
        FUNCTION zclZigUP_BasicResetCB,021603H
        ARGFRAME XSTACK, 0, STACK
        LOCFRAME ISTACK, 2, STACK
        LOCFRAME XSTACK, 5, STACK
        FUNCTION zclZigUP_DoorLockCB,0a1603H
        ARGFRAME XSTACK, 0, STACK
        LOCFRAME XSTACK, 12, STACK
        FUNCTION zclZigUP_DoorLockRspCB,0603H
        ARGFRAME XSTACK, 0, STACK
        PUBLIC zclZigUP_DstAddr
        FUNCTION zclZigUP_IdentifyCB,021603H
        ARGFRAME XSTACK, 0, STACK
        LOCFRAME ISTACK, 2, STACK
        FUNCTION zclZigUP_IdentifyQueryRspCB,0603H
        ARGFRAME XSTACK, 0, STACK
        PUBLIC zclZigUP_Init
        FUNCTION zclZigUP_Init,021203H
        ARGFRAME XSTACK, 0, STACK
        LOCFRAME XSTACK, 9, STACK
        PUBLIC zclZigUP_MoveToColorCB
        FUNCTION zclZigUP_MoveToColorCB,0a1603H
        ARGFRAME XSTACK, 0, STACK
        LOCFRAME ISTACK, 4, STACK
        LOCFRAME XSTACK, 135, STACK
        PUBLIC zclZigUP_NwkState
        FUNCTION zclZigUP_OnOffCB,0a1603H
        ARGFRAME XSTACK, 0, STACK
        LOCFRAME XSTACK, 112, STACK
        FUNCTION zclZigUP_ProcessIdentifyTimeChange,021203H
        ARGFRAME XSTACK, 12, STACK
        ARGFRAME IOVERLAY, 0, STATIC
        ARGFRAME DOVERLAY, 0, STATIC
        LOCFRAME ISTACK, 2, STACK
        LOCFRAME XSTACK, 4, STACK
        PUBLIC zclZigUP_Reporting
        FUNCTION zclZigUP_Reporting,0a1203H
        ARGFRAME XSTACK, 0, STACK
        LOCFRAME XSTACK, 19, STACK
        PUBLIC zclZigUP_event_loop
        FUNCTION zclZigUP_event_loop,0a1203H
        ARGFRAME XSTACK, 0, STACK
        LOCFRAME XSTACK, 12, STACK
        
          CFI Names cfiNames0
          CFI StackFrame CFA_SP SP IDATA
          CFI StackFrame CFA_PSP16 PSP16 XDATA
          CFI StackFrame CFA_XSP16 XSP16 XDATA
          CFI StaticOverlayFrame CFA_IOVERLAY IOVERLAY
          CFI StaticOverlayFrame CFA_DOVERLAY DOVERLAY
          CFI Resource `PSW.CY`:1, `B.BR0`:1, `B.BR1`:1, `B.BR2`:1, `B.BR3`:1
          CFI Resource `B.BR4`:1, `B.BR5`:1, `B.BR6`:1, `B.BR7`:1, `VB.BR8`:1
          CFI Resource `VB.BR9`:1, `VB.BR10`:1, `VB.BR11`:1, `VB.BR12`:1
          CFI Resource `VB.BR13`:1, `VB.BR14`:1, `VB.BR15`:1, VB:8, B:8, A:8
          CFI Resource PSW:8, DPL0:8, DPH0:8, R0:8, R1:8, R2:8, R3:8, R4:8, R5:8
          CFI Resource R6:8, R7:8, V0:8, V1:8, V2:8, V3:8, V4:8, V5:8, V6:8, V7:8
          CFI Resource V8:8, V9:8, V10:8, V11:8, V12:8, V13:8, V14:8, V15:8, SP:8
          CFI Resource PSPH:8, PSPL:8, PSP16:16, XSPH:8, XSPL:8, XSP16:16
          CFI VirtualResource ?RET:24
          CFI Resource ?BRET_EXT:8
          CFI VirtualResource ?RET_HIGH:8, ?RET_LOW:8
          CFI ResourceParts PSP16 PSPH, PSPL
          CFI ResourceParts XSP16 XSPH, XSPL
          CFI ResourceParts ?RET ?BRET_EXT, ?RET_HIGH, ?RET_LOW
          CFI EndNames cfiNames0
        
          CFI Common cfiCommon0 Using cfiNames0
          CFI CodeAlign 1
          CFI DataAlign -1
          CFI ReturnAddress ?RET CODE
          CFI CFA_DOVERLAY Used
          CFI CFA_IOVERLAY Used
          CFI CFA_SP SP+-3
          CFI CFA_PSP16 PSP16+0
          CFI CFA_XSP16 XSP16+0
          CFI `PSW.CY` SameValue
          CFI `B.BR0` SameValue
          CFI `B.BR1` SameValue
          CFI `B.BR2` SameValue
          CFI `B.BR3` SameValue
          CFI `B.BR4` SameValue
          CFI `B.BR5` SameValue
          CFI `B.BR6` SameValue
          CFI `B.BR7` SameValue
          CFI `VB.BR8` SameValue
          CFI `VB.BR9` SameValue
          CFI `VB.BR10` SameValue
          CFI `VB.BR11` SameValue
          CFI `VB.BR12` SameValue
          CFI `VB.BR13` SameValue
          CFI `VB.BR14` SameValue
          CFI `VB.BR15` SameValue
          CFI VB SameValue
          CFI B Undefined
          CFI A Undefined
          CFI PSW SameValue
          CFI DPL0 SameValue
          CFI DPH0 SameValue
          CFI R0 Undefined
          CFI R1 Undefined
          CFI R2 Undefined
          CFI R3 Undefined
          CFI R4 Undefined
          CFI R5 Undefined
          CFI R6 SameValue
          CFI R7 SameValue
          CFI V0 SameValue
          CFI V1 SameValue
          CFI V2 SameValue
          CFI V3 SameValue
          CFI V4 SameValue
          CFI V5 SameValue
          CFI V6 SameValue
          CFI V7 SameValue
          CFI V8 SameValue
          CFI V9 SameValue
          CFI V10 SameValue
          CFI V11 SameValue
          CFI V12 SameValue
          CFI V13 SameValue
          CFI V14 SameValue
          CFI V15 SameValue
          CFI PSPH Undefined
          CFI PSPL Undefined
          CFI XSPH Undefined
          CFI XSPL Undefined
          CFI ?RET Concat
          CFI ?BRET_EXT Frame(CFA_SP, 3)
          CFI ?RET_HIGH Frame(CFA_SP, 2)
          CFI ?RET_LOW Frame(CFA_SP, 1)
          CFI EndCommon cfiCommon0
        
        
          CFI Common cfiCommon1 Using cfiNames0
          CFI CodeAlign 1
          CFI DataAlign -1
          CFI ReturnAddress ?RET CODE
          CFI CFA_DOVERLAY Used
          CFI CFA_IOVERLAY Used
          CFI CFA_SP SP+-2
          CFI CFA_PSP16 PSP16+0
          CFI CFA_XSP16 XSP16+0
          CFI `PSW.CY` SameValue
          CFI `B.BR0` SameValue
          CFI `B.BR1` SameValue
          CFI `B.BR2` SameValue
          CFI `B.BR3` SameValue
          CFI `B.BR4` SameValue
          CFI `B.BR5` SameValue
          CFI `B.BR6` SameValue
          CFI `B.BR7` SameValue
          CFI `VB.BR8` SameValue
          CFI `VB.BR9` SameValue
          CFI `VB.BR10` SameValue
          CFI `VB.BR11` SameValue
          CFI `VB.BR12` SameValue
          CFI `VB.BR13` SameValue
          CFI `VB.BR14` SameValue
          CFI `VB.BR15` SameValue
          CFI VB SameValue
          CFI B SameValue
          CFI A SameValue
          CFI PSW SameValue
          CFI DPL0 SameValue
          CFI DPH0 SameValue
          CFI R0 SameValue
          CFI R1 SameValue
          CFI R2 SameValue
          CFI R3 SameValue
          CFI R4 SameValue
          CFI R5 SameValue
          CFI R6 SameValue
          CFI R7 SameValue
          CFI V0 SameValue
          CFI V1 SameValue
          CFI V2 SameValue
          CFI V3 SameValue
          CFI V4 SameValue
          CFI V5 SameValue
          CFI V6 SameValue
          CFI V7 SameValue
          CFI V8 SameValue
          CFI V9 SameValue
          CFI V10 SameValue
          CFI V11 SameValue
          CFI V12 SameValue
          CFI V13 SameValue
          CFI V14 SameValue
          CFI V15 SameValue
          CFI PSPH Undefined
          CFI PSPL Undefined
          CFI XSPH Undefined
          CFI XSPL Undefined
          CFI ?RET Concat
          CFI ?BRET_EXT SameValue
          CFI ?RET_HIGH Frame(CFA_SP, 2)
          CFI ?RET_LOW Frame(CFA_SP, 1)
          CFI EndCommon cfiCommon1
        
GetRandomNumber     SYMBOL "GetRandomNumber"
`??GetRandomNumber::?relay` SYMBOL "?relay", GetRandomNumber
LED                 SYMBOL "LED"
`??LED::?relay`     SYMBOL "?relay", LED
NLME_LeaveReq       SYMBOL "NLME_LeaveReq"
`??NLME_LeaveReq::?relay` SYMBOL "?relay", NLME_LeaveReq
RegisterForKeys     SYMBOL "RegisterForKeys"
`??RegisterForKeys::?relay` SYMBOL "?relay", RegisterForKeys
Relais              SYMBOL "Relais"
`??Relais::?relay`  SYMBOL "?relay", Relais
UART_String         SYMBOL "UART_String"
`??UART_String::?relay` SYMBOL "?relay", UART_String
WS2812_SendLED      SYMBOL "WS2812_SendLED"
`??WS2812_SendLED::?relay` SYMBOL "?relay", WS2812_SendLED
ZDApp_LeaveReset    SYMBOL "ZDApp_LeaveReset"
`??ZDApp_LeaveReset::?relay` SYMBOL "?relay", ZDApp_LeaveReset
_delay_ms           SYMBOL "_delay_ms"
`??_delay_ms::?relay` SYMBOL "?relay", _delay_ms
afRegister          SYMBOL "afRegister"
`??afRegister::?relay` SYMBOL "?relay", afRegister
ledSet              SYMBOL "ledSet"
`??ledSet::?relay`  SYMBOL "?relay", ledSet
osal_mem_alloc      SYMBOL "osal_mem_alloc"
`??osal_mem_alloc::?relay` SYMBOL "?relay", osal_mem_alloc
osal_mem_free       SYMBOL "osal_mem_free"
`??osal_mem_free::?relay` SYMBOL "?relay", osal_mem_free
osal_memset         SYMBOL "osal_memset"
`??osal_memset::?relay` SYMBOL "?relay", osal_memset
osal_msg_deallocate SYMBOL "osal_msg_deallocate"
`??osal_msg_deallocate::?relay` SYMBOL "?relay", osal_msg_deallocate
osal_msg_receive    SYMBOL "osal_msg_receive"
`??osal_msg_receive::?relay` SYMBOL "?relay", osal_msg_receive
osal_start_timerEx  SYMBOL "osal_start_timerEx"
`??osal_start_timerEx::?relay` SYMBOL "?relay", osal_start_timerEx
osal_stop_timerEx   SYMBOL "osal_stop_timerEx"
`??osal_stop_timerEx::?relay` SYMBOL "?relay", osal_stop_timerEx
pow                 SYMBOL "pow"
`??pow::?relay`     SYMBOL "?relay", pow
sprintf             SYMBOL "sprintf"
`??sprintf::?relay` SYMBOL "?relay", sprintf
sysInit             SYMBOL "sysInit"
`??sysInit::?relay` SYMBOL "?relay", sysInit
zclClosures_RegisterDoorLockCmdCallbacks SYMBOL "zclClosures_RegisterDoorLockCmdCallbacks"
`??zclClosures_RegisterDoorLockCmdCallbacks::?re` SYMBOL "?relay", zclClosures_RegisterDoorLockCmdCallbacks
zclClosures_SendDoorLockStatusResponse SYMBOL "zclClosures_SendDoorLockStatusResponse"
`??zclClosures_SendDoorLockStatusResponse::?rela` SYMBOL "?relay", zclClosures_SendDoorLockStatusResponse
zclDiagnostic_InitStats SYMBOL "zclDiagnostic_InitStats"
`??zclDiagnostic_InitStats::?relay` SYMBOL "?relay", zclDiagnostic_InitStats
`?<Name zclDiagnostic_ReadWr 48>` SYMBOL "zclDiagnostic_ReadWriteAttrCB"
`??zclDiagnostic_ReadWriteAttrCB::?relay` SYMBOL "?relay", `?<Name zclDiagnostic_ReadWr 48>`
zclGeneral_RegisterCmdCallbacks SYMBOL "zclGeneral_RegisterCmdCallbacks"
`??zclGeneral_RegisterCmdCallbacks::?relay` SYMBOL "?relay", zclGeneral_RegisterCmdCallbacks
zclHA_Init          SYMBOL "zclHA_Init"
`??zclHA_Init::?relay` SYMBOL "?relay", zclHA_Init
zclLighting_RegisterCmdCallbacks SYMBOL "zclLighting_RegisterCmdCallbacks"
`??zclLighting_RegisterCmdCallbacks::?relay` SYMBOL "?relay", zclLighting_RegisterCmdCallbacks
zcl_SendReportCmd   SYMBOL "zcl_SendReportCmd"
`??zcl_SendReportCmd::?relay` SYMBOL "?relay", zcl_SendReportCmd
zcl_getRawAFMsg     SYMBOL "zcl_getRawAFMsg"
`??zcl_getRawAFMsg::?relay` SYMBOL "?relay", zcl_getRawAFMsg
zcl_registerAttrList SYMBOL "zcl_registerAttrList"
`??zcl_registerAttrList::?relay` SYMBOL "?relay", zcl_registerAttrList
zcl_registerForMsg  SYMBOL "zcl_registerForMsg"
`??zcl_registerForMsg::?relay` SYMBOL "?relay", zcl_registerForMsg
zcl_registerReadWriteCB SYMBOL "zcl_registerReadWriteCB"
`??zcl_registerReadWriteCB::?relay` SYMBOL "?relay", zcl_registerReadWriteCB
zgWriteStartupOptions SYMBOL "zgWriteStartupOptions"
`??zgWriteStartupOptions::?relay` SYMBOL "?relay", zgWriteStartupOptions
zclZigUP_Init       SYMBOL "zclZigUP_Init"
`??zclZigUP_Init::?relay` SYMBOL "?relay", zclZigUP_Init
zclZigUP_MoveToColorCB SYMBOL "zclZigUP_MoveToColorCB"
`??zclZigUP_MoveToColorCB::?relay` SYMBOL "?relay", zclZigUP_MoveToColorCB
zclZigUP_Reporting  SYMBOL "zclZigUP_Reporting"
`??zclZigUP_Reporting::?relay` SYMBOL "?relay", zclZigUP_Reporting
zclZigUP_event_loop SYMBOL "zclZigUP_event_loop"
`??zclZigUP_event_loop::?relay` SYMBOL "?relay", zclZigUP_event_loop

        EXTERN `??GetRandomNumber::?relay`
        FUNCTION `??GetRandomNumber::?relay`,00H
        EXTERN `??LED::?relay`
        FUNCTION `??LED::?relay`,00H
        EXTERN `??NLME_LeaveReq::?relay`
        FUNCTION `??NLME_LeaveReq::?relay`,00H
        EXTERN `??RegisterForKeys::?relay`
        FUNCTION `??RegisterForKeys::?relay`,00H
        EXTERN `??Relais::?relay`
        FUNCTION `??Relais::?relay`,00H
        EXTERN `??UART_String::?relay`
        FUNCTION `??UART_String::?relay`,00H
        EXTERN `??WS2812_SendLED::?relay`
        FUNCTION `??WS2812_SendLED::?relay`,00H
        EXTERN `??ZDApp_LeaveReset::?relay`
        FUNCTION `??ZDApp_LeaveReset::?relay`,00H
        EXTERN `??_delay_ms::?relay`
        FUNCTION `??_delay_ms::?relay`,00H
        EXTERN `??afRegister::?relay`
        FUNCTION `??afRegister::?relay`,00H
        EXTERN `??ledSet::?relay`
        FUNCTION `??ledSet::?relay`,00H
        EXTERN `??osal_mem_alloc::?relay`
        FUNCTION `??osal_mem_alloc::?relay`,00H
        EXTERN `??osal_mem_free::?relay`
        FUNCTION `??osal_mem_free::?relay`,00H
        EXTERN `??osal_memset::?relay`
        FUNCTION `??osal_memset::?relay`,00H
        EXTERN `??osal_msg_deallocate::?relay`
        FUNCTION `??osal_msg_deallocate::?relay`,00H
        EXTERN `??osal_msg_receive::?relay`
        FUNCTION `??osal_msg_receive::?relay`,00H
        EXTERN `??osal_start_timerEx::?relay`
        FUNCTION `??osal_start_timerEx::?relay`,00H
        EXTERN `??osal_stop_timerEx::?relay`
        FUNCTION `??osal_stop_timerEx::?relay`,00H
        EXTERN `??pow::?relay`
        FUNCTION `??pow::?relay`,00H
        EXTERN `??sprintf::?relay`
        FUNCTION `??sprintf::?relay`,00H
        EXTERN `??sysInit::?relay`
        FUNCTION `??sysInit::?relay`,00H
        EXTERN `??zclClosures_RegisterDoorLockCmdCallbacks::?re`
        FUNCTION `??zclClosures_RegisterDoorLockCmdCallbacks::?re`,00H
        EXTERN `??zclClosures_SendDoorLockStatusResponse::?rela`
        FUNCTION `??zclClosures_SendDoorLockStatusResponse::?rela`,00H
        EXTERN `??zclDiagnostic_InitStats::?relay`
        FUNCTION `??zclDiagnostic_InitStats::?relay`,00H
        EXTERN `??zclDiagnostic_ReadWriteAttrCB::?relay`
        FUNCTION `??zclDiagnostic_ReadWriteAttrCB::?relay`,00H
        EXTERN `??zclGeneral_RegisterCmdCallbacks::?relay`
        FUNCTION `??zclGeneral_RegisterCmdCallbacks::?relay`,00H
        EXTERN `??zclHA_Init::?relay`
        FUNCTION `??zclHA_Init::?relay`,00H
        EXTERN `??zclLighting_RegisterCmdCallbacks::?relay`
        FUNCTION `??zclLighting_RegisterCmdCallbacks::?relay`,00H
        EXTERN `??zcl_SendReportCmd::?relay`
        FUNCTION `??zcl_SendReportCmd::?relay`,00H
        EXTERN `??zcl_getRawAFMsg::?relay`
        FUNCTION `??zcl_getRawAFMsg::?relay`,00H
        EXTERN `??zcl_registerAttrList::?relay`
        FUNCTION `??zcl_registerAttrList::?relay`,00H
        EXTERN `??zcl_registerForMsg::?relay`
        FUNCTION `??zcl_registerForMsg::?relay`,00H
        EXTERN `??zcl_registerReadWriteCB::?relay`
        FUNCTION `??zcl_registerReadWriteCB::?relay`,00H
        EXTERN `??zgWriteStartupOptions::?relay`
        FUNCTION `??zgWriteStartupOptions::?relay`,00H
        EXTERN ADC_Voltage
        EXTERN CPU_Temperature
        EXTERN DIG_IN
        EXTERN EXT_Humidity
        EXTERN EXT_Temperature
        EXTERN EXT_Temperature_string
        EXTERN GetRandomNumber
        FUNCTION GetRandomNumber,0202H
        ARGFRAME ISTACK, 0, STACK
        ARGFRAME PSTACK, 0, STACK
        ARGFRAME XSTACK, 9, STACK
        ARGFRAME IOVERLAY, 0, STATIC
        ARGFRAME DOVERLAY, 0, STATIC
        EXTERN LED
        FUNCTION LED,0202H
        ARGFRAME ISTACK, 0, STACK
        ARGFRAME PSTACK, 0, STACK
        ARGFRAME XSTACK, 10, STACK
        ARGFRAME IOVERLAY, 0, STATIC
        ARGFRAME DOVERLAY, 0, STATIC
        EXTERN NLME_LeaveReq
        FUNCTION NLME_LeaveReq,0202H
        ARGFRAME ISTACK, 2, STACK
        ARGFRAME PSTACK, 0, STACK
        ARGFRAME XSTACK, 5, STACK
        ARGFRAME IOVERLAY, 0, STATIC
        ARGFRAME DOVERLAY, 0, STATIC
        EXTERN RegisterForKeys
        FUNCTION RegisterForKeys,0202H
        ARGFRAME ISTACK, 0, STACK
        ARGFRAME PSTACK, 0, STACK
        ARGFRAME XSTACK, 9, STACK
        ARGFRAME IOVERLAY, 0, STATIC
        ARGFRAME DOVERLAY, 0, STATIC
        EXTERN Relais
        FUNCTION Relais,0202H
        ARGFRAME ISTACK, 0, STACK
        ARGFRAME PSTACK, 0, STACK
        ARGFRAME XSTACK, 110, STACK
        ARGFRAME IOVERLAY, 0, STATIC
        ARGFRAME DOVERLAY, 0, STATIC
        EXTERN S0
        EXTERN STATE_LED
        EXTERN STATE_LIGHT
        EXTERN UART_String
        FUNCTION UART_String,0202H
        ARGFRAME ISTACK, 0, STACK
        ARGFRAME PSTACK, 0, STACK
        ARGFRAME XSTACK, 129, STACK
        ARGFRAME IOVERLAY, 0, STATIC
        ARGFRAME DOVERLAY, 0, STATIC
        EXTERN WS2812_SendLED
        FUNCTION WS2812_SendLED,0202H
        ARGFRAME ISTACK, 0, STACK
        ARGFRAME PSTACK, 0, STACK
        ARGFRAME XSTACK, 129, STACK
        ARGFRAME IOVERLAY, 0, STATIC
        ARGFRAME DOVERLAY, 0, STATIC
        EXTERN ZDApp_LeaveReset
        FUNCTION ZDApp_LeaveReset,0202H
        ARGFRAME ISTACK, 2, STACK
        ARGFRAME PSTACK, 0, STACK
        ARGFRAME XSTACK, 5, STACK
        ARGFRAME IOVERLAY, 0, STATIC
        ARGFRAME DOVERLAY, 0, STATIC
        EXTERN _delay_ms
        FUNCTION _delay_ms,0202H
        ARGFRAME ISTACK, 0, STACK
        ARGFRAME PSTACK, 0, STACK
        ARGFRAME XSTACK, 9, STACK
        ARGFRAME IOVERLAY, 0, STATIC
        ARGFRAME DOVERLAY, 0, STATIC
        EXTERN afRegister
        FUNCTION afRegister,0202H
        ARGFRAME ISTACK, 0, STACK
        ARGFRAME PSTACK, 0, STACK
        ARGFRAME XSTACK, 9, STACK
        ARGFRAME IOVERLAY, 0, STATIC
        ARGFRAME DOVERLAY, 0, STATIC
        EXTERN ledSet
        FUNCTION ledSet,0202H
        ARGFRAME ISTACK, 0, STACK
        ARGFRAME PSTACK, 0, STACK
        ARGFRAME XSTACK, 110, STACK
        ARGFRAME IOVERLAY, 0, STATIC
        ARGFRAME DOVERLAY, 0, STATIC
        EXTERN osal_mem_alloc
        FUNCTION osal_mem_alloc,0202H
        ARGFRAME ISTACK, 0, STACK
        ARGFRAME PSTACK, 0, STACK
        ARGFRAME XSTACK, 14, STACK
        ARGFRAME IOVERLAY, 0, STATIC
        ARGFRAME DOVERLAY, 0, STATIC
        EXTERN osal_mem_free
        FUNCTION osal_mem_free,0202H
        ARGFRAME ISTACK, 0, STACK
        ARGFRAME PSTACK, 0, STACK
        ARGFRAME XSTACK, 14, STACK
        ARGFRAME IOVERLAY, 0, STATIC
        ARGFRAME DOVERLAY, 0, STATIC
        EXTERN osal_memset
        FUNCTION osal_memset,0202H
        ARGFRAME ISTACK, 2, STACK
        ARGFRAME PSTACK, 0, STACK
        ARGFRAME XSTACK, 5, STACK
        ARGFRAME IOVERLAY, 0, STATIC
        ARGFRAME DOVERLAY, 0, STATIC
        EXTERN osal_msg_deallocate
        FUNCTION osal_msg_deallocate,0202H
        ARGFRAME ISTACK, 0, STACK
        ARGFRAME PSTACK, 0, STACK
        ARGFRAME XSTACK, 12, STACK
        ARGFRAME IOVERLAY, 0, STATIC
        ARGFRAME DOVERLAY, 0, STATIC
        EXTERN osal_msg_receive
        FUNCTION osal_msg_receive,0202H
        ARGFRAME ISTACK, 0, STACK
        ARGFRAME PSTACK, 0, STACK
        ARGFRAME XSTACK, 12, STACK
        ARGFRAME IOVERLAY, 0, STATIC
        ARGFRAME DOVERLAY, 0, STATIC
        EXTERN osal_start_timerEx
        FUNCTION osal_start_timerEx,0202H
        ARGFRAME ISTACK, 2, STACK
        ARGFRAME PSTACK, 0, STACK
        ARGFRAME XSTACK, 4, STACK
        ARGFRAME IOVERLAY, 0, STATIC
        ARGFRAME DOVERLAY, 0, STATIC
        EXTERN osal_stop_timerEx
        FUNCTION osal_stop_timerEx,0202H
        ARGFRAME ISTACK, 2, STACK
        ARGFRAME PSTACK, 0, STACK
        ARGFRAME XSTACK, 0, STACK
        ARGFRAME IOVERLAY, 0, STATIC
        ARGFRAME DOVERLAY, 0, STATIC
        EXTERN pow
        FUNCTION pow,010202H
        ARGFRAME ISTACK, 0, STACK
        ARGFRAME PSTACK, 0, STACK
        ARGFRAME XSTACK, 133, STACK
        ARGFRAME IOVERLAY, 0, STATIC
        ARGFRAME DOVERLAY, 0, STATIC
        EXTERN sprintf
        FUNCTION sprintf,0202H
        ARGFRAME ISTACK, 0, STACK
        ARGFRAME PSTACK, 0, STACK
        ARGFRAME XSTACK, 135, STACK
        ARGFRAME IOVERLAY, 0, STATIC
        ARGFRAME DOVERLAY, 0, STATIC
        EXTERN sysInit
        FUNCTION sysInit,0202H
        ARGFRAME ISTACK, 0, STACK
        ARGFRAME PSTACK, 0, STACK
        ARGFRAME XSTACK, 9, STACK
        ARGFRAME IOVERLAY, 0, STATIC
        ARGFRAME DOVERLAY, 0, STATIC
        EXTERN zclClosures_RegisterDoorLockCmdCallbacks
        FUNCTION zclClosures_RegisterDoorLockCmdCallbacks,0202H
        ARGFRAME ISTACK, 0, STACK
        ARGFRAME PSTACK, 0, STACK
        ARGFRAME XSTACK, 9, STACK
        ARGFRAME IOVERLAY, 0, STATIC
        ARGFRAME DOVERLAY, 0, STATIC
        EXTERN zclClosures_SendDoorLockStatusResponse
        FUNCTION zclClosures_SendDoorLockStatusResponse,0202H
        ARGFRAME ISTACK, 0, STACK
        ARGFRAME PSTACK, 0, STACK
        ARGFRAME XSTACK, 12, STACK
        ARGFRAME IOVERLAY, 0, STATIC
        ARGFRAME DOVERLAY, 0, STATIC
        EXTERN zclDiagnostic_InitStats
        FUNCTION zclDiagnostic_InitStats,0202H
        ARGFRAME ISTACK, 0, STACK
        ARGFRAME PSTACK, 0, STACK
        ARGFRAME XSTACK, 9, STACK
        ARGFRAME IOVERLAY, 0, STATIC
        ARGFRAME DOVERLAY, 0, STATIC
        EXTERN zclGeneral_RegisterCmdCallbacks
        FUNCTION zclGeneral_RegisterCmdCallbacks,0202H
        ARGFRAME ISTACK, 0, STACK
        ARGFRAME PSTACK, 0, STACK
        ARGFRAME XSTACK, 9, STACK
        ARGFRAME IOVERLAY, 0, STATIC
        ARGFRAME DOVERLAY, 0, STATIC
        EXTERN zclHA_Init
        FUNCTION zclHA_Init,0202H
        ARGFRAME ISTACK, 0, STACK
        ARGFRAME PSTACK, 0, STACK
        ARGFRAME XSTACK, 9, STACK
        ARGFRAME IOVERLAY, 0, STATIC
        ARGFRAME DOVERLAY, 0, STATIC
        EXTERN zclLighting_RegisterCmdCallbacks
        FUNCTION zclLighting_RegisterCmdCallbacks,0202H
        ARGFRAME ISTACK, 0, STACK
        ARGFRAME PSTACK, 0, STACK
        ARGFRAME XSTACK, 9, STACK
        ARGFRAME IOVERLAY, 0, STATIC
        ARGFRAME DOVERLAY, 0, STATIC
        EXTERN zclZigUPSeqNum
        EXTERN zclZigUP_Attrs
        EXTERN zclZigUP_IdentifyTime
        EXTERN zclZigUP_NumAttributes
        EXTERN zclZigUP_SimpleDesc
        EXTERN zclZigUP_TaskID
        EXTERN zcl_SendReportCmd
        FUNCTION zcl_SendReportCmd,0202H
        ARGFRAME ISTACK, 0, STACK
        ARGFRAME PSTACK, 0, STACK
        ARGFRAME XSTACK, 19, STACK
        ARGFRAME IOVERLAY, 0, STATIC
        ARGFRAME DOVERLAY, 0, STATIC
        EXTERN zcl_getRawAFMsg
        FUNCTION zcl_getRawAFMsg,0202H
        ARGFRAME ISTACK, 0, STACK
        ARGFRAME PSTACK, 0, STACK
        ARGFRAME XSTACK, 110, STACK
        ARGFRAME IOVERLAY, 0, STATIC
        ARGFRAME DOVERLAY, 0, STATIC
        EXTERN zcl_registerAttrList
        FUNCTION zcl_registerAttrList,0202H
        ARGFRAME ISTACK, 0, STACK
        ARGFRAME PSTACK, 0, STACK
        ARGFRAME XSTACK, 9, STACK
        ARGFRAME IOVERLAY, 0, STATIC
        ARGFRAME DOVERLAY, 0, STATIC
        EXTERN zcl_registerForMsg
        FUNCTION zcl_registerForMsg,0202H
        ARGFRAME ISTACK, 0, STACK
        ARGFRAME PSTACK, 0, STACK
        ARGFRAME XSTACK, 9, STACK
        ARGFRAME IOVERLAY, 0, STATIC
        ARGFRAME DOVERLAY, 0, STATIC
        EXTERN zcl_registerReadWriteCB
        FUNCTION zcl_registerReadWriteCB,0202H
        ARGFRAME ISTACK, 0, STACK
        ARGFRAME PSTACK, 0, STACK
        ARGFRAME XSTACK, 9, STACK
        ARGFRAME IOVERLAY, 0, STATIC
        ARGFRAME DOVERLAY, 0, STATIC
        EXTERN zgWriteStartupOptions
        FUNCTION zgWriteStartupOptions,0202H
        ARGFRAME ISTACK, 2, STACK
        ARGFRAME PSTACK, 0, STACK
        ARGFRAME XSTACK, 5, STACK
        ARGFRAME IOVERLAY, 0, STATIC
        ARGFRAME DOVERLAY, 0, STATIC

// D:\Z-Stack Home 1.2.2a.44539\Projects\zstack\HomeAutomation\ZigUP\Source\zcl_zigup.c
//    1 #include <stdlib.h>
//    2 #include <string.h>
//    3 #include <stdio.h>
//    4 #include <math.h>
//    5 
//    6 #include "zcl_lighting.h"
//    7 #include "zcl_closures.h"
//    8 #include "zcl_zigup.h"
//    9 #include "zcl.h"
//   10 #include "zcl_ha.h"
//   11 #include "zcl_diagnostic.h"
//   12 
//   13 #include "onboard.h"
//   14 #include "ZDSecMgr.h"
//   15 #include "bitmasks.h"
//   16 #include "delay.h"
//   17 #include "ds18b20.h"
//   18 #include "uart.h"
//   19 #include "global.h"
//   20 #include "adc.h"
//   21 #include "random.h"
//   22 #include "ws2812.h"
//   23 #include "interrupts.h"
//   24 #include "led.h"
//   25 #include "dht22.h"
//   26 #include "utils.h"
//   27 
//   28 #include "app.h"
//   29 
//   30 #define ZIGUP_REPORTING_INTERVAL 800 // 200ms
//   31 

        RSEG XDATA_Z:XDATA:NOROOT(0)
        DATA8
//   32 afAddrType_t zclZigUP_DstAddr;
zclZigUP_DstAddr:
        DS 12
        REQUIRE __INIT_XDATA_Z
//   33 
//   34 // Test Endpoint to allow SYS_APP_MSGs

        RSEG XDATA_I:XDATA:NOROOT(0)
//   35 static endPointDesc_t ZigUP_TestEp =
ZigUP_TestEp:
        DATA8
        DS 6
        REQUIRE `?<Initializer for ZigUP_TestEp>`
        REQUIRE __INIT_XDATA_I
//   36 {
//   37   ZIGUP_ENDPOINT,
//   38   &zclZigUP_TaskID,
//   39   (SimpleDescriptionFormat_t *)NULL,  // No Simple description for this test endpoint
//   40   (afNetworkLatencyReq_t)0            // No Network Latency req
//   41 };
//   42 

        RSEG XDATA_I:XDATA:NOROOT(0)
//   43 devStates_t zclZigUP_NwkState = DEV_INIT;
zclZigUP_NwkState:
        DATA8
        DS 1
        REQUIRE `?<Initializer for zclZigUP_NwkState>`
        REQUIRE __INIT_XDATA_I
//   44 
//   45 //×´Ì¬¸üÐÂ

        RSEG BANKED_CODE:HUGECODE:NOROOT(0)
//   46 void zclZigUP_Reporting(uint16 REPORT_REASON)
zclZigUP_Reporting:
          CFI Block cfiBlock0 Using cfiCommon0
          CFI Function zclZigUP_Reporting
        CODE
//   47 {
        FUNCALL zclZigUP_Reporting, osal_mem_alloc
        LOCFRAME ISTACK, 0, STACK
        LOCFRAME PSTACK, 0, STACK
        LOCFRAME XSTACK, 14, STACK
        LOCFRAME IOVERLAY, 0, STATIC
        LOCFRAME DOVERLAY, 0, STATIC
        ARGFRAME ISTACK, 0, STACK
        ARGFRAME PSTACK, 0, STACK
        ARGFRAME XSTACK, 14, STACK
        ARGFRAME IOVERLAY, 0, STATIC
        ARGFRAME DOVERLAY, 0, STATIC
        FUNCALL zclZigUP_Reporting, zcl_SendReportCmd
        LOCFRAME ISTACK, 0, STACK
        LOCFRAME PSTACK, 0, STACK
        LOCFRAME XSTACK, 19, STACK
        LOCFRAME IOVERLAY, 0, STATIC
        LOCFRAME DOVERLAY, 0, STATIC
        ARGFRAME ISTACK, 0, STACK
        ARGFRAME PSTACK, 0, STACK
        ARGFRAME XSTACK, 19, STACK
        ARGFRAME IOVERLAY, 0, STATIC
        ARGFRAME DOVERLAY, 0, STATIC
        FUNCALL zclZigUP_Reporting, osal_mem_free
        LOCFRAME ISTACK, 0, STACK
        LOCFRAME PSTACK, 0, STACK
        LOCFRAME XSTACK, 14, STACK
        LOCFRAME IOVERLAY, 0, STATIC
        LOCFRAME DOVERLAY, 0, STATIC
        ARGFRAME ISTACK, 0, STACK
        ARGFRAME PSTACK, 0, STACK
        ARGFRAME XSTACK, 14, STACK
        ARGFRAME IOVERLAY, 0, STATIC
        ARGFRAME DOVERLAY, 0, STATIC
        REQUIRE ?V0
        REQUIRE ?V1
        REQUIRE ?V2
        REQUIRE ?V3
        MOV       A,#-0xc
        LCALL     ?BANKED_ENTER_XDATA
          CFI DPH0 load(1, XDATA, add(CFA_XSP16, literal(-1)))
          CFI DPL0 load(1, XDATA, add(CFA_XSP16, literal(-2)))
          CFI ?BRET_EXT load(1, XDATA, add(CFA_XSP16, literal(-3)))
          CFI ?RET_HIGH load(1, XDATA, add(CFA_XSP16, literal(-4)))
          CFI ?RET_LOW load(1, XDATA, add(CFA_XSP16, literal(-5)))
          CFI R7 load(1, XDATA, add(CFA_XSP16, literal(-6)))
          CFI V3 load(1, XDATA, add(CFA_XSP16, literal(-7)))
          CFI V2 load(1, XDATA, add(CFA_XSP16, literal(-8)))
          CFI V1 load(1, XDATA, add(CFA_XSP16, literal(-9)))
          CFI V0 load(1, XDATA, add(CFA_XSP16, literal(-10)))
          CFI VB load(1, XDATA, add(CFA_XSP16, literal(-11)))
          CFI R6 load(1, XDATA, add(CFA_XSP16, literal(-12)))
          CFI CFA_SP SP+0
          CFI CFA_XSP16 add(XSP16, 12)
        ; Saved register size: 12
        ; Auto size: 2
        MOV       A,#-0x2
        LCALL     ?ALLOC_XSTACK8
          CFI CFA_XSP16 add(XSP16, 14)
        MOV       DPL,?XSP + 0
        MOV       DPH,?XSP + 1
        MOV       A,R2
        MOVX      @DPTR,A
        INC       DPTR
        MOV       A,R3
        MOVX      @DPTR,A
//   48   const uint8 NUM_ATTRIBUTES = 9;
//   49   
//   50   // send report
//   51   zclReportCmd_t *pReportCmd;
//   52   
//   53   pReportCmd = osal_mem_alloc( sizeof(zclReportCmd_t) + ( NUM_ATTRIBUTES * sizeof(zclReport_t) ) );
        ; Setup parameters for call to function osal_mem_alloc
        MOV       R2,#0x2e
        MOV       R3,#0x0
        LCALL     `??osal_mem_alloc::?relay`; Banked call to: osal_mem_alloc
        MOV       ?V0,R2
        MOV       ?V1,R3
//   54   if ( pReportCmd != NULL )
        MOV       A,R2
        ORL       A,?V1
        JNZ       $+5
        LJMP      ??zclZigUP_Reporting_0 & 0xFFFF
//   55   {
//   56     pReportCmd->numAttr = NUM_ATTRIBUTES;
        MOV       DPL,R2
        MOV       DPH,R3
        MOV       A,#0x9
        MOVX      @DPTR,A
//   57     
//   58     pReportCmd->attrList[0].attrID = ATTRID_ON_OFF;
        INC       DPTR
        CLR       A
        MOVX      @DPTR,A
        INC       DPTR
        LCALL     ?Subroutine14 & 0xFFFF
//   59     pReportCmd->attrList[0].dataType = ZCL_DATATYPE_BOOLEAN;
??CrossCallReturnLabel_39:
        MOV       A,#0x10
        LCALL     ?Subroutine6 & 0xFFFF
//   60     pReportCmd->attrList[0].attrData = (void *)(&STATE_LIGHT);
??CrossCallReturnLabel_12:
        MOV       A,#STATE_LIGHT & 0xff
        MOVX      @DPTR,A
        INC       DPTR
        MOV       A,#(STATE_LIGHT >> 8) & 0xff
        LCALL     ?Subroutine6 & 0xFFFF
//   61     
//   62     pReportCmd->attrList[1].attrID = ATTRID_CPU_TEMP;
??CrossCallReturnLabel_13:
        INC       DPTR
        INC       DPTR
        MOV       A,#-0x6f
        MOVX      @DPTR,A
        INC       DPTR
        MOV       A,#-0x5f
        LCALL     ?Subroutine4 & 0xFFFF
//   63     pReportCmd->attrList[1].dataType = ZCL_DATATYPE_SINGLE_PREC;
??CrossCallReturnLabel_7:
        MOV       A,#0x39
        LCALL     ?Subroutine4 & 0xFFFF
//   64     pReportCmd->attrList[1].attrData = (void *)(&CPU_Temperature);
??CrossCallReturnLabel_8:
        INC       DPTR
        MOV       A,#CPU_Temperature & 0xff
        MOVX      @DPTR,A
        INC       DPTR
        MOV       A,#(CPU_Temperature >> 8) & 0xff
        MOVX      @DPTR,A
//   65     
//   66     pReportCmd->attrList[2].attrID = ATTRID_EXT_TEMP;
        MOV       A,R2
        ADD       A,#0xb
        LCALL     ?Subroutine8 & 0xFFFF
??CrossCallReturnLabel_16:
        MOV       A,#-0x6e
        LCALL     ?Subroutine3 & 0xFFFF
//   67     pReportCmd->attrList[2].dataType = ZCL_DATATYPE_SINGLE_PREC;
??CrossCallReturnLabel_0:
        ADD       A,#0xd
        LCALL     ?Subroutine5 & 0xFFFF
//   68     pReportCmd->attrList[2].attrData = (void *)(&EXT_Temperature);
??CrossCallReturnLabel_9:
        ADD       A,#0xe
        LCALL     ?Subroutine8 & 0xFFFF
??CrossCallReturnLabel_17:
        MOV       A,#EXT_Temperature & 0xff
        MOVX      @DPTR,A
        INC       DPTR
        MOV       A,#(EXT_Temperature >> 8) & 0xff
        MOVX      @DPTR,A
//   69     
//   70     pReportCmd->attrList[3].attrID = ATTRID_EXT_HUMI;
        MOV       A,R2
        ADD       A,#0x10
        LCALL     ?Subroutine8 & 0xFFFF
??CrossCallReturnLabel_18:
        MOV       A,#-0x6d
        LCALL     ?Subroutine3 & 0xFFFF
//   71     pReportCmd->attrList[3].dataType = ZCL_DATATYPE_SINGLE_PREC;
??CrossCallReturnLabel_1:
        ADD       A,#0x12
        LCALL     ?Subroutine5 & 0xFFFF
//   72     pReportCmd->attrList[3].attrData = (void *)(&EXT_Humidity);
??CrossCallReturnLabel_10:
        ADD       A,#0x13
        LCALL     ?Subroutine8 & 0xFFFF
??CrossCallReturnLabel_19:
        MOV       A,#EXT_Humidity & 0xff
        MOVX      @DPTR,A
        INC       DPTR
        MOV       A,#(EXT_Humidity >> 8) & 0xff
        MOVX      @DPTR,A
//   73     
//   74     pReportCmd->attrList[4].attrID = ATTRID_S0_COUNTS;
        MOV       A,R2
        ADD       A,#0x15
        LCALL     ?Subroutine8 & 0xFFFF
??CrossCallReturnLabel_20:
        MOV       A,#-0x6c
        LCALL     ?Subroutine3 & 0xFFFF
//   75     pReportCmd->attrList[4].dataType = ZCL_DATATYPE_UINT32;
??CrossCallReturnLabel_2:
        ADD       A,#0x17
        LCALL     ?Subroutine8 & 0xFFFF
??CrossCallReturnLabel_21:
        MOV       A,#0x23
        MOVX      @DPTR,A
//   76     pReportCmd->attrList[4].attrData = (void *)(&S0);
        MOV       A,R2
        ADD       A,#0x18
        LCALL     ?Subroutine8 & 0xFFFF
??CrossCallReturnLabel_22:
        MOV       A,#S0 & 0xff
        MOVX      @DPTR,A
        INC       DPTR
        MOV       A,#(S0 >> 8) & 0xff
        MOVX      @DPTR,A
//   77     
//   78     pReportCmd->attrList[5].attrID = ATTRID_ADC_VOLT;
        MOV       A,R2
        ADD       A,#0x1a
        LCALL     ?Subroutine8 & 0xFFFF
??CrossCallReturnLabel_23:
        MOV       A,#-0x6b
        LCALL     ?Subroutine3 & 0xFFFF
//   79     pReportCmd->attrList[5].dataType = ZCL_DATATYPE_SINGLE_PREC;
??CrossCallReturnLabel_3:
        ADD       A,#0x1c
        LCALL     ?Subroutine5 & 0xFFFF
//   80     pReportCmd->attrList[5].attrData = (void *)(&ADC_Voltage);
??CrossCallReturnLabel_11:
        ADD       A,#0x1d
        LCALL     ?Subroutine8 & 0xFFFF
??CrossCallReturnLabel_24:
        MOV       A,#ADC_Voltage & 0xff
        MOVX      @DPTR,A
        INC       DPTR
        MOV       A,#(ADC_Voltage >> 8) & 0xff
        MOVX      @DPTR,A
//   81     
//   82     pReportCmd->attrList[6].attrID = ATTRID_DIG_INPUT;
        MOV       A,R2
        ADD       A,#0x1f
        LCALL     ?Subroutine8 & 0xFFFF
??CrossCallReturnLabel_25:
        MOV       A,#-0x6a
        LCALL     ?Subroutine3 & 0xFFFF
//   83     pReportCmd->attrList[6].dataType = ZCL_DATATYPE_UINT16; // boolean or uint8 causes every second report to hang...
??CrossCallReturnLabel_4:
        ADD       A,#0x21
        LCALL     ?Subroutine7 & 0xFFFF
//   84     pReportCmd->attrList[6].attrData = (void *)(&DIG_IN);
??CrossCallReturnLabel_14:
        ADD       A,#0x22
        LCALL     ?Subroutine8 & 0xFFFF
??CrossCallReturnLabel_26:
        MOV       A,#DIG_IN & 0xff
        MOVX      @DPTR,A
        INC       DPTR
        MOV       A,#(DIG_IN >> 8) & 0xff
        MOVX      @DPTR,A
//   85 
//   86     pReportCmd->attrList[7].attrID = ATTRID_REPORT_REASON;
        MOV       A,R2
        ADD       A,#0x24
        LCALL     ?Subroutine8 & 0xFFFF
??CrossCallReturnLabel_27:
        MOV       A,#-0x69
        LCALL     ?Subroutine3 & 0xFFFF
//   87     pReportCmd->attrList[7].dataType = ZCL_DATATYPE_UINT16;
??CrossCallReturnLabel_5:
        ADD       A,#0x26
        LCALL     ?Subroutine7 & 0xFFFF
//   88     pReportCmd->attrList[7].attrData = (void *)(&REPORT_REASON);
??CrossCallReturnLabel_15:
        ADD       A,#0x27
        LCALL     ?Subroutine8 & 0xFFFF
??CrossCallReturnLabel_28:
        MOV       A,?XSP + 0
        MOVX      @DPTR,A
        INC       DPTR
        MOV       A,?XSP + 1
        MOVX      @DPTR,A
//   89  
//   90     pReportCmd->attrList[8].attrID = ATTRID_EXT_TEMPS;
        MOV       A,R2
        ADD       A,#0x29
        LCALL     ?Subroutine8 & 0xFFFF
??CrossCallReturnLabel_29:
        MOV       A,#-0x68
        LCALL     ?Subroutine3 & 0xFFFF
//   91     pReportCmd->attrList[8].dataType = ZCL_DATATYPE_CHAR_STR;
??CrossCallReturnLabel_6:
        ADD       A,#0x2b
        LCALL     ?Subroutine8 & 0xFFFF
??CrossCallReturnLabel_30:
        MOV       A,#0x42
        MOVX      @DPTR,A
//   92     pReportCmd->attrList[8].attrData = (void *)(&EXT_Temperature_string);
        MOV       A,R2
        ADD       A,#0x2c
        LCALL     ?Subroutine8 & 0xFFFF
??CrossCallReturnLabel_31:
        MOV       A,#EXT_Temperature_string & 0xff
        MOVX      @DPTR,A
        INC       DPTR
        MOV       A,#(EXT_Temperature_string >> 8) & 0xff
        MOVX      @DPTR,A
//   93    
//   94       
//   95     zclZigUP_DstAddr.addrMode = (afAddrMode_t)Addr16Bit;
        MOV       DPTR,#zclZigUP_DstAddr + 8
        MOV       A,#0x2
        MOVX      @DPTR,A
//   96     zclZigUP_DstAddr.addr.shortAddr = 0;
        MOV       DPTR,#zclZigUP_DstAddr
        CLR       A
        MOVX      @DPTR,A
        INC       DPTR
        MOVX      @DPTR,A
//   97     zclZigUP_DstAddr.endPoint=1;
        MOV       DPTR,#zclZigUP_DstAddr + 9
        INC       A
        MOVX      @DPTR,A
//   98     
//   99     zcl_SendReportCmd( ZIGUP_ENDPOINT, &zclZigUP_DstAddr, ZCL_CLUSTER_ID_GEN_ON_OFF, pReportCmd, ZCL_FRAME_CLIENT_SERVER_DIR, false, zclZigUPSeqNum++ );
        MOV       DPTR,#zclZigUPSeqNum
        LCALL     ??Subroutine15_0 & 0xFFFF
//  100   }
??CrossCallReturnLabel_41:
        ADD       A,#0x1
        MOV       R2,A
        CLR       A
        ADDC      A,R1
        MOV       R3,A
        MOV       DPTR,#zclZigUPSeqNum
        MOV       A,R2
        MOVX      @DPTR,A
        INC       DPTR
        MOV       A,R3
        MOVX      @DPTR,A
        ; Setup parameters for call to function zcl_SendReportCmd
        MOV       A,R0
        MOV       ?V2,A
        MOV       R0,#?V2
        LCALL     ?PUSH_XSTACK_I_ONE
          CFI CFA_XSP16 add(XSP16, 15)
        MOV       ?V2,#0x0
        MOV       R0,#?V2
        LCALL     ?PUSH_XSTACK_I_ONE
          CFI CFA_XSP16 add(XSP16, 16)
        MOV       R0,#?V2
        LCALL     ?PUSH_XSTACK_I_ONE
          CFI CFA_XSP16 add(XSP16, 17)
        MOV       R0,#?V0
        LCALL     ?PUSH_XSTACK_I_TWO
          CFI CFA_XSP16 add(XSP16, 19)
        MOV       R4,#0x6
        MOV       R5,#0x0
        MOV       R2,#zclZigUP_DstAddr & 0xff
        MOV       R3,#(zclZigUP_DstAddr >> 8) & 0xff
        MOV       R1,#0x8
        LCALL     `??zcl_SendReportCmd::?relay`; Banked call to: zcl_SendReportCmd
        MOV       A,#0x5
        LCALL     ?DEALLOC_XSTACK8
          CFI CFA_XSP16 add(XSP16, 14)
//  101   
//  102   osal_mem_free( pReportCmd );
??zclZigUP_Reporting_0:
        ; Setup parameters for call to function osal_mem_free
        MOV       R2,?V0
        MOV       R3,?V1
        LCALL     `??osal_mem_free::?relay`; Banked call to: osal_mem_free
//  103 }
        MOV       A,#0x2
        LCALL     ?DEALLOC_XSTACK8
          CFI EndBlock cfiBlock0
        REQUIRE ?Subroutine0
        ; // Fall through to label ?Subroutine0

        RSEG BANKED_CODE:HUGECODE:NOROOT(0)
?Subroutine0:
          CFI Block cfiBlock1 Using cfiCommon0
          CFI NoFunction
          CFI CFA_SP SP+0
          CFI CFA_XSP16 add(XSP16, 12)
          CFI VB load(1, XDATA, add(CFA_XSP16, literal(-11)))
          CFI DPL0 load(1, XDATA, add(CFA_XSP16, literal(-2)))
          CFI DPH0 load(1, XDATA, add(CFA_XSP16, literal(-1)))
          CFI R6 load(1, XDATA, add(CFA_XSP16, literal(-12)))
          CFI R7 load(1, XDATA, add(CFA_XSP16, literal(-6)))
          CFI V0 load(1, XDATA, add(CFA_XSP16, literal(-10)))
          CFI V1 load(1, XDATA, add(CFA_XSP16, literal(-9)))
          CFI V2 load(1, XDATA, add(CFA_XSP16, literal(-8)))
          CFI V3 load(1, XDATA, add(CFA_XSP16, literal(-7)))
          CFI ?BRET_EXT load(1, XDATA, add(CFA_XSP16, literal(-3)))
          CFI ?RET_HIGH load(1, XDATA, add(CFA_XSP16, literal(-4)))
          CFI ?RET_LOW load(1, XDATA, add(CFA_XSP16, literal(-5)))
        MOV       R7,#0x4
        LJMP      ?BANKED_LEAVE_XDATA
          CFI EndBlock cfiBlock1

        RSEG BANKED_CODE:HUGECODE:NOROOT(0)
?Subroutine8:
          CFI Block cfiCond2 Using cfiCommon0
          CFI Function zclZigUP_Reporting
          CFI Conditional ??CrossCallReturnLabel_16
          CFI R6 load(1, XDATA, add(CFA_XSP16, literal(-12)))
          CFI VB load(1, XDATA, add(CFA_XSP16, literal(-11)))
          CFI V0 load(1, XDATA, add(CFA_XSP16, literal(-10)))
          CFI V1 load(1, XDATA, add(CFA_XSP16, literal(-9)))
          CFI V2 load(1, XDATA, add(CFA_XSP16, literal(-8)))
          CFI V3 load(1, XDATA, add(CFA_XSP16, literal(-7)))
          CFI R7 load(1, XDATA, add(CFA_XSP16, literal(-6)))
          CFI ?RET_LOW load(1, XDATA, add(CFA_XSP16, literal(-5)))
          CFI ?RET_HIGH load(1, XDATA, add(CFA_XSP16, literal(-4)))
          CFI ?BRET_EXT load(1, XDATA, add(CFA_XSP16, literal(-3)))
          CFI DPL0 load(1, XDATA, add(CFA_XSP16, literal(-2)))
          CFI DPH0 load(1, XDATA, add(CFA_XSP16, literal(-1)))
          CFI CFA_SP SP+-2
          CFI CFA_XSP16 add(XSP16, 14)
          CFI Block cfiCond3 Using cfiCommon0
          CFI (cfiCond3) Function zclZigUP_Reporting
          CFI (cfiCond3) Conditional ??CrossCallReturnLabel_17
          CFI (cfiCond3) R6 load(1, XDATA, add(CFA_XSP16, literal(-12)))
          CFI (cfiCond3) VB load(1, XDATA, add(CFA_XSP16, literal(-11)))
          CFI (cfiCond3) V0 load(1, XDATA, add(CFA_XSP16, literal(-10)))
          CFI (cfiCond3) V1 load(1, XDATA, add(CFA_XSP16, literal(-9)))
          CFI (cfiCond3) V2 load(1, XDATA, add(CFA_XSP16, literal(-8)))
          CFI (cfiCond3) V3 load(1, XDATA, add(CFA_XSP16, literal(-7)))
          CFI (cfiCond3) R7 load(1, XDATA, add(CFA_XSP16, literal(-6)))
          CFI (cfiCond3) ?RET_LOW load(1, XDATA, add(CFA_XSP16, literal(-5)))
          CFI (cfiCond3) ?RET_HIGH load(1, XDATA, add(CFA_XSP16, literal(-4)))
          CFI (cfiCond3) ?BRET_EXT load(1, XDATA, add(CFA_XSP16, literal(-3)))
          CFI (cfiCond3) DPL0 load(1, XDATA, add(CFA_XSP16, literal(-2)))
          CFI (cfiCond3) DPH0 load(1, XDATA, add(CFA_XSP16, literal(-1)))
          CFI (cfiCond3) CFA_SP SP+-2
          CFI (cfiCond3) CFA_XSP16 add(XSP16, 14)
          CFI Block cfiCond4 Using cfiCommon0
          CFI (cfiCond4) Function zclZigUP_Reporting
          CFI (cfiCond4) Conditional ??CrossCallReturnLabel_18
          CFI (cfiCond4) R6 load(1, XDATA, add(CFA_XSP16, literal(-12)))
          CFI (cfiCond4) VB load(1, XDATA, add(CFA_XSP16, literal(-11)))
          CFI (cfiCond4) V0 load(1, XDATA, add(CFA_XSP16, literal(-10)))
          CFI (cfiCond4) V1 load(1, XDATA, add(CFA_XSP16, literal(-9)))
          CFI (cfiCond4) V2 load(1, XDATA, add(CFA_XSP16, literal(-8)))
          CFI (cfiCond4) V3 load(1, XDATA, add(CFA_XSP16, literal(-7)))
          CFI (cfiCond4) R7 load(1, XDATA, add(CFA_XSP16, literal(-6)))
          CFI (cfiCond4) ?RET_LOW load(1, XDATA, add(CFA_XSP16, literal(-5)))
          CFI (cfiCond4) ?RET_HIGH load(1, XDATA, add(CFA_XSP16, literal(-4)))
          CFI (cfiCond4) ?BRET_EXT load(1, XDATA, add(CFA_XSP16, literal(-3)))
          CFI (cfiCond4) DPL0 load(1, XDATA, add(CFA_XSP16, literal(-2)))
          CFI (cfiCond4) DPH0 load(1, XDATA, add(CFA_XSP16, literal(-1)))
          CFI (cfiCond4) CFA_SP SP+-2
          CFI (cfiCond4) CFA_XSP16 add(XSP16, 14)
          CFI Block cfiCond5 Using cfiCommon0
          CFI (cfiCond5) Function zclZigUP_Reporting
          CFI (cfiCond5) Conditional ??CrossCallReturnLabel_19
          CFI (cfiCond5) R6 load(1, XDATA, add(CFA_XSP16, literal(-12)))
          CFI (cfiCond5) VB load(1, XDATA, add(CFA_XSP16, literal(-11)))
          CFI (cfiCond5) V0 load(1, XDATA, add(CFA_XSP16, literal(-10)))
          CFI (cfiCond5) V1 load(1, XDATA, add(CFA_XSP16, literal(-9)))
          CFI (cfiCond5) V2 load(1, XDATA, add(CFA_XSP16, literal(-8)))
          CFI (cfiCond5) V3 load(1, XDATA, add(CFA_XSP16, literal(-7)))
          CFI (cfiCond5) R7 load(1, XDATA, add(CFA_XSP16, literal(-6)))
          CFI (cfiCond5) ?RET_LOW load(1, XDATA, add(CFA_XSP16, literal(-5)))
          CFI (cfiCond5) ?RET_HIGH load(1, XDATA, add(CFA_XSP16, literal(-4)))
          CFI (cfiCond5) ?BRET_EXT load(1, XDATA, add(CFA_XSP16, literal(-3)))
          CFI (cfiCond5) DPL0 load(1, XDATA, add(CFA_XSP16, literal(-2)))
          CFI (cfiCond5) DPH0 load(1, XDATA, add(CFA_XSP16, literal(-1)))
          CFI (cfiCond5) CFA_SP SP+-2
          CFI (cfiCond5) CFA_XSP16 add(XSP16, 14)
          CFI Block cfiCond6 Using cfiCommon0
          CFI (cfiCond6) Function zclZigUP_Reporting
          CFI (cfiCond6) Conditional ??CrossCallReturnLabel_20
          CFI (cfiCond6) R6 load(1, XDATA, add(CFA_XSP16, literal(-12)))
          CFI (cfiCond6) VB load(1, XDATA, add(CFA_XSP16, literal(-11)))
          CFI (cfiCond6) V0 load(1, XDATA, add(CFA_XSP16, literal(-10)))
          CFI (cfiCond6) V1 load(1, XDATA, add(CFA_XSP16, literal(-9)))
          CFI (cfiCond6) V2 load(1, XDATA, add(CFA_XSP16, literal(-8)))
          CFI (cfiCond6) V3 load(1, XDATA, add(CFA_XSP16, literal(-7)))
          CFI (cfiCond6) R7 load(1, XDATA, add(CFA_XSP16, literal(-6)))
          CFI (cfiCond6) ?RET_LOW load(1, XDATA, add(CFA_XSP16, literal(-5)))
          CFI (cfiCond6) ?RET_HIGH load(1, XDATA, add(CFA_XSP16, literal(-4)))
          CFI (cfiCond6) ?BRET_EXT load(1, XDATA, add(CFA_XSP16, literal(-3)))
          CFI (cfiCond6) DPL0 load(1, XDATA, add(CFA_XSP16, literal(-2)))
          CFI (cfiCond6) DPH0 load(1, XDATA, add(CFA_XSP16, literal(-1)))
          CFI (cfiCond6) CFA_SP SP+-2
          CFI (cfiCond6) CFA_XSP16 add(XSP16, 14)
          CFI Block cfiCond7 Using cfiCommon0
          CFI (cfiCond7) Function zclZigUP_Reporting
          CFI (cfiCond7) Conditional ??CrossCallReturnLabel_21
          CFI (cfiCond7) R6 load(1, XDATA, add(CFA_XSP16, literal(-12)))
          CFI (cfiCond7) VB load(1, XDATA, add(CFA_XSP16, literal(-11)))
          CFI (cfiCond7) V0 load(1, XDATA, add(CFA_XSP16, literal(-10)))
          CFI (cfiCond7) V1 load(1, XDATA, add(CFA_XSP16, literal(-9)))
          CFI (cfiCond7) V2 load(1, XDATA, add(CFA_XSP16, literal(-8)))
          CFI (cfiCond7) V3 load(1, XDATA, add(CFA_XSP16, literal(-7)))
          CFI (cfiCond7) R7 load(1, XDATA, add(CFA_XSP16, literal(-6)))
          CFI (cfiCond7) ?RET_LOW load(1, XDATA, add(CFA_XSP16, literal(-5)))
          CFI (cfiCond7) ?RET_HIGH load(1, XDATA, add(CFA_XSP16, literal(-4)))
          CFI (cfiCond7) ?BRET_EXT load(1, XDATA, add(CFA_XSP16, literal(-3)))
          CFI (cfiCond7) DPL0 load(1, XDATA, add(CFA_XSP16, literal(-2)))
          CFI (cfiCond7) DPH0 load(1, XDATA, add(CFA_XSP16, literal(-1)))
          CFI (cfiCond7) CFA_SP SP+-2
          CFI (cfiCond7) CFA_XSP16 add(XSP16, 14)
          CFI Block cfiCond8 Using cfiCommon0
          CFI (cfiCond8) Function zclZigUP_Reporting
          CFI (cfiCond8) Conditional ??CrossCallReturnLabel_22
          CFI (cfiCond8) R6 load(1, XDATA, add(CFA_XSP16, literal(-12)))
          CFI (cfiCond8) VB load(1, XDATA, add(CFA_XSP16, literal(-11)))
          CFI (cfiCond8) V0 load(1, XDATA, add(CFA_XSP16, literal(-10)))
          CFI (cfiCond8) V1 load(1, XDATA, add(CFA_XSP16, literal(-9)))
          CFI (cfiCond8) V2 load(1, XDATA, add(CFA_XSP16, literal(-8)))
          CFI (cfiCond8) V3 load(1, XDATA, add(CFA_XSP16, literal(-7)))
          CFI (cfiCond8) R7 load(1, XDATA, add(CFA_XSP16, literal(-6)))
          CFI (cfiCond8) ?RET_LOW load(1, XDATA, add(CFA_XSP16, literal(-5)))
          CFI (cfiCond8) ?RET_HIGH load(1, XDATA, add(CFA_XSP16, literal(-4)))
          CFI (cfiCond8) ?BRET_EXT load(1, XDATA, add(CFA_XSP16, literal(-3)))
          CFI (cfiCond8) DPL0 load(1, XDATA, add(CFA_XSP16, literal(-2)))
          CFI (cfiCond8) DPH0 load(1, XDATA, add(CFA_XSP16, literal(-1)))
          CFI (cfiCond8) CFA_SP SP+-2
          CFI (cfiCond8) CFA_XSP16 add(XSP16, 14)
          CFI Block cfiCond9 Using cfiCommon0
          CFI (cfiCond9) Function zclZigUP_Reporting
          CFI (cfiCond9) Conditional ??CrossCallReturnLabel_23
          CFI (cfiCond9) R6 load(1, XDATA, add(CFA_XSP16, literal(-12)))
          CFI (cfiCond9) VB load(1, XDATA, add(CFA_XSP16, literal(-11)))
          CFI (cfiCond9) V0 load(1, XDATA, add(CFA_XSP16, literal(-10)))
          CFI (cfiCond9) V1 load(1, XDATA, add(CFA_XSP16, literal(-9)))
          CFI (cfiCond9) V2 load(1, XDATA, add(CFA_XSP16, literal(-8)))
          CFI (cfiCond9) V3 load(1, XDATA, add(CFA_XSP16, literal(-7)))
          CFI (cfiCond9) R7 load(1, XDATA, add(CFA_XSP16, literal(-6)))
          CFI (cfiCond9) ?RET_LOW load(1, XDATA, add(CFA_XSP16, literal(-5)))
          CFI (cfiCond9) ?RET_HIGH load(1, XDATA, add(CFA_XSP16, literal(-4)))
          CFI (cfiCond9) ?BRET_EXT load(1, XDATA, add(CFA_XSP16, literal(-3)))
          CFI (cfiCond9) DPL0 load(1, XDATA, add(CFA_XSP16, literal(-2)))
          CFI (cfiCond9) DPH0 load(1, XDATA, add(CFA_XSP16, literal(-1)))
          CFI (cfiCond9) CFA_SP SP+-2
          CFI (cfiCond9) CFA_XSP16 add(XSP16, 14)
          CFI Block cfiCond10 Using cfiCommon0
          CFI (cfiCond10) Function zclZigUP_Reporting
          CFI (cfiCond10) Conditional ??CrossCallReturnLabel_24
          CFI (cfiCond10) R6 load(1, XDATA, add(CFA_XSP16, literal(-12)))
          CFI (cfiCond10) VB load(1, XDATA, add(CFA_XSP16, literal(-11)))
          CFI (cfiCond10) V0 load(1, XDATA, add(CFA_XSP16, literal(-10)))
          CFI (cfiCond10) V1 load(1, XDATA, add(CFA_XSP16, literal(-9)))
          CFI (cfiCond10) V2 load(1, XDATA, add(CFA_XSP16, literal(-8)))
          CFI (cfiCond10) V3 load(1, XDATA, add(CFA_XSP16, literal(-7)))
          CFI (cfiCond10) R7 load(1, XDATA, add(CFA_XSP16, literal(-6)))
          CFI (cfiCond10) ?RET_LOW load(1, XDATA, add(CFA_XSP16, literal(-5)))
          CFI (cfiCond10) ?RET_HIGH load(1, XDATA, add(CFA_XSP16, literal(-4)))
          CFI (cfiCond10) ?BRET_EXT load(1, XDATA, add(CFA_XSP16, literal(-3)))
          CFI (cfiCond10) DPL0 load(1, XDATA, add(CFA_XSP16, literal(-2)))
          CFI (cfiCond10) DPH0 load(1, XDATA, add(CFA_XSP16, literal(-1)))
          CFI (cfiCond10) CFA_SP SP+-2
          CFI (cfiCond10) CFA_XSP16 add(XSP16, 14)
          CFI Block cfiCond11 Using cfiCommon0
          CFI (cfiCond11) Function zclZigUP_Reporting
          CFI (cfiCond11) Conditional ??CrossCallReturnLabel_25
          CFI (cfiCond11) R6 load(1, XDATA, add(CFA_XSP16, literal(-12)))
          CFI (cfiCond11) VB load(1, XDATA, add(CFA_XSP16, literal(-11)))
          CFI (cfiCond11) V0 load(1, XDATA, add(CFA_XSP16, literal(-10)))
          CFI (cfiCond11) V1 load(1, XDATA, add(CFA_XSP16, literal(-9)))
          CFI (cfiCond11) V2 load(1, XDATA, add(CFA_XSP16, literal(-8)))
          CFI (cfiCond11) V3 load(1, XDATA, add(CFA_XSP16, literal(-7)))
          CFI (cfiCond11) R7 load(1, XDATA, add(CFA_XSP16, literal(-6)))
          CFI (cfiCond11) ?RET_LOW load(1, XDATA, add(CFA_XSP16, literal(-5)))
          CFI (cfiCond11) ?RET_HIGH load(1, XDATA, add(CFA_XSP16, literal(-4)))
          CFI (cfiCond11) ?BRET_EXT load(1, XDATA, add(CFA_XSP16, literal(-3)))
          CFI (cfiCond11) DPL0 load(1, XDATA, add(CFA_XSP16, literal(-2)))
          CFI (cfiCond11) DPH0 load(1, XDATA, add(CFA_XSP16, literal(-1)))
          CFI (cfiCond11) CFA_SP SP+-2
          CFI (cfiCond11) CFA_XSP16 add(XSP16, 14)
          CFI Block cfiCond12 Using cfiCommon0
          CFI (cfiCond12) Function zclZigUP_Reporting
          CFI (cfiCond12) Conditional ??CrossCallReturnLabel_26
          CFI (cfiCond12) R6 load(1, XDATA, add(CFA_XSP16, literal(-12)))
          CFI (cfiCond12) VB load(1, XDATA, add(CFA_XSP16, literal(-11)))
          CFI (cfiCond12) V0 load(1, XDATA, add(CFA_XSP16, literal(-10)))
          CFI (cfiCond12) V1 load(1, XDATA, add(CFA_XSP16, literal(-9)))
          CFI (cfiCond12) V2 load(1, XDATA, add(CFA_XSP16, literal(-8)))
          CFI (cfiCond12) V3 load(1, XDATA, add(CFA_XSP16, literal(-7)))
          CFI (cfiCond12) R7 load(1, XDATA, add(CFA_XSP16, literal(-6)))
          CFI (cfiCond12) ?RET_LOW load(1, XDATA, add(CFA_XSP16, literal(-5)))
          CFI (cfiCond12) ?RET_HIGH load(1, XDATA, add(CFA_XSP16, literal(-4)))
          CFI (cfiCond12) ?BRET_EXT load(1, XDATA, add(CFA_XSP16, literal(-3)))
          CFI (cfiCond12) DPL0 load(1, XDATA, add(CFA_XSP16, literal(-2)))
          CFI (cfiCond12) DPH0 load(1, XDATA, add(CFA_XSP16, literal(-1)))
          CFI (cfiCond12) CFA_SP SP+-2
          CFI (cfiCond12) CFA_XSP16 add(XSP16, 14)
          CFI Block cfiCond13 Using cfiCommon0
          CFI (cfiCond13) Function zclZigUP_Reporting
          CFI (cfiCond13) Conditional ??CrossCallReturnLabel_27
          CFI (cfiCond13) R6 load(1, XDATA, add(CFA_XSP16, literal(-12)))
          CFI (cfiCond13) VB load(1, XDATA, add(CFA_XSP16, literal(-11)))
          CFI (cfiCond13) V0 load(1, XDATA, add(CFA_XSP16, literal(-10)))
          CFI (cfiCond13) V1 load(1, XDATA, add(CFA_XSP16, literal(-9)))
          CFI (cfiCond13) V2 load(1, XDATA, add(CFA_XSP16, literal(-8)))
          CFI (cfiCond13) V3 load(1, XDATA, add(CFA_XSP16, literal(-7)))
          CFI (cfiCond13) R7 load(1, XDATA, add(CFA_XSP16, literal(-6)))
          CFI (cfiCond13) ?RET_LOW load(1, XDATA, add(CFA_XSP16, literal(-5)))
          CFI (cfiCond13) ?RET_HIGH load(1, XDATA, add(CFA_XSP16, literal(-4)))
          CFI (cfiCond13) ?BRET_EXT load(1, XDATA, add(CFA_XSP16, literal(-3)))
          CFI (cfiCond13) DPL0 load(1, XDATA, add(CFA_XSP16, literal(-2)))
          CFI (cfiCond13) DPH0 load(1, XDATA, add(CFA_XSP16, literal(-1)))
          CFI (cfiCond13) CFA_SP SP+-2
          CFI (cfiCond13) CFA_XSP16 add(XSP16, 14)
          CFI Block cfiCond14 Using cfiCommon0
          CFI (cfiCond14) Function zclZigUP_Reporting
          CFI (cfiCond14) Conditional ??CrossCallReturnLabel_28
          CFI (cfiCond14) R6 load(1, XDATA, add(CFA_XSP16, literal(-12)))
          CFI (cfiCond14) VB load(1, XDATA, add(CFA_XSP16, literal(-11)))
          CFI (cfiCond14) V0 load(1, XDATA, add(CFA_XSP16, literal(-10)))
          CFI (cfiCond14) V1 load(1, XDATA, add(CFA_XSP16, literal(-9)))
          CFI (cfiCond14) V2 load(1, XDATA, add(CFA_XSP16, literal(-8)))
          CFI (cfiCond14) V3 load(1, XDATA, add(CFA_XSP16, literal(-7)))
          CFI (cfiCond14) R7 load(1, XDATA, add(CFA_XSP16, literal(-6)))
          CFI (cfiCond14) ?RET_LOW load(1, XDATA, add(CFA_XSP16, literal(-5)))
          CFI (cfiCond14) ?RET_HIGH load(1, XDATA, add(CFA_XSP16, literal(-4)))
          CFI (cfiCond14) ?BRET_EXT load(1, XDATA, add(CFA_XSP16, literal(-3)))
          CFI (cfiCond14) DPL0 load(1, XDATA, add(CFA_XSP16, literal(-2)))
          CFI (cfiCond14) DPH0 load(1, XDATA, add(CFA_XSP16, literal(-1)))
          CFI (cfiCond14) CFA_SP SP+-2
          CFI (cfiCond14) CFA_XSP16 add(XSP16, 14)
          CFI Block cfiCond15 Using cfiCommon0
          CFI (cfiCond15) Function zclZigUP_Reporting
          CFI (cfiCond15) Conditional ??CrossCallReturnLabel_29
          CFI (cfiCond15) R6 load(1, XDATA, add(CFA_XSP16, literal(-12)))
          CFI (cfiCond15) VB load(1, XDATA, add(CFA_XSP16, literal(-11)))
          CFI (cfiCond15) V0 load(1, XDATA, add(CFA_XSP16, literal(-10)))
          CFI (cfiCond15) V1 load(1, XDATA, add(CFA_XSP16, literal(-9)))
          CFI (cfiCond15) V2 load(1, XDATA, add(CFA_XSP16, literal(-8)))
          CFI (cfiCond15) V3 load(1, XDATA, add(CFA_XSP16, literal(-7)))
          CFI (cfiCond15) R7 load(1, XDATA, add(CFA_XSP16, literal(-6)))
          CFI (cfiCond15) ?RET_LOW load(1, XDATA, add(CFA_XSP16, literal(-5)))
          CFI (cfiCond15) ?RET_HIGH load(1, XDATA, add(CFA_XSP16, literal(-4)))
          CFI (cfiCond15) ?BRET_EXT load(1, XDATA, add(CFA_XSP16, literal(-3)))
          CFI (cfiCond15) DPL0 load(1, XDATA, add(CFA_XSP16, literal(-2)))
          CFI (cfiCond15) DPH0 load(1, XDATA, add(CFA_XSP16, literal(-1)))
          CFI (cfiCond15) CFA_SP SP+-2
          CFI (cfiCond15) CFA_XSP16 add(XSP16, 14)
          CFI Block cfiCond16 Using cfiCommon0
          CFI (cfiCond16) Function zclZigUP_Reporting
          CFI (cfiCond16) Conditional ??CrossCallReturnLabel_30
          CFI (cfiCond16) R6 load(1, XDATA, add(CFA_XSP16, literal(-12)))
          CFI (cfiCond16) VB load(1, XDATA, add(CFA_XSP16, literal(-11)))
          CFI (cfiCond16) V0 load(1, XDATA, add(CFA_XSP16, literal(-10)))
          CFI (cfiCond16) V1 load(1, XDATA, add(CFA_XSP16, literal(-9)))
          CFI (cfiCond16) V2 load(1, XDATA, add(CFA_XSP16, literal(-8)))
          CFI (cfiCond16) V3 load(1, XDATA, add(CFA_XSP16, literal(-7)))
          CFI (cfiCond16) R7 load(1, XDATA, add(CFA_XSP16, literal(-6)))
          CFI (cfiCond16) ?RET_LOW load(1, XDATA, add(CFA_XSP16, literal(-5)))
          CFI (cfiCond16) ?RET_HIGH load(1, XDATA, add(CFA_XSP16, literal(-4)))
          CFI (cfiCond16) ?BRET_EXT load(1, XDATA, add(CFA_XSP16, literal(-3)))
          CFI (cfiCond16) DPL0 load(1, XDATA, add(CFA_XSP16, literal(-2)))
          CFI (cfiCond16) DPH0 load(1, XDATA, add(CFA_XSP16, literal(-1)))
          CFI (cfiCond16) CFA_SP SP+-2
          CFI (cfiCond16) CFA_XSP16 add(XSP16, 14)
          CFI Block cfiCond17 Using cfiCommon0
          CFI (cfiCond17) Function zclZigUP_Reporting
          CFI (cfiCond17) Conditional ??CrossCallReturnLabel_31
          CFI (cfiCond17) R6 load(1, XDATA, add(CFA_XSP16, literal(-12)))
          CFI (cfiCond17) VB load(1, XDATA, add(CFA_XSP16, literal(-11)))
          CFI (cfiCond17) V0 load(1, XDATA, add(CFA_XSP16, literal(-10)))
          CFI (cfiCond17) V1 load(1, XDATA, add(CFA_XSP16, literal(-9)))
          CFI (cfiCond17) V2 load(1, XDATA, add(CFA_XSP16, literal(-8)))
          CFI (cfiCond17) V3 load(1, XDATA, add(CFA_XSP16, literal(-7)))
          CFI (cfiCond17) R7 load(1, XDATA, add(CFA_XSP16, literal(-6)))
          CFI (cfiCond17) ?RET_LOW load(1, XDATA, add(CFA_XSP16, literal(-5)))
          CFI (cfiCond17) ?RET_HIGH load(1, XDATA, add(CFA_XSP16, literal(-4)))
          CFI (cfiCond17) ?BRET_EXT load(1, XDATA, add(CFA_XSP16, literal(-3)))
          CFI (cfiCond17) DPL0 load(1, XDATA, add(CFA_XSP16, literal(-2)))
          CFI (cfiCond17) DPH0 load(1, XDATA, add(CFA_XSP16, literal(-1)))
          CFI (cfiCond17) CFA_SP SP+-2
          CFI (cfiCond17) CFA_XSP16 add(XSP16, 14)
          CFI Block cfiPicker18 Using cfiCommon1
          CFI (cfiPicker18) NoFunction
          CFI (cfiPicker18) Picker
        MOV       DPL,A
        CLR       A
        ADDC      A,?V1
        MOV       DPH,A
        RET
          CFI EndBlock cfiCond2
          CFI EndBlock cfiCond3
          CFI EndBlock cfiCond4
          CFI EndBlock cfiCond5
          CFI EndBlock cfiCond6
          CFI EndBlock cfiCond7
          CFI EndBlock cfiCond8
          CFI EndBlock cfiCond9
          CFI EndBlock cfiCond10
          CFI EndBlock cfiCond11
          CFI EndBlock cfiCond12
          CFI EndBlock cfiCond13
          CFI EndBlock cfiCond14
          CFI EndBlock cfiCond15
          CFI EndBlock cfiCond16
          CFI EndBlock cfiCond17
          CFI EndBlock cfiPicker18

        RSEG BANKED_CODE:HUGECODE:NOROOT(0)
?Subroutine7:
          CFI Block cfiCond19 Using cfiCommon0
          CFI Function zclZigUP_Reporting
          CFI Conditional ??CrossCallReturnLabel_14
          CFI R6 load(1, XDATA, add(CFA_XSP16, literal(-12)))
          CFI VB load(1, XDATA, add(CFA_XSP16, literal(-11)))
          CFI V0 load(1, XDATA, add(CFA_XSP16, literal(-10)))
          CFI V1 load(1, XDATA, add(CFA_XSP16, literal(-9)))
          CFI V2 load(1, XDATA, add(CFA_XSP16, literal(-8)))
          CFI V3 load(1, XDATA, add(CFA_XSP16, literal(-7)))
          CFI R7 load(1, XDATA, add(CFA_XSP16, literal(-6)))
          CFI ?RET_LOW load(1, XDATA, add(CFA_XSP16, literal(-5)))
          CFI ?RET_HIGH load(1, XDATA, add(CFA_XSP16, literal(-4)))
          CFI ?BRET_EXT load(1, XDATA, add(CFA_XSP16, literal(-3)))
          CFI DPL0 load(1, XDATA, add(CFA_XSP16, literal(-2)))
          CFI DPH0 load(1, XDATA, add(CFA_XSP16, literal(-1)))
          CFI CFA_SP SP+-2
          CFI CFA_XSP16 add(XSP16, 14)
          CFI Block cfiCond20 Using cfiCommon0
          CFI (cfiCond20) Function zclZigUP_Reporting
          CFI (cfiCond20) Conditional ??CrossCallReturnLabel_15
          CFI (cfiCond20) R6 load(1, XDATA, add(CFA_XSP16, literal(-12)))
          CFI (cfiCond20) VB load(1, XDATA, add(CFA_XSP16, literal(-11)))
          CFI (cfiCond20) V0 load(1, XDATA, add(CFA_XSP16, literal(-10)))
          CFI (cfiCond20) V1 load(1, XDATA, add(CFA_XSP16, literal(-9)))
          CFI (cfiCond20) V2 load(1, XDATA, add(CFA_XSP16, literal(-8)))
          CFI (cfiCond20) V3 load(1, XDATA, add(CFA_XSP16, literal(-7)))
          CFI (cfiCond20) R7 load(1, XDATA, add(CFA_XSP16, literal(-6)))
          CFI (cfiCond20) ?RET_LOW load(1, XDATA, add(CFA_XSP16, literal(-5)))
          CFI (cfiCond20) ?RET_HIGH load(1, XDATA, add(CFA_XSP16, literal(-4)))
          CFI (cfiCond20) ?BRET_EXT load(1, XDATA, add(CFA_XSP16, literal(-3)))
          CFI (cfiCond20) DPL0 load(1, XDATA, add(CFA_XSP16, literal(-2)))
          CFI (cfiCond20) DPH0 load(1, XDATA, add(CFA_XSP16, literal(-1)))
          CFI (cfiCond20) CFA_SP SP+-2
          CFI (cfiCond20) CFA_XSP16 add(XSP16, 14)
          CFI Block cfiPicker21 Using cfiCommon1
          CFI (cfiPicker21) NoFunction
          CFI (cfiPicker21) Picker
        MOV       DPL,A
        CLR       A
        ADDC      A,?V1
        MOV       DPH,A
        MOV       A,#0x21
        MOVX      @DPTR,A
        MOV       A,R2
        RET
          CFI EndBlock cfiCond19
          CFI EndBlock cfiCond20
          CFI EndBlock cfiPicker21

        RSEG BANKED_CODE:HUGECODE:NOROOT(0)
?Subroutine6:
          CFI Block cfiCond22 Using cfiCommon0
          CFI Function zclZigUP_Reporting
          CFI Conditional ??CrossCallReturnLabel_12
          CFI R6 load(1, XDATA, add(CFA_XSP16, literal(-12)))
          CFI VB load(1, XDATA, add(CFA_XSP16, literal(-11)))
          CFI V0 load(1, XDATA, add(CFA_XSP16, literal(-10)))
          CFI V1 load(1, XDATA, add(CFA_XSP16, literal(-9)))
          CFI V2 load(1, XDATA, add(CFA_XSP16, literal(-8)))
          CFI V3 load(1, XDATA, add(CFA_XSP16, literal(-7)))
          CFI R7 load(1, XDATA, add(CFA_XSP16, literal(-6)))
          CFI ?RET_LOW load(1, XDATA, add(CFA_XSP16, literal(-5)))
          CFI ?RET_HIGH load(1, XDATA, add(CFA_XSP16, literal(-4)))
          CFI ?BRET_EXT load(1, XDATA, add(CFA_XSP16, literal(-3)))
          CFI DPL0 load(1, XDATA, add(CFA_XSP16, literal(-2)))
          CFI DPH0 load(1, XDATA, add(CFA_XSP16, literal(-1)))
          CFI CFA_SP SP+-2
          CFI CFA_XSP16 add(XSP16, 14)
          CFI Block cfiCond23 Using cfiCommon0
          CFI (cfiCond23) Function zclZigUP_Reporting
          CFI (cfiCond23) Conditional ??CrossCallReturnLabel_13
          CFI (cfiCond23) R6 load(1, XDATA, add(CFA_XSP16, literal(-12)))
          CFI (cfiCond23) VB load(1, XDATA, add(CFA_XSP16, literal(-11)))
          CFI (cfiCond23) V0 load(1, XDATA, add(CFA_XSP16, literal(-10)))
          CFI (cfiCond23) V1 load(1, XDATA, add(CFA_XSP16, literal(-9)))
          CFI (cfiCond23) V2 load(1, XDATA, add(CFA_XSP16, literal(-8)))
          CFI (cfiCond23) V3 load(1, XDATA, add(CFA_XSP16, literal(-7)))
          CFI (cfiCond23) R7 load(1, XDATA, add(CFA_XSP16, literal(-6)))
          CFI (cfiCond23) ?RET_LOW load(1, XDATA, add(CFA_XSP16, literal(-5)))
          CFI (cfiCond23) ?RET_HIGH load(1, XDATA, add(CFA_XSP16, literal(-4)))
          CFI (cfiCond23) ?BRET_EXT load(1, XDATA, add(CFA_XSP16, literal(-3)))
          CFI (cfiCond23) DPL0 load(1, XDATA, add(CFA_XSP16, literal(-2)))
          CFI (cfiCond23) DPH0 load(1, XDATA, add(CFA_XSP16, literal(-1)))
          CFI (cfiCond23) CFA_SP SP+-2
          CFI (cfiCond23) CFA_XSP16 add(XSP16, 14)
          CFI Block cfiPicker24 Using cfiCommon1
          CFI (cfiPicker24) NoFunction
          CFI (cfiPicker24) Picker
        LCALL     ?Subroutine12 & 0xFFFF
??CrossCallReturnLabel_37:
        RET
          CFI EndBlock cfiCond22
          CFI EndBlock cfiCond23
          CFI EndBlock cfiPicker24

        RSEG BANKED_CODE:HUGECODE:NOROOT(0)
?Subroutine12:
          CFI Block cfiCond25 Using cfiCommon0
          CFI Function zclZigUP_Reporting
          CFI Conditional ??CrossCallReturnLabel_37, ??CrossCallReturnLabel_12
          CFI R6 load(1, XDATA, add(CFA_XSP16, literal(-12)))
          CFI VB load(1, XDATA, add(CFA_XSP16, literal(-11)))
          CFI V0 load(1, XDATA, add(CFA_XSP16, literal(-10)))
          CFI V1 load(1, XDATA, add(CFA_XSP16, literal(-9)))
          CFI V2 load(1, XDATA, add(CFA_XSP16, literal(-8)))
          CFI V3 load(1, XDATA, add(CFA_XSP16, literal(-7)))
          CFI R7 load(1, XDATA, add(CFA_XSP16, literal(-6)))
          CFI ?RET_LOW load(1, XDATA, add(CFA_XSP16, literal(-5)))
          CFI ?RET_HIGH load(1, XDATA, add(CFA_XSP16, literal(-4)))
          CFI ?BRET_EXT load(1, XDATA, add(CFA_XSP16, literal(-3)))
          CFI DPL0 load(1, XDATA, add(CFA_XSP16, literal(-2)))
          CFI DPH0 load(1, XDATA, add(CFA_XSP16, literal(-1)))
          CFI CFA_SP SP+-4
          CFI CFA_XSP16 add(XSP16, 14)
          CFI Block cfiCond26 Using cfiCommon0
          CFI (cfiCond26) Function zclZigUP_Reporting
          CFI (cfiCond26) Conditional ??CrossCallReturnLabel_37, ??CrossCallReturnLabel_13
          CFI (cfiCond26) R6 load(1, XDATA, add(CFA_XSP16, literal(-12)))
          CFI (cfiCond26) VB load(1, XDATA, add(CFA_XSP16, literal(-11)))
          CFI (cfiCond26) V0 load(1, XDATA, add(CFA_XSP16, literal(-10)))
          CFI (cfiCond26) V1 load(1, XDATA, add(CFA_XSP16, literal(-9)))
          CFI (cfiCond26) V2 load(1, XDATA, add(CFA_XSP16, literal(-8)))
          CFI (cfiCond26) V3 load(1, XDATA, add(CFA_XSP16, literal(-7)))
          CFI (cfiCond26) R7 load(1, XDATA, add(CFA_XSP16, literal(-6)))
          CFI (cfiCond26) ?RET_LOW load(1, XDATA, add(CFA_XSP16, literal(-5)))
          CFI (cfiCond26) ?RET_HIGH load(1, XDATA, add(CFA_XSP16, literal(-4)))
          CFI (cfiCond26) ?BRET_EXT load(1, XDATA, add(CFA_XSP16, literal(-3)))
          CFI (cfiCond26) DPL0 load(1, XDATA, add(CFA_XSP16, literal(-2)))
          CFI (cfiCond26) DPH0 load(1, XDATA, add(CFA_XSP16, literal(-1)))
          CFI (cfiCond26) CFA_SP SP+-4
          CFI (cfiCond26) CFA_XSP16 add(XSP16, 14)
          CFI Block cfiCond27 Using cfiCommon0
          CFI (cfiCond27) Function zclZigUP_Reporting
          CFI (cfiCond27) Conditional ??CrossCallReturnLabel_38, ??CrossCallReturnLabel_7
          CFI (cfiCond27) R6 load(1, XDATA, add(CFA_XSP16, literal(-12)))
          CFI (cfiCond27) VB load(1, XDATA, add(CFA_XSP16, literal(-11)))
          CFI (cfiCond27) V0 load(1, XDATA, add(CFA_XSP16, literal(-10)))
          CFI (cfiCond27) V1 load(1, XDATA, add(CFA_XSP16, literal(-9)))
          CFI (cfiCond27) V2 load(1, XDATA, add(CFA_XSP16, literal(-8)))
          CFI (cfiCond27) V3 load(1, XDATA, add(CFA_XSP16, literal(-7)))
          CFI (cfiCond27) R7 load(1, XDATA, add(CFA_XSP16, literal(-6)))
          CFI (cfiCond27) ?RET_LOW load(1, XDATA, add(CFA_XSP16, literal(-5)))
          CFI (cfiCond27) ?RET_HIGH load(1, XDATA, add(CFA_XSP16, literal(-4)))
          CFI (cfiCond27) ?BRET_EXT load(1, XDATA, add(CFA_XSP16, literal(-3)))
          CFI (cfiCond27) DPL0 load(1, XDATA, add(CFA_XSP16, literal(-2)))
          CFI (cfiCond27) DPH0 load(1, XDATA, add(CFA_XSP16, literal(-1)))
          CFI (cfiCond27) CFA_SP SP+-4
          CFI (cfiCond27) CFA_XSP16 add(XSP16, 14)
          CFI Block cfiCond28 Using cfiCommon0
          CFI (cfiCond28) Function zclZigUP_Reporting
          CFI (cfiCond28) Conditional ??CrossCallReturnLabel_38, ??CrossCallReturnLabel_8
          CFI (cfiCond28) R6 load(1, XDATA, add(CFA_XSP16, literal(-12)))
          CFI (cfiCond28) VB load(1, XDATA, add(CFA_XSP16, literal(-11)))
          CFI (cfiCond28) V0 load(1, XDATA, add(CFA_XSP16, literal(-10)))
          CFI (cfiCond28) V1 load(1, XDATA, add(CFA_XSP16, literal(-9)))
          CFI (cfiCond28) V2 load(1, XDATA, add(CFA_XSP16, literal(-8)))
          CFI (cfiCond28) V3 load(1, XDATA, add(CFA_XSP16, literal(-7)))
          CFI (cfiCond28) R7 load(1, XDATA, add(CFA_XSP16, literal(-6)))
          CFI (cfiCond28) ?RET_LOW load(1, XDATA, add(CFA_XSP16, literal(-5)))
          CFI (cfiCond28) ?RET_HIGH load(1, XDATA, add(CFA_XSP16, literal(-4)))
          CFI (cfiCond28) ?BRET_EXT load(1, XDATA, add(CFA_XSP16, literal(-3)))
          CFI (cfiCond28) DPL0 load(1, XDATA, add(CFA_XSP16, literal(-2)))
          CFI (cfiCond28) DPH0 load(1, XDATA, add(CFA_XSP16, literal(-1)))
          CFI (cfiCond28) CFA_SP SP+-4
          CFI (cfiCond28) CFA_XSP16 add(XSP16, 14)
          CFI Block cfiPicker29 Using cfiCommon1
          CFI (cfiPicker29) NoFunction
          CFI (cfiPicker29) Picker
        LCALL     ?Subroutine14 & 0xFFFF
??CrossCallReturnLabel_40:
        INC       DPTR
        RET
          CFI EndBlock cfiCond25
          CFI EndBlock cfiCond26
          CFI EndBlock cfiCond27
          CFI EndBlock cfiCond28
          CFI EndBlock cfiPicker29

        RSEG BANKED_CODE:HUGECODE:NOROOT(0)
?Subroutine14:
          CFI Block cfiCond30 Using cfiCommon0
          CFI Function zclZigUP_Reporting
          CFI Conditional ??CrossCallReturnLabel_39
          CFI R6 load(1, XDATA, add(CFA_XSP16, literal(-12)))
          CFI VB load(1, XDATA, add(CFA_XSP16, literal(-11)))
          CFI V0 load(1, XDATA, add(CFA_XSP16, literal(-10)))
          CFI V1 load(1, XDATA, add(CFA_XSP16, literal(-9)))
          CFI V2 load(1, XDATA, add(CFA_XSP16, literal(-8)))
          CFI V3 load(1, XDATA, add(CFA_XSP16, literal(-7)))
          CFI R7 load(1, XDATA, add(CFA_XSP16, literal(-6)))
          CFI ?RET_LOW load(1, XDATA, add(CFA_XSP16, literal(-5)))
          CFI ?RET_HIGH load(1, XDATA, add(CFA_XSP16, literal(-4)))
          CFI ?BRET_EXT load(1, XDATA, add(CFA_XSP16, literal(-3)))
          CFI DPL0 load(1, XDATA, add(CFA_XSP16, literal(-2)))
          CFI DPH0 load(1, XDATA, add(CFA_XSP16, literal(-1)))
          CFI CFA_SP SP+-2
          CFI CFA_XSP16 add(XSP16, 14)
          CFI Block cfiCond31 Using cfiCommon0
          CFI (cfiCond31) Function zclZigUP_Reporting
          CFI (cfiCond31) Conditional ??CrossCallReturnLabel_40, ??CrossCallReturnLabel_37, ??CrossCallReturnLabel_12
          CFI (cfiCond31) R6 load(1, XDATA, add(CFA_XSP16, literal(-12)))
          CFI (cfiCond31) VB load(1, XDATA, add(CFA_XSP16, literal(-11)))
          CFI (cfiCond31) V0 load(1, XDATA, add(CFA_XSP16, literal(-10)))
          CFI (cfiCond31) V1 load(1, XDATA, add(CFA_XSP16, literal(-9)))
          CFI (cfiCond31) V2 load(1, XDATA, add(CFA_XSP16, literal(-8)))
          CFI (cfiCond31) V3 load(1, XDATA, add(CFA_XSP16, literal(-7)))
          CFI (cfiCond31) R7 load(1, XDATA, add(CFA_XSP16, literal(-6)))
          CFI (cfiCond31) ?RET_LOW load(1, XDATA, add(CFA_XSP16, literal(-5)))
          CFI (cfiCond31) ?RET_HIGH load(1, XDATA, add(CFA_XSP16, literal(-4)))
          CFI (cfiCond31) ?BRET_EXT load(1, XDATA, add(CFA_XSP16, literal(-3)))
          CFI (cfiCond31) DPL0 load(1, XDATA, add(CFA_XSP16, literal(-2)))
          CFI (cfiCond31) DPH0 load(1, XDATA, add(CFA_XSP16, literal(-1)))
          CFI (cfiCond31) CFA_SP SP+-6
          CFI (cfiCond31) CFA_XSP16 add(XSP16, 14)
          CFI Block cfiCond32 Using cfiCommon0
          CFI (cfiCond32) Function zclZigUP_Reporting
          CFI (cfiCond32) Conditional ??CrossCallReturnLabel_40, ??CrossCallReturnLabel_37, ??CrossCallReturnLabel_13
          CFI (cfiCond32) R6 load(1, XDATA, add(CFA_XSP16, literal(-12)))
          CFI (cfiCond32) VB load(1, XDATA, add(CFA_XSP16, literal(-11)))
          CFI (cfiCond32) V0 load(1, XDATA, add(CFA_XSP16, literal(-10)))
          CFI (cfiCond32) V1 load(1, XDATA, add(CFA_XSP16, literal(-9)))
          CFI (cfiCond32) V2 load(1, XDATA, add(CFA_XSP16, literal(-8)))
          CFI (cfiCond32) V3 load(1, XDATA, add(CFA_XSP16, literal(-7)))
          CFI (cfiCond32) R7 load(1, XDATA, add(CFA_XSP16, literal(-6)))
          CFI (cfiCond32) ?RET_LOW load(1, XDATA, add(CFA_XSP16, literal(-5)))
          CFI (cfiCond32) ?RET_HIGH load(1, XDATA, add(CFA_XSP16, literal(-4)))
          CFI (cfiCond32) ?BRET_EXT load(1, XDATA, add(CFA_XSP16, literal(-3)))
          CFI (cfiCond32) DPL0 load(1, XDATA, add(CFA_XSP16, literal(-2)))
          CFI (cfiCond32) DPH0 load(1, XDATA, add(CFA_XSP16, literal(-1)))
          CFI (cfiCond32) CFA_SP SP+-6
          CFI (cfiCond32) CFA_XSP16 add(XSP16, 14)
          CFI Block cfiCond33 Using cfiCommon0
          CFI (cfiCond33) Function zclZigUP_Reporting
          CFI (cfiCond33) Conditional ??CrossCallReturnLabel_40, ??CrossCallReturnLabel_38, ??CrossCallReturnLabel_7
          CFI (cfiCond33) R6 load(1, XDATA, add(CFA_XSP16, literal(-12)))
          CFI (cfiCond33) VB load(1, XDATA, add(CFA_XSP16, literal(-11)))
          CFI (cfiCond33) V0 load(1, XDATA, add(CFA_XSP16, literal(-10)))
          CFI (cfiCond33) V1 load(1, XDATA, add(CFA_XSP16, literal(-9)))
          CFI (cfiCond33) V2 load(1, XDATA, add(CFA_XSP16, literal(-8)))
          CFI (cfiCond33) V3 load(1, XDATA, add(CFA_XSP16, literal(-7)))
          CFI (cfiCond33) R7 load(1, XDATA, add(CFA_XSP16, literal(-6)))
          CFI (cfiCond33) ?RET_LOW load(1, XDATA, add(CFA_XSP16, literal(-5)))
          CFI (cfiCond33) ?RET_HIGH load(1, XDATA, add(CFA_XSP16, literal(-4)))
          CFI (cfiCond33) ?BRET_EXT load(1, XDATA, add(CFA_XSP16, literal(-3)))
          CFI (cfiCond33) DPL0 load(1, XDATA, add(CFA_XSP16, literal(-2)))
          CFI (cfiCond33) DPH0 load(1, XDATA, add(CFA_XSP16, literal(-1)))
          CFI (cfiCond33) CFA_SP SP+-6
          CFI (cfiCond33) CFA_XSP16 add(XSP16, 14)
          CFI Block cfiCond34 Using cfiCommon0
          CFI (cfiCond34) Function zclZigUP_Reporting
          CFI (cfiCond34) Conditional ??CrossCallReturnLabel_40, ??CrossCallReturnLabel_38, ??CrossCallReturnLabel_8
          CFI (cfiCond34) R6 load(1, XDATA, add(CFA_XSP16, literal(-12)))
          CFI (cfiCond34) VB load(1, XDATA, add(CFA_XSP16, literal(-11)))
          CFI (cfiCond34) V0 load(1, XDATA, add(CFA_XSP16, literal(-10)))
          CFI (cfiCond34) V1 load(1, XDATA, add(CFA_XSP16, literal(-9)))
          CFI (cfiCond34) V2 load(1, XDATA, add(CFA_XSP16, literal(-8)))
          CFI (cfiCond34) V3 load(1, XDATA, add(CFA_XSP16, literal(-7)))
          CFI (cfiCond34) R7 load(1, XDATA, add(CFA_XSP16, literal(-6)))
          CFI (cfiCond34) ?RET_LOW load(1, XDATA, add(CFA_XSP16, literal(-5)))
          CFI (cfiCond34) ?RET_HIGH load(1, XDATA, add(CFA_XSP16, literal(-4)))
          CFI (cfiCond34) ?BRET_EXT load(1, XDATA, add(CFA_XSP16, literal(-3)))
          CFI (cfiCond34) DPL0 load(1, XDATA, add(CFA_XSP16, literal(-2)))
          CFI (cfiCond34) DPH0 load(1, XDATA, add(CFA_XSP16, literal(-1)))
          CFI (cfiCond34) CFA_SP SP+-6
          CFI (cfiCond34) CFA_XSP16 add(XSP16, 14)
          CFI Block cfiPicker35 Using cfiCommon1
          CFI (cfiPicker35) NoFunction
          CFI (cfiPicker35) Picker
        MOVX      @DPTR,A
        MOV       DPL,R2
        MOV       DPH,R3
        INC       DPTR
        INC       DPTR
        INC       DPTR
        RET
          CFI EndBlock cfiCond30
          CFI EndBlock cfiCond31
          CFI EndBlock cfiCond32
          CFI EndBlock cfiCond33
          CFI EndBlock cfiCond34
          CFI EndBlock cfiPicker35

        RSEG BANKED_CODE:HUGECODE:NOROOT(0)
?Subroutine5:
          CFI Block cfiCond36 Using cfiCommon0
          CFI Function zclZigUP_Reporting
          CFI Conditional ??CrossCallReturnLabel_9
          CFI R6 load(1, XDATA, add(CFA_XSP16, literal(-12)))
          CFI VB load(1, XDATA, add(CFA_XSP16, literal(-11)))
          CFI V0 load(1, XDATA, add(CFA_XSP16, literal(-10)))
          CFI V1 load(1, XDATA, add(CFA_XSP16, literal(-9)))
          CFI V2 load(1, XDATA, add(CFA_XSP16, literal(-8)))
          CFI V3 load(1, XDATA, add(CFA_XSP16, literal(-7)))
          CFI R7 load(1, XDATA, add(CFA_XSP16, literal(-6)))
          CFI ?RET_LOW load(1, XDATA, add(CFA_XSP16, literal(-5)))
          CFI ?RET_HIGH load(1, XDATA, add(CFA_XSP16, literal(-4)))
          CFI ?BRET_EXT load(1, XDATA, add(CFA_XSP16, literal(-3)))
          CFI DPL0 load(1, XDATA, add(CFA_XSP16, literal(-2)))
          CFI DPH0 load(1, XDATA, add(CFA_XSP16, literal(-1)))
          CFI CFA_SP SP+-2
          CFI CFA_XSP16 add(XSP16, 14)
          CFI Block cfiCond37 Using cfiCommon0
          CFI (cfiCond37) Function zclZigUP_Reporting
          CFI (cfiCond37) Conditional ??CrossCallReturnLabel_10
          CFI (cfiCond37) R6 load(1, XDATA, add(CFA_XSP16, literal(-12)))
          CFI (cfiCond37) VB load(1, XDATA, add(CFA_XSP16, literal(-11)))
          CFI (cfiCond37) V0 load(1, XDATA, add(CFA_XSP16, literal(-10)))
          CFI (cfiCond37) V1 load(1, XDATA, add(CFA_XSP16, literal(-9)))
          CFI (cfiCond37) V2 load(1, XDATA, add(CFA_XSP16, literal(-8)))
          CFI (cfiCond37) V3 load(1, XDATA, add(CFA_XSP16, literal(-7)))
          CFI (cfiCond37) R7 load(1, XDATA, add(CFA_XSP16, literal(-6)))
          CFI (cfiCond37) ?RET_LOW load(1, XDATA, add(CFA_XSP16, literal(-5)))
          CFI (cfiCond37) ?RET_HIGH load(1, XDATA, add(CFA_XSP16, literal(-4)))
          CFI (cfiCond37) ?BRET_EXT load(1, XDATA, add(CFA_XSP16, literal(-3)))
          CFI (cfiCond37) DPL0 load(1, XDATA, add(CFA_XSP16, literal(-2)))
          CFI (cfiCond37) DPH0 load(1, XDATA, add(CFA_XSP16, literal(-1)))
          CFI (cfiCond37) CFA_SP SP+-2
          CFI (cfiCond37) CFA_XSP16 add(XSP16, 14)
          CFI Block cfiCond38 Using cfiCommon0
          CFI (cfiCond38) Function zclZigUP_Reporting
          CFI (cfiCond38) Conditional ??CrossCallReturnLabel_11
          CFI (cfiCond38) R6 load(1, XDATA, add(CFA_XSP16, literal(-12)))
          CFI (cfiCond38) VB load(1, XDATA, add(CFA_XSP16, literal(-11)))
          CFI (cfiCond38) V0 load(1, XDATA, add(CFA_XSP16, literal(-10)))
          CFI (cfiCond38) V1 load(1, XDATA, add(CFA_XSP16, literal(-9)))
          CFI (cfiCond38) V2 load(1, XDATA, add(CFA_XSP16, literal(-8)))
          CFI (cfiCond38) V3 load(1, XDATA, add(CFA_XSP16, literal(-7)))
          CFI (cfiCond38) R7 load(1, XDATA, add(CFA_XSP16, literal(-6)))
          CFI (cfiCond38) ?RET_LOW load(1, XDATA, add(CFA_XSP16, literal(-5)))
          CFI (cfiCond38) ?RET_HIGH load(1, XDATA, add(CFA_XSP16, literal(-4)))
          CFI (cfiCond38) ?BRET_EXT load(1, XDATA, add(CFA_XSP16, literal(-3)))
          CFI (cfiCond38) DPL0 load(1, XDATA, add(CFA_XSP16, literal(-2)))
          CFI (cfiCond38) DPH0 load(1, XDATA, add(CFA_XSP16, literal(-1)))
          CFI (cfiCond38) CFA_SP SP+-2
          CFI (cfiCond38) CFA_XSP16 add(XSP16, 14)
          CFI Block cfiPicker39 Using cfiCommon1
          CFI (cfiPicker39) NoFunction
          CFI (cfiPicker39) Picker
        MOV       DPL,A
        CLR       A
        ADDC      A,?V1
        MOV       DPH,A
        MOV       A,#0x39
        MOVX      @DPTR,A
        MOV       A,R2
        RET
          CFI EndBlock cfiCond36
          CFI EndBlock cfiCond37
          CFI EndBlock cfiCond38
          CFI EndBlock cfiPicker39

        RSEG BANKED_CODE:HUGECODE:NOROOT(0)
?Subroutine4:
          CFI Block cfiCond40 Using cfiCommon0
          CFI Function zclZigUP_Reporting
          CFI Conditional ??CrossCallReturnLabel_7
          CFI R6 load(1, XDATA, add(CFA_XSP16, literal(-12)))
          CFI VB load(1, XDATA, add(CFA_XSP16, literal(-11)))
          CFI V0 load(1, XDATA, add(CFA_XSP16, literal(-10)))
          CFI V1 load(1, XDATA, add(CFA_XSP16, literal(-9)))
          CFI V2 load(1, XDATA, add(CFA_XSP16, literal(-8)))
          CFI V3 load(1, XDATA, add(CFA_XSP16, literal(-7)))
          CFI R7 load(1, XDATA, add(CFA_XSP16, literal(-6)))
          CFI ?RET_LOW load(1, XDATA, add(CFA_XSP16, literal(-5)))
          CFI ?RET_HIGH load(1, XDATA, add(CFA_XSP16, literal(-4)))
          CFI ?BRET_EXT load(1, XDATA, add(CFA_XSP16, literal(-3)))
          CFI DPL0 load(1, XDATA, add(CFA_XSP16, literal(-2)))
          CFI DPH0 load(1, XDATA, add(CFA_XSP16, literal(-1)))
          CFI CFA_SP SP+-2
          CFI CFA_XSP16 add(XSP16, 14)
          CFI Block cfiCond41 Using cfiCommon0
          CFI (cfiCond41) Function zclZigUP_Reporting
          CFI (cfiCond41) Conditional ??CrossCallReturnLabel_8
          CFI (cfiCond41) R6 load(1, XDATA, add(CFA_XSP16, literal(-12)))
          CFI (cfiCond41) VB load(1, XDATA, add(CFA_XSP16, literal(-11)))
          CFI (cfiCond41) V0 load(1, XDATA, add(CFA_XSP16, literal(-10)))
          CFI (cfiCond41) V1 load(1, XDATA, add(CFA_XSP16, literal(-9)))
          CFI (cfiCond41) V2 load(1, XDATA, add(CFA_XSP16, literal(-8)))
          CFI (cfiCond41) V3 load(1, XDATA, add(CFA_XSP16, literal(-7)))
          CFI (cfiCond41) R7 load(1, XDATA, add(CFA_XSP16, literal(-6)))
          CFI (cfiCond41) ?RET_LOW load(1, XDATA, add(CFA_XSP16, literal(-5)))
          CFI (cfiCond41) ?RET_HIGH load(1, XDATA, add(CFA_XSP16, literal(-4)))
          CFI (cfiCond41) ?BRET_EXT load(1, XDATA, add(CFA_XSP16, literal(-3)))
          CFI (cfiCond41) DPL0 load(1, XDATA, add(CFA_XSP16, literal(-2)))
          CFI (cfiCond41) DPH0 load(1, XDATA, add(CFA_XSP16, literal(-1)))
          CFI (cfiCond41) CFA_SP SP+-2
          CFI (cfiCond41) CFA_XSP16 add(XSP16, 14)
          CFI Block cfiPicker42 Using cfiCommon1
          CFI (cfiPicker42) NoFunction
          CFI (cfiPicker42) Picker
        LCALL     ?Subroutine12 & 0xFFFF
??CrossCallReturnLabel_38:
        INC       DPTR
        INC       DPTR
        INC       DPTR
        INC       DPTR
        RET
          CFI EndBlock cfiCond40
          CFI EndBlock cfiCond41
          CFI EndBlock cfiPicker42

        RSEG BANKED_CODE:HUGECODE:NOROOT(0)
?Subroutine3:
          CFI Block cfiCond43 Using cfiCommon0
          CFI Function zclZigUP_Reporting
          CFI Conditional ??CrossCallReturnLabel_0
          CFI R6 load(1, XDATA, add(CFA_XSP16, literal(-12)))
          CFI VB load(1, XDATA, add(CFA_XSP16, literal(-11)))
          CFI V0 load(1, XDATA, add(CFA_XSP16, literal(-10)))
          CFI V1 load(1, XDATA, add(CFA_XSP16, literal(-9)))
          CFI V2 load(1, XDATA, add(CFA_XSP16, literal(-8)))
          CFI V3 load(1, XDATA, add(CFA_XSP16, literal(-7)))
          CFI R7 load(1, XDATA, add(CFA_XSP16, literal(-6)))
          CFI ?RET_LOW load(1, XDATA, add(CFA_XSP16, literal(-5)))
          CFI ?RET_HIGH load(1, XDATA, add(CFA_XSP16, literal(-4)))
          CFI ?BRET_EXT load(1, XDATA, add(CFA_XSP16, literal(-3)))
          CFI DPL0 load(1, XDATA, add(CFA_XSP16, literal(-2)))
          CFI DPH0 load(1, XDATA, add(CFA_XSP16, literal(-1)))
          CFI CFA_SP SP+-2
          CFI CFA_XSP16 add(XSP16, 14)
          CFI Block cfiCond44 Using cfiCommon0
          CFI (cfiCond44) Function zclZigUP_Reporting
          CFI (cfiCond44) Conditional ??CrossCallReturnLabel_1
          CFI (cfiCond44) R6 load(1, XDATA, add(CFA_XSP16, literal(-12)))
          CFI (cfiCond44) VB load(1, XDATA, add(CFA_XSP16, literal(-11)))
          CFI (cfiCond44) V0 load(1, XDATA, add(CFA_XSP16, literal(-10)))
          CFI (cfiCond44) V1 load(1, XDATA, add(CFA_XSP16, literal(-9)))
          CFI (cfiCond44) V2 load(1, XDATA, add(CFA_XSP16, literal(-8)))
          CFI (cfiCond44) V3 load(1, XDATA, add(CFA_XSP16, literal(-7)))
          CFI (cfiCond44) R7 load(1, XDATA, add(CFA_XSP16, literal(-6)))
          CFI (cfiCond44) ?RET_LOW load(1, XDATA, add(CFA_XSP16, literal(-5)))
          CFI (cfiCond44) ?RET_HIGH load(1, XDATA, add(CFA_XSP16, literal(-4)))
          CFI (cfiCond44) ?BRET_EXT load(1, XDATA, add(CFA_XSP16, literal(-3)))
          CFI (cfiCond44) DPL0 load(1, XDATA, add(CFA_XSP16, literal(-2)))
          CFI (cfiCond44) DPH0 load(1, XDATA, add(CFA_XSP16, literal(-1)))
          CFI (cfiCond44) CFA_SP SP+-2
          CFI (cfiCond44) CFA_XSP16 add(XSP16, 14)
          CFI Block cfiCond45 Using cfiCommon0
          CFI (cfiCond45) Function zclZigUP_Reporting
          CFI (cfiCond45) Conditional ??CrossCallReturnLabel_2
          CFI (cfiCond45) R6 load(1, XDATA, add(CFA_XSP16, literal(-12)))
          CFI (cfiCond45) VB load(1, XDATA, add(CFA_XSP16, literal(-11)))
          CFI (cfiCond45) V0 load(1, XDATA, add(CFA_XSP16, literal(-10)))
          CFI (cfiCond45) V1 load(1, XDATA, add(CFA_XSP16, literal(-9)))
          CFI (cfiCond45) V2 load(1, XDATA, add(CFA_XSP16, literal(-8)))
          CFI (cfiCond45) V3 load(1, XDATA, add(CFA_XSP16, literal(-7)))
          CFI (cfiCond45) R7 load(1, XDATA, add(CFA_XSP16, literal(-6)))
          CFI (cfiCond45) ?RET_LOW load(1, XDATA, add(CFA_XSP16, literal(-5)))
          CFI (cfiCond45) ?RET_HIGH load(1, XDATA, add(CFA_XSP16, literal(-4)))
          CFI (cfiCond45) ?BRET_EXT load(1, XDATA, add(CFA_XSP16, literal(-3)))
          CFI (cfiCond45) DPL0 load(1, XDATA, add(CFA_XSP16, literal(-2)))
          CFI (cfiCond45) DPH0 load(1, XDATA, add(CFA_XSP16, literal(-1)))
          CFI (cfiCond45) CFA_SP SP+-2
          CFI (cfiCond45) CFA_XSP16 add(XSP16, 14)
          CFI Block cfiCond46 Using cfiCommon0
          CFI (cfiCond46) Function zclZigUP_Reporting
          CFI (cfiCond46) Conditional ??CrossCallReturnLabel_3
          CFI (cfiCond46) R6 load(1, XDATA, add(CFA_XSP16, literal(-12)))
          CFI (cfiCond46) VB load(1, XDATA, add(CFA_XSP16, literal(-11)))
          CFI (cfiCond46) V0 load(1, XDATA, add(CFA_XSP16, literal(-10)))
          CFI (cfiCond46) V1 load(1, XDATA, add(CFA_XSP16, literal(-9)))
          CFI (cfiCond46) V2 load(1, XDATA, add(CFA_XSP16, literal(-8)))
          CFI (cfiCond46) V3 load(1, XDATA, add(CFA_XSP16, literal(-7)))
          CFI (cfiCond46) R7 load(1, XDATA, add(CFA_XSP16, literal(-6)))
          CFI (cfiCond46) ?RET_LOW load(1, XDATA, add(CFA_XSP16, literal(-5)))
          CFI (cfiCond46) ?RET_HIGH load(1, XDATA, add(CFA_XSP16, literal(-4)))
          CFI (cfiCond46) ?BRET_EXT load(1, XDATA, add(CFA_XSP16, literal(-3)))
          CFI (cfiCond46) DPL0 load(1, XDATA, add(CFA_XSP16, literal(-2)))
          CFI (cfiCond46) DPH0 load(1, XDATA, add(CFA_XSP16, literal(-1)))
          CFI (cfiCond46) CFA_SP SP+-2
          CFI (cfiCond46) CFA_XSP16 add(XSP16, 14)
          CFI Block cfiCond47 Using cfiCommon0
          CFI (cfiCond47) Function zclZigUP_Reporting
          CFI (cfiCond47) Conditional ??CrossCallReturnLabel_4
          CFI (cfiCond47) R6 load(1, XDATA, add(CFA_XSP16, literal(-12)))
          CFI (cfiCond47) VB load(1, XDATA, add(CFA_XSP16, literal(-11)))
          CFI (cfiCond47) V0 load(1, XDATA, add(CFA_XSP16, literal(-10)))
          CFI (cfiCond47) V1 load(1, XDATA, add(CFA_XSP16, literal(-9)))
          CFI (cfiCond47) V2 load(1, XDATA, add(CFA_XSP16, literal(-8)))
          CFI (cfiCond47) V3 load(1, XDATA, add(CFA_XSP16, literal(-7)))
          CFI (cfiCond47) R7 load(1, XDATA, add(CFA_XSP16, literal(-6)))
          CFI (cfiCond47) ?RET_LOW load(1, XDATA, add(CFA_XSP16, literal(-5)))
          CFI (cfiCond47) ?RET_HIGH load(1, XDATA, add(CFA_XSP16, literal(-4)))
          CFI (cfiCond47) ?BRET_EXT load(1, XDATA, add(CFA_XSP16, literal(-3)))
          CFI (cfiCond47) DPL0 load(1, XDATA, add(CFA_XSP16, literal(-2)))
          CFI (cfiCond47) DPH0 load(1, XDATA, add(CFA_XSP16, literal(-1)))
          CFI (cfiCond47) CFA_SP SP+-2
          CFI (cfiCond47) CFA_XSP16 add(XSP16, 14)
          CFI Block cfiCond48 Using cfiCommon0
          CFI (cfiCond48) Function zclZigUP_Reporting
          CFI (cfiCond48) Conditional ??CrossCallReturnLabel_5
          CFI (cfiCond48) R6 load(1, XDATA, add(CFA_XSP16, literal(-12)))
          CFI (cfiCond48) VB load(1, XDATA, add(CFA_XSP16, literal(-11)))
          CFI (cfiCond48) V0 load(1, XDATA, add(CFA_XSP16, literal(-10)))
          CFI (cfiCond48) V1 load(1, XDATA, add(CFA_XSP16, literal(-9)))
          CFI (cfiCond48) V2 load(1, XDATA, add(CFA_XSP16, literal(-8)))
          CFI (cfiCond48) V3 load(1, XDATA, add(CFA_XSP16, literal(-7)))
          CFI (cfiCond48) R7 load(1, XDATA, add(CFA_XSP16, literal(-6)))
          CFI (cfiCond48) ?RET_LOW load(1, XDATA, add(CFA_XSP16, literal(-5)))
          CFI (cfiCond48) ?RET_HIGH load(1, XDATA, add(CFA_XSP16, literal(-4)))
          CFI (cfiCond48) ?BRET_EXT load(1, XDATA, add(CFA_XSP16, literal(-3)))
          CFI (cfiCond48) DPL0 load(1, XDATA, add(CFA_XSP16, literal(-2)))
          CFI (cfiCond48) DPH0 load(1, XDATA, add(CFA_XSP16, literal(-1)))
          CFI (cfiCond48) CFA_SP SP+-2
          CFI (cfiCond48) CFA_XSP16 add(XSP16, 14)
          CFI Block cfiCond49 Using cfiCommon0
          CFI (cfiCond49) Function zclZigUP_Reporting
          CFI (cfiCond49) Conditional ??CrossCallReturnLabel_6
          CFI (cfiCond49) R6 load(1, XDATA, add(CFA_XSP16, literal(-12)))
          CFI (cfiCond49) VB load(1, XDATA, add(CFA_XSP16, literal(-11)))
          CFI (cfiCond49) V0 load(1, XDATA, add(CFA_XSP16, literal(-10)))
          CFI (cfiCond49) V1 load(1, XDATA, add(CFA_XSP16, literal(-9)))
          CFI (cfiCond49) V2 load(1, XDATA, add(CFA_XSP16, literal(-8)))
          CFI (cfiCond49) V3 load(1, XDATA, add(CFA_XSP16, literal(-7)))
          CFI (cfiCond49) R7 load(1, XDATA, add(CFA_XSP16, literal(-6)))
          CFI (cfiCond49) ?RET_LOW load(1, XDATA, add(CFA_XSP16, literal(-5)))
          CFI (cfiCond49) ?RET_HIGH load(1, XDATA, add(CFA_XSP16, literal(-4)))
          CFI (cfiCond49) ?BRET_EXT load(1, XDATA, add(CFA_XSP16, literal(-3)))
          CFI (cfiCond49) DPL0 load(1, XDATA, add(CFA_XSP16, literal(-2)))
          CFI (cfiCond49) DPH0 load(1, XDATA, add(CFA_XSP16, literal(-1)))
          CFI (cfiCond49) CFA_SP SP+-2
          CFI (cfiCond49) CFA_XSP16 add(XSP16, 14)
          CFI Block cfiPicker50 Using cfiCommon1
          CFI (cfiPicker50) NoFunction
          CFI (cfiPicker50) Picker
        MOVX      @DPTR,A
        INC       DPTR
        MOV       A,#-0x5f
        MOVX      @DPTR,A
        MOV       A,R2
        RET
          CFI EndBlock cfiCond43
          CFI EndBlock cfiCond44
          CFI EndBlock cfiCond45
          CFI EndBlock cfiCond46
          CFI EndBlock cfiCond47
          CFI EndBlock cfiCond48
          CFI EndBlock cfiCond49
          CFI EndBlock cfiPicker50
//  104 
//  105 
//  106 /*********************************************************************
//  107 * ZCL General Profile Callback table
//  108 */

        RSEG XDATA_I:XDATA:NOROOT(0)
//  109 static zclGeneral_AppCallbacks_t zclZigUP_CmdCallbacks =
zclZigUP_CmdCallbacks:
        DATA8
        DS 28
        REQUIRE `?<Initializer for zclZigUP_CmdCallbacks>`
        REQUIRE __INIT_XDATA_I
//  110 {
//  111   zclZigUP_BasicResetCB,                  // Basic Cluster Reset command
//  112   zclZigUP_IdentifyCB,                    // Identify command
//  113   NULL,                                   // Identify Trigger Effect command
//  114   zclZigUP_IdentifyQueryRspCB,            // Identify Query Response command
//  115   zclZigUP_OnOffCB,                       // On/Off cluster commands
//  116   NULL,                                   // On/Off cluster enhanced command Off with Effect
//  117   NULL,                                   // On/Off cluster enhanced command On with Recall Global Scene
//  118   NULL,                                   // On/Off cluster enhanced command On with Timed Off
//  119 #ifdef ZCL_GROUPS
//  120   NULL,                                   // Group Response commands
//  121 #endif
//  122 #ifdef ZCL_SCENES
//  123   NULL,                                   // Scene Store Request command
//  124   NULL,                                   // Scene Recall Request command
//  125   NULL,                                   // Scene Response command
//  126 #endif
//  127 #ifdef ZCL_ALARMS
//  128   NULL,                                   // Alarm (Response) commands
//  129 #endif
//  130 #ifdef SE_UK_EXT
//  131   NULL,                                   // Get Event Log command
//  132   NULL,                                   // Publish Event Log command
//  133 #endif
//  134   NULL,                                   // RSSI Location command
//  135   NULL                                    // RSSI Location Response command
//  136 };
//  137 

        RSEG XDATA_I:XDATA:NOROOT(0)
//  138 static zclLighting_AppCallbacks_t zclZigUP_LightingCmdCBs =
zclZigUP_LightingCmdCBs:
        DATA8
        DS 34
        REQUIRE `?<Initializer for zclZigUP_LightingCmdCBs>`
        REQUIRE __INIT_XDATA_I
//  139 {
//  140   NULL,                         // Move To Hue Command
//  141   NULL,                         // Move Hue Command
//  142   NULL,                         // Step Hue Command
//  143   NULL,                         // Move To Saturation Command
//  144   NULL,                         // Move Saturation Command
//  145   NULL,                         // Step Saturation Command
//  146   NULL,                         // Move To Hue And Saturation  Command
//  147   zclZigUP_MoveToColorCB,       // Move To Color Command
//  148   NULL,                         // Move Color Command
//  149   NULL,                         // STEP To Color Command
//  150   NULL,                         // Move To Color Temperature Command
//  151   NULL,                         // Enhanced Move To Hue
//  152   NULL,                         // Enhanced Move Hue;
//  153   NULL,                         // Enhanced Step Hue;
//  154   NULL,                         // Enhanced Move To Hue And Saturation;
//  155   NULL,                         // Color Loop Set Command
//  156   NULL,                         // Stop Move Step;
//  157 };
//  158 

        RSEG XDATA_I:XDATA:NOROOT(0)
//  159 static zclClosures_DoorLockAppCallbacks_t zclZigUP_DoorLockCmdCallbacks =
zclZigUP_DoorLockCmdCallbacks:
        DATA8
        DS 100
        REQUIRE `?<Initializer for zclZigUP_DoorLockCmdCallback`
        REQUIRE __INIT_XDATA_I
//  160 {
//  161   zclZigUP_DoorLockCB,                           // DoorLock cluster command
//  162   zclZigUP_DoorLockRspCB,                        // DoorLock Response
//  163   NULL,
//  164   NULL,
//  165   NULL,
//  166   NULL,
//  167   NULL,
//  168   NULL,
//  169   NULL,
//  170   NULL,
//  171   NULL,
//  172   NULL,
//  173   NULL,
//  174   NULL,
//  175   NULL,
//  176   NULL,
//  177   NULL,
//  178   NULL,
//  179   NULL,
//  180   NULL,
//  181   NULL,
//  182   NULL,
//  183   NULL,
//  184   NULL,
//  185   NULL,
//  186   NULL,
//  187   NULL,
//  188   NULL,
//  189   NULL,
//  190   NULL,
//  191   NULL,
//  192   NULL,
//  193   NULL,
//  194   NULL,
//  195   NULL,
//  196   NULL,
//  197   NULL,
//  198   NULL,
//  199   NULL,
//  200   NULL,
//  201   NULL,
//  202   NULL,
//  203   NULL,
//  204   NULL,
//  205   NULL,
//  206   NULL,
//  207   NULL,
//  208   NULL,
//  209   NULL,
//  210   NULL
//  211 };
//  212 
//  213 
//  214 /*********************************************************************
//  215 * @fn          zclZigUP_Init
//  216 *
//  217 * @brief       Initialization function for the zclGeneral layer.
//  218 *
//  219 * @param       none
//  220 *
//  221 * @return      none
//  222 */

        RSEG BANKED_CODE:HUGECODE:NOROOT(0)
//  223 void zclZigUP_Init( byte task_id )
zclZigUP_Init:
          CFI Block cfiBlock51 Using cfiCommon0
          CFI Function zclZigUP_Init
        CODE
//  224 {
        FUNCALL zclZigUP_Init, zclHA_Init
        LOCFRAME ISTACK, 0, STACK
        LOCFRAME PSTACK, 0, STACK
        LOCFRAME XSTACK, 9, STACK
        LOCFRAME IOVERLAY, 0, STATIC
        LOCFRAME DOVERLAY, 0, STATIC
        ARGFRAME ISTACK, 0, STACK
        ARGFRAME PSTACK, 0, STACK
        ARGFRAME XSTACK, 9, STACK
        ARGFRAME IOVERLAY, 0, STATIC
        ARGFRAME DOVERLAY, 0, STATIC
        FUNCALL zclZigUP_Init, zclGeneral_RegisterCmdCallbacks
        LOCFRAME ISTACK, 0, STACK
        LOCFRAME PSTACK, 0, STACK
        LOCFRAME XSTACK, 9, STACK
        LOCFRAME IOVERLAY, 0, STATIC
        LOCFRAME DOVERLAY, 0, STATIC
        ARGFRAME ISTACK, 0, STACK
        ARGFRAME PSTACK, 0, STACK
        ARGFRAME XSTACK, 9, STACK
        ARGFRAME IOVERLAY, 0, STATIC
        ARGFRAME DOVERLAY, 0, STATIC
        FUNCALL zclZigUP_Init, zclLighting_RegisterCmdCallbacks
        LOCFRAME ISTACK, 0, STACK
        LOCFRAME PSTACK, 0, STACK
        LOCFRAME XSTACK, 9, STACK
        LOCFRAME IOVERLAY, 0, STATIC
        LOCFRAME DOVERLAY, 0, STATIC
        ARGFRAME ISTACK, 0, STACK
        ARGFRAME PSTACK, 0, STACK
        ARGFRAME XSTACK, 9, STACK
        ARGFRAME IOVERLAY, 0, STATIC
        ARGFRAME DOVERLAY, 0, STATIC
        FUNCALL zclZigUP_Init, zclClosures_RegisterDoorLockCmdCallbacks
        LOCFRAME ISTACK, 0, STACK
        LOCFRAME PSTACK, 0, STACK
        LOCFRAME XSTACK, 9, STACK
        LOCFRAME IOVERLAY, 0, STATIC
        LOCFRAME DOVERLAY, 0, STATIC
        ARGFRAME ISTACK, 0, STACK
        ARGFRAME PSTACK, 0, STACK
        ARGFRAME XSTACK, 9, STACK
        ARGFRAME IOVERLAY, 0, STATIC
        ARGFRAME DOVERLAY, 0, STATIC
        FUNCALL zclZigUP_Init, zcl_registerAttrList
        LOCFRAME ISTACK, 0, STACK
        LOCFRAME PSTACK, 0, STACK
        LOCFRAME XSTACK, 9, STACK
        LOCFRAME IOVERLAY, 0, STATIC
        LOCFRAME DOVERLAY, 0, STATIC
        ARGFRAME ISTACK, 0, STACK
        ARGFRAME PSTACK, 0, STACK
        ARGFRAME XSTACK, 9, STACK
        ARGFRAME IOVERLAY, 0, STATIC
        ARGFRAME DOVERLAY, 0, STATIC
        FUNCALL zclZigUP_Init, zcl_registerForMsg
        LOCFRAME ISTACK, 0, STACK
        LOCFRAME PSTACK, 0, STACK
        LOCFRAME XSTACK, 9, STACK
        LOCFRAME IOVERLAY, 0, STATIC
        LOCFRAME DOVERLAY, 0, STATIC
        ARGFRAME ISTACK, 0, STACK
        ARGFRAME PSTACK, 0, STACK
        ARGFRAME XSTACK, 9, STACK
        ARGFRAME IOVERLAY, 0, STATIC
        ARGFRAME DOVERLAY, 0, STATIC
        FUNCALL zclZigUP_Init, RegisterForKeys
        LOCFRAME ISTACK, 0, STACK
        LOCFRAME PSTACK, 0, STACK
        LOCFRAME XSTACK, 9, STACK
        LOCFRAME IOVERLAY, 0, STATIC
        LOCFRAME DOVERLAY, 0, STATIC
        ARGFRAME ISTACK, 0, STACK
        ARGFRAME PSTACK, 0, STACK
        ARGFRAME XSTACK, 9, STACK
        ARGFRAME IOVERLAY, 0, STATIC
        ARGFRAME DOVERLAY, 0, STATIC
        FUNCALL zclZigUP_Init, afRegister
        LOCFRAME ISTACK, 0, STACK
        LOCFRAME PSTACK, 0, STACK
        LOCFRAME XSTACK, 9, STACK
        LOCFRAME IOVERLAY, 0, STATIC
        LOCFRAME DOVERLAY, 0, STATIC
        ARGFRAME ISTACK, 0, STACK
        ARGFRAME PSTACK, 0, STACK
        ARGFRAME XSTACK, 9, STACK
        ARGFRAME IOVERLAY, 0, STATIC
        ARGFRAME DOVERLAY, 0, STATIC
        FUNCALL zclZigUP_Init, zcl_registerReadWriteCB
        LOCFRAME ISTACK, 0, STACK
        LOCFRAME PSTACK, 0, STACK
        LOCFRAME XSTACK, 9, STACK
        LOCFRAME IOVERLAY, 0, STATIC
        LOCFRAME DOVERLAY, 0, STATIC
        ARGFRAME ISTACK, 0, STACK
        ARGFRAME PSTACK, 0, STACK
        ARGFRAME XSTACK, 9, STACK
        ARGFRAME IOVERLAY, 0, STATIC
        ARGFRAME DOVERLAY, 0, STATIC
        FUNCALL zclZigUP_Init, zclDiagnostic_InitStats
        LOCFRAME ISTACK, 0, STACK
        LOCFRAME PSTACK, 0, STACK
        LOCFRAME XSTACK, 9, STACK
        LOCFRAME IOVERLAY, 0, STATIC
        LOCFRAME DOVERLAY, 0, STATIC
        ARGFRAME ISTACK, 0, STACK
        ARGFRAME PSTACK, 0, STACK
        ARGFRAME XSTACK, 9, STACK
        ARGFRAME IOVERLAY, 0, STATIC
        ARGFRAME DOVERLAY, 0, STATIC
        FUNCALL zclZigUP_Init, sysInit
        LOCFRAME ISTACK, 0, STACK
        LOCFRAME PSTACK, 0, STACK
        LOCFRAME XSTACK, 9, STACK
        LOCFRAME IOVERLAY, 0, STATIC
        LOCFRAME DOVERLAY, 0, STATIC
        ARGFRAME ISTACK, 0, STACK
        ARGFRAME PSTACK, 0, STACK
        ARGFRAME XSTACK, 9, STACK
        ARGFRAME IOVERLAY, 0, STATIC
        ARGFRAME DOVERLAY, 0, STATIC
        FUNCALL zclZigUP_Init, GetRandomNumber
        LOCFRAME ISTACK, 0, STACK
        LOCFRAME PSTACK, 0, STACK
        LOCFRAME XSTACK, 9, STACK
        LOCFRAME IOVERLAY, 0, STATIC
        LOCFRAME DOVERLAY, 0, STATIC
        ARGFRAME ISTACK, 0, STACK
        ARGFRAME PSTACK, 0, STACK
        ARGFRAME XSTACK, 9, STACK
        ARGFRAME IOVERLAY, 0, STATIC
        ARGFRAME DOVERLAY, 0, STATIC
        FUNCALL zclZigUP_Init, _delay_ms
        LOCFRAME ISTACK, 0, STACK
        LOCFRAME PSTACK, 0, STACK
        LOCFRAME XSTACK, 9, STACK
        LOCFRAME IOVERLAY, 0, STATIC
        LOCFRAME DOVERLAY, 0, STATIC
        ARGFRAME ISTACK, 0, STACK
        ARGFRAME PSTACK, 0, STACK
        ARGFRAME XSTACK, 9, STACK
        ARGFRAME IOVERLAY, 0, STATIC
        ARGFRAME DOVERLAY, 0, STATIC
        MOV       A,#-0x9
        LCALL     ?BANKED_ENTER_XDATA
          CFI DPH0 load(1, XDATA, add(CFA_XSP16, literal(-1)))
          CFI DPL0 load(1, XDATA, add(CFA_XSP16, literal(-2)))
          CFI ?BRET_EXT load(1, XDATA, add(CFA_XSP16, literal(-3)))
          CFI ?RET_HIGH load(1, XDATA, add(CFA_XSP16, literal(-4)))
          CFI ?RET_LOW load(1, XDATA, add(CFA_XSP16, literal(-5)))
          CFI R7 load(1, XDATA, add(CFA_XSP16, literal(-6)))
          CFI V0 load(1, XDATA, add(CFA_XSP16, literal(-7)))
          CFI VB load(1, XDATA, add(CFA_XSP16, literal(-8)))
          CFI R6 load(1, XDATA, add(CFA_XSP16, literal(-9)))
          CFI CFA_SP SP+0
          CFI CFA_XSP16 add(XSP16, 9)
        ; Saved register size: 9
        ; Auto size: 0
        MOV       A,R1
//  225   //  BindRestoreFromNV();
//  226   zclZigUP_TaskID = task_id;
        MOV       DPTR,#zclZigUP_TaskID
        MOVX      @DPTR,A
//  227   
//  228   // Set destination address to indirect
//  229   zclZigUP_DstAddr.addrMode = (afAddrMode_t)AddrNotPresent;
        MOV       DPTR,#zclZigUP_DstAddr + 8
        CLR       A
        MOVX      @DPTR,A
//  230   zclZigUP_DstAddr.endPoint = 0;
        INC       DPTR
        MOVX      @DPTR,A
//  231   zclZigUP_DstAddr.addr.shortAddr = 0;
        MOV       DPTR,#zclZigUP_DstAddr
        MOVX      @DPTR,A
        INC       DPTR
        MOVX      @DPTR,A
//  232   
//  233   // This app is part of the Home Automation Profile
//  234   zclHA_Init( &zclZigUP_SimpleDesc[0] );
        ; Setup parameters for call to function zclHA_Init
        MOV       R2,#zclZigUP_SimpleDesc & 0xff
        MOV       R3,#(zclZigUP_SimpleDesc >> 8) & 0xff
        LCALL     `??zclHA_Init::?relay`; Banked call to: zclHA_Init
//  235   
//  236   // Register the ZCL General Cluster Library callback functions
//  237   zclGeneral_RegisterCmdCallbacks( ZIGUP_ENDPOINT, &zclZigUP_CmdCallbacks );
        ; Setup parameters for call to function zclGeneral_RegisterCmdCallbacks
        MOV       R2,#zclZigUP_CmdCallbacks & 0xff
        MOV       R3,#(zclZigUP_CmdCallbacks >> 8) & 0xff
        MOV       R1,#0x8
        LCALL     `??zclGeneral_RegisterCmdCallbacks::?relay`; Banked call to: zclGeneral_RegisterCmdCallbacks
//  238 
//  239   // Register the ZCL Lighting Cluster Library callback functions
//  240   zclLighting_RegisterCmdCallbacks( ZIGUP_ENDPOINT, &zclZigUP_LightingCmdCBs );
        ; Setup parameters for call to function zclLighting_RegisterCmdCallbacks
        MOV       R2,#zclZigUP_LightingCmdCBs & 0xff
        MOV       R3,#(zclZigUP_LightingCmdCBs >> 8) & 0xff
        MOV       R1,#0x8
        LCALL     `??zclLighting_RegisterCmdCallbacks::?relay`; Banked call to: zclLighting_RegisterCmdCallbacks
//  241 
//  242   // Register the ZCL DoorLock Cluster Library callback function
//  243   zclClosures_RegisterDoorLockCmdCallbacks( ZIGUP_ENDPOINT, &zclZigUP_DoorLockCmdCallbacks );
        ; Setup parameters for call to function zclClosures_RegisterDoorLockCmdCallbacks
        MOV       R2,#zclZigUP_DoorLockCmdCallbacks & 0xff
        MOV       R3,#(zclZigUP_DoorLockCmdCallbacks >> 8) & 0xff
        MOV       R1,#0x8
        LCALL     `??zclClosures_RegisterDoorLockCmdCallbacks::?re`; Banked call to: zclClosures_RegisterDoorLockCmdCallbacks
//  244   
//  245   // Register the application's attribute list
//  246   zcl_registerAttrList( ZIGUP_ENDPOINT, zclZigUP_NumAttributes, zclZigUP_Attrs );
        ; Setup parameters for call to function zcl_registerAttrList
        MOV       R4,#zclZigUP_Attrs & 0xff
        MOV       R5,#(zclZigUP_Attrs >> 8) & 0xff
        MOV       DPTR,#zclZigUP_NumAttributes
        CLR       A
        MOVC      A,@A+DPTR
        MOV       R2,A
        MOV       R1,#0x8
        LCALL     `??zcl_registerAttrList::?relay`; Banked call to: zcl_registerAttrList
//  247   
//  248   // Register the Application to receive the unprocessed Foundation command/response messages
//  249   zcl_registerForMsg( zclZigUP_TaskID );
        ; Setup parameters for call to function zcl_registerForMsg
        MOV       DPTR,#zclZigUP_TaskID
        MOVX      A,@DPTR
        MOV       R1,A
        LCALL     `??zcl_registerForMsg::?relay`; Banked call to: zcl_registerForMsg
//  250   
//  251 #ifdef ZCL_DISCOVER
//  252   // Register the application's command list
//  253   zcl_registerCmdList( ZIGUP_ENDPOINT, zclCmdsArraySize, zclZigUP_Cmds );
//  254 #endif
//  255   
//  256   // Register for all key events - This app will handle all key events
//  257   RegisterForKeys( zclZigUP_TaskID );
        ; Setup parameters for call to function RegisterForKeys
        MOV       DPTR,#zclZigUP_TaskID
        MOVX      A,@DPTR
        MOV       R1,A
        LCALL     `??RegisterForKeys::?relay`; Banked call to: RegisterForKeys
//  258   
//  259   // Register for a test endpoint
//  260   afRegister( &ZigUP_TestEp );
        ; Setup parameters for call to function afRegister
        MOV       R2,#ZigUP_TestEp & 0xff
        MOV       R3,#(ZigUP_TestEp >> 8) & 0xff
        LCALL     `??afRegister::?relay`; Banked call to: afRegister
//  261   
//  262 #ifdef ZCL_DIAGNOSTIC
//  263   // Register the application's callback function to read/write attribute data.
//  264   // This is only required when the attribute data format is unknown to ZCL.
//  265   zcl_registerReadWriteCB( ZIGUP_ENDPOINT, zclDiagnostic_ReadWriteAttrCB, NULL );
        ; Setup parameters for call to function zcl_registerReadWriteCB
        MOV       R4,#0x0
        MOV       R5,#0x0
        MOV       R2,#`??zclDiagnostic_ReadWriteAttrCB::?relay` & 0xff
        MOV       R3,#(`??zclDiagnostic_ReadWriteAttrCB::?relay` >> 8) & 0xff
        MOV       R1,#0x8
        LCALL     `??zcl_registerReadWriteCB::?relay`; Banked call to: zcl_registerReadWriteCB
//  266   
//  267   if ( zclDiagnostic_InitStats() == ZSuccess )
        ; Setup parameters for call to function zclDiagnostic_InitStats
        LCALL     `??zclDiagnostic_InitStats::?relay`; Banked call to: zclDiagnostic_InitStats
//  268   {
//  269     // Here the user could start the timer to save Diagnostics to NV
//  270   }
//  271 #endif
//  272 
//  273   sysInit();
        ; Setup parameters for call to function sysInit
        LCALL     `??sysInit::?relay`; Banked call to: sysInit
//  274   
//  275   _delay_ms(GetRandomNumber()); // Random delay
        ; Setup parameters for call to function GetRandomNumber
        LCALL     `??GetRandomNumber::?relay`; Banked call to: GetRandomNumber
        MOV       A,R1
        ; Setup parameters for call to function _delay_ms
        MOV       R2,A
        MOV       R3,#0x0
        LCALL     `??_delay_ms::?relay`; Banked call to: _delay_ms
//  276   //osal_start_reload_timer( zclZigUP_TaskID, ZIGUP_REPORTING_EVT, ZIGUP_REPORTING_INTERVAL);
//  277 }
        MOV       R7,#0x1
        LJMP      ?BANKED_LEAVE_XDATA
          CFI EndBlock cfiBlock51
//  278 
//  279 /*********************************************************************
//  280 * @fn          zclSample_event_loop
//  281 *
//  282 * @brief       Event Loop Processor for zclGeneral.
//  283 *
//  284 * @param       none
//  285 *
//  286 * @return      none
//  287 */

        RSEG BANKED_CODE:HUGECODE:NOROOT(0)
//  288 uint16 zclZigUP_event_loop( uint8 task_id, uint16 events )
zclZigUP_event_loop:
          CFI Block cfiBlock52 Using cfiCommon0
          CFI Function zclZigUP_event_loop
        CODE
//  289 {
        FUNCALL zclZigUP_event_loop, zclZigUP_ProcessIdentifyTimeChange
        LOCFRAME ISTACK, 0, STACK
        LOCFRAME PSTACK, 0, STACK
        LOCFRAME XSTACK, 12, STACK
        LOCFRAME IOVERLAY, 0, STATIC
        LOCFRAME DOVERLAY, 0, STATIC
        ARGFRAME ISTACK, 0, STACK
        ARGFRAME PSTACK, 0, STACK
        ARGFRAME XSTACK, 12, STACK
        ARGFRAME IOVERLAY, 0, STATIC
        ARGFRAME DOVERLAY, 0, STATIC
        FUNCALL zclZigUP_event_loop, osal_msg_deallocate
        LOCFRAME ISTACK, 0, STACK
        LOCFRAME PSTACK, 0, STACK
        LOCFRAME XSTACK, 12, STACK
        LOCFRAME IOVERLAY, 0, STATIC
        LOCFRAME DOVERLAY, 0, STATIC
        ARGFRAME ISTACK, 0, STACK
        ARGFRAME PSTACK, 0, STACK
        ARGFRAME XSTACK, 12, STACK
        ARGFRAME IOVERLAY, 0, STATIC
        ARGFRAME DOVERLAY, 0, STATIC
        FUNCALL zclZigUP_event_loop, osal_msg_receive
        LOCFRAME ISTACK, 0, STACK
        LOCFRAME PSTACK, 0, STACK
        LOCFRAME XSTACK, 12, STACK
        LOCFRAME IOVERLAY, 0, STATIC
        LOCFRAME DOVERLAY, 0, STATIC
        ARGFRAME ISTACK, 0, STACK
        ARGFRAME PSTACK, 0, STACK
        ARGFRAME XSTACK, 12, STACK
        ARGFRAME IOVERLAY, 0, STATIC
        ARGFRAME DOVERLAY, 0, STATIC
        FUNCALL zclZigUP_event_loop, osal_mem_free
        LOCFRAME ISTACK, 0, STACK
        LOCFRAME PSTACK, 0, STACK
        LOCFRAME XSTACK, 12, STACK
        LOCFRAME IOVERLAY, 0, STATIC
        LOCFRAME DOVERLAY, 0, STATIC
        ARGFRAME ISTACK, 0, STACK
        ARGFRAME PSTACK, 0, STACK
        ARGFRAME XSTACK, 12, STACK
        ARGFRAME IOVERLAY, 0, STATIC
        ARGFRAME DOVERLAY, 0, STATIC
        REQUIRE ?V0
        REQUIRE ?V1
        REQUIRE ?V2
        REQUIRE ?V3
        MOV       A,#-0xc
        LCALL     ?BANKED_ENTER_XDATA
          CFI DPH0 load(1, XDATA, add(CFA_XSP16, literal(-1)))
          CFI DPL0 load(1, XDATA, add(CFA_XSP16, literal(-2)))
          CFI ?BRET_EXT load(1, XDATA, add(CFA_XSP16, literal(-3)))
          CFI ?RET_HIGH load(1, XDATA, add(CFA_XSP16, literal(-4)))
          CFI ?RET_LOW load(1, XDATA, add(CFA_XSP16, literal(-5)))
          CFI R7 load(1, XDATA, add(CFA_XSP16, literal(-6)))
          CFI V3 load(1, XDATA, add(CFA_XSP16, literal(-7)))
          CFI V2 load(1, XDATA, add(CFA_XSP16, literal(-8)))
          CFI V1 load(1, XDATA, add(CFA_XSP16, literal(-9)))
          CFI V0 load(1, XDATA, add(CFA_XSP16, literal(-10)))
          CFI VB load(1, XDATA, add(CFA_XSP16, literal(-11)))
          CFI R6 load(1, XDATA, add(CFA_XSP16, literal(-12)))
          CFI CFA_SP SP+0
          CFI CFA_XSP16 add(XSP16, 12)
        ; Saved register size: 12
        ; Auto size: 0
        MOV       A,R2
        MOV       R6,A
        MOV       A,R3
        MOV       R7,A
//  290   afIncomingMSGPacket_t *MSGpkt;
//  291   int res = 0;
//  292   
//  293   (void)task_id;  // Intentionally unreferenced parameter
//  294   
//  295   if ( events & SYS_EVENT_MSG )
        ANL       A,#0x80
        JNZ       ??zclZigUP_event_loop_0
//  296   {
//  297     while ( (MSGpkt = (afIncomingMSGPacket_t *)osal_msg_receive( zclZigUP_TaskID )) )
//  298     {
//  299       switch ( MSGpkt->hdr.event )
//  300       {
//  301       case ZCL_INCOMING_MSG:
//  302         // Incoming ZCL Foundation command/response messages
//  303         zclZigUP_ProcessIncomingMsg( (zclIncomingMsg_t *)MSGpkt );
//  304         break;
//  305         
//  306       case ZDO_STATE_CHANGE:
//  307         zclZigUP_NwkState = (devStates_t)(MSGpkt->hdr.status);
//  308         
//  309         // now on the network
//  310         if ( (zclZigUP_NwkState == DEV_ZB_COORD) || (zclZigUP_NwkState == DEV_ROUTER) || (zclZigUP_NwkState == DEV_END_DEVICE) )
//  311         {
//  312           // now on network
//  313         }
//  314         break;
//  315         
//  316       default:
//  317         break;
//  318       }
//  319       
//  320       // Release the memory
//  321       osal_msg_deallocate( (uint8 *)MSGpkt );
//  322     }
//  323     
//  324     // return unprocessed events
//  325     return (events ^ SYS_EVENT_MSG);
//  326   }
//  327   
//  328   if ( events & ZIGUP_IDENTIFY_TIMEOUT_EVT )
        MOV       A,R6
        MOV       C,0xE0 /* A   */.0
        JC        $+5
        LJMP      ??zclZigUP_event_loop_1 & 0xFFFF
//  329   {
//  330     if ( zclZigUP_IdentifyTime > 0 ) zclZigUP_IdentifyTime--;
        LCALL     ?Subroutine11 & 0xFFFF
??CrossCallReturnLabel_42:
        ORL       A,R1
        JZ        ??zclZigUP_event_loop_2
        MOV       DPTR,#zclZigUP_IdentifyTime
        MOVX      A,@DPTR
        ADD       A,#-0x1
        MOVX      @DPTR,A
        INC       DPTR
        MOVX      A,@DPTR
        ADDC      A,#-0x1
        MOVX      @DPTR,A
//  331     zclZigUP_ProcessIdentifyTimeChange();
??zclZigUP_event_loop_2:
        ; Setup parameters for call to function zclZigUP_ProcessIdentifyTimeChange
        LCALL     `??zclZigUP_ProcessIdentifyTimeChange::?relay`; Banked call to: zclZigUP_ProcessIdentifyTimeChange
//  332     
//  333     return ( events ^ ZIGUP_IDENTIFY_TIMEOUT_EVT );
        MOV       A,R6
        XRL       A,#0x1
        MOV       R2,A
        MOV       A,R7
        SJMP      ??zclZigUP_event_loop_3
//  334   }
??zclZigUP_event_loop_4:
        INC       DPTR
        MOVX      A,@DPTR
        MOV       DPTR,#zclZigUP_NwkState
        MOVX      @DPTR,A
??zclZigUP_event_loop_5:
        ; Setup parameters for call to function osal_msg_deallocate
        MOV       R2,?V0
        MOV       R3,?V1
        LCALL     `??osal_msg_deallocate::?relay`; Banked call to: osal_msg_deallocate
??zclZigUP_event_loop_0:
        ; Setup parameters for call to function osal_msg_receive
        MOV       DPTR,#zclZigUP_TaskID
        MOVX      A,@DPTR
        MOV       R1,A
        LCALL     `??osal_msg_receive::?relay`; Banked call to: osal_msg_receive
        MOV       ?V0,R2
        MOV       ?V1,R3
        MOV       A,R2
        ORL       A,?V1
        JZ        ??zclZigUP_event_loop_6
        MOV       DPL,R2
        MOV       DPH,R3
        MOVX      A,@DPTR
        ADD       A,#-0x34
        JZ        ??zclZigUP_event_loop_7
        ADD       A,#0x63
        JZ        ??zclZigUP_event_loop_4
        SJMP      ??zclZigUP_event_loop_5
??zclZigUP_event_loop_7:
        MOV       A,R2
        ADD       A,#0x17
        MOV       R0,A
        CLR       A
        ADDC      A,?V1
        MOV       R1,A
        MOV       A,R0
        MOV       R2,A
        MOV       A,R1
        MOV       R3,A
        INC       DPTR
        INC       DPTR
        INC       DPTR
        INC       DPTR
        INC       DPTR
        INC       DPTR
        INC       DPTR
        MOVX      A,@DPTR
        DEC       A
        JZ        ??zclZigUP_event_loop_8
        ADD       A,#-0x3
        JNZ       ??zclZigUP_event_loop_9
        LCALL     ?Subroutine10 & 0xFFFF
??CrossCallReturnLabel_35:
        MOVX      A,@DPTR
        MOV       R1,A
        MOV       A,R0
        CLR       C
        SUBB      A,R1
        JNC       ??zclZigUP_event_loop_9
        INC       R0
        SJMP      ??CrossCallReturnLabel_35
??zclZigUP_event_loop_8:
        LCALL     ?Subroutine10 & 0xFFFF
??CrossCallReturnLabel_36:
        SJMP      ??zclZigUP_event_loop_10
??zclZigUP_event_loop_11:
        INC       R0
??zclZigUP_event_loop_10:
        MOVX      A,@DPTR
        MOV       R1,A
        MOV       A,R0
        CLR       C
        SUBB      A,R1
        JC        ??zclZigUP_event_loop_11
??zclZigUP_event_loop_9:
        MOV       DPL,R2
        MOV       DPH,R3
        MOVX      A,@DPTR
        MOV       R2,A
        INC       DPTR
        MOVX      A,@DPTR
        MOV       R3,A
        MOV       A,R2
        ORL       A,R3
        JZ        ??zclZigUP_event_loop_5
        ; Setup parameters for call to function osal_mem_free
        LCALL     `??osal_mem_free::?relay`; Banked call to: osal_mem_free
        SJMP      ??zclZigUP_event_loop_5
??zclZigUP_event_loop_6:
        MOV       A,R6
        MOV       R2,A
        MOV       A,R7
        XRL       A,#0x80
??zclZigUP_event_loop_3:
        MOV       R3,A
        SJMP      ??zclZigUP_event_loop_12
//  335   
//  336   if ( events & ZIGUP_REPORTING_EVT )
??zclZigUP_event_loop_1:
        ANL       A,#0x2
        JZ        ??zclZigUP_event_loop_13
//  337   {
//  338     //Measure_QuickStuff();
//  339     //Measure_Sensor();
//  340       
//  341     return ( events ^ ZIGUP_REPORTING_EVT );
        MOV       A,R6
        XRL       A,#0x2
        MOV       R2,A
        SJMP      ??zclZigUP_event_loop_12
//  342   }    
//  343   
//  344   // Discard unknown events
//  345   return 0;
??zclZigUP_event_loop_13:
        MOV       R2,#0x0
        MOV       R3,#0x0
??zclZigUP_event_loop_12:
        LJMP      ?Subroutine0 & 0xFFFF
//  346 }
          CFI EndBlock cfiBlock52

        RSEG BANKED_CODE:HUGECODE:NOROOT(0)
?Subroutine11:
          CFI Block cfiCond53 Using cfiCommon0
          CFI Function zclZigUP_event_loop
          CFI Conditional ??CrossCallReturnLabel_42
          CFI R6 load(1, XDATA, add(CFA_XSP16, literal(-12)))
          CFI VB load(1, XDATA, add(CFA_XSP16, literal(-11)))
          CFI V0 load(1, XDATA, add(CFA_XSP16, literal(-10)))
          CFI V1 load(1, XDATA, add(CFA_XSP16, literal(-9)))
          CFI V2 load(1, XDATA, add(CFA_XSP16, literal(-8)))
          CFI V3 load(1, XDATA, add(CFA_XSP16, literal(-7)))
          CFI R7 load(1, XDATA, add(CFA_XSP16, literal(-6)))
          CFI ?RET_LOW load(1, XDATA, add(CFA_XSP16, literal(-5)))
          CFI ?RET_HIGH load(1, XDATA, add(CFA_XSP16, literal(-4)))
          CFI ?BRET_EXT load(1, XDATA, add(CFA_XSP16, literal(-3)))
          CFI DPL0 load(1, XDATA, add(CFA_XSP16, literal(-2)))
          CFI DPH0 load(1, XDATA, add(CFA_XSP16, literal(-1)))
          CFI CFA_SP SP+-2
          CFI CFA_XSP16 add(XSP16, 12)
          CFI Block cfiCond54 Using cfiCommon0
          CFI (cfiCond54) Function zclZigUP_ProcessIdentifyTimeChange
          CFI (cfiCond54) Conditional ??CrossCallReturnLabel_43
          CFI (cfiCond54) DPL0 Frame(CFA_SP, 4)
          CFI (cfiCond54) DPH0 Frame(CFA_SP, 5)
          CFI (cfiCond54) CFA_SP SP+-7
          CFI Block cfiPicker55 Using cfiCommon1
          CFI (cfiPicker55) NoFunction
          CFI (cfiPicker55) Picker
        MOV       DPTR,#zclZigUP_IdentifyTime
          CFI EndBlock cfiCond53
          CFI EndBlock cfiCond54
          CFI EndBlock cfiPicker55
        REQUIRE ??Subroutine15_0
        ; // Fall through to label ??Subroutine15_0

        RSEG BANKED_CODE:HUGECODE:NOROOT(0)
??Subroutine15_0:
          CFI Block cfiCond56 Using cfiCommon0
          CFI Function zclZigUP_Reporting
          CFI Conditional ??CrossCallReturnLabel_41
          CFI R6 load(1, XDATA, add(CFA_XSP16, literal(-12)))
          CFI VB load(1, XDATA, add(CFA_XSP16, literal(-11)))
          CFI V0 load(1, XDATA, add(CFA_XSP16, literal(-10)))
          CFI V1 load(1, XDATA, add(CFA_XSP16, literal(-9)))
          CFI V2 load(1, XDATA, add(CFA_XSP16, literal(-8)))
          CFI V3 load(1, XDATA, add(CFA_XSP16, literal(-7)))
          CFI R7 load(1, XDATA, add(CFA_XSP16, literal(-6)))
          CFI ?RET_LOW load(1, XDATA, add(CFA_XSP16, literal(-5)))
          CFI ?RET_HIGH load(1, XDATA, add(CFA_XSP16, literal(-4)))
          CFI ?BRET_EXT load(1, XDATA, add(CFA_XSP16, literal(-3)))
          CFI DPL0 load(1, XDATA, add(CFA_XSP16, literal(-2)))
          CFI DPH0 load(1, XDATA, add(CFA_XSP16, literal(-1)))
          CFI CFA_SP SP+-2
          CFI CFA_XSP16 add(XSP16, 14)
          CFI Block cfiCond57 Using cfiCommon0
          CFI (cfiCond57) Function zclZigUP_event_loop
          CFI (cfiCond57) Conditional ??CrossCallReturnLabel_42
          CFI (cfiCond57) R6 load(1, XDATA, add(CFA_XSP16, literal(-12)))
          CFI (cfiCond57) VB load(1, XDATA, add(CFA_XSP16, literal(-11)))
          CFI (cfiCond57) V0 load(1, XDATA, add(CFA_XSP16, literal(-10)))
          CFI (cfiCond57) V1 load(1, XDATA, add(CFA_XSP16, literal(-9)))
          CFI (cfiCond57) V2 load(1, XDATA, add(CFA_XSP16, literal(-8)))
          CFI (cfiCond57) V3 load(1, XDATA, add(CFA_XSP16, literal(-7)))
          CFI (cfiCond57) R7 load(1, XDATA, add(CFA_XSP16, literal(-6)))
          CFI (cfiCond57) ?RET_LOW load(1, XDATA, add(CFA_XSP16, literal(-5)))
          CFI (cfiCond57) ?RET_HIGH load(1, XDATA, add(CFA_XSP16, literal(-4)))
          CFI (cfiCond57) ?BRET_EXT load(1, XDATA, add(CFA_XSP16, literal(-3)))
          CFI (cfiCond57) DPL0 load(1, XDATA, add(CFA_XSP16, literal(-2)))
          CFI (cfiCond57) DPH0 load(1, XDATA, add(CFA_XSP16, literal(-1)))
          CFI (cfiCond57) CFA_SP SP+-2
          CFI (cfiCond57) CFA_XSP16 add(XSP16, 12)
          CFI Block cfiCond58 Using cfiCommon0
          CFI (cfiCond58) Function zclZigUP_ProcessIdentifyTimeChange
          CFI (cfiCond58) Conditional ??CrossCallReturnLabel_43
          CFI (cfiCond58) DPL0 Frame(CFA_SP, 4)
          CFI (cfiCond58) DPH0 Frame(CFA_SP, 5)
          CFI (cfiCond58) CFA_SP SP+-7
          CFI Block cfiPicker59 Using cfiCommon1
          CFI (cfiPicker59) NoFunction
          CFI (cfiPicker59) Picker
        LCALL     ??Subroutine16_0 & 0xFFFF
??CrossCallReturnLabel_47:
        MOV       A,R0
        RET
          CFI EndBlock cfiCond56
          CFI EndBlock cfiCond57
          CFI EndBlock cfiCond58
          CFI EndBlock cfiPicker59

        RSEG BANKED_CODE:HUGECODE:NOROOT(0)
?Subroutine10:
          CFI Block cfiCond60 Using cfiCommon0
          CFI Function zclZigUP_event_loop
          CFI Conditional ??CrossCallReturnLabel_35
          CFI R6 load(1, XDATA, add(CFA_XSP16, literal(-12)))
          CFI VB load(1, XDATA, add(CFA_XSP16, literal(-11)))
          CFI V0 load(1, XDATA, add(CFA_XSP16, literal(-10)))
          CFI V1 load(1, XDATA, add(CFA_XSP16, literal(-9)))
          CFI V2 load(1, XDATA, add(CFA_XSP16, literal(-8)))
          CFI V3 load(1, XDATA, add(CFA_XSP16, literal(-7)))
          CFI R7 load(1, XDATA, add(CFA_XSP16, literal(-6)))
          CFI ?RET_LOW load(1, XDATA, add(CFA_XSP16, literal(-5)))
          CFI ?RET_HIGH load(1, XDATA, add(CFA_XSP16, literal(-4)))
          CFI ?BRET_EXT load(1, XDATA, add(CFA_XSP16, literal(-3)))
          CFI DPL0 load(1, XDATA, add(CFA_XSP16, literal(-2)))
          CFI DPH0 load(1, XDATA, add(CFA_XSP16, literal(-1)))
          CFI CFA_SP SP+-2
          CFI CFA_XSP16 add(XSP16, 12)
          CFI Block cfiCond61 Using cfiCommon0
          CFI (cfiCond61) Function zclZigUP_event_loop
          CFI (cfiCond61) Conditional ??CrossCallReturnLabel_36
          CFI (cfiCond61) R6 load(1, XDATA, add(CFA_XSP16, literal(-12)))
          CFI (cfiCond61) VB load(1, XDATA, add(CFA_XSP16, literal(-11)))
          CFI (cfiCond61) V0 load(1, XDATA, add(CFA_XSP16, literal(-10)))
          CFI (cfiCond61) V1 load(1, XDATA, add(CFA_XSP16, literal(-9)))
          CFI (cfiCond61) V2 load(1, XDATA, add(CFA_XSP16, literal(-8)))
          CFI (cfiCond61) V3 load(1, XDATA, add(CFA_XSP16, literal(-7)))
          CFI (cfiCond61) R7 load(1, XDATA, add(CFA_XSP16, literal(-6)))
          CFI (cfiCond61) ?RET_LOW load(1, XDATA, add(CFA_XSP16, literal(-5)))
          CFI (cfiCond61) ?RET_HIGH load(1, XDATA, add(CFA_XSP16, literal(-4)))
          CFI (cfiCond61) ?BRET_EXT load(1, XDATA, add(CFA_XSP16, literal(-3)))
          CFI (cfiCond61) DPL0 load(1, XDATA, add(CFA_XSP16, literal(-2)))
          CFI (cfiCond61) DPH0 load(1, XDATA, add(CFA_XSP16, literal(-1)))
          CFI (cfiCond61) CFA_SP SP+-2
          CFI (cfiCond61) CFA_XSP16 add(XSP16, 12)
          CFI Block cfiPicker62 Using cfiCommon1
          CFI (cfiPicker62) NoFunction
          CFI (cfiPicker62) Picker
        MOV       DPL,R2
        MOV       DPH,R3
        LCALL     ??Subroutine16_0 & 0xFFFF
??CrossCallReturnLabel_44:
        MOV       DPL,R0
        MOV       DPH,R1
        MOV       R0,#0x0
        RET
          CFI EndBlock cfiCond60
          CFI EndBlock cfiCond61
          CFI EndBlock cfiPicker62
//  347 
//  348 /*********************************************************************
//  349 * @fn      zclZigUP_ProcessIdentifyTimeChange
//  350 *
//  351 * @brief   Called to process any change to the IdentifyTime attribute.
//  352 *
//  353 * @param   none
//  354 *
//  355 * @return  none
//  356 */

        RSEG BANKED_CODE:HUGECODE:NOROOT(0)
//  357 static void zclZigUP_ProcessIdentifyTimeChange( void )
zclZigUP_ProcessIdentifyTimeChange:
          CFI Block cfiBlock63 Using cfiCommon0
          CFI Function zclZigUP_ProcessIdentifyTimeChange
        CODE
//  358 {
        FUNCALL zclZigUP_ProcessIdentifyTimeChange, osal_start_timerEx
        LOCFRAME ISTACK, 2, STACK
        LOCFRAME PSTACK, 0, STACK
        LOCFRAME XSTACK, 4, STACK
        LOCFRAME IOVERLAY, 0, STATIC
        LOCFRAME DOVERLAY, 0, STATIC
        ARGFRAME ISTACK, 2, STACK
        ARGFRAME PSTACK, 0, STACK
        ARGFRAME XSTACK, 4, STACK
        ARGFRAME IOVERLAY, 0, STATIC
        ARGFRAME DOVERLAY, 0, STATIC
        FUNCALL zclZigUP_ProcessIdentifyTimeChange, osal_stop_timerEx
        LOCFRAME ISTACK, 2, STACK
        LOCFRAME PSTACK, 0, STACK
        LOCFRAME XSTACK, 0, STACK
        LOCFRAME IOVERLAY, 0, STATIC
        LOCFRAME DOVERLAY, 0, STATIC
        ARGFRAME ISTACK, 2, STACK
        ARGFRAME PSTACK, 0, STACK
        ARGFRAME XSTACK, 0, STACK
        ARGFRAME IOVERLAY, 0, STATIC
        ARGFRAME DOVERLAY, 0, STATIC
        PUSH      DPL
          CFI DPL0 Frame(CFA_SP, 4)
          CFI CFA_SP SP+-4
        PUSH      DPH
          CFI DPH0 Frame(CFA_SP, 5)
          CFI CFA_SP SP+-5
        ; Saved register size: 2
        ; Auto size: 0
//  359   if ( zclZigUP_IdentifyTime > 0 )
        LCALL     ?Subroutine11 & 0xFFFF
??CrossCallReturnLabel_43:
        ORL       A,R1
        JZ        ??zclZigUP_ProcessIdentifyTimeChange_0
//  360   {
//  361     osal_start_timerEx( zclZigUP_TaskID, ZIGUP_IDENTIFY_TIMEOUT_EVT, 1000 );
        ; Setup parameters for call to function osal_start_timerEx
        MOV       DPTR,#__Constant_3e8
        LCALL     ?PUSH_XSTACK8_X_FOUR
          CFI CFA_XSP16 add(XSP16, 4)
        MOV       R2,#0x1
        MOV       R3,#0x0
        MOV       DPTR,#zclZigUP_TaskID
        MOVX      A,@DPTR
        MOV       R1,A
        LCALL     `??osal_start_timerEx::?relay`; Banked call to: osal_start_timerEx
        MOV       A,#0x4
        LCALL     ?DEALLOC_XSTACK8
          CFI CFA_XSP16 XSP16+0
        SJMP      ??zclZigUP_ProcessIdentifyTimeChange_1
//  362 //    HalLedBlink ( HAL_LED_4, 0xFF, HAL_LED_DEFAULT_DUTY_CYCLE, HAL_LED_DEFAULT_FLASH_TIME );
//  363   }
//  364   else
//  365   {
//  366     osal_stop_timerEx( zclZigUP_TaskID, ZIGUP_IDENTIFY_TIMEOUT_EVT );
??zclZigUP_ProcessIdentifyTimeChange_0:
        ; Setup parameters for call to function osal_stop_timerEx
        MOV       R2,#0x1
        MOV       R3,#0x0
        MOV       DPTR,#zclZigUP_TaskID
        MOVX      A,@DPTR
        MOV       R1,A
        LCALL     `??osal_stop_timerEx::?relay`; Banked call to: osal_stop_timerEx
//  367   }
//  368 }
??zclZigUP_ProcessIdentifyTimeChange_1:
          CFI EndBlock cfiBlock63
        REQUIRE ?Subroutine1
        ; // Fall through to label ?Subroutine1

        RSEG BANKED_CODE:HUGECODE:NOROOT(0)
?Subroutine1:
          CFI Block cfiBlock64 Using cfiCommon0
          CFI NoFunction
          CFI CFA_SP SP+-5
          CFI DPL0 Frame(CFA_SP, 4)
          CFI DPH0 Frame(CFA_SP, 5)
        POP       DPH
          CFI CFA_SP SP+-4
          CFI DPH0 SameValue
        POP       DPL
          CFI CFA_SP SP+-3
          CFI DPL0 SameValue
        LJMP      ?BRET
          CFI EndBlock cfiBlock64
//  369 
//  370 /*********************************************************************
//  371 * @fn      zclZigUP_BasicResetCB
//  372 *
//  373 * @brief   Callback from the ZCL General Cluster Library
//  374 *          to set all the Basic Cluster attributes to default values.
//  375 *
//  376 * @param   none
//  377 *
//  378 * @return  none
//  379 */

        RSEG BANKED_CODE:HUGECODE:NOROOT(0)
//  380 static void zclZigUP_BasicResetCB( void )
zclZigUP_BasicResetCB:
          CFI Block cfiBlock65 Using cfiCommon0
          CFI Function zclZigUP_BasicResetCB
        CODE
//  381 {
        FUNCALL zclZigUP_BasicResetCB, osal_memset
        LOCFRAME ISTACK, 2, STACK
        LOCFRAME PSTACK, 0, STACK
        LOCFRAME XSTACK, 5, STACK
        LOCFRAME IOVERLAY, 0, STATIC
        LOCFRAME DOVERLAY, 0, STATIC
        ARGFRAME ISTACK, 2, STACK
        ARGFRAME PSTACK, 0, STACK
        ARGFRAME XSTACK, 5, STACK
        ARGFRAME IOVERLAY, 0, STATIC
        ARGFRAME DOVERLAY, 0, STATIC
        FUNCALL zclZigUP_BasicResetCB, zgWriteStartupOptions
        LOCFRAME ISTACK, 2, STACK
        LOCFRAME PSTACK, 0, STACK
        LOCFRAME XSTACK, 5, STACK
        LOCFRAME IOVERLAY, 0, STATIC
        LOCFRAME DOVERLAY, 0, STATIC
        ARGFRAME ISTACK, 2, STACK
        ARGFRAME PSTACK, 0, STACK
        ARGFRAME XSTACK, 5, STACK
        ARGFRAME IOVERLAY, 0, STATIC
        ARGFRAME DOVERLAY, 0, STATIC
        FUNCALL zclZigUP_BasicResetCB, NLME_LeaveReq
        LOCFRAME ISTACK, 2, STACK
        LOCFRAME PSTACK, 0, STACK
        LOCFRAME XSTACK, 5, STACK
        LOCFRAME IOVERLAY, 0, STATIC
        LOCFRAME DOVERLAY, 0, STATIC
        ARGFRAME ISTACK, 2, STACK
        ARGFRAME PSTACK, 0, STACK
        ARGFRAME XSTACK, 5, STACK
        ARGFRAME IOVERLAY, 0, STATIC
        ARGFRAME DOVERLAY, 0, STATIC
        FUNCALL zclZigUP_BasicResetCB, ZDApp_LeaveReset
        LOCFRAME ISTACK, 2, STACK
        LOCFRAME PSTACK, 0, STACK
        LOCFRAME XSTACK, 5, STACK
        LOCFRAME IOVERLAY, 0, STATIC
        LOCFRAME DOVERLAY, 0, STATIC
        ARGFRAME ISTACK, 2, STACK
        ARGFRAME PSTACK, 0, STACK
        ARGFRAME XSTACK, 5, STACK
        ARGFRAME IOVERLAY, 0, STATIC
        ARGFRAME DOVERLAY, 0, STATIC
        PUSH      DPL
          CFI DPL0 Frame(CFA_SP, 4)
          CFI CFA_SP SP+-4
        PUSH      DPH
          CFI DPH0 Frame(CFA_SP, 5)
          CFI CFA_SP SP+-5
        ; Saved register size: 2
        ; Auto size: 5
        MOV       A,#-0x5
        LCALL     ?ALLOC_XSTACK8
          CFI CFA_XSP16 add(XSP16, 5)
//  382   NLME_LeaveReq_t leaveReq;
//  383   // Set every field to 0
//  384   osal_memset( &leaveReq, 0, sizeof( NLME_LeaveReq_t ) );
        ; Setup parameters for call to function osal_memset
        MOV       R4,#0x5
        MOV       R5,#0x0
        MOV       R1,#0x0
        MOV       R2,?XSP + 0
        MOV       R3,?XSP + 1
        LCALL     `??osal_memset::?relay`; Banked call to: osal_memset
//  385   
//  386   // This will enable the device to rejoin the network after reset.
//  387   leaveReq.rejoin = TRUE;
        MOV       A,#0x3
        LCALL     ?XSTACK_DISP0_8
        MOV       A,#0x1
        MOVX      @DPTR,A
//  388   
//  389   // Set the NV startup option to force a "new" join.
//  390   zgWriteStartupOptions( ZG_STARTUP_SET, ZCD_STARTOPT_DEFAULT_NETWORK_STATE );
        ; Setup parameters for call to function zgWriteStartupOptions
        MOV       R2,#0x2
        MOV       R1,#-0x1
        LCALL     `??zgWriteStartupOptions::?relay`; Banked call to: zgWriteStartupOptions
//  391   
//  392   // Leave the network, and reset afterwards
//  393   if ( NLME_LeaveReq( &leaveReq ) != ZSuccess )
        ; Setup parameters for call to function NLME_LeaveReq
        MOV       R2,?XSP + 0
        MOV       R3,?XSP + 1
        LCALL     `??NLME_LeaveReq::?relay`; Banked call to: NLME_LeaveReq
        MOV       A,R1
        JZ        ??zclZigUP_BasicResetCB_0
//  394   {
//  395     // Couldn't send out leave; prepare to reset anyway
//  396     ZDApp_LeaveReset( FALSE );
        ; Setup parameters for call to function ZDApp_LeaveReset
        MOV       R1,#0x0
        LCALL     `??ZDApp_LeaveReset::?relay`; Banked call to: ZDApp_LeaveReset
//  397   }
//  398 }
??zclZigUP_BasicResetCB_0:
        MOV       A,#0x5
        LCALL     ?DEALLOC_XSTACK8
          CFI CFA_XSP16 XSP16+0
        SJMP      ?Subroutine1
          CFI EndBlock cfiBlock65
//  399 
//  400 /*********************************************************************
//  401 * @fn      zclZigUP_IdentifyCB
//  402 *
//  403 * @brief   Callback from the ZCL General Cluster Library when
//  404 *          it received an Identity Command for this application.
//  405 *
//  406 * @param   srcAddr - source address and endpoint of the response message
//  407 * @param   identifyTime - the number of seconds to identify yourself
//  408 *
//  409 * @return  none
//  410 */

        RSEG BANKED_CODE:HUGECODE:NOROOT(0)
//  411 static void zclZigUP_IdentifyCB( zclIdentify_t *pCmd )
zclZigUP_IdentifyCB:
          CFI Block cfiBlock66 Using cfiCommon0
          CFI Function zclZigUP_IdentifyCB
        CODE
//  412 {
        FUNCALL zclZigUP_IdentifyCB, zclZigUP_ProcessIdentifyTimeChange
        LOCFRAME ISTACK, 2, STACK
        LOCFRAME PSTACK, 0, STACK
        LOCFRAME XSTACK, 0, STACK
        LOCFRAME IOVERLAY, 0, STATIC
        LOCFRAME DOVERLAY, 0, STATIC
        ARGFRAME ISTACK, 2, STACK
        ARGFRAME PSTACK, 0, STACK
        ARGFRAME XSTACK, 0, STACK
        ARGFRAME IOVERLAY, 0, STATIC
        ARGFRAME DOVERLAY, 0, STATIC
        PUSH      DPL
          CFI DPL0 Frame(CFA_SP, 4)
          CFI CFA_SP SP+-4
        PUSH      DPH
          CFI DPH0 Frame(CFA_SP, 5)
          CFI CFA_SP SP+-5
        ; Saved register size: 2
        ; Auto size: 0
//  413   zclZigUP_IdentifyTime = pCmd->identifyTime;
        MOV       DPL,R2
        MOV       DPH,R3
        LCALL     ?Subroutine13 & 0xFFFF
??CrossCallReturnLabel_45:
        MOV       DPTR,#zclZigUP_IdentifyTime
        MOV       A,R0
        MOVX      @DPTR,A
        INC       DPTR
        MOV       A,R1
        MOVX      @DPTR,A
//  414   zclZigUP_ProcessIdentifyTimeChange();
        ; Setup parameters for call to function zclZigUP_ProcessIdentifyTimeChange
        LCALL     `??zclZigUP_ProcessIdentifyTimeChange::?relay`; Banked call to: zclZigUP_ProcessIdentifyTimeChange
//  415 }
        SJMP      ?Subroutine1
          CFI EndBlock cfiBlock66

        RSEG BANKED_CODE:HUGECODE:NOROOT(0)
?Subroutine13:
          CFI Block cfiCond67 Using cfiCommon0
          CFI Function zclZigUP_IdentifyCB
          CFI Conditional ??CrossCallReturnLabel_45
          CFI DPL0 Frame(CFA_SP, 4)
          CFI DPH0 Frame(CFA_SP, 5)
          CFI CFA_SP SP+-7
          CFI Block cfiCond68 Using cfiCommon0
          CFI (cfiCond68) Function zclZigUP_OnOffCB
          CFI (cfiCond68) Conditional ??CrossCallReturnLabel_46
          CFI (cfiCond68) R6 load(1, XDATA, add(CFA_XSP16, literal(-10)))
          CFI (cfiCond68) VB load(1, XDATA, add(CFA_XSP16, literal(-9)))
          CFI (cfiCond68) V0 load(1, XDATA, add(CFA_XSP16, literal(-8)))
          CFI (cfiCond68) V1 load(1, XDATA, add(CFA_XSP16, literal(-7)))
          CFI (cfiCond68) R7 load(1, XDATA, add(CFA_XSP16, literal(-6)))
          CFI (cfiCond68) ?RET_LOW load(1, XDATA, add(CFA_XSP16, literal(-5)))
          CFI (cfiCond68) ?RET_HIGH load(1, XDATA, add(CFA_XSP16, literal(-4)))
          CFI (cfiCond68) ?BRET_EXT load(1, XDATA, add(CFA_XSP16, literal(-3)))
          CFI (cfiCond68) DPL0 load(1, XDATA, add(CFA_XSP16, literal(-2)))
          CFI (cfiCond68) DPH0 load(1, XDATA, add(CFA_XSP16, literal(-1)))
          CFI (cfiCond68) CFA_SP SP+-2
          CFI (cfiCond68) CFA_XSP16 add(XSP16, 110)
          CFI Block cfiPicker69 Using cfiCommon1
          CFI (cfiPicker69) NoFunction
          CFI (cfiPicker69) Picker
        INC       DPTR
        INC       DPTR
          CFI EndBlock cfiCond67
          CFI EndBlock cfiCond68
          CFI EndBlock cfiPicker69
        REQUIRE ??Subroutine16_0
        ; // Fall through to label ??Subroutine16_0

        RSEG BANKED_CODE:HUGECODE:NOROOT(0)
??Subroutine16_0:
          CFI Block cfiCond70 Using cfiCommon0
          CFI Function zclZigUP_event_loop
          CFI Conditional ??CrossCallReturnLabel_47, ??CrossCallReturnLabel_42
          CFI R6 load(1, XDATA, add(CFA_XSP16, literal(-12)))
          CFI VB load(1, XDATA, add(CFA_XSP16, literal(-11)))
          CFI V0 load(1, XDATA, add(CFA_XSP16, literal(-10)))
          CFI V1 load(1, XDATA, add(CFA_XSP16, literal(-9)))
          CFI V2 load(1, XDATA, add(CFA_XSP16, literal(-8)))
          CFI V3 load(1, XDATA, add(CFA_XSP16, literal(-7)))
          CFI R7 load(1, XDATA, add(CFA_XSP16, literal(-6)))
          CFI ?RET_LOW load(1, XDATA, add(CFA_XSP16, literal(-5)))
          CFI ?RET_HIGH load(1, XDATA, add(CFA_XSP16, literal(-4)))
          CFI ?BRET_EXT load(1, XDATA, add(CFA_XSP16, literal(-3)))
          CFI DPL0 load(1, XDATA, add(CFA_XSP16, literal(-2)))
          CFI DPH0 load(1, XDATA, add(CFA_XSP16, literal(-1)))
          CFI CFA_SP SP+-4
          CFI CFA_XSP16 add(XSP16, 12)
          CFI Block cfiCond71 Using cfiCommon0
          CFI (cfiCond71) Function zclZigUP_ProcessIdentifyTimeChange
          CFI (cfiCond71) Conditional ??CrossCallReturnLabel_47, ??CrossCallReturnLabel_43
          CFI (cfiCond71) DPL0 Frame(CFA_SP, 4)
          CFI (cfiCond71) DPH0 Frame(CFA_SP, 5)
          CFI (cfiCond71) CFA_SP SP+-9
          CFI Block cfiCond72 Using cfiCommon0
          CFI (cfiCond72) Function zclZigUP_Reporting
          CFI (cfiCond72) Conditional ??CrossCallReturnLabel_47, ??CrossCallReturnLabel_41
          CFI (cfiCond72) R6 load(1, XDATA, add(CFA_XSP16, literal(-12)))
          CFI (cfiCond72) VB load(1, XDATA, add(CFA_XSP16, literal(-11)))
          CFI (cfiCond72) V0 load(1, XDATA, add(CFA_XSP16, literal(-10)))
          CFI (cfiCond72) V1 load(1, XDATA, add(CFA_XSP16, literal(-9)))
          CFI (cfiCond72) V2 load(1, XDATA, add(CFA_XSP16, literal(-8)))
          CFI (cfiCond72) V3 load(1, XDATA, add(CFA_XSP16, literal(-7)))
          CFI (cfiCond72) R7 load(1, XDATA, add(CFA_XSP16, literal(-6)))
          CFI (cfiCond72) ?RET_LOW load(1, XDATA, add(CFA_XSP16, literal(-5)))
          CFI (cfiCond72) ?RET_HIGH load(1, XDATA, add(CFA_XSP16, literal(-4)))
          CFI (cfiCond72) ?BRET_EXT load(1, XDATA, add(CFA_XSP16, literal(-3)))
          CFI (cfiCond72) DPL0 load(1, XDATA, add(CFA_XSP16, literal(-2)))
          CFI (cfiCond72) DPH0 load(1, XDATA, add(CFA_XSP16, literal(-1)))
          CFI (cfiCond72) CFA_SP SP+-4
          CFI (cfiCond72) CFA_XSP16 add(XSP16, 14)
          CFI Block cfiCond73 Using cfiCommon0
          CFI (cfiCond73) Function zclZigUP_event_loop
          CFI (cfiCond73) Conditional ??CrossCallReturnLabel_44, ??CrossCallReturnLabel_35
          CFI (cfiCond73) R6 load(1, XDATA, add(CFA_XSP16, literal(-12)))
          CFI (cfiCond73) VB load(1, XDATA, add(CFA_XSP16, literal(-11)))
          CFI (cfiCond73) V0 load(1, XDATA, add(CFA_XSP16, literal(-10)))
          CFI (cfiCond73) V1 load(1, XDATA, add(CFA_XSP16, literal(-9)))
          CFI (cfiCond73) V2 load(1, XDATA, add(CFA_XSP16, literal(-8)))
          CFI (cfiCond73) V3 load(1, XDATA, add(CFA_XSP16, literal(-7)))
          CFI (cfiCond73) R7 load(1, XDATA, add(CFA_XSP16, literal(-6)))
          CFI (cfiCond73) ?RET_LOW load(1, XDATA, add(CFA_XSP16, literal(-5)))
          CFI (cfiCond73) ?RET_HIGH load(1, XDATA, add(CFA_XSP16, literal(-4)))
          CFI (cfiCond73) ?BRET_EXT load(1, XDATA, add(CFA_XSP16, literal(-3)))
          CFI (cfiCond73) DPL0 load(1, XDATA, add(CFA_XSP16, literal(-2)))
          CFI (cfiCond73) DPH0 load(1, XDATA, add(CFA_XSP16, literal(-1)))
          CFI (cfiCond73) CFA_SP SP+-4
          CFI (cfiCond73) CFA_XSP16 add(XSP16, 12)
          CFI Block cfiCond74 Using cfiCommon0
          CFI (cfiCond74) Function zclZigUP_event_loop
          CFI (cfiCond74) Conditional ??CrossCallReturnLabel_44, ??CrossCallReturnLabel_36
          CFI (cfiCond74) R6 load(1, XDATA, add(CFA_XSP16, literal(-12)))
          CFI (cfiCond74) VB load(1, XDATA, add(CFA_XSP16, literal(-11)))
          CFI (cfiCond74) V0 load(1, XDATA, add(CFA_XSP16, literal(-10)))
          CFI (cfiCond74) V1 load(1, XDATA, add(CFA_XSP16, literal(-9)))
          CFI (cfiCond74) V2 load(1, XDATA, add(CFA_XSP16, literal(-8)))
          CFI (cfiCond74) V3 load(1, XDATA, add(CFA_XSP16, literal(-7)))
          CFI (cfiCond74) R7 load(1, XDATA, add(CFA_XSP16, literal(-6)))
          CFI (cfiCond74) ?RET_LOW load(1, XDATA, add(CFA_XSP16, literal(-5)))
          CFI (cfiCond74) ?RET_HIGH load(1, XDATA, add(CFA_XSP16, literal(-4)))
          CFI (cfiCond74) ?BRET_EXT load(1, XDATA, add(CFA_XSP16, literal(-3)))
          CFI (cfiCond74) DPL0 load(1, XDATA, add(CFA_XSP16, literal(-2)))
          CFI (cfiCond74) DPH0 load(1, XDATA, add(CFA_XSP16, literal(-1)))
          CFI (cfiCond74) CFA_SP SP+-4
          CFI (cfiCond74) CFA_XSP16 add(XSP16, 12)
          CFI Block cfiCond75 Using cfiCommon0
          CFI (cfiCond75) Function zclZigUP_IdentifyCB
          CFI (cfiCond75) Conditional ??CrossCallReturnLabel_45
          CFI (cfiCond75) DPL0 Frame(CFA_SP, 4)
          CFI (cfiCond75) DPH0 Frame(CFA_SP, 5)
          CFI (cfiCond75) CFA_SP SP+-7
          CFI Block cfiCond76 Using cfiCommon0
          CFI (cfiCond76) Function zclZigUP_OnOffCB
          CFI (cfiCond76) Conditional ??CrossCallReturnLabel_46
          CFI (cfiCond76) R6 load(1, XDATA, add(CFA_XSP16, literal(-10)))
          CFI (cfiCond76) VB load(1, XDATA, add(CFA_XSP16, literal(-9)))
          CFI (cfiCond76) V0 load(1, XDATA, add(CFA_XSP16, literal(-8)))
          CFI (cfiCond76) V1 load(1, XDATA, add(CFA_XSP16, literal(-7)))
          CFI (cfiCond76) R7 load(1, XDATA, add(CFA_XSP16, literal(-6)))
          CFI (cfiCond76) ?RET_LOW load(1, XDATA, add(CFA_XSP16, literal(-5)))
          CFI (cfiCond76) ?RET_HIGH load(1, XDATA, add(CFA_XSP16, literal(-4)))
          CFI (cfiCond76) ?BRET_EXT load(1, XDATA, add(CFA_XSP16, literal(-3)))
          CFI (cfiCond76) DPL0 load(1, XDATA, add(CFA_XSP16, literal(-2)))
          CFI (cfiCond76) DPH0 load(1, XDATA, add(CFA_XSP16, literal(-1)))
          CFI (cfiCond76) CFA_SP SP+-2
          CFI (cfiCond76) CFA_XSP16 add(XSP16, 110)
          CFI Block cfiPicker77 Using cfiCommon1
          CFI (cfiPicker77) NoFunction
          CFI (cfiPicker77) Picker
        MOVX      A,@DPTR
        MOV       R0,A
        INC       DPTR
        MOVX      A,@DPTR
        MOV       R1,A
        RET
          CFI EndBlock cfiCond70
          CFI EndBlock cfiCond71
          CFI EndBlock cfiCond72
          CFI EndBlock cfiCond73
          CFI EndBlock cfiCond74
          CFI EndBlock cfiCond75
          CFI EndBlock cfiCond76
          CFI EndBlock cfiPicker77
//  416 
//  417 /*********************************************************************
//  418 * @fn      zclZigUP_IdentifyQueryRspCB
//  419 *
//  420 * @brief   Callback from the ZCL General Cluster Library when
//  421 *          it received an Identity Query Response Command for this application.
//  422 *
//  423 * @param   srcAddr - requestor's address
//  424 * @param   timeout - number of seconds to identify yourself (valid for query response)
//  425 *
//  426 * @return  none
//  427 */

        RSEG BANKED_CODE:HUGECODE:NOROOT(0)
//  428 static void zclZigUP_IdentifyQueryRspCB(  zclIdentifyQueryRsp_t *pRsp )
zclZigUP_IdentifyQueryRspCB:
          CFI Block cfiBlock78 Using cfiCommon0
          CFI Function zclZigUP_IdentifyQueryRspCB
        CODE
//  429 {
        ; Saved register size: 0
        ; Auto size: 0
//  430   (void)pRsp;
//  431 }
        LJMP      ?BRET
          CFI EndBlock cfiBlock78
//  432 
//  433 /*********************************************************************
//  434 * @fn      zclZigUP_OnOffCB
//  435 *
//  436 * @brief   Callback from the ZCL General Cluster Library when
//  437 *          it received an On/Off Command for this application.
//  438 *
//  439 * @param   cmd - COMMAND_ON, COMMAND_OFF or COMMAND_TOGGLE
//  440 *
//  441 * @return  none
//  442 */

        RSEG BANKED_CODE:HUGECODE:NOROOT(0)
//  443 static void zclZigUP_OnOffCB( uint8 cmd )
zclZigUP_OnOffCB:
          CFI Block cfiBlock79 Using cfiCommon0
          CFI Function zclZigUP_OnOffCB
        CODE
//  444 {
        FUNCALL zclZigUP_OnOffCB, zcl_getRawAFMsg
        LOCFRAME ISTACK, 0, STACK
        LOCFRAME PSTACK, 0, STACK
        LOCFRAME XSTACK, 110, STACK
        LOCFRAME IOVERLAY, 0, STATIC
        LOCFRAME DOVERLAY, 0, STATIC
        ARGFRAME ISTACK, 0, STACK
        ARGFRAME PSTACK, 0, STACK
        ARGFRAME XSTACK, 110, STACK
        ARGFRAME IOVERLAY, 0, STATIC
        ARGFRAME DOVERLAY, 0, STATIC
        FUNCALL zclZigUP_OnOffCB, sprintf
        LOCFRAME ISTACK, 0, STACK
        LOCFRAME PSTACK, 0, STACK
        LOCFRAME XSTACK, 112, STACK
        LOCFRAME IOVERLAY, 0, STATIC
        LOCFRAME DOVERLAY, 0, STATIC
        ARGFRAME ISTACK, 0, STACK
        ARGFRAME PSTACK, 0, STACK
        ARGFRAME XSTACK, 112, STACK
        ARGFRAME IOVERLAY, 0, STATIC
        ARGFRAME DOVERLAY, 0, STATIC
        FUNCALL zclZigUP_OnOffCB, UART_String
        LOCFRAME ISTACK, 0, STACK
        LOCFRAME PSTACK, 0, STACK
        LOCFRAME XSTACK, 110, STACK
        LOCFRAME IOVERLAY, 0, STATIC
        LOCFRAME DOVERLAY, 0, STATIC
        ARGFRAME ISTACK, 0, STACK
        ARGFRAME PSTACK, 0, STACK
        ARGFRAME XSTACK, 110, STACK
        ARGFRAME IOVERLAY, 0, STATIC
        ARGFRAME DOVERLAY, 0, STATIC
        FUNCALL zclZigUP_OnOffCB, ledSet
        LOCFRAME ISTACK, 0, STACK
        LOCFRAME PSTACK, 0, STACK
        LOCFRAME XSTACK, 110, STACK
        LOCFRAME IOVERLAY, 0, STATIC
        LOCFRAME DOVERLAY, 0, STATIC
        ARGFRAME ISTACK, 0, STACK
        ARGFRAME PSTACK, 0, STACK
        ARGFRAME XSTACK, 110, STACK
        ARGFRAME IOVERLAY, 0, STATIC
        ARGFRAME DOVERLAY, 0, STATIC
        FUNCALL zclZigUP_OnOffCB, ledSet
        LOCFRAME ISTACK, 0, STACK
        LOCFRAME PSTACK, 0, STACK
        LOCFRAME XSTACK, 110, STACK
        LOCFRAME IOVERLAY, 0, STATIC
        LOCFRAME DOVERLAY, 0, STATIC
        ARGFRAME ISTACK, 0, STACK
        ARGFRAME PSTACK, 0, STACK
        ARGFRAME XSTACK, 110, STACK
        ARGFRAME IOVERLAY, 0, STATIC
        ARGFRAME DOVERLAY, 0, STATIC
        FUNCALL zclZigUP_OnOffCB, Relais
        LOCFRAME ISTACK, 0, STACK
        LOCFRAME PSTACK, 0, STACK
        LOCFRAME XSTACK, 110, STACK
        LOCFRAME IOVERLAY, 0, STATIC
        LOCFRAME DOVERLAY, 0, STATIC
        ARGFRAME ISTACK, 0, STACK
        ARGFRAME PSTACK, 0, STACK
        ARGFRAME XSTACK, 110, STACK
        ARGFRAME IOVERLAY, 0, STATIC
        ARGFRAME DOVERLAY, 0, STATIC
        REQUIRE ?V0
        REQUIRE ?V1
        MOV       A,#-0xa
        LCALL     ?BANKED_ENTER_XDATA
          CFI DPH0 load(1, XDATA, add(CFA_XSP16, literal(-1)))
          CFI DPL0 load(1, XDATA, add(CFA_XSP16, literal(-2)))
          CFI ?BRET_EXT load(1, XDATA, add(CFA_XSP16, literal(-3)))
          CFI ?RET_HIGH load(1, XDATA, add(CFA_XSP16, literal(-4)))
          CFI ?RET_LOW load(1, XDATA, add(CFA_XSP16, literal(-5)))
          CFI R7 load(1, XDATA, add(CFA_XSP16, literal(-6)))
          CFI V1 load(1, XDATA, add(CFA_XSP16, literal(-7)))
          CFI V0 load(1, XDATA, add(CFA_XSP16, literal(-8)))
          CFI VB load(1, XDATA, add(CFA_XSP16, literal(-9)))
          CFI R6 load(1, XDATA, add(CFA_XSP16, literal(-10)))
          CFI CFA_SP SP+0
          CFI CFA_XSP16 add(XSP16, 10)
        ; Saved register size: 10
        ; Auto size: 100
        MOV       A,#-0x64
        LCALL     ?ALLOC_XSTACK8
          CFI CFA_XSP16 add(XSP16, 110)
        MOV       A,R1
        MOV       R6,A
//  445   afIncomingMSGPacket_t *pPtr = zcl_getRawAFMsg();
        ; Setup parameters for call to function zcl_getRawAFMsg
        LCALL     `??zcl_getRawAFMsg::?relay`; Banked call to: zcl_getRawAFMsg
        MOV       DPL,R2
        MOV       DPH,R3
//  446   zclZigUP_DstAddr.addr.shortAddr = pPtr->srcAddr.addr.shortAddr;
        INC       DPTR
        INC       DPTR
        INC       DPTR
        INC       DPTR
        LCALL     ?Subroutine13 & 0xFFFF
??CrossCallReturnLabel_46:
        MOV       DPTR,#zclZigUP_DstAddr
        MOV       A,R0
        MOVX      @DPTR,A
        INC       DPTR
        MOV       A,R1
        MOVX      @DPTR,A
//  447 
//  448   
//  449   char buffer[100];
//  450   sprintf(buffer, "CMD: %u\n", cmd);
        ; Setup parameters for call to function sprintf
        MOV       A,R6
        MOV       ?V0,A
        MOV       ?V1,#0x0
        MOV       R0,#?V0
        LCALL     ?PUSH_XSTACK_I_TWO
          CFI CFA_XSP16 add(XSP16, 112)
        MOV       R4,#`?<Constant "CMD: %u\\n">` & 0xff
        MOV       R5,#(`?<Constant "CMD: %u\\n">` >> 8) & 0xff
        MOV       A,#0x2
        LCALL     ?XSTACK_DISP101_8
        LCALL     `??sprintf::?relay`; Banked call to: sprintf
        MOV       A,#0x2
        LCALL     ?DEALLOC_XSTACK8
          CFI CFA_XSP16 add(XSP16, 110)
//  451   UART_String(buffer); 
        ; Setup parameters for call to function UART_String
        MOV       R2,?XSP + 0
        MOV       R3,?XSP + 1
        LCALL     `??UART_String::?relay`; Banked call to: UART_String
//  452   
//  453   
//  454   // Turn on the light
//  455   if ( cmd == COMMAND_ON )
        MOV       A,#0x1
        XRL       A,R6
        JNZ       ??zclZigUP_OnOffCB_0
//  456   {
//  457     //Relais(LIGHT_ON);
//  458     ledSet(LIGHT_ON);
        ; Setup parameters for call to function ledSet
        MOV       R1,#0x1
        SJMP      ??zclZigUP_OnOffCB_1
//  459   }
//  460   // Turn off the light
//  461   else if ( cmd == COMMAND_OFF )
??zclZigUP_OnOffCB_0:
        MOV       A,R6
        JNZ       ??zclZigUP_OnOffCB_2
//  462   {
//  463     //Relais(LIGHT_OFF);
//  464     ledSet(LIGHT_OFF);
        ; Setup parameters for call to function ledSet
        MOV       R1,#0x0
??zclZigUP_OnOffCB_1:
        LCALL     `??ledSet::?relay`; Banked call to: ledSet
        SJMP      ??zclZigUP_OnOffCB_3
//  465   }
//  466   // Toggle the light
//  467   else if ( cmd == COMMAND_TOGGLE )
??zclZigUP_OnOffCB_2:
        MOV       A,#0x2
        XRL       A,R6
        JNZ       ??zclZigUP_OnOffCB_3
//  468   {
//  469     Relais(!STATE_LIGHT);
        MOV       DPTR,#STATE_LIGHT
        MOVX      A,@DPTR
        JNZ       ??zclZigUP_OnOffCB_4
        MOV       R1,#0x1
        SJMP      ??zclZigUP_OnOffCB_5
??zclZigUP_OnOffCB_4:
        MOV       R1,#0x0
??zclZigUP_OnOffCB_5:
        ; Setup parameters for call to function Relais
        LCALL     `??Relais::?relay`; Banked call to: Relais
//  470   }
//  471 }
??zclZigUP_OnOffCB_3:
        MOV       A,#0x64
        LCALL     ?DEALLOC_XSTACK8
          CFI EndBlock cfiBlock79
        REQUIRE ?Subroutine2
        ; // Fall through to label ?Subroutine2

        RSEG BANKED_CODE:HUGECODE:NOROOT(0)
?Subroutine2:
          CFI Block cfiBlock80 Using cfiCommon0
          CFI NoFunction
          CFI CFA_SP SP+0
          CFI CFA_XSP16 add(XSP16, 10)
          CFI VB load(1, XDATA, add(CFA_XSP16, literal(-9)))
          CFI DPL0 load(1, XDATA, add(CFA_XSP16, literal(-2)))
          CFI DPH0 load(1, XDATA, add(CFA_XSP16, literal(-1)))
          CFI R6 load(1, XDATA, add(CFA_XSP16, literal(-10)))
          CFI R7 load(1, XDATA, add(CFA_XSP16, literal(-6)))
          CFI V0 load(1, XDATA, add(CFA_XSP16, literal(-8)))
          CFI V1 load(1, XDATA, add(CFA_XSP16, literal(-7)))
          CFI ?BRET_EXT load(1, XDATA, add(CFA_XSP16, literal(-3)))
          CFI ?RET_HIGH load(1, XDATA, add(CFA_XSP16, literal(-4)))
          CFI ?RET_LOW load(1, XDATA, add(CFA_XSP16, literal(-5)))
        MOV       R7,#0x2
        LJMP      ?BANKED_LEAVE_XDATA
          CFI EndBlock cfiBlock80
//  472 

        RSEG BANKED_CODE:HUGECODE:NOROOT(0)
//  473 ZStatus_t zclZigUP_MoveToColorCB( zclCCMoveToColor_t *pCmd )
zclZigUP_MoveToColorCB:
          CFI Block cfiBlock81 Using cfiCommon0
          CFI Function zclZigUP_MoveToColorCB
        CODE
//  474 {
        FUNCALL zclZigUP_MoveToColorCB, sprintf
        LOCFRAME ISTACK, 0, STACK
        LOCFRAME PSTACK, 0, STACK
        LOCFRAME XSTACK, 133, STACK
        LOCFRAME IOVERLAY, 0, STATIC
        LOCFRAME DOVERLAY, 0, STATIC
        ARGFRAME ISTACK, 0, STACK
        ARGFRAME PSTACK, 0, STACK
        ARGFRAME XSTACK, 133, STACK
        ARGFRAME IOVERLAY, 0, STATIC
        ARGFRAME DOVERLAY, 0, STATIC
        FUNCALL zclZigUP_MoveToColorCB, UART_String
        LOCFRAME ISTACK, 0, STACK
        LOCFRAME PSTACK, 0, STACK
        LOCFRAME XSTACK, 129, STACK
        LOCFRAME IOVERLAY, 0, STATIC
        LOCFRAME DOVERLAY, 0, STATIC
        ARGFRAME ISTACK, 0, STACK
        ARGFRAME PSTACK, 0, STACK
        ARGFRAME XSTACK, 129, STACK
        ARGFRAME IOVERLAY, 0, STATIC
        ARGFRAME DOVERLAY, 0, STATIC
        FUNCALL zclZigUP_MoveToColorCB, pow
        LOCFRAME ISTACK, 0, STACK
        LOCFRAME PSTACK, 0, STACK
        LOCFRAME XSTACK, 133, STACK
        LOCFRAME IOVERLAY, 0, STATIC
        LOCFRAME DOVERLAY, 0, STATIC
        ARGFRAME ISTACK, 0, STACK
        ARGFRAME PSTACK, 0, STACK
        ARGFRAME XSTACK, 133, STACK
        ARGFRAME IOVERLAY, 0, STATIC
        ARGFRAME DOVERLAY, 0, STATIC
        FUNCALL zclZigUP_MoveToColorCB, pow
        LOCFRAME ISTACK, 0, STACK
        LOCFRAME PSTACK, 0, STACK
        LOCFRAME XSTACK, 133, STACK
        LOCFRAME IOVERLAY, 0, STATIC
        LOCFRAME DOVERLAY, 0, STATIC
        ARGFRAME ISTACK, 0, STACK
        ARGFRAME PSTACK, 0, STACK
        ARGFRAME XSTACK, 133, STACK
        ARGFRAME IOVERLAY, 0, STATIC
        ARGFRAME DOVERLAY, 0, STATIC
        FUNCALL zclZigUP_MoveToColorCB, pow
        LOCFRAME ISTACK, 0, STACK
        LOCFRAME PSTACK, 0, STACK
        LOCFRAME XSTACK, 133, STACK
        LOCFRAME IOVERLAY, 0, STATIC
        LOCFRAME DOVERLAY, 0, STATIC
        ARGFRAME ISTACK, 0, STACK
        ARGFRAME PSTACK, 0, STACK
        ARGFRAME XSTACK, 133, STACK
        ARGFRAME IOVERLAY, 0, STATIC
        ARGFRAME DOVERLAY, 0, STATIC
        FUNCALL zclZigUP_MoveToColorCB, sprintf
        LOCFRAME ISTACK, 0, STACK
        LOCFRAME PSTACK, 0, STACK
        LOCFRAME XSTACK, 135, STACK
        LOCFRAME IOVERLAY, 0, STATIC
        LOCFRAME DOVERLAY, 0, STATIC
        ARGFRAME ISTACK, 0, STACK
        ARGFRAME PSTACK, 0, STACK
        ARGFRAME XSTACK, 135, STACK
        ARGFRAME IOVERLAY, 0, STATIC
        ARGFRAME DOVERLAY, 0, STATIC
        FUNCALL zclZigUP_MoveToColorCB, UART_String
        LOCFRAME ISTACK, 0, STACK
        LOCFRAME PSTACK, 0, STACK
        LOCFRAME XSTACK, 129, STACK
        LOCFRAME IOVERLAY, 0, STATIC
        LOCFRAME DOVERLAY, 0, STATIC
        ARGFRAME ISTACK, 0, STACK
        ARGFRAME PSTACK, 0, STACK
        ARGFRAME XSTACK, 129, STACK
        ARGFRAME IOVERLAY, 0, STATIC
        ARGFRAME DOVERLAY, 0, STATIC
        FUNCALL zclZigUP_MoveToColorCB, WS2812_SendLED
        LOCFRAME ISTACK, 0, STACK
        LOCFRAME PSTACK, 0, STACK
        LOCFRAME XSTACK, 129, STACK
        LOCFRAME IOVERLAY, 0, STATIC
        LOCFRAME DOVERLAY, 0, STATIC
        ARGFRAME ISTACK, 0, STACK
        ARGFRAME PSTACK, 0, STACK
        ARGFRAME XSTACK, 129, STACK
        ARGFRAME IOVERLAY, 0, STATIC
        ARGFRAME DOVERLAY, 0, STATIC
        REQUIRE ?V0
        REQUIRE ?V1
        REQUIRE ?V2
        REQUIRE ?V3
        REQUIRE ?V4
        REQUIRE ?V5
        REQUIRE ?V6
        REQUIRE ?V7
        REQUIRE ?V8
        REQUIRE ?V9
        REQUIRE ?V10
        REQUIRE ?V11
        REQUIRE ?V12
        REQUIRE ?V13
        REQUIRE ?V14
        REQUIRE ?V15
        MOV       A,#-0x18
        LCALL     ?BANKED_ENTER_XDATA
          CFI DPH0 load(1, XDATA, add(CFA_XSP16, literal(-1)))
          CFI DPL0 load(1, XDATA, add(CFA_XSP16, literal(-2)))
          CFI ?BRET_EXT load(1, XDATA, add(CFA_XSP16, literal(-3)))
          CFI ?RET_HIGH load(1, XDATA, add(CFA_XSP16, literal(-4)))
          CFI ?RET_LOW load(1, XDATA, add(CFA_XSP16, literal(-5)))
          CFI R7 load(1, XDATA, add(CFA_XSP16, literal(-6)))
          CFI V15 load(1, XDATA, add(CFA_XSP16, literal(-7)))
          CFI V14 load(1, XDATA, add(CFA_XSP16, literal(-8)))
          CFI V13 load(1, XDATA, add(CFA_XSP16, literal(-9)))
          CFI V12 load(1, XDATA, add(CFA_XSP16, literal(-10)))
          CFI V11 load(1, XDATA, add(CFA_XSP16, literal(-11)))
          CFI V10 load(1, XDATA, add(CFA_XSP16, literal(-12)))
          CFI V9 load(1, XDATA, add(CFA_XSP16, literal(-13)))
          CFI V8 load(1, XDATA, add(CFA_XSP16, literal(-14)))
          CFI V7 load(1, XDATA, add(CFA_XSP16, literal(-15)))
          CFI V6 load(1, XDATA, add(CFA_XSP16, literal(-16)))
          CFI V5 load(1, XDATA, add(CFA_XSP16, literal(-17)))
          CFI V4 load(1, XDATA, add(CFA_XSP16, literal(-18)))
          CFI V3 load(1, XDATA, add(CFA_XSP16, literal(-19)))
          CFI V2 load(1, XDATA, add(CFA_XSP16, literal(-20)))
          CFI V1 load(1, XDATA, add(CFA_XSP16, literal(-21)))
          CFI V0 load(1, XDATA, add(CFA_XSP16, literal(-22)))
          CFI VB load(1, XDATA, add(CFA_XSP16, literal(-23)))
          CFI R6 load(1, XDATA, add(CFA_XSP16, literal(-24)))
          CFI CFA_SP SP+0
          CFI CFA_XSP16 add(XSP16, 24)
        ; Saved register size: 24
        ; Auto size: 105
        MOV       A,#-0x69
        LCALL     ?ALLOC_XSTACK8
          CFI CFA_XSP16 add(XSP16, 129)
        MOV       ?V0,R2
        MOV       ?V1,R3
//  475   // Converts CIE color space to RGB color space
//  476   // from https://github.com/usolved/cie-rgb-converter/blob/master/cie_rgb_converter.js
//  477   
//  478   char buffer[100];
//  479   sprintf(buffer, "Light-CMD: x: %u // y: %u\n", pCmd->colorX, pCmd->colorY);
        MOV       A,R2
        ADD       A,#0x2
        MOV       R0,A
        CLR       A
        ADDC      A,?V1
        MOV       R1,A
        MOV       A,R0
        MOV       R6,A
        MOV       A,R1
        MOV       R7,A
        ; Setup parameters for call to function sprintf
        MOV       DPL,R6
        MOV       DPH,R7
        LCALL     ?PUSH_XSTACK8_X_TWO
          CFI CFA_XSP16 add(XSP16, 131)
        MOV       DPL,R2
        MOV       DPH,R3
        LCALL     ?PUSH_XSTACK8_X_TWO
          CFI CFA_XSP16 add(XSP16, 133)
        MOV       R4,#`?<Constant "Light-CMD: x: %u // y...">` & 0xff
        MOV       R5,#(`?<Constant "Light-CMD: x: %u // y...">` >> 8) & 0xff
        MOV       A,#0x9
        LCALL     ?XSTACK_DISP101_8
        LCALL     `??sprintf::?relay`; Banked call to: sprintf
        MOV       A,#0x4
        LCALL     ?DEALLOC_XSTACK8
          CFI CFA_XSP16 add(XSP16, 129)
//  480   UART_String(buffer); 
        ; Setup parameters for call to function UART_String
        MOV       A,#0x5
        LCALL     ?XSTACK_DISP101_8
        LCALL     `??UART_String::?relay`; Banked call to: UART_String
//  481 
//  482   float x = pCmd->colorX/ 65536.0; // the given x value
        MOV       DPL,?V0
        MOV       DPH,?V1
        MOVX      A,@DPTR
        MOV       ?V0,A
        INC       DPTR
        MOVX      A,@DPTR
        MOV       ?V1,A
        CLR       A
        MOV       ?V2,A
        MOV       ?V3,A
        MOV       R0,#?V0
        LCALL     ?UL_TO_FLT
        MOV       DPTR,#__Constant_37800000
        MOV       R0,#?V4
        LCALL     ?L_MOV_X
        MOV       R0,#?V0
        MOV       R1,#?V4
        LCALL     ?FLT_MUL
//  483   float y = pCmd->colorY/ 65536.0; // the given y value
        MOV       DPL,R6
        MOV       DPH,R7
        MOVX      A,@DPTR
        MOV       ?V4,A
        INC       DPTR
        MOVX      A,@DPTR
        MOV       ?V5,A
        CLR       A
        MOV       ?V6,A
        MOV       ?V7,A
        MOV       R0,#?V4
        LCALL     ?UL_TO_FLT
        MOV       DPTR,#__Constant_37800000
        MOV       R0,#?V8
        LCALL     ?L_MOV_X
        MOV       R0,#?V4
        MOV       R1,#?V8
        LCALL     ?FLT_MUL
//  484   
//  485   float z = 1.0 - x - y;
//  486   float Y = 1.0;
//  487   float X = (Y / y) * x;
        MOV       ?V12,#0x0
        MOV       ?V13,#0x0
        MOV       ?V14,#-0x80
        MOV       ?V15,#0x3f
        MOV       R0,#?V12
        MOV       R1,#?V4
        LCALL     ?FLT_DIV
        MOV       ?V8,?V12
        MOV       ?V9,?V13
        MOV       ?V10,?V14
        MOV       ?V11,?V15
        MOV       R0,#?V8
        MOV       R1,#?V0
        LCALL     ?FLT_MUL
//  488   float Z = (Y / y) * z;
        PUSH      ?V12
          CFI CFA_SP SP+-1
        PUSH      ?V13
          CFI CFA_SP SP+-2
        PUSH      ?V14
          CFI CFA_SP SP+-3
        PUSH      ?V15
          CFI CFA_SP SP+-4
        MOV       ?V12,#0x0
        MOV       ?V13,#0x0
        MOV       ?V14,#-0x80
        MOV       ?V15,#0x3f
        MOV       R0,#?V12
        MOV       R1,#?V0
        LCALL     ?FLT_SUB
        MOV       R0,#?V12
        MOV       R1,#?V4
        LCALL     ?FLT_SUB
        POP       ?V3
          CFI CFA_SP SP+-3
        POP       ?V2
          CFI CFA_SP SP+-2
        POP       ?V1
          CFI CFA_SP SP+-1
        POP       ?V0
          CFI CFA_SP SP+0
        MOV       R0,#?V0
        MOV       R1,#?V12
        LCALL     ?FLT_MUL
        MOV       A,#0x1
        LCALL     ?XSTACK_DISP0_8
        MOV       R0,#?V0
        LCALL     ?L_MOV_TO_X
//  489   
//  490   //Convert to RGB using Wide RGB D65 conversion
//  491   float red 	=  X * 1.656492 - Y * 0.354851 - Z * 0.255038;
        MOV       ?V0,?V8
        MOV       ?V1,?V9
        MOV       ?V2,?V10
        MOV       ?V3,?V11
        MOV       DPTR,#__Constant_3fd407ee
        MOV       R0,#?V4
        LCALL     ?L_MOV_X
        MOV       R0,#?V0
        MOV       R1,#?V4
        LCALL     ?FLT_MUL
        MOV       DPTR,#__Constant_beb5af08
        MOV       R0,#?V4
        LCALL     ?L_MOV_X
        MOV       R0,#?V0
        MOV       R1,#?V4
        LCALL     ?FLT_ADD
        MOV       A,#0x1
        LCALL     ?XSTACK_DISP0_8
        MOV       R0,#?V4
        LCALL     ?L_MOV_X
        MOV       DPTR,#__Constant_3e829457
        MOV       R0,#?V12
        LCALL     ?L_MOV_X
        MOV       R0,#?V4
        MOV       R1,#?V12
        LCALL     ?FLT_MUL
        MOV       R0,#?V0
        MOV       R1,#?V4
        LCALL     ?FLT_SUB
//  492   float green 	= -X * 0.707196 + Y * 1.655397 + Z * 0.036152;
        MOV       ?V4,?V8
        MOV       ?V5,?V9
        MOV       ?V6,?V10
        MOV       ?V7,?V11
        MOV       DPTR,#__Constant_bf350acc
        MOV       R0,#?V12
        LCALL     ?L_MOV_X
        MOV       R0,#?V4
        MOV       R1,#?V12
        LCALL     ?FLT_MUL
        MOV       DPTR,#__Constant_3fd3e40d
        MOV       R0,#?V12
        LCALL     ?L_MOV_X
        MOV       R0,#?V4
        MOV       R1,#?V12
        LCALL     ?FLT_ADD
        PUSH      ?V4
          CFI CFA_SP SP+-1
        PUSH      ?V5
          CFI CFA_SP SP+-2
        PUSH      ?V6
          CFI CFA_SP SP+-3
        PUSH      ?V7
          CFI CFA_SP SP+-4
        MOV       A,#0x1
        LCALL     ?XSTACK_DISP0_8
        MOV       R0,#?V12
        LCALL     ?L_MOV_X
        MOV       DPTR,#__Constant_3d14141f
        MOV       R0,#?V4
        LCALL     ?L_MOV_X
        MOV       R0,#?V12
        MOV       R1,#?V4
        LCALL     ?FLT_MUL
        POP       ?V7
          CFI CFA_SP SP+-3
        POP       ?V6
          CFI CFA_SP SP+-2
        POP       ?V5
          CFI CFA_SP SP+-1
        POP       ?V4
          CFI CFA_SP SP+0
        MOV       R0,#?V4
        MOV       R1,#?V12
        LCALL     ?FLT_ADD
//  493   float blue 	=  X * 0.051713 - Y * 0.121364 + Z * 1.011530;
        MOV       DPTR,#__Constant_3d53d103
        MOV       R0,#?V12
        LCALL     ?L_MOV_X
        MOV       R0,#?V8
        MOV       R1,#?V12
        LCALL     ?FLT_MUL
        MOV       DPTR,#__Constant_bdf88db0
        MOV       R0,#?V12
        LCALL     ?L_MOV_X
        MOV       R0,#?V8
        MOV       R1,#?V12
        LCALL     ?FLT_ADD
        PUSH      ?V8
          CFI CFA_SP SP+-1
        PUSH      ?V9
          CFI CFA_SP SP+-2
        PUSH      ?V10
          CFI CFA_SP SP+-3
        PUSH      ?V11
          CFI CFA_SP SP+-4
        MOV       A,#0x1
        LCALL     ?XSTACK_DISP0_8
        MOV       R0,#?V12
        LCALL     ?L_MOV_X
        MOV       DPTR,#__Constant_3f8179d1
        MOV       R0,#?V8
        LCALL     ?L_MOV_X
        MOV       R0,#?V12
        MOV       R1,#?V8
        LCALL     ?FLT_MUL
        POP       ?V11
          CFI CFA_SP SP+-3
        POP       ?V10
          CFI CFA_SP SP+-2
        POP       ?V9
          CFI CFA_SP SP+-1
        POP       ?V8
          CFI CFA_SP SP+0
        MOV       R0,#?V8
        MOV       R1,#?V12
        LCALL     ?FLT_ADD
//  494   
//  495   //If red, green or blue is larger than 1.0 set it back to the maximum of 1.0
//  496   if (red > blue && red > green && red > 1.0)
        MOV       R0,#?V8
        MOV       R1,#?V0
        LCALL     ?FLT_LT
        JC        $+5
        LJMP      ??zclZigUP_MoveToColorCB_0 & 0xFFFF
        MOV       R0,#?V4
        MOV       R1,#?V0
        LCALL     ?FLT_LT
        JC        $+5
        LJMP      ??zclZigUP_MoveToColorCB_0 & 0xFFFF
        MOV       DPTR,#__Constant_3f800001
        MOV       R0,#?V12
        LCALL     ?L_MOV_X
        MOV       R0,#?V0
        MOV       R1,#?V12
        LCALL     ?FLT_GE
        JNC       ??zclZigUP_MoveToColorCB_0
//  497   {
//  498     green = green / red;
        MOV       R0,#?V4
        MOV       R1,#?V0
        LCALL     ?FLT_DIV
//  499     blue = blue / red;
        MOV       R0,#?V8
        MOV       R1,#?V0
        LCALL     ?FLT_DIV
//  500     red = 1.0;
        MOV       ?V0,#0x0
        MOV       ?V1,#0x0
        MOV       ?V2,#-0x80
        MOV       ?V3,#0x3f
??zclZigUP_MoveToColorCB_1:
        ; Setup parameters for call to function pow
        MOV       DPTR,#__Constant_3ed55555
        LCALL     ?PUSH_XSTACK8_X_FOUR
          CFI CFA_XSP16 add(XSP16, 133)
        MOV       R2,?V0
        MOV       R3,?V1
        MOV       R4,?V2
        MOV       R5,?V3
        LCALL     `??pow::?relay`  ; Banked call to: pow
        MOV       A,#0x4
        LCALL     ?DEALLOC_XSTACK8
          CFI CFA_XSP16 add(XSP16, 129)
        MOV       ?V0,R2
        MOV       ?V1,R3
        MOV       ?V2,R4
        MOV       ?V3,R5
        MOV       DPTR,#__Constant_3f870a3d
        MOV       R0,#?V12
        LCALL     ?L_MOV_X
        MOV       R0,#?V0
        MOV       R1,#?V12
        LCALL     ?FLT_MUL
        MOV       DPTR,#__Constant_bd6147ae
        MOV       R0,#?V12
        LCALL     ?L_MOV_X
        MOV       R0,#?V0
        MOV       R1,#?V12
        LCALL     ?FLT_ADD
//  501   }
//  502   else if (green > blue && green > red && green > 1.0)
//  503   {
//  504     red = red / green;
//  505     blue = blue / green;
//  506     green = 1.0;
//  507   }
//  508   else if (blue > red && blue > green && blue > 1.0)
//  509   {
//  510     red = red / blue;
//  511     green = green / blue;
//  512     blue = 1.0;
//  513   }
//  514   
//  515   //Reverse gamma correction
//  516   red 	= red <= 0.0031308 ? 12.92 * red : (1.0 + 0.055) * pow(red, (1.0 / 2.4)) - 0.055;
//  517   green 	= green <= 0.0031308 ? 12.92 * green : (1.0 + 0.055) * pow(green, (1.0 / 2.4)) - 0.055;
??zclZigUP_MoveToColorCB_2:
        MOV       DPTR,#__Constant_3b4d2e1d
        MOV       R0,#?V12
        LCALL     ?L_MOV_X
        MOV       R0,#?V4
        MOV       R1,#?V12
        LCALL     ?FLT_LT
        JC        $+5
        LJMP      ??zclZigUP_MoveToColorCB_3 & 0xFFFF
        MOV       DPTR,#__Constant_414eb852
        MOV       R0,#?V12
        LCALL     ?L_MOV_X
        MOV       R0,#?V4
        MOV       R1,#?V12
        LCALL     ?FLT_MUL
        LJMP      ??zclZigUP_MoveToColorCB_4 & 0xFFFF
??zclZigUP_MoveToColorCB_0:
        MOV       R0,#?V8
        MOV       R1,#?V4
        LCALL     ?FLT_LT
        JNC       ??zclZigUP_MoveToColorCB_5
        MOV       R0,#?V0
        MOV       R1,#?V4
        LCALL     ?FLT_LT
        JNC       ??zclZigUP_MoveToColorCB_5
        MOV       DPTR,#__Constant_3f800001
        MOV       R0,#?V12
        LCALL     ?L_MOV_X
        MOV       R0,#?V4
        MOV       R1,#?V12
        LCALL     ?FLT_GE
        JNC       ??zclZigUP_MoveToColorCB_5
        MOV       R0,#?V0
        MOV       R1,#?V4
        LCALL     ?FLT_DIV
        MOV       R0,#?V8
        MOV       R1,#?V4
        LCALL     ?FLT_DIV
        MOV       ?V4,#0x0
        MOV       ?V5,#0x0
        MOV       ?V6,#-0x80
        MOV       ?V7,#0x3f
        SJMP      ??zclZigUP_MoveToColorCB_6
??zclZigUP_MoveToColorCB_5:
        MOV       R0,#?V0
        MOV       R1,#?V8
        LCALL     ?FLT_LT
        JNC       ??zclZigUP_MoveToColorCB_6
        MOV       R0,#?V4
        MOV       R1,#?V8
        LCALL     ?FLT_LT
        JNC       ??zclZigUP_MoveToColorCB_6
        MOV       DPTR,#__Constant_3f800001
        MOV       R0,#?V12
        LCALL     ?L_MOV_X
        MOV       R0,#?V8
        MOV       R1,#?V12
        LCALL     ?FLT_GE
        JNC       ??zclZigUP_MoveToColorCB_6
        MOV       R0,#?V0
        MOV       R1,#?V8
        LCALL     ?FLT_DIV
        MOV       R0,#?V4
        MOV       R1,#?V8
        LCALL     ?FLT_DIV
        MOV       ?V8,#0x0
        MOV       ?V9,#0x0
        MOV       ?V10,#-0x80
        MOV       ?V11,#0x3f
??zclZigUP_MoveToColorCB_6:
        MOV       DPTR,#__Constant_3b4d2e1d
        MOV       R0,#?V12
        LCALL     ?L_MOV_X
        MOV       R0,#?V0
        MOV       R1,#?V12
        LCALL     ?FLT_LT
        JC        $+5
        LJMP      ??zclZigUP_MoveToColorCB_1 & 0xFFFF
        MOV       DPTR,#__Constant_414eb852
        MOV       R0,#?V12
        LCALL     ?L_MOV_X
        MOV       R0,#?V0
        MOV       R1,#?V12
        LCALL     ?FLT_MUL
        LJMP      ??zclZigUP_MoveToColorCB_2 & 0xFFFF
??zclZigUP_MoveToColorCB_3:
        ; Setup parameters for call to function pow
        MOV       DPTR,#__Constant_3ed55555
        LCALL     ?PUSH_XSTACK8_X_FOUR
          CFI CFA_XSP16 add(XSP16, 133)
        MOV       R2,?V4
        MOV       R3,?V5
        MOV       R4,?V6
        MOV       R5,?V7
        LCALL     `??pow::?relay`  ; Banked call to: pow
        MOV       A,#0x4
        LCALL     ?DEALLOC_XSTACK8
          CFI CFA_XSP16 add(XSP16, 129)
        MOV       ?V4,R2
        MOV       ?V5,R3
        MOV       ?V6,R4
        MOV       ?V7,R5
        MOV       DPTR,#__Constant_3f870a3d
        MOV       R0,#?V12
        LCALL     ?L_MOV_X
        MOV       R0,#?V4
        MOV       R1,#?V12
        LCALL     ?FLT_MUL
        MOV       DPTR,#__Constant_bd6147ae
        MOV       R0,#?V12
        LCALL     ?L_MOV_X
        MOV       R0,#?V4
        MOV       R1,#?V12
        LCALL     ?FLT_ADD
//  518   blue 	= blue <= 0.0031308 ? 12.92 * blue : (1.0 + 0.055) * pow(blue, (1.0 / 2.4)) - 0.055;
??zclZigUP_MoveToColorCB_4:
        MOV       DPTR,#__Constant_3b4d2e1d
        MOV       R0,#?V12
        LCALL     ?L_MOV_X
        MOV       R0,#?V8
        MOV       R1,#?V12
        LCALL     ?FLT_LT
        JNC       ??zclZigUP_MoveToColorCB_7
        MOV       DPTR,#__Constant_414eb852
        MOV       R0,#?V12
        LCALL     ?L_MOV_X
        MOV       R0,#?V8
        MOV       R1,#?V12
        LCALL     ?FLT_MUL
        SJMP      ??zclZigUP_MoveToColorCB_8
??zclZigUP_MoveToColorCB_7:
        ; Setup parameters for call to function pow
        MOV       DPTR,#__Constant_3ed55555
        LCALL     ?PUSH_XSTACK8_X_FOUR
          CFI CFA_XSP16 add(XSP16, 133)
        MOV       R2,?V8
        MOV       R3,?V9
        MOV       R4,?V10
        MOV       R5,?V11
        LCALL     `??pow::?relay`  ; Banked call to: pow
        MOV       A,#0x4
        LCALL     ?DEALLOC_XSTACK8
          CFI CFA_XSP16 add(XSP16, 129)
        MOV       ?V8,R2
        MOV       ?V9,R3
        MOV       ?V10,R4
        MOV       ?V11,R5
        MOV       DPTR,#__Constant_3f870a3d
        MOV       R0,#?V12
        LCALL     ?L_MOV_X
        MOV       R0,#?V8
        MOV       R1,#?V12
        LCALL     ?FLT_MUL
        MOV       DPTR,#__Constant_bd6147ae
        MOV       R0,#?V12
        LCALL     ?L_MOV_X
        MOV       R0,#?V8
        MOV       R1,#?V12
        LCALL     ?FLT_ADD
//  519   
//  520   
//  521   //Convert normalized decimal to decimal
//  522   red *= 255;
??zclZigUP_MoveToColorCB_8:
        MOV       DPTR,#__Constant_437f0000
        MOV       R0,#?V12
        LCALL     ?L_MOV_X
        MOV       R0,#?V0
        MOV       R1,#?V12
        LCALL     ?FLT_MUL
//  523   green *= 255;
        MOV       DPTR,#__Constant_437f0000
        MOV       R0,#?V12
        LCALL     ?L_MOV_X
        MOV       R0,#?V4
        MOV       R1,#?V12
        LCALL     ?FLT_MUL
//  524   blue *= 255;
        MOV       DPTR,#__Constant_437f0000
        MOV       R0,#?V12
        LCALL     ?L_MOV_X
        MOV       R0,#?V8
        MOV       R1,#?V12
        LCALL     ?FLT_MUL
//  525 
//  526   uint8 r = (uint8)red;
        MOV       ?V12,?V0
        MOV       ?V13,?V1
        MOV       ?V14,?V2
        MOV       ?V15,?V3
        MOV       R0,#?V12
        LCALL     ?FLT_TO_L
        MOV       DPL,?XSP + 0
        MOV       DPH,?XSP + 1
        MOV       A,?V12
        MOVX      @DPTR,A
//  527   uint8 g = (uint8)green;
        MOV       ?V12,?V4
        MOV       ?V13,?V5
        MOV       ?V14,?V6
        MOV       ?V15,?V7
        MOV       R0,#?V12
        LCALL     ?FLT_TO_L
        MOV       A,?V12
        MOV       R7,A
//  528   uint8 b = (uint8)blue;
        MOV       ?V12,?V8
        MOV       ?V13,?V9
        MOV       ?V14,?V10
        MOV       ?V15,?V11
        MOV       R0,#?V12
        LCALL     ?FLT_TO_L
        MOV       A,?V12
        MOV       R6,A
//  529 
//  530   if (red > 254.5) r = 255;
        MOV       DPTR,#__Constant_437e8001
        MOV       R0,#?V12
        LCALL     ?L_MOV_X
        MOV       R0,#?V0
        MOV       R1,#?V12
        LCALL     ?FLT_GE
        JNC       ??zclZigUP_MoveToColorCB_9
        MOV       DPL,?XSP + 0
        MOV       DPH,?XSP + 1
        MOV       A,#-0x1
        SJMP      ??zclZigUP_MoveToColorCB_10
//  531   else if (red < 0.5) r = 0;
??zclZigUP_MoveToColorCB_9:
        MOV       DPTR,#__Constant_3f000000
        MOV       R0,#?V12
        LCALL     ?L_MOV_X
        MOV       R0,#?V0
        MOV       R1,#?V12
        LCALL     ?FLT_LT
        JNC       ??zclZigUP_MoveToColorCB_11
        MOV       DPL,?XSP + 0
        MOV       DPH,?XSP + 1
        CLR       A
??zclZigUP_MoveToColorCB_10:
        MOVX      @DPTR,A
//  532 
//  533   if (green > 254.5) g = 255;
??zclZigUP_MoveToColorCB_11:
        MOV       DPTR,#__Constant_437e8001
        MOV       R0,#?V0
        LCALL     ?L_MOV_X
        MOV       R0,#?V4
        MOV       R1,#?V0
        LCALL     ?FLT_GE
        JNC       ??zclZigUP_MoveToColorCB_12
        MOV       R7,#-0x1
        SJMP      ??zclZigUP_MoveToColorCB_13
//  534   else if (green < 0.5) g = 0;
??zclZigUP_MoveToColorCB_12:
        MOV       DPTR,#__Constant_3f000000
        MOV       R0,#?V0
        LCALL     ?L_MOV_X
        MOV       R0,#?V4
        MOV       R1,#?V0
        LCALL     ?FLT_LT
        JNC       ??zclZigUP_MoveToColorCB_13
        MOV       R7,#0x0
//  535 
//  536   if (blue > 254.5) b = 255;
??zclZigUP_MoveToColorCB_13:
        MOV       DPTR,#__Constant_437e8001
        MOV       R0,#?V0
        LCALL     ?L_MOV_X
        MOV       R0,#?V8
        MOV       R1,#?V0
        LCALL     ?FLT_GE
        JNC       ??zclZigUP_MoveToColorCB_14
        MOV       R6,#-0x1
        SJMP      ??zclZigUP_MoveToColorCB_15
//  537   else if (blue < 0.5) b = 0;
??zclZigUP_MoveToColorCB_14:
        MOV       DPTR,#__Constant_3f000000
        MOV       R0,#?V0
        LCALL     ?L_MOV_X
        MOV       R0,#?V8
        MOV       R1,#?V0
        LCALL     ?FLT_LT
        JNC       ??zclZigUP_MoveToColorCB_15
        MOV       R6,#0x0
//  538   
//  539   sprintf(buffer, "Light-CMD: r: %u // g: %u // b: %u\n", r, g, b);
??zclZigUP_MoveToColorCB_15:
        ; Setup parameters for call to function sprintf
        MOV       A,R6
        MOV       ?V0,A
        MOV       ?V1,#0x0
        MOV       R0,#?V0
        LCALL     ?PUSH_XSTACK_I_TWO
          CFI CFA_XSP16 add(XSP16, 131)
        MOV       A,R7
        MOV       ?V0,A
        MOV       R0,#?V0
        LCALL     ?PUSH_XSTACK_I_TWO
          CFI CFA_XSP16 add(XSP16, 133)
        MOV       A,#0x4
        LCALL     ?XSTACK_DISP0_8
        MOVX      A,@DPTR
        MOV       ?V0,A
        MOV       R0,#?V0
        LCALL     ?PUSH_XSTACK_I_TWO
          CFI CFA_XSP16 add(XSP16, 135)
        MOV       R4,#`?<Constant "Light-CMD: r: %u // g...">` & 0xff
        MOV       R5,#(`?<Constant "Light-CMD: r: %u // g...">` >> 8) & 0xff
        MOV       A,#0xb
        LCALL     ?XSTACK_DISP101_8
        LCALL     `??sprintf::?relay`; Banked call to: sprintf
        MOV       A,#0x6
        LCALL     ?DEALLOC_XSTACK8
          CFI CFA_XSP16 add(XSP16, 129)
//  540   UART_String(buffer); 
        ; Setup parameters for call to function UART_String
        MOV       A,#0x5
        LCALL     ?XSTACK_DISP101_8
        LCALL     `??UART_String::?relay`; Banked call to: UART_String
//  541 
//  542   WS2812_SendLED(r, g, b);
        ; Setup parameters for call to function WS2812_SendLED
        MOV       A,R6
        MOV       R3,A
        MOV       A,R7
        MOV       R2,A
        MOV       DPL,?XSP + 0
        MOV       DPH,?XSP + 1
        MOVX      A,@DPTR
        MOV       R1,A
        LCALL     `??WS2812_SendLED::?relay`; Banked call to: WS2812_SendLED
//  543   
//  544   return ( ZSuccess );
        MOV       R1,#0x0
        MOV       A,#0x69
        LCALL     ?DEALLOC_XSTACK8
          CFI CFA_XSP16 add(XSP16, 24)
        MOV       R7,#0x10
        LJMP      ?BANKED_LEAVE_XDATA
//  545 }
          CFI EndBlock cfiBlock81
//  546 
//  547 /*********************************************************************
//  548  * @fn      zclZigUP_DoorLockCB
//  549  *
//  550  * @brief   Callback from the ZCL General Cluster Library when
//  551  *          it received an Door Lock cluster Command for this application.
//  552  *
//  553  * @param   pInMsg - process incoming message
//  554  * @param   pInCmd - PIN/RFID code of command
//  555  *
//  556  * @return  ZStatus_t
//  557  */

        RSEG BANKED_CODE:HUGECODE:NOROOT(0)
//  558 static ZStatus_t zclZigUP_DoorLockCB ( zclIncoming_t *pInMsg, zclDoorLock_t *pInCmd )
zclZigUP_DoorLockCB:
          CFI Block cfiBlock82 Using cfiCommon0
          CFI Function zclZigUP_DoorLockCB
        CODE
//  559 {
        FUNCALL zclZigUP_DoorLockCB, LED
        LOCFRAME ISTACK, 0, STACK
        LOCFRAME PSTACK, 0, STACK
        LOCFRAME XSTACK, 10, STACK
        LOCFRAME IOVERLAY, 0, STATIC
        LOCFRAME DOVERLAY, 0, STATIC
        ARGFRAME ISTACK, 0, STACK
        ARGFRAME PSTACK, 0, STACK
        ARGFRAME XSTACK, 10, STACK
        ARGFRAME IOVERLAY, 0, STATIC
        ARGFRAME DOVERLAY, 0, STATIC
        FUNCALL zclZigUP_DoorLockCB, zclClosures_SendDoorLockStatusResponse
        LOCFRAME ISTACK, 0, STACK
        LOCFRAME PSTACK, 0, STACK
        LOCFRAME XSTACK, 12, STACK
        LOCFRAME IOVERLAY, 0, STATIC
        LOCFRAME DOVERLAY, 0, STATIC
        ARGFRAME ISTACK, 0, STACK
        ARGFRAME PSTACK, 0, STACK
        ARGFRAME XSTACK, 12, STACK
        ARGFRAME IOVERLAY, 0, STATIC
        ARGFRAME DOVERLAY, 0, STATIC
        FUNCALL zclZigUP_DoorLockCB, LED
        LOCFRAME ISTACK, 0, STACK
        LOCFRAME PSTACK, 0, STACK
        LOCFRAME XSTACK, 10, STACK
        LOCFRAME IOVERLAY, 0, STATIC
        LOCFRAME DOVERLAY, 0, STATIC
        ARGFRAME ISTACK, 0, STACK
        ARGFRAME PSTACK, 0, STACK
        ARGFRAME XSTACK, 10, STACK
        ARGFRAME IOVERLAY, 0, STATIC
        ARGFRAME DOVERLAY, 0, STATIC
        FUNCALL zclZigUP_DoorLockCB, zclClosures_SendDoorLockStatusResponse
        LOCFRAME ISTACK, 0, STACK
        LOCFRAME PSTACK, 0, STACK
        LOCFRAME XSTACK, 12, STACK
        LOCFRAME IOVERLAY, 0, STATIC
        LOCFRAME DOVERLAY, 0, STATIC
        ARGFRAME ISTACK, 0, STACK
        ARGFRAME PSTACK, 0, STACK
        ARGFRAME XSTACK, 12, STACK
        ARGFRAME IOVERLAY, 0, STATIC
        ARGFRAME DOVERLAY, 0, STATIC
        FUNCALL zclZigUP_DoorLockCB, LED
        LOCFRAME ISTACK, 0, STACK
        LOCFRAME PSTACK, 0, STACK
        LOCFRAME XSTACK, 10, STACK
        LOCFRAME IOVERLAY, 0, STATIC
        LOCFRAME DOVERLAY, 0, STATIC
        ARGFRAME ISTACK, 0, STACK
        ARGFRAME PSTACK, 0, STACK
        ARGFRAME XSTACK, 10, STACK
        ARGFRAME IOVERLAY, 0, STATIC
        ARGFRAME DOVERLAY, 0, STATIC
        FUNCALL zclZigUP_DoorLockCB, zclClosures_SendDoorLockStatusResponse
        LOCFRAME ISTACK, 0, STACK
        LOCFRAME PSTACK, 0, STACK
        LOCFRAME XSTACK, 12, STACK
        LOCFRAME IOVERLAY, 0, STATIC
        LOCFRAME DOVERLAY, 0, STATIC
        ARGFRAME ISTACK, 0, STACK
        ARGFRAME PSTACK, 0, STACK
        ARGFRAME XSTACK, 12, STACK
        ARGFRAME IOVERLAY, 0, STATIC
        ARGFRAME DOVERLAY, 0, STATIC
        REQUIRE ?V0
        REQUIRE ?V1
        MOV       A,#-0xa
        LCALL     ?BANKED_ENTER_XDATA
          CFI DPH0 load(1, XDATA, add(CFA_XSP16, literal(-1)))
          CFI DPL0 load(1, XDATA, add(CFA_XSP16, literal(-2)))
          CFI ?BRET_EXT load(1, XDATA, add(CFA_XSP16, literal(-3)))
          CFI ?RET_HIGH load(1, XDATA, add(CFA_XSP16, literal(-4)))
          CFI ?RET_LOW load(1, XDATA, add(CFA_XSP16, literal(-5)))
          CFI R7 load(1, XDATA, add(CFA_XSP16, literal(-6)))
          CFI V1 load(1, XDATA, add(CFA_XSP16, literal(-7)))
          CFI V0 load(1, XDATA, add(CFA_XSP16, literal(-8)))
          CFI VB load(1, XDATA, add(CFA_XSP16, literal(-9)))
          CFI R6 load(1, XDATA, add(CFA_XSP16, literal(-10)))
          CFI CFA_SP SP+0
          CFI CFA_XSP16 add(XSP16, 10)
        ; Saved register size: 10
        ; Auto size: 0
        MOV       A,R2
        MOV       R6,A
        MOV       A,R3
        MOV       R7,A
//  560   // LED OFF - Lock the door
//  561   if ( pInMsg->hdr.commandID == COMMAND_CLOSURES_LOCK_DOOR )
        MOV       DPL,R6
        MOV       DPH,R7
        INC       DPTR
        INC       DPTR
        INC       DPTR
        INC       DPTR
        INC       DPTR
        INC       DPTR
        INC       DPTR
        MOVX      A,@DPTR
        MOV       R0,A
        MOV       A,R6
        ADD       A,#0x6
        MOV       ?V0,A
        CLR       A
        ADDC      A,R7
        MOV       ?V1,A
        MOV       A,R0
        JNZ       ??zclZigUP_DoorLockCB_0
//  562   {
//  563     LED(0);
        ; Setup parameters for call to function LED
        MOV       R1,#0x0
        LCALL     `??LED::?relay`  ; Banked call to: LED
//  564     zclClosures_SendDoorLockStatusResponse( pInMsg->msg->endPoint, &pInMsg->msg->srcAddr, COMMAND_CLOSURES_LOCK_DOOR, ZCL_STATUS_SUCCESS, TRUE, pInMsg->hdr.transSeqNum );
        LCALL     ?Subroutine9 & 0xFFFF
//  565   }
??CrossCallReturnLabel_32:
        LCALL     ?PUSH_XSTACK_I_ONE
          CFI CFA_XSP16 add(XSP16, 11)
        MOV       ?V0,#0x1
        MOV       R0,#?V0
        LCALL     ?PUSH_XSTACK_I_ONE
          CFI CFA_XSP16 add(XSP16, 12)
        MOV       R5,#0x0
        MOV       R4,#0x0
??zclZigUP_DoorLockCB_1:
        MOV       A,R6
        ADD       A,#0x6
        MOV       R2,A
        CLR       A
        ADDC      A,R7
        MOV       R3,A
        MOV       A,R6
        ADD       A,#0x14
        MOV       DPL,A
        CLR       A
        ADDC      A,R7
        MOV       DPH,A
        MOVX      A,@DPTR
        MOV       R1,A
        LCALL     `??zclClosures_SendDoorLockStatusResponse::?rela`; Banked call to: zclClosures_SendDoorLockStatusResponse
        MOV       A,#0x2
        LCALL     ?DEALLOC_XSTACK8
          CFI CFA_XSP16 add(XSP16, 10)
//  566   
//  567   // LED ON - Unlock the door
//  568   else if ( pInMsg->hdr.commandID == COMMAND_CLOSURES_UNLOCK_DOOR )
//  569   {
//  570     LED(1);
//  571     zclClosures_SendDoorLockStatusResponse( pInMsg->msg->endPoint, &pInMsg->msg->srcAddr, COMMAND_CLOSURES_UNLOCK_DOOR, ZCL_STATUS_SUCCESS, TRUE, pInMsg->hdr.transSeqNum );
//  572   }
//  573   
//  574   // Toggle the door
//  575   else if ( pInMsg->hdr.commandID == COMMAND_CLOSURES_TOGGLE_DOOR )
//  576   {
//  577     LED(!STATE_LED);
//  578     zclClosures_SendDoorLockStatusResponse( pInMsg->msg->endPoint, &pInMsg->msg->srcAddr, COMMAND_CLOSURES_TOGGLE_DOOR, ZCL_STATUS_SUCCESS, TRUE, pInMsg->hdr.transSeqNum );
//  579   }
//  580   
//  581   else
//  582   {
//  583     return ( ZCL_STATUS_FAILURE );  // invalid command
//  584   }
//  585   
//  586   return ( ZCL_STATUS_CMD_HAS_RSP );
        MOV       R1,#-0x1
??zclZigUP_DoorLockCB_2:
        LJMP      ?Subroutine2 & 0xFFFF
??zclZigUP_DoorLockCB_0:
        MOV       A,#0x1
        XRL       A,R0
        JNZ       ??zclZigUP_DoorLockCB_3
        ; Setup parameters for call to function LED
        MOV       R1,#0x1
        LCALL     `??LED::?relay`  ; Banked call to: LED
        LCALL     ?Subroutine9 & 0xFFFF
??CrossCallReturnLabel_33:
        LCALL     ?PUSH_XSTACK_I_ONE
          CFI CFA_XSP16 add(XSP16, 11)
        MOV       ?V0,#0x1
        MOV       R0,#?V0
        LCALL     ?PUSH_XSTACK_I_ONE
          CFI CFA_XSP16 add(XSP16, 12)
        MOV       R5,#0x0
        MOV       R4,#0x1
        SJMP      ??zclZigUP_DoorLockCB_1
          CFI CFA_XSP16 add(XSP16, 10)
??zclZigUP_DoorLockCB_3:
        MOV       A,#0x2
        XRL       A,R0
        JNZ       ??zclZigUP_DoorLockCB_4
        MOV       DPTR,#STATE_LED
        MOVX      A,@DPTR
        JNZ       ??zclZigUP_DoorLockCB_5
        MOV       R1,#0x1
        SJMP      ??zclZigUP_DoorLockCB_6
??zclZigUP_DoorLockCB_5:
        MOV       R1,#0x0
??zclZigUP_DoorLockCB_6:
        ; Setup parameters for call to function LED
        LCALL     `??LED::?relay`  ; Banked call to: LED
        LCALL     ?Subroutine9 & 0xFFFF
??CrossCallReturnLabel_34:
        LCALL     ?PUSH_XSTACK_I_ONE
          CFI CFA_XSP16 add(XSP16, 11)
        MOV       ?V0,#0x1
        MOV       R0,#?V0
        LCALL     ?PUSH_XSTACK_I_ONE
          CFI CFA_XSP16 add(XSP16, 12)
        MOV       R5,#0x0
        MOV       R4,#0x2
        SJMP      ??zclZigUP_DoorLockCB_1
          CFI CFA_XSP16 add(XSP16, 10)
??zclZigUP_DoorLockCB_4:
        MOV       R1,#0x1
        SJMP      ??zclZigUP_DoorLockCB_2
//  587 }
          CFI EndBlock cfiBlock82

        RSEG BANKED_CODE:HUGECODE:NOROOT(0)
?Subroutine9:
          CFI Block cfiCond83 Using cfiCommon0
          CFI Function zclZigUP_DoorLockCB
          CFI Conditional ??CrossCallReturnLabel_32
          CFI R6 load(1, XDATA, add(CFA_XSP16, literal(-10)))
          CFI VB load(1, XDATA, add(CFA_XSP16, literal(-9)))
          CFI V0 load(1, XDATA, add(CFA_XSP16, literal(-8)))
          CFI V1 load(1, XDATA, add(CFA_XSP16, literal(-7)))
          CFI R7 load(1, XDATA, add(CFA_XSP16, literal(-6)))
          CFI ?RET_LOW load(1, XDATA, add(CFA_XSP16, literal(-5)))
          CFI ?RET_HIGH load(1, XDATA, add(CFA_XSP16, literal(-4)))
          CFI ?BRET_EXT load(1, XDATA, add(CFA_XSP16, literal(-3)))
          CFI DPL0 load(1, XDATA, add(CFA_XSP16, literal(-2)))
          CFI DPH0 load(1, XDATA, add(CFA_XSP16, literal(-1)))
          CFI CFA_SP SP+-2
          CFI CFA_XSP16 add(XSP16, 10)
          CFI Block cfiCond84 Using cfiCommon0
          CFI (cfiCond84) Function zclZigUP_DoorLockCB
          CFI (cfiCond84) Conditional ??CrossCallReturnLabel_33
          CFI (cfiCond84) R6 load(1, XDATA, add(CFA_XSP16, literal(-10)))
          CFI (cfiCond84) VB load(1, XDATA, add(CFA_XSP16, literal(-9)))
          CFI (cfiCond84) V0 load(1, XDATA, add(CFA_XSP16, literal(-8)))
          CFI (cfiCond84) V1 load(1, XDATA, add(CFA_XSP16, literal(-7)))
          CFI (cfiCond84) R7 load(1, XDATA, add(CFA_XSP16, literal(-6)))
          CFI (cfiCond84) ?RET_LOW load(1, XDATA, add(CFA_XSP16, literal(-5)))
          CFI (cfiCond84) ?RET_HIGH load(1, XDATA, add(CFA_XSP16, literal(-4)))
          CFI (cfiCond84) ?BRET_EXT load(1, XDATA, add(CFA_XSP16, literal(-3)))
          CFI (cfiCond84) DPL0 load(1, XDATA, add(CFA_XSP16, literal(-2)))
          CFI (cfiCond84) DPH0 load(1, XDATA, add(CFA_XSP16, literal(-1)))
          CFI (cfiCond84) CFA_SP SP+-2
          CFI (cfiCond84) CFA_XSP16 add(XSP16, 10)
          CFI Block cfiCond85 Using cfiCommon0
          CFI (cfiCond85) Function zclZigUP_DoorLockCB
          CFI (cfiCond85) Conditional ??CrossCallReturnLabel_34
          CFI (cfiCond85) R6 load(1, XDATA, add(CFA_XSP16, literal(-10)))
          CFI (cfiCond85) VB load(1, XDATA, add(CFA_XSP16, literal(-9)))
          CFI (cfiCond85) V0 load(1, XDATA, add(CFA_XSP16, literal(-8)))
          CFI (cfiCond85) V1 load(1, XDATA, add(CFA_XSP16, literal(-7)))
          CFI (cfiCond85) R7 load(1, XDATA, add(CFA_XSP16, literal(-6)))
          CFI (cfiCond85) ?RET_LOW load(1, XDATA, add(CFA_XSP16, literal(-5)))
          CFI (cfiCond85) ?RET_HIGH load(1, XDATA, add(CFA_XSP16, literal(-4)))
          CFI (cfiCond85) ?BRET_EXT load(1, XDATA, add(CFA_XSP16, literal(-3)))
          CFI (cfiCond85) DPL0 load(1, XDATA, add(CFA_XSP16, literal(-2)))
          CFI (cfiCond85) DPH0 load(1, XDATA, add(CFA_XSP16, literal(-1)))
          CFI (cfiCond85) CFA_SP SP+-2
          CFI (cfiCond85) CFA_XSP16 add(XSP16, 10)
          CFI Block cfiPicker86 Using cfiCommon1
          CFI (cfiPicker86) NoFunction
          CFI (cfiPicker86) Picker
        MOV       DPL,R6
        MOV       DPH,R7
        MOVX      A,@DPTR
        MOV       R6,A
        INC       DPTR
        MOVX      A,@DPTR
        MOV       R7,A
        ; Setup parameters for call to function zclClosures_SendDoorLockStatusResponse
        ; Setup parameters for call to function zclClosures_SendDoorLockStatusResponse
        ; Setup parameters for call to function zclClosures_SendDoorLockStatusResponse
        MOV       DPL,?V0
        MOV       DPH,?V1
        MOVX      A,@DPTR
        MOV       ?V0,A
        MOV       R0,#?V0
        RET
          CFI EndBlock cfiCond83
          CFI EndBlock cfiCond84
          CFI EndBlock cfiCond85
          CFI EndBlock cfiPicker86
//  588 
//  589 /*********************************************************************
//  590  * @fn      zclZigUP_DoorLockRspCB
//  591  *
//  592  * @brief   Callback from the ZCL General Cluster Library when
//  593  *          it received an Door Lock response for this application.
//  594  *
//  595  * @param   cmd - Command ID
//  596  * @param   srcAddr - Requestor's address
//  597  * @param   transSeqNum - Transaction sequence number
//  598  * @param   status - status response from server's door lock cmd
//  599  *
//  600  * @return  ZStatus_t
//  601  */

        RSEG BANKED_CODE:HUGECODE:NOROOT(0)
//  602 static ZStatus_t zclZigUP_DoorLockRspCB ( zclIncoming_t *pInMsg, uint8 status )
zclZigUP_DoorLockRspCB:
          CFI Block cfiBlock87 Using cfiCommon0
          CFI Function zclZigUP_DoorLockRspCB
        CODE
//  603 {
        ; Saved register size: 0
        ; Auto size: 0
//  604   return ( ZCL_STATUS_SUCCESS );
        MOV       R1,#0x0
        LJMP      ?BRET
//  605 }
          CFI EndBlock cfiBlock87

        RSEG XDATA_ID:CODE:NOROOT(0)
`?<Initializer for ZigUP_TestEp>`:
        DATA8
        DB 8
        DATA16
        DW zclZigUP_TaskID
        DW 0H
        DATA8
        DB 0

        RSEG XDATA_ID:CODE:NOROOT(0)
`?<Initializer for zclZigUP_NwkState>`:
        DATA8
        DB 1

        RSEG XDATA_ID:CODE:NOROOT(0)
`?<Initializer for zclZigUP_CmdCallbacks>`:
        DATA16
        DW `??zclZigUP_BasicResetCB::?relay`
        DW `??zclZigUP_IdentifyCB::?relay`
        DW 0H
        DW `??zclZigUP_IdentifyQueryRspCB::?relay`
        DW `??zclZigUP_OnOffCB::?relay`
        DW 0H
        DW 0H
        DW 0H
        DW 0H
        DW 0H
        DW 0H
        DW 0H
        DW 0H
        DW 0H

        RSEG XDATA_ID:CODE:NOROOT(0)
`?<Initializer for zclZigUP_LightingCmdCBs>`:
        DATA16
        DW 0H
        DW 0H
        DW 0H
        DW 0H
        DW 0H
        DW 0H
        DW 0H
        DW `??zclZigUP_MoveToColorCB::?relay`
        DW 0H
        DW 0H
        DW 0H
        DW 0H
        DW 0H
        DW 0H
        DW 0H
        DW 0H
        DW 0H

        RSEG XDATA_ID:CODE:NOROOT(0)
`?<Initializer for zclZigUP_DoorLockCmdCallback`:
        DATA16
        DW `??zclZigUP_DoorLockCB::?relay`
        DW `??zclZigUP_DoorLockRspCB::?relay`
        DW 0H
        DW 0H
        DW 0H
        DW 0H
        DW 0H
        DW 0H
        DW 0H
        DW 0H
        DW 0H
        DW 0H
        DW 0H
        DW 0H
        DW 0H
        DW 0H
        DW 0H
        DW 0H
        DW 0H
        DW 0H
        DW 0H
        DW 0H
        DW 0H
        DW 0H
        DW 0H
        DW 0H
        DW 0H
        DW 0H
        DW 0H
        DW 0H
        DW 0H
        DW 0H
        DW 0H
        DW 0H
        DW 0H
        DW 0H
        DW 0H
        DW 0H
        DW 0H
        DW 0H
        DW 0H
        DW 0H
        DW 0H
        DW 0H
        DW 0H
        DW 0H
        DW 0H
        DW 0H
        DW 0H
        DW 0H

        RSEG BANK_RELAYS:CODE:REORDER:NOROOT(0)
`??zclZigUP_Reporting::?relay`:
        CODE
        LCALL   ?BDISPATCH
        DATA24
        DC24    zclZigUP_Reporting

        RSEG BANK_RELAYS:CODE:REORDER:NOROOT(0)
`??zclZigUP_Init::?relay`:
        CODE
        LCALL   ?BDISPATCH
        DATA24
        DC24    zclZigUP_Init

        RSEG BANK_RELAYS:CODE:REORDER:NOROOT(0)
`??zclZigUP_event_loop::?relay`:
        CODE
        LCALL   ?BDISPATCH
        DATA24
        DC24    zclZigUP_event_loop

        RSEG BANK_RELAYS:CODE:REORDER:NOROOT(0)
`??zclZigUP_ProcessIdentifyTimeChange::?relay`:
        CODE
        LCALL   ?BDISPATCH
        DATA24
        DC24    zclZigUP_ProcessIdentifyTimeChange

        RSEG BANK_RELAYS:CODE:REORDER:NOROOT(0)
`??zclZigUP_BasicResetCB::?relay`:
        CODE
        LCALL   ?BDISPATCH
        DATA24
        DC24    zclZigUP_BasicResetCB

        RSEG BANK_RELAYS:CODE:REORDER:NOROOT(0)
`??zclZigUP_IdentifyCB::?relay`:
        CODE
        LCALL   ?BDISPATCH
        DATA24
        DC24    zclZigUP_IdentifyCB

        RSEG BANK_RELAYS:CODE:REORDER:NOROOT(0)
`??zclZigUP_IdentifyQueryRspCB::?relay`:
        CODE
        LCALL   ?BDISPATCH
        DATA24
        DC24    zclZigUP_IdentifyQueryRspCB

        RSEG BANK_RELAYS:CODE:REORDER:NOROOT(0)
`??zclZigUP_OnOffCB::?relay`:
        CODE
        LCALL   ?BDISPATCH
        DATA24
        DC24    zclZigUP_OnOffCB

        RSEG BANK_RELAYS:CODE:REORDER:NOROOT(0)
`??zclZigUP_MoveToColorCB::?relay`:
        CODE
        LCALL   ?BDISPATCH
        DATA24
        DC24    zclZigUP_MoveToColorCB

        RSEG BANK_RELAYS:CODE:REORDER:NOROOT(0)
`??zclZigUP_DoorLockCB::?relay`:
        CODE
        LCALL   ?BDISPATCH
        DATA24
        DC24    zclZigUP_DoorLockCB

        RSEG BANK_RELAYS:CODE:REORDER:NOROOT(0)
`??zclZigUP_DoorLockRspCB::?relay`:
        CODE
        LCALL   ?BDISPATCH
        DATA24
        DC24    zclZigUP_DoorLockRspCB

        RSEG XDATA_ROM_C:CONST:REORDER:NOROOT(0)
        DATA8
`?<Constant "CMD: %u\\n">`:
        DB "CMD: %u\012"

        RSEG XDATA_ROM_C:CONST:REORDER:NOROOT(0)
        DATA8
`?<Constant "Light-CMD: x: %u // y...">`:
        DB "Light-CMD: x: %u // y: %u\012"

        RSEG XDATA_ROM_C:CONST:REORDER:NOROOT(0)
        DATA8
`?<Constant "Light-CMD: r: %u // g...">`:
        DB "Light-CMD: r: %u // g: %u // b: %u\012"

        RSEG XDATA_ROM_C:CONST:REORDER:NOROOT(0)
        DATA32
__Constant_3e8:
        DD 1000

        RSEG XDATA_ROM_C:CONST:REORDER:NOROOT(0)
        DATA32
__Constant_37800000:
        DD 37800000H

        RSEG XDATA_ROM_C:CONST:REORDER:NOROOT(0)
        DATA32
__Constant_3fd407ee:
        DD 3FD407EEH

        RSEG XDATA_ROM_C:CONST:REORDER:NOROOT(0)
        DATA32
__Constant_beb5af08:
        DD 0BEB5AF08H

        RSEG XDATA_ROM_C:CONST:REORDER:NOROOT(0)
        DATA32
__Constant_3e829457:
        DD 3E829457H

        RSEG XDATA_ROM_C:CONST:REORDER:NOROOT(0)
        DATA32
__Constant_bf350acc:
        DD 0BF350ACCH

        RSEG XDATA_ROM_C:CONST:REORDER:NOROOT(0)
        DATA32
__Constant_3fd3e40d:
        DD 3FD3E40DH

        RSEG XDATA_ROM_C:CONST:REORDER:NOROOT(0)
        DATA32
__Constant_3d14141f:
        DD 3D14141FH

        RSEG XDATA_ROM_C:CONST:REORDER:NOROOT(0)
        DATA32
__Constant_3d53d103:
        DD 3D53D103H

        RSEG XDATA_ROM_C:CONST:REORDER:NOROOT(0)
        DATA32
__Constant_bdf88db0:
        DD 0BDF88DB0H

        RSEG XDATA_ROM_C:CONST:REORDER:NOROOT(0)
        DATA32
__Constant_3f8179d1:
        DD 3F8179D1H

        RSEG XDATA_ROM_C:CONST:REORDER:NOROOT(0)
        DATA32
__Constant_3f800001:
        DD 3F800001H

        RSEG XDATA_ROM_C:CONST:REORDER:NOROOT(0)
        DATA32
__Constant_3ed55555:
        DD 3ED55555H

        RSEG XDATA_ROM_C:CONST:REORDER:NOROOT(0)
        DATA32
__Constant_3f870a3d:
        DD 3F870A3DH

        RSEG XDATA_ROM_C:CONST:REORDER:NOROOT(0)
        DATA32
__Constant_bd6147ae:
        DD 0BD6147AEH

        RSEG XDATA_ROM_C:CONST:REORDER:NOROOT(0)
        DATA32
__Constant_3b4d2e1d:
        DD 3B4D2E1DH

        RSEG XDATA_ROM_C:CONST:REORDER:NOROOT(0)
        DATA32
__Constant_414eb852:
        DD 414EB852H

        RSEG XDATA_ROM_C:CONST:REORDER:NOROOT(0)
        DATA32
__Constant_437f0000:
        DD 437F0000H

        RSEG XDATA_ROM_C:CONST:REORDER:NOROOT(0)
        DATA32
__Constant_437e8001:
        DD 437E8001H

        RSEG XDATA_ROM_C:CONST:REORDER:NOROOT(0)
        DATA32
__Constant_3f000000:
        DD 3F000000H

        END
//  606 
//  607 
//  608 /******************************************************************************
//  609 *
//  610 *  Functions for processing ZCL Foundation incoming Command/Response messages
//  611 *
//  612 *****************************************************************************/
//  613 
//  614 /*********************************************************************
//  615 * @fn      zclZigUP_ProcessIncomingMsg
//  616 *
//  617 * @brief   Process ZCL Foundation incoming message
//  618 *
//  619 * @param   pInMsg - pointer to the received message
//  620 *
//  621 * @return  none
//  622 */
//  623 static void zclZigUP_ProcessIncomingMsg( zclIncomingMsg_t *pInMsg )
//  624 {
//  625   switch ( pInMsg->zclHdr.commandID )
//  626   {
//  627 #ifdef ZCL_READ
//  628   case ZCL_CMD_READ_RSP:
//  629     zclZigUP_ProcessInReadRspCmd( pInMsg );
//  630     break;
//  631 #endif
//  632 #ifdef ZCL_WRITE
//  633   case ZCL_CMD_WRITE_RSP:
//  634     zclZigUP_ProcessInWriteRspCmd( pInMsg );
//  635     break;
//  636 #endif
//  637 #ifdef ZCL_REPORT
//  638     // Attribute Reporting implementation should be added here
//  639   case ZCL_CMD_CONFIG_REPORT:
//  640     // zclZigUP_ProcessInConfigReportCmd( pInMsg );
//  641     break;
//  642     
//  643   case ZCL_CMD_CONFIG_REPORT_RSP:
//  644     // zclZigUP_ProcessInConfigReportRspCmd( pInMsg );
//  645     break;
//  646     
//  647   case ZCL_CMD_READ_REPORT_CFG:
//  648     // zclZigUP_ProcessInReadReportCfgCmd( pInMsg );
//  649     break;
//  650     
//  651   case ZCL_CMD_READ_REPORT_CFG_RSP:
//  652     // zclZigUP_ProcessInReadReportCfgRspCmd( pInMsg );
//  653     break;
//  654     
//  655   case ZCL_CMD_REPORT:
//  656     // zclZigUP_ProcessInReportCmd( pInMsg );
//  657     break;
//  658 #endif
//  659   case ZCL_CMD_DEFAULT_RSP:
//  660     zclZigUP_ProcessInDefaultRspCmd( pInMsg );
//  661     break;
//  662 #ifdef ZCL_DISCOVER
//  663   case ZCL_CMD_DISCOVER_CMDS_RECEIVED_RSP:
//  664     zclZigUP_ProcessInDiscCmdsRspCmd( pInMsg );
//  665     break;
//  666     
//  667   case ZCL_CMD_DISCOVER_CMDS_GEN_RSP:
//  668     zclZigUP_ProcessInDiscCmdsRspCmd( pInMsg );
//  669     break;
//  670     
//  671   case ZCL_CMD_DISCOVER_ATTRS_RSP:
//  672     zclZigUP_ProcessInDiscAttrsRspCmd( pInMsg );
//  673     break;
//  674     
//  675   case ZCL_CMD_DISCOVER_ATTRS_EXT_RSP:
//  676     zclZigUP_ProcessInDiscAttrsExtRspCmd( pInMsg );
//  677     break;
//  678 #endif
//  679     
//  680   default:
//  681     break;
//  682   }
//  683   
//  684   if ( pInMsg->attrCmd ) osal_mem_free( pInMsg->attrCmd );
//  685 }
//  686 
//  687 #ifdef ZCL_READ
//  688 /*********************************************************************
//  689 * @fn      zclZigUP_ProcessInReadRspCmd
//  690 *
//  691 * @brief   Process the "Profile" Read Response Command
//  692 *
//  693 * @param   pInMsg - incoming message to process
//  694 *
//  695 * @return  none
//  696 */
//  697 static uint8 zclZigUP_ProcessInReadRspCmd( zclIncomingMsg_t *pInMsg )
//  698 {
//  699   zclReadRspCmd_t *readRspCmd;
//  700   uint8 i;
//  701   
//  702   readRspCmd = (zclReadRspCmd_t *)pInMsg->attrCmd;
//  703   for (i = 0; i < readRspCmd->numAttr; i++)
//  704   {
//  705     // Notify the originator of the results of the original read attributes
//  706     // attempt and, for each successfull request, the value of the requested
//  707     // attribute
//  708   }
//  709   
//  710   return ( TRUE );
//  711 }
//  712 #endif // ZCL_READ
//  713 
//  714 #ifdef ZCL_WRITE
//  715 /*********************************************************************
//  716 * @fn      zclZigUP_ProcessInWriteRspCmd
//  717 *
//  718 * @brief   Process the "Profile" Write Response Command
//  719 *
//  720 * @param   pInMsg - incoming message to process
//  721 *
//  722 * @return  none
//  723 */
//  724 static uint8 zclZigUP_ProcessInWriteRspCmd( zclIncomingMsg_t *pInMsg )
//  725 {
//  726   zclWriteRspCmd_t *writeRspCmd;
//  727   uint8 i;
//  728   
//  729   writeRspCmd = (zclWriteRspCmd_t *)pInMsg->attrCmd;
//  730   for ( i = 0; i < writeRspCmd->numAttr; i++ )
//  731   {
//  732     // Notify the device of the results of the its original write attributes
//  733     // command.
//  734   }
//  735   
//  736   return ( TRUE );
//  737 }
//  738 #endif // ZCL_WRITE
//  739 
//  740 /*********************************************************************
//  741 * @fn      zclZigUP_ProcessInDefaultRspCmd
//  742 *
//  743 * @brief   Process the "Profile" Default Response Command
//  744 *
//  745 * @param   pInMsg - incoming message to process
//  746 *
//  747 * @return  none
//  748 */
//  749 static uint8 zclZigUP_ProcessInDefaultRspCmd( zclIncomingMsg_t *pInMsg )
//  750 {
//  751   // zclDefaultRspCmd_t *defaultRspCmd = (zclDefaultRspCmd_t *)pInMsg->attrCmd;
//  752   
//  753   // Device is notified of the Default Response command.
//  754   (void)pInMsg;
//  755   
//  756   return ( TRUE );
//  757 }
//  758 
//  759 #ifdef ZCL_DISCOVER
//  760 /*********************************************************************
//  761 * @fn      zclZigUP_ProcessInDiscCmdsRspCmd
//  762 *
//  763 * @brief   Process the Discover Commands Response Command
//  764 *
//  765 * @param   pInMsg - incoming message to process
//  766 *
//  767 * @return  none
//  768 */
//  769 static uint8 zclZigUP_ProcessInDiscCmdsRspCmd( zclIncomingMsg_t *pInMsg )
//  770 {
//  771   zclDiscoverCmdsCmdRsp_t *discoverRspCmd;
//  772   uint8 i;
//  773   
//  774   discoverRspCmd = (zclDiscoverCmdsCmdRsp_t *)pInMsg->attrCmd;
//  775   for ( i = 0; i < discoverRspCmd->numCmd; i++ )
//  776   {
//  777     // Device is notified of the result of its attribute discovery command.
//  778   }
//  779   
//  780   return ( TRUE );
//  781 }
//  782 
//  783 /*********************************************************************
//  784 * @fn      zclZigUP_ProcessInDiscAttrsRspCmd
//  785 *
//  786 * @brief   Process the "Profile" Discover Attributes Response Command
//  787 *
//  788 * @param   pInMsg - incoming message to process
//  789 *
//  790 * @return  none
//  791 */
//  792 static uint8 zclZigUP_ProcessInDiscAttrsRspCmd( zclIncomingMsg_t *pInMsg )
//  793 {
//  794   zclDiscoverAttrsRspCmd_t *discoverRspCmd;
//  795   uint8 i;
//  796   
//  797   discoverRspCmd = (zclDiscoverAttrsRspCmd_t *)pInMsg->attrCmd;
//  798   for ( i = 0; i < discoverRspCmd->numAttr; i++ )
//  799   {
//  800     // Device is notified of the result of its attribute discovery command.
//  801   }
//  802   
//  803   return ( TRUE );
//  804 }
//  805 
//  806 /*********************************************************************
//  807 * @fn      zclZigUP_ProcessInDiscAttrsExtRspCmd
//  808 *
//  809 * @brief   Process the "Profile" Discover Attributes Extended Response Command
//  810 *
//  811 * @param   pInMsg - incoming message to process
//  812 *
//  813 * @return  none
//  814 */
//  815 static uint8 zclZigUP_ProcessInDiscAttrsExtRspCmd( zclIncomingMsg_t *pInMsg )
//  816 {
//  817   zclDiscoverAttrsExtRsp_t *discoverRspCmd;
//  818   uint8 i;
//  819   
//  820   discoverRspCmd = (zclDiscoverAttrsExtRsp_t *)pInMsg->attrCmd;
//  821   for ( i = 0; i < discoverRspCmd->numAttr; i++ )
//  822   {
//  823     // Device is notified of the result of its attribute discovery command.
//  824   }
//  825   
//  826   return ( TRUE );
//  827 }
//  828 #endif // ZCL_DISCOVER
// 
// 2 541 bytes in segment BANKED_CODE
//    66 bytes in segment BANK_RELAYS
//   169 bytes in segment XDATA_I
//   169 bytes in segment XDATA_ID
//   152 bytes in segment XDATA_ROM_C
//    12 bytes in segment XDATA_Z
// 
//   235 bytes of CODE     memory
//    72 bytes of CONST    memory (+ 80 bytes shared)
// 2 541 bytes of HUGECODE memory
//   181 bytes of XDATA    memory
//
//Errors: none
//Warnings: 1
