///////////////////////////////////////////////////////////////////////////////
//
// IAR C/C++ Compiler V10.10.1.4655 for 8051              20/Nov/2021  20:16:44
// Copyright 2004-2017 IAR Systems AB.
// Standalone license - IAR Embedded Workbench for 8051
//
//    Core               =  plain
//    Code model         =  banked
//    Data model         =  large
//    Calling convention =  xdata reentrant
//    Constant location  =  data_rom
//    Dptr setup         =  1,16
//                          
//    Source file        =  
//        D:\Z-Stack Home 1.2.2a.44539\Components\stack\zcl\zcl_closures.c
//    Command line       =  
//        -f C:\Users\tatbo\AppData\Local\Temp\EWC0F1.tmp ("D:\Z-Stack Home
//        1.2.2a.44539\Components\stack\zcl\zcl_closures.c" -D SECURE=1 -D
//        HAL_KEY=FALSE -D HAL_LED=FALSE -D HAL_LCD=FALSE -D HAL_UART=FALSE -D
//        TC_LINKKEY_JOIN -D NV_INIT -D NV_RESTORE -D xHOLD_AUTO_START -D
//        ZTOOL_P1 -D MT_TASK -D MT_APP_FUNC -D MT_SYS_FUNC -D MT_ZDO_FUNC -D
//        LCD_SUPPORTED=FALSE -D MULTICAST_ENABLED=FALSE -D ZCL_READ -D
//        ZCL_WRITE -D ZCL_REPORT -D xZCL_EZMODE -D ZCL_BASIC -D ZCL_IDENTIFY
//        -D ZCL_ON_OFF -D ZCL_SCENES -D ZCL_GROUPS -D xZCL_LEVEL_CTRL -D
//        ZCL_DIAGNOSTIC -D FEATURE_SYSTEM_STATS -D ZCL_DOORLOCK -lC
//        "D:\Z-Stack Home
//        1.2.2a.44539\Projects\zstack\HomeAutomation\ZigUP\CC2530DB\EndDeviceEB\List"
//        -lA "D:\Z-Stack Home
//        1.2.2a.44539\Projects\zstack\HomeAutomation\ZigUP\CC2530DB\EndDeviceEB\List"
//        --diag_suppress Pe001,Pa010 -o "D:\Z-Stack Home
//        1.2.2a.44539\Projects\zstack\HomeAutomation\ZigUP\CC2530DB\EndDeviceEB\Obj"
//        -e --debug --core=plain --dptr=16,1 --data_model=large
//        --code_model=banked --calling_convention=xdata_reentrant
//        --place_constants=data_rom --nr_virtual_regs 16 -f "D:\Z-Stack Home
//        1.2.2a.44539\Projects\zstack\HomeAutomation\ZigUP\CC2530DB\..\..\..\Tools\CC2530DB\f8wEndev.cfg"
//        (-DCPU32MHZ -DROOT=__near_func -DMAC_CFG_TX_DATA_MAX=3
//        -DMAC_CFG_TX_MAX=6 -DMAC_CFG_RX_MAX=3) -f "D:\Z-Stack Home
//        1.2.2a.44539\Projects\zstack\HomeAutomation\ZigUP\CC2530DB\..\..\..\Tools\CC2530DB\f8wConfig.cfg"
//        (-DZIGBEEPRO -DSECURE=1 -DZG_SECURE_DYNAMIC=0 -DREFLECTOR
//        -DDEFAULT_CHANLIST=0x00000800 -DZDAPP_CONFIG_PAN_ID=0xFFFF
//        -DNWK_START_DELAY=100 -DEXTENDED_JOINING_RANDOM_MASK=0x007F
//        -DBEACON_REQUEST_DELAY=100 -DBEACON_REQ_DELAY_MASK=0x00FF
//        -DLINK_STATUS_JITTER_MASK=0x007F -DROUTE_EXPIRY_TIME=30
//        -DAPSC_ACK_WAIT_DURATION_POLLED=3000 -DNWK_INDIRECT_MSG_TIMEOUT=7
//        -DMAX_RREQ_ENTRIES=8 -DAPSC_MAX_FRAME_RETRIES=3
//        -DNWK_MAX_DATA_RETRIES=2 -DMAX_POLL_FAILURE_RETRIES=2 -DMAX_BCAST=9
//        -DAPS_MAX_GROUPS=16 -DMAX_RTG_ENTRIES=40 -DNWK_MAX_BINDING_ENTRIES=4
//        -DMAX_BINDING_CLUSTER_IDS=4 "-DDEFAULT_KEY={0x01, 0x03, 0x05, 0x07,
//        0x09, 0x0B, 0x0D, 0x0F, 0x00, 0x02, 0x04, 0x06, 0x08, 0x0A, 0x0C,
//        0x0D}" -DMAC_MAX_FRAME_SIZE=116 -DZDNWKMGR_MIN_TRANSMISSIONS=20
//        "-DCONST=const __code" -DGENERIC=__generic -DRFD_RCVC_ALWAYS_ON=FALSE
//        -DPOLL_RATE=1000 -DQUEUED_POLL_RATE=100 -DRESPONSE_POLL_RATE=100
//        -DREJOIN_POLL_RATE=440 -DREJOIN_BACKOFF=900000 -DREJOIN_SCAN=900000)
//        -f "D:\Z-Stack Home
//        1.2.2a.44539\Projects\zstack\HomeAutomation\ZigUP\CC2530DB\..\..\..\Tools\CC2530DB\f8wZCL.cfg"
//        -I "D:\Z-Stack Home
//        1.2.2a.44539\Projects\zstack\HomeAutomation\ZigUP\CC2530DB\" -I
//        "D:\Z-Stack Home
//        1.2.2a.44539\Projects\zstack\HomeAutomation\ZigUP\CC2530DB\..\Source\"
//        -I "D:\Z-Stack Home
//        1.2.2a.44539\Projects\zstack\HomeAutomation\ZigUP\CC2530DB\..\..\Source\"
//        -I "D:\Z-Stack Home
//        1.2.2a.44539\Projects\zstack\HomeAutomation\ZigUP\CC2530DB\..\..\..\ZMain\TI2530DB\"
//        -I "D:\Z-Stack Home
//        1.2.2a.44539\Projects\zstack\HomeAutomation\ZigUP\CC2530DB\..\..\..\..\..\Components\hal\include\"
//        -I "D:\Z-Stack Home
//        1.2.2a.44539\Projects\zstack\HomeAutomation\ZigUP\CC2530DB\..\..\..\..\..\Components\hal\target\CC2530EB\"
//        -I "D:\Z-Stack Home
//        1.2.2a.44539\Projects\zstack\HomeAutomation\ZigUP\CC2530DB\..\..\..\..\..\Components\mac\include\"
//        -I "D:\Z-Stack Home
//        1.2.2a.44539\Projects\zstack\HomeAutomation\ZigUP\CC2530DB\..\..\..\..\..\Components\mac\high_level\"
//        -I "D:\Z-Stack Home
//        1.2.2a.44539\Projects\zstack\HomeAutomation\ZigUP\CC2530DB\..\..\..\..\..\Components\mac\low_level\srf04\"
//        -I "D:\Z-Stack Home
//        1.2.2a.44539\Projects\zstack\HomeAutomation\ZigUP\CC2530DB\..\..\..\..\..\Components\mac\low_level\srf04\single_chip\"
//        -I "D:\Z-Stack Home
//        1.2.2a.44539\Projects\zstack\HomeAutomation\ZigUP\CC2530DB\..\..\..\..\..\Components\mt\"
//        -I "D:\Z-Stack Home
//        1.2.2a.44539\Projects\zstack\HomeAutomation\ZigUP\CC2530DB\..\..\..\..\..\Components\osal\include\"
//        -I "D:\Z-Stack Home
//        1.2.2a.44539\Projects\zstack\HomeAutomation\ZigUP\CC2530DB\..\..\..\..\..\Components\services\saddr\"
//        -I "D:\Z-Stack Home
//        1.2.2a.44539\Projects\zstack\HomeAutomation\ZigUP\CC2530DB\..\..\..\..\..\Components\services\sdata\"
//        -I "D:\Z-Stack Home
//        1.2.2a.44539\Projects\zstack\HomeAutomation\ZigUP\CC2530DB\..\..\..\..\..\Components\stack\af\"
//        -I "D:\Z-Stack Home
//        1.2.2a.44539\Projects\zstack\HomeAutomation\ZigUP\CC2530DB\..\..\..\..\..\Components\stack\nwk\"
//        -I "D:\Z-Stack Home
//        1.2.2a.44539\Projects\zstack\HomeAutomation\ZigUP\CC2530DB\..\..\..\..\..\Components\stack\sapi\"
//        -I "D:\Z-Stack Home
//        1.2.2a.44539\Projects\zstack\HomeAutomation\ZigUP\CC2530DB\..\..\..\..\..\Components\stack\sec\"
//        -I "D:\Z-Stack Home
//        1.2.2a.44539\Projects\zstack\HomeAutomation\ZigUP\CC2530DB\..\..\..\..\..\Components\stack\sys\"
//        -I "D:\Z-Stack Home
//        1.2.2a.44539\Projects\zstack\HomeAutomation\ZigUP\CC2530DB\..\..\..\..\..\Components\stack\zcl\"
//        -I "D:\Z-Stack Home
//        1.2.2a.44539\Projects\zstack\HomeAutomation\ZigUP\CC2530DB\..\..\..\..\..\Components\stack\zdo\"
//        -I "D:\Z-Stack Home
//        1.2.2a.44539\Projects\zstack\HomeAutomation\ZigUP\CC2530DB\..\..\..\..\..\Components\zmac\"
//        -I "D:\Z-Stack Home
//        1.2.2a.44539\Projects\zstack\HomeAutomation\ZigUP\CC2530DB\..\..\..\..\..\Components\zmac\f8w\"
//        -Ohz --require_prototypes)
//    Locale             =  Chinese (Simplified)_China.936
//    List file          =  
//        D:\Z-Stack Home
//        1.2.2a.44539\Projects\zstack\HomeAutomation\ZigUP\CC2530DB\EndDeviceEB\List\zcl_closures.s51
//
///////////////////////////////////////////////////////////////////////////////

        NAME zcl_closures

        RTMODEL "__SystemLibrary", "CLib"
        RTMODEL "__calling_convention", "xdata_reentrant"
        RTMODEL "__code_model", "banked"
        RTMODEL "__core", "plain"
        RTMODEL "__data_model", "large"
        RTMODEL "__dptr_size", "16"
        RTMODEL "__extended_stack", "disabled"
        RTMODEL "__location_for_constants", "data"
        RTMODEL "__number_of_dptrs", "1"
        RTMODEL "__register_banks", "*"
        RTMODEL "__rt_version", "1"

        RSEG DOVERLAY:DATA:NOROOT(0)
        RSEG IOVERLAY:IDATA:NOROOT(0)
        RSEG ISTACK:IDATA:NOROOT(0)
        RSEG PSTACK:XDATA:NOROOT(0)
        RSEG XSTACK:XDATA:NOROOT(0)

        EXTERN ?V0
        EXTERN ?V2
        EXTERN ?V3
        EXTERN ?V1
        EXTERN ?V4
        EXTERN ?V6
        EXTERN ?V7
        EXTERN ?V5
        EXTERN ?V8
        EXTERN ?V10
        EXTERN ?V11
        EXTERN ?V12
        EXTERN ?V13
        EXTERN ?V9
        EXTERN ?ALLOC_XSTACK8
        EXTERN ?BANKED_ENTER_XDATA
        EXTERN ?BANKED_LEAVE_XDATA
        EXTERN ?BDISPATCH
        EXTERN ?CALL_IND
        EXTERN ?DEALLOC_XSTACK8
        EXTERN ?L_ADD
        EXTERN ?L_MOV_TO_X
        EXTERN ?L_MOV_X
        EXTERN ?L_SHL
        EXTERN ?PUSH_XSTACK_I_ONE
        EXTERN ?PUSH_XSTACK_I_TWO
        EXTERN ?UC_SWITCH_DENSE
        EXTERN ?UL_SHR
        EXTERN ?US_SWITCH_DENSE
        EXTERN ?XSP
        EXTERN ?XSTACK_DISP0_8
        EXTERN ?XSTACK_DISP102_8
        EXTERN __INIT_XDATA_Z

        FUNCTION `??zclClosures_HdlIncoming::?relay`,0203H
        FUNCTION `??zclClosures_ProcessInDoorLock::?relay`,0203H
        FUNCTION `??zclClosures_ProcessInDoorLockCmds::?relay`,0203H
        FUNCTION ??zclClosures_ProcessInDoorLockGetHolidaySchedu,0203H
        FUNCTION `??zclClosures_ProcessInDoorLockGetLogRecordRsp:`,0203H
        FUNCTION `??zclClosures_ProcessInDoorLockGetPINCodeRsp::?`,0203H
        FUNCTION `??zclClosures_ProcessInDoorLockGetRFIDCodeRsp::`,0203H
        FUNCTION ??zclClosures_ProcessInDoorLockGetWeekDaySchedu,0203H
        FUNCTION ??zclClosures_ProcessInDoorLockGetYearDaySchedu,0203H
        FUNCTION ??zclClosures_ProcessInDoorLockOperationEventNo,0203H
        FUNCTION ??zclClosures_ProcessInDoorLockProgrammingEvent,0203H
        FUNCTION ??zclClosures_ProcessInDoorLockSetHolidaySchedu,0203H
        FUNCTION `??zclClosures_ProcessInDoorLockSetPINCode::?rel`,0203H
        FUNCTION `??zclClosures_ProcessInDoorLockSetRFIDCode::?re`,0203H
        FUNCTION ??zclClosures_ProcessInDoorLockSetWeekDaySchedu,0203H
        FUNCTION ??zclClosures_ProcessInDoorLockSetYearDaySchedu,0203H
        FUNCTION ??zclClosures_ProcessInDoorLockUnlockWithTimeou,0203H
        PUBLIC `??zclClosures_RegisterDoorLockCmdCallbacks::?re`
        FUNCTION `??zclClosures_RegisterDoorLockCmdCallbacks::?re`,0203H
        PUBLIC `??zclClosures_SendDoorLockClearAllCodesRequest:`
        FUNCTION `??zclClosures_SendDoorLockClearAllCodesRequest:`,0203H
        PUBLIC ??zclClosures_SendDoorLockGetHolidayScheduleRes
        FUNCTION ??zclClosures_SendDoorLockGetHolidayScheduleRes,0203H
        PUBLIC `??zclClosures_SendDoorLockGetLogRecordRequest::`
        FUNCTION `??zclClosures_SendDoorLockGetLogRecordRequest::`,0203H
        PUBLIC `??zclClosures_SendDoorLockGetLogRecordResponse:`
        FUNCTION `??zclClosures_SendDoorLockGetLogRecordResponse:`,0203H
        PUBLIC `??zclClosures_SendDoorLockGetPINCodeResponse::?`
        FUNCTION `??zclClosures_SendDoorLockGetPINCodeResponse::?`,0203H
        PUBLIC `??zclClosures_SendDoorLockGetRFIDCodeResponse::`
        FUNCTION `??zclClosures_SendDoorLockGetRFIDCodeResponse::`,0203H
        PUBLIC ??zclClosures_SendDoorLockGetUserStatusResponse
        FUNCTION ??zclClosures_SendDoorLockGetUserStatusResponse,0203H
        PUBLIC `??zclClosures_SendDoorLockGetUserTypeResponse::`
        FUNCTION `??zclClosures_SendDoorLockGetUserTypeResponse::`,0203H
        PUBLIC ??zclClosures_SendDoorLockGetWeekDayScheduleRes
        FUNCTION ??zclClosures_SendDoorLockGetWeekDayScheduleRes,0203H
        PUBLIC ??zclClosures_SendDoorLockGetYearDayScheduleRes
        FUNCTION ??zclClosures_SendDoorLockGetYearDayScheduleRes,0203H
        PUBLIC ??zclClosures_SendDoorLockHolidayScheduleReques
        FUNCTION ??zclClosures_SendDoorLockHolidayScheduleReques,0203H
        PUBLIC ??zclClosures_SendDoorLockOperationEventNotific
        FUNCTION ??zclClosures_SendDoorLockOperationEventNotific,0203H
        PUBLIC ??zclClosures_SendDoorLockProgrammingEventNotif
        FUNCTION ??zclClosures_SendDoorLockProgrammingEventNotif,0203H
        PUBLIC `??zclClosures_SendDoorLockRequest::?relay`
        FUNCTION `??zclClosures_SendDoorLockRequest::?relay`,0203H
        PUBLIC `??zclClosures_SendDoorLockScheduleRequest::?rel`
        FUNCTION `??zclClosures_SendDoorLockScheduleRequest::?rel`,0203H
        PUBLIC ??zclClosures_SendDoorLockSetHolidayScheduleReq
        FUNCTION ??zclClosures_SendDoorLockSetHolidayScheduleReq,0203H
        PUBLIC `??zclClosures_SendDoorLockSetPINCodeRequest::?r`
        FUNCTION `??zclClosures_SendDoorLockSetPINCodeRequest::?r`,0203H
        PUBLIC `??zclClosures_SendDoorLockSetRFIDCodeRequest::?`
        FUNCTION `??zclClosures_SendDoorLockSetRFIDCodeRequest::?`,0203H
        PUBLIC `??zclClosures_SendDoorLockSetUserStatusRequest:`
        FUNCTION `??zclClosures_SendDoorLockSetUserStatusRequest:`,0203H
        PUBLIC `??zclClosures_SendDoorLockSetUserTypeRequest::?`
        FUNCTION `??zclClosures_SendDoorLockSetUserTypeRequest::?`,0203H
        PUBLIC ??zclClosures_SendDoorLockSetWeekDayScheduleReq
        FUNCTION ??zclClosures_SendDoorLockSetWeekDayScheduleReq,0203H
        PUBLIC ??zclClosures_SendDoorLockSetYearDayScheduleReq
        FUNCTION ??zclClosures_SendDoorLockSetYearDayScheduleReq,0203H
        PUBLIC `??zclClosures_SendDoorLockStatusResponse::?rela`
        FUNCTION `??zclClosures_SendDoorLockStatusResponse::?rela`,0203H
        PUBLIC `??zclClosures_SendDoorLockUnlockTimeoutRequest:`
        FUNCTION `??zclClosures_SendDoorLockUnlockTimeoutRequest:`,0203H
        PUBLIC `??zclClosures_SendDoorLockUserIDRequest::?relay`
        FUNCTION `??zclClosures_SendDoorLockUserIDRequest::?relay`,0203H
        FUNCTION zclClosures_HdlIncoming,0a1603H
        ARGFRAME XSTACK, 0, STACK
        LOCFRAME XSTACK, 12, STACK
        FUNCTION zclClosures_ProcessInDoorLock,0a1203H
        ARGFRAME XSTACK, 16, STACK
        ARGFRAME IOVERLAY, 0, STATIC
        ARGFRAME DOVERLAY, 0, STATIC
        LOCFRAME ISTACK, 1, STACK
        LOCFRAME XSTACK, 15, STACK
        FUNCTION zclClosures_ProcessInDoorLockCmds,0a1203H
        ARGFRAME XSTACK, 12, STACK
        ARGFRAME IOVERLAY, 0, STATIC
        ARGFRAME DOVERLAY, 0, STATIC
        LOCFRAME ISTACK, 1, STACK
        LOCFRAME XSTACK, 16, STACK
        FUNCTION zclClosures_ProcessInDoorLockGetHolidayScheduleRsp,080203H
        ARGFRAME XSTACK, 16, STACK
        ARGFRAME IOVERLAY, 0, STATIC
        ARGFRAME DOVERLAY, 0, STATIC
        LOCFRAME ISTACK, 1, STACK
        LOCFRAME XSTACK, 27, STACK
        FUNCTION zclClosures_ProcessInDoorLockGetLogRecordRsp,0a1203H
        ARGFRAME XSTACK, 16, STACK
        ARGFRAME IOVERLAY, 0, STATIC
        ARGFRAME DOVERLAY, 0, STATIC
        LOCFRAME ISTACK, 1, STACK
        LOCFRAME XSTACK, 35, STACK
        FUNCTION zclClosures_ProcessInDoorLockGetPINCodeRsp,0a1203H
        ARGFRAME XSTACK, 16, STACK
        ARGFRAME IOVERLAY, 0, STATIC
        ARGFRAME DOVERLAY, 0, STATIC
        LOCFRAME ISTACK, 1, STACK
        LOCFRAME XSTACK, 22, STACK
        FUNCTION zclClosures_ProcessInDoorLockGetRFIDCodeRsp,0a1203H
        ARGFRAME XSTACK, 16, STACK
        ARGFRAME IOVERLAY, 0, STATIC
        ARGFRAME DOVERLAY, 0, STATIC
        LOCFRAME ISTACK, 1, STACK
        LOCFRAME XSTACK, 22, STACK
        FUNCTION zclClosures_ProcessInDoorLockGetWeekDayScheduleRsp,080203H
        ARGFRAME XSTACK, 16, STACK
        ARGFRAME IOVERLAY, 0, STATIC
        ARGFRAME DOVERLAY, 0, STATIC
        LOCFRAME ISTACK, 1, STACK
        LOCFRAME XSTACK, 21, STACK
        FUNCTION zclClosures_ProcessInDoorLockGetYearDayScheduleRsp,080203H
        ARGFRAME XSTACK, 16, STACK
        ARGFRAME IOVERLAY, 0, STATIC
        ARGFRAME DOVERLAY, 0, STATIC
        LOCFRAME ISTACK, 1, STACK
        LOCFRAME XSTACK, 28, STACK
        FUNCTION zclClosures_ProcessInDoorLockOperationEventNotification,0a1203H
        ARGFRAME XSTACK, 16, STACK
        ARGFRAME IOVERLAY, 0, STATIC
        ARGFRAME DOVERLAY, 0, STATIC
        LOCFRAME ISTACK, 1, STACK
        LOCFRAME XSTACK, 33, STACK
        FUNCTION zclClosures_ProcessInDoorLockProgrammingEventNotification,0a1203H
        ARGFRAME XSTACK, 16, STACK
        ARGFRAME IOVERLAY, 0, STATIC
        ARGFRAME DOVERLAY, 0, STATIC
        LOCFRAME ISTACK, 1, STACK
        LOCFRAME XSTACK, 35, STACK
        FUNCTION zclClosures_ProcessInDoorLockSetHolidaySchedule,080203H
        ARGFRAME XSTACK, 16, STACK
        ARGFRAME IOVERLAY, 0, STATIC
        ARGFRAME DOVERLAY, 0, STATIC
        LOCFRAME ISTACK, 1, STACK
        LOCFRAME XSTACK, 26, STACK
        FUNCTION zclClosures_ProcessInDoorLockSetPINCode,0a1203H
        ARGFRAME XSTACK, 16, STACK
        ARGFRAME IOVERLAY, 0, STATIC
        ARGFRAME DOVERLAY, 0, STATIC
        LOCFRAME ISTACK, 1, STACK
        LOCFRAME XSTACK, 22, STACK
        FUNCTION zclClosures_ProcessInDoorLockSetRFIDCode,0a1203H
        ARGFRAME XSTACK, 16, STACK
        ARGFRAME IOVERLAY, 0, STATIC
        ARGFRAME DOVERLAY, 0, STATIC
        LOCFRAME ISTACK, 1, STACK
        LOCFRAME XSTACK, 22, STACK
        FUNCTION zclClosures_ProcessInDoorLockSetWeekDaySchedule,080203H
        ARGFRAME XSTACK, 16, STACK
        ARGFRAME IOVERLAY, 0, STATIC
        ARGFRAME DOVERLAY, 0, STATIC
        LOCFRAME ISTACK, 1, STACK
        LOCFRAME XSTACK, 20, STACK
        FUNCTION zclClosures_ProcessInDoorLockSetYearDaySchedule,080203H
        ARGFRAME XSTACK, 16, STACK
        ARGFRAME IOVERLAY, 0, STATIC
        ARGFRAME DOVERLAY, 0, STATIC
        LOCFRAME ISTACK, 1, STACK
        LOCFRAME XSTACK, 27, STACK
        FUNCTION zclClosures_ProcessInDoorLockUnlockWithTimeout,0a1203H
        ARGFRAME XSTACK, 16, STACK
        ARGFRAME IOVERLAY, 0, STATIC
        ARGFRAME DOVERLAY, 0, STATIC
        LOCFRAME ISTACK, 1, STACK
        LOCFRAME XSTACK, 20, STACK
        PUBLIC zclClosures_RegisterDoorLockCmdCallbacks
        FUNCTION zclClosures_RegisterDoorLockCmdCallbacks,0a1203H
        ARGFRAME XSTACK, 0, STACK
        LOCFRAME ISTACK, 1, STACK
        LOCFRAME XSTACK, 14, STACK
        PUBLIC zclClosures_SendDoorLockClearAllCodesRequest
        FUNCTION zclClosures_SendDoorLockClearAllCodesRequest,0a1203H
        ARGFRAME XSTACK, 1, STACK
        LOCFRAME XSTACK, 23, STACK
        PUBLIC zclClosures_SendDoorLockGetHolidayScheduleResponse
        FUNCTION zclClosures_SendDoorLockGetHolidayScheduleResponse,0a1203H
        ARGFRAME XSTACK, 2, STACK
        LOCFRAME ISTACK, 1, STACK
        LOCFRAME XSTACK, 36, STACK
        PUBLIC zclClosures_SendDoorLockGetLogRecordRequest
        FUNCTION zclClosures_SendDoorLockGetLogRecordRequest,0a1203H
        ARGFRAME XSTACK, 2, STACK
        LOCFRAME ISTACK, 1, STACK
        LOCFRAME XSTACK, 23, STACK
        PUBLIC zclClosures_SendDoorLockGetLogRecordResponse
        FUNCTION zclClosures_SendDoorLockGetLogRecordResponse,0a1203H
        ARGFRAME XSTACK, 2, STACK
        LOCFRAME ISTACK, 1, STACK
        LOCFRAME XSTACK, 34, STACK
        PUBLIC zclClosures_SendDoorLockGetPINCodeResponse
        FUNCTION zclClosures_SendDoorLockGetPINCodeResponse,0a1203H
        ARGFRAME XSTACK, 2, STACK
        LOCFRAME ISTACK, 1, STACK
        LOCFRAME XSTACK, 32, STACK
        PUBLIC zclClosures_SendDoorLockGetRFIDCodeResponse
        FUNCTION zclClosures_SendDoorLockGetRFIDCodeResponse,0a1203H
        ARGFRAME XSTACK, 2, STACK
        LOCFRAME ISTACK, 1, STACK
        LOCFRAME XSTACK, 32, STACK
        PUBLIC zclClosures_SendDoorLockGetUserStatusResponse
        FUNCTION zclClosures_SendDoorLockGetUserStatusResponse,0a1203H
        ARGFRAME XSTACK, 3, STACK
        LOCFRAME ISTACK, 1, STACK
        LOCFRAME XSTACK, 24, STACK
        PUBLIC zclClosures_SendDoorLockGetUserTypeResponse
        FUNCTION zclClosures_SendDoorLockGetUserTypeResponse,0a1203H
        ARGFRAME XSTACK, 3, STACK
        LOCFRAME ISTACK, 1, STACK
        LOCFRAME XSTACK, 24, STACK
        PUBLIC zclClosures_SendDoorLockGetWeekDayScheduleResponse
        FUNCTION zclClosures_SendDoorLockGetWeekDayScheduleResponse,0a1203H
        ARGFRAME XSTACK, 2, STACK
        LOCFRAME ISTACK, 1, STACK
        LOCFRAME XSTACK, 30, STACK
        PUBLIC zclClosures_SendDoorLockGetYearDayScheduleResponse
        FUNCTION zclClosures_SendDoorLockGetYearDayScheduleResponse,0a1203H
        ARGFRAME XSTACK, 2, STACK
        LOCFRAME ISTACK, 1, STACK
        LOCFRAME XSTACK, 37, STACK
        PUBLIC zclClosures_SendDoorLockHolidayScheduleRequest
        FUNCTION zclClosures_SendDoorLockHolidayScheduleRequest,0a1203H
        ARGFRAME XSTACK, 2, STACK
        LOCFRAME ISTACK, 1, STACK
        LOCFRAME XSTACK, 24, STACK
        PUBLIC zclClosures_SendDoorLockOperationEventNotification
        FUNCTION zclClosures_SendDoorLockOperationEventNotification,0a1203H
        ARGFRAME XSTACK, 2, STACK
        LOCFRAME ISTACK, 1, STACK
        LOCFRAME XSTACK, 33, STACK
        PUBLIC zclClosures_SendDoorLockProgrammingEventNotification
        FUNCTION zclClosures_SendDoorLockProgrammingEventNotification,0a1203H
        ARGFRAME XSTACK, 2, STACK
        LOCFRAME ISTACK, 1, STACK
        LOCFRAME XSTACK, 33, STACK
        PUBLIC zclClosures_SendDoorLockRequest
        FUNCTION zclClosures_SendDoorLockRequest,0a1203H
        ARGFRAME XSTACK, 3, STACK
        LOCFRAME ISTACK, 1, STACK
        LOCFRAME XSTACK, 31, STACK
        PUBLIC zclClosures_SendDoorLockScheduleRequest
        FUNCTION zclClosures_SendDoorLockScheduleRequest,0a1203H
        ARGFRAME XSTACK, 4, STACK
        LOCFRAME ISTACK, 1, STACK
        LOCFRAME XSTACK, 26, STACK
        PUBLIC zclClosures_SendDoorLockSetHolidayScheduleRequest
        FUNCTION zclClosures_SendDoorLockSetHolidayScheduleRequest,0a1203H
        ARGFRAME XSTACK, 10, STACK
        LOCFRAME ISTACK, 1, STACK
        LOCFRAME XSTACK, 38, STACK
        PUBLIC zclClosures_SendDoorLockSetPINCodeRequest
        FUNCTION zclClosures_SendDoorLockSetPINCodeRequest,0a1203H
        ARGFRAME XSTACK, 2, STACK
        LOCFRAME ISTACK, 1, STACK
        LOCFRAME XSTACK, 32, STACK
        PUBLIC zclClosures_SendDoorLockSetRFIDCodeRequest
        FUNCTION zclClosures_SendDoorLockSetRFIDCodeRequest,0a1203H
        ARGFRAME XSTACK, 2, STACK
        LOCFRAME ISTACK, 1, STACK
        LOCFRAME XSTACK, 32, STACK
        PUBLIC zclClosures_SendDoorLockSetUserStatusRequest
        FUNCTION zclClosures_SendDoorLockSetUserStatusRequest,0a1203H
        ARGFRAME XSTACK, 3, STACK
        LOCFRAME ISTACK, 1, STACK
        LOCFRAME XSTACK, 24, STACK
        PUBLIC zclClosures_SendDoorLockSetUserTypeRequest
        FUNCTION zclClosures_SendDoorLockSetUserTypeRequest,0a1203H
        ARGFRAME XSTACK, 3, STACK
        LOCFRAME ISTACK, 1, STACK
        LOCFRAME XSTACK, 24, STACK
        PUBLIC zclClosures_SendDoorLockSetWeekDayScheduleRequest
        FUNCTION zclClosures_SendDoorLockSetWeekDayScheduleRequest,0a1203H
        ARGFRAME XSTACK, 8, STACK
        LOCFRAME ISTACK, 1, STACK
        LOCFRAME XSTACK, 31, STACK
        PUBLIC zclClosures_SendDoorLockSetYearDayScheduleRequest
        FUNCTION zclClosures_SendDoorLockSetYearDayScheduleRequest,0a1203H
        ARGFRAME XSTACK, 11, STACK
        LOCFRAME ISTACK, 1, STACK
        LOCFRAME XSTACK, 39, STACK
        PUBLIC zclClosures_SendDoorLockStatusResponse
        FUNCTION zclClosures_SendDoorLockStatusResponse,0a1203H
        ARGFRAME XSTACK, 2, STACK
        LOCFRAME ISTACK, 1, STACK
        LOCFRAME XSTACK, 24, STACK
        PUBLIC zclClosures_SendDoorLockUnlockTimeoutRequest
        FUNCTION zclClosures_SendDoorLockUnlockTimeoutRequest,0a1203H
        ARGFRAME XSTACK, 2, STACK
        LOCFRAME ISTACK, 1, STACK
        LOCFRAME XSTACK, 31, STACK
        PUBLIC zclClosures_SendDoorLockUserIDRequest
        FUNCTION zclClosures_SendDoorLockUserIDRequest,0a1203H
        ARGFRAME XSTACK, 3, STACK
        LOCFRAME ISTACK, 1, STACK
        LOCFRAME XSTACK, 25, STACK
        
          CFI Names cfiNames0
          CFI StackFrame CFA_SP SP IDATA
          CFI StackFrame CFA_PSP16 PSP16 XDATA
          CFI StackFrame CFA_XSP16 XSP16 XDATA
          CFI StaticOverlayFrame CFA_IOVERLAY IOVERLAY
          CFI StaticOverlayFrame CFA_DOVERLAY DOVERLAY
          CFI Resource `PSW.CY`:1, `B.BR0`:1, `B.BR1`:1, `B.BR2`:1, `B.BR3`:1
          CFI Resource `B.BR4`:1, `B.BR5`:1, `B.BR6`:1, `B.BR7`:1, `VB.BR8`:1
          CFI Resource `VB.BR9`:1, `VB.BR10`:1, `VB.BR11`:1, `VB.BR12`:1
          CFI Resource `VB.BR13`:1, `VB.BR14`:1, `VB.BR15`:1, VB:8, B:8, A:8
          CFI Resource PSW:8, DPL0:8, DPH0:8, R0:8, R1:8, R2:8, R3:8, R4:8, R5:8
          CFI Resource R6:8, R7:8, V0:8, V1:8, V2:8, V3:8, V4:8, V5:8, V6:8, V7:8
          CFI Resource V8:8, V9:8, V10:8, V11:8, V12:8, V13:8, V14:8, V15:8, SP:8
          CFI Resource PSPH:8, PSPL:8, PSP16:16, XSPH:8, XSPL:8, XSP16:16
          CFI VirtualResource ?RET:24
          CFI Resource ?BRET_EXT:8
          CFI VirtualResource ?RET_HIGH:8, ?RET_LOW:8
          CFI ResourceParts PSP16 PSPH, PSPL
          CFI ResourceParts XSP16 XSPH, XSPL
          CFI ResourceParts ?RET ?BRET_EXT, ?RET_HIGH, ?RET_LOW
          CFI EndNames cfiNames0
        
          CFI Common cfiCommon0 Using cfiNames0
          CFI CodeAlign 1
          CFI DataAlign -1
          CFI ReturnAddress ?RET CODE
          CFI CFA_DOVERLAY Used
          CFI CFA_IOVERLAY Used
          CFI CFA_SP SP+-3
          CFI CFA_PSP16 PSP16+0
          CFI CFA_XSP16 XSP16+0
          CFI `PSW.CY` SameValue
          CFI `B.BR0` SameValue
          CFI `B.BR1` SameValue
          CFI `B.BR2` SameValue
          CFI `B.BR3` SameValue
          CFI `B.BR4` SameValue
          CFI `B.BR5` SameValue
          CFI `B.BR6` SameValue
          CFI `B.BR7` SameValue
          CFI `VB.BR8` SameValue
          CFI `VB.BR9` SameValue
          CFI `VB.BR10` SameValue
          CFI `VB.BR11` SameValue
          CFI `VB.BR12` SameValue
          CFI `VB.BR13` SameValue
          CFI `VB.BR14` SameValue
          CFI `VB.BR15` SameValue
          CFI VB SameValue
          CFI B Undefined
          CFI A Undefined
          CFI PSW SameValue
          CFI DPL0 SameValue
          CFI DPH0 SameValue
          CFI R0 Undefined
          CFI R1 Undefined
          CFI R2 Undefined
          CFI R3 Undefined
          CFI R4 Undefined
          CFI R5 Undefined
          CFI R6 SameValue
          CFI R7 SameValue
          CFI V0 SameValue
          CFI V1 SameValue
          CFI V2 SameValue
          CFI V3 SameValue
          CFI V4 SameValue
          CFI V5 SameValue
          CFI V6 SameValue
          CFI V7 SameValue
          CFI V8 SameValue
          CFI V9 SameValue
          CFI V10 SameValue
          CFI V11 SameValue
          CFI V12 SameValue
          CFI V13 SameValue
          CFI V14 SameValue
          CFI V15 SameValue
          CFI PSPH Undefined
          CFI PSPL Undefined
          CFI XSPH Undefined
          CFI XSPL Undefined
          CFI ?RET Concat
          CFI ?BRET_EXT Frame(CFA_SP, 3)
          CFI ?RET_HIGH Frame(CFA_SP, 2)
          CFI ?RET_LOW Frame(CFA_SP, 1)
          CFI EndCommon cfiCommon0
        
        
          CFI Common cfiCommon1 Using cfiNames0
          CFI CodeAlign 1
          CFI DataAlign -1
          CFI ReturnAddress ?RET CODE
          CFI CFA_DOVERLAY Used
          CFI CFA_IOVERLAY Used
          CFI CFA_SP SP+-2
          CFI CFA_PSP16 PSP16+0
          CFI CFA_XSP16 XSP16+0
          CFI `PSW.CY` SameValue
          CFI `B.BR0` SameValue
          CFI `B.BR1` SameValue
          CFI `B.BR2` SameValue
          CFI `B.BR3` SameValue
          CFI `B.BR4` SameValue
          CFI `B.BR5` SameValue
          CFI `B.BR6` SameValue
          CFI `B.BR7` SameValue
          CFI `VB.BR8` SameValue
          CFI `VB.BR9` SameValue
          CFI `VB.BR10` SameValue
          CFI `VB.BR11` SameValue
          CFI `VB.BR12` SameValue
          CFI `VB.BR13` SameValue
          CFI `VB.BR14` SameValue
          CFI `VB.BR15` SameValue
          CFI VB SameValue
          CFI B SameValue
          CFI A SameValue
          CFI PSW SameValue
          CFI DPL0 SameValue
          CFI DPH0 SameValue
          CFI R0 SameValue
          CFI R1 SameValue
          CFI R2 SameValue
          CFI R3 SameValue
          CFI R4 SameValue
          CFI R5 SameValue
          CFI R6 SameValue
          CFI R7 SameValue
          CFI V0 SameValue
          CFI V1 SameValue
          CFI V2 SameValue
          CFI V3 SameValue
          CFI V4 SameValue
          CFI V5 SameValue
          CFI V6 SameValue
          CFI V7 SameValue
          CFI V8 SameValue
          CFI V9 SameValue
          CFI V10 SameValue
          CFI V11 SameValue
          CFI V12 SameValue
          CFI V13 SameValue
          CFI V14 SameValue
          CFI V15 SameValue
          CFI PSPH Undefined
          CFI PSPL Undefined
          CFI XSPH Undefined
          CFI XSPL Undefined
          CFI ?RET Concat
          CFI ?BRET_EXT SameValue
          CFI ?RET_HIGH Frame(CFA_SP, 2)
          CFI ?RET_LOW Frame(CFA_SP, 1)
          CFI EndCommon cfiCommon1
        
osal_mem_alloc      SYMBOL "osal_mem_alloc"
`??osal_mem_alloc::?relay` SYMBOL "?relay", osal_mem_alloc
osal_mem_free       SYMBOL "osal_mem_free"
`??osal_mem_free::?relay` SYMBOL "?relay", osal_mem_free
zcl_SendCommand     SYMBOL "zcl_SendCommand"
`??zcl_SendCommand::?relay` SYMBOL "?relay", zcl_SendCommand
zcl_registerPlugin  SYMBOL "zcl_registerPlugin"
`??zcl_registerPlugin::?relay` SYMBOL "?relay", zcl_registerPlugin
zclClosures_RegisterDoorLockCmdCallbacks SYMBOL "zclClosures_RegisterDoorLockCmdCallbacks"
`??zclClosures_RegisterDoorLockCmdCallbacks::?re` SYMBOL "?relay", zclClosures_RegisterDoorLockCmdCallbacks
zclClosures_SendDoorLockClearAllCodesRequest SYMBOL "zclClosures_SendDoorLockClearAllCodesRequest"
`??zclClosures_SendDoorLockClearAllCodesRequest:` SYMBOL "?relay", zclClosures_SendDoorLockClearAllCodesRequest
zclClosures_SendDoorLockGetHolidayScheduleResponse SYMBOL "zclClosures_SendDoorLockGetHolidayScheduleResponse"
??zclClosures_SendDoorLockGetHolidayScheduleRes SYMBOL "?relay", zclClosures_SendDoorLockGetHolidayScheduleResponse
zclClosures_SendDoorLockGetLogRecordRequest SYMBOL "zclClosures_SendDoorLockGetLogRecordRequest"
`??zclClosures_SendDoorLockGetLogRecordRequest::` SYMBOL "?relay", zclClosures_SendDoorLockGetLogRecordRequest
zclClosures_SendDoorLockGetLogRecordResponse SYMBOL "zclClosures_SendDoorLockGetLogRecordResponse"
`??zclClosures_SendDoorLockGetLogRecordResponse:` SYMBOL "?relay", zclClosures_SendDoorLockGetLogRecordResponse
zclClosures_SendDoorLockGetPINCodeResponse SYMBOL "zclClosures_SendDoorLockGetPINCodeResponse"
`??zclClosures_SendDoorLockGetPINCodeResponse::?` SYMBOL "?relay", zclClosures_SendDoorLockGetPINCodeResponse
zclClosures_SendDoorLockGetRFIDCodeResponse SYMBOL "zclClosures_SendDoorLockGetRFIDCodeResponse"
`??zclClosures_SendDoorLockGetRFIDCodeResponse::` SYMBOL "?relay", zclClosures_SendDoorLockGetRFIDCodeResponse
zclClosures_SendDoorLockGetUserStatusResponse SYMBOL "zclClosures_SendDoorLockGetUserStatusResponse"
??zclClosures_SendDoorLockGetUserStatusResponse SYMBOL "?relay", zclClosures_SendDoorLockGetUserStatusResponse
zclClosures_SendDoorLockGetUserTypeResponse SYMBOL "zclClosures_SendDoorLockGetUserTypeResponse"
`??zclClosures_SendDoorLockGetUserTypeResponse::` SYMBOL "?relay", zclClosures_SendDoorLockGetUserTypeResponse
zclClosures_SendDoorLockGetWeekDayScheduleResponse SYMBOL "zclClosures_SendDoorLockGetWeekDayScheduleResponse"
??zclClosures_SendDoorLockGetWeekDayScheduleRes SYMBOL "?relay", zclClosures_SendDoorLockGetWeekDayScheduleResponse
zclClosures_SendDoorLockGetYearDayScheduleResponse SYMBOL "zclClosures_SendDoorLockGetYearDayScheduleResponse"
??zclClosures_SendDoorLockGetYearDayScheduleRes SYMBOL "?relay", zclClosures_SendDoorLockGetYearDayScheduleResponse
zclClosures_SendDoorLockHolidayScheduleRequest SYMBOL "zclClosures_SendDoorLockHolidayScheduleRequest"
??zclClosures_SendDoorLockHolidayScheduleReques SYMBOL "?relay", zclClosures_SendDoorLockHolidayScheduleRequest
zclClosures_SendDoorLockOperationEventNotification SYMBOL "zclClosures_SendDoorLockOperationEventNotification"
??zclClosures_SendDoorLockOperationEventNotific SYMBOL "?relay", zclClosures_SendDoorLockOperationEventNotification
zclClosures_SendDoorLockProgrammingEventNotification SYMBOL "zclClosures_SendDoorLockProgrammingEventNotification"
??zclClosures_SendDoorLockProgrammingEventNotif SYMBOL "?relay", zclClosures_SendDoorLockProgrammingEventNotification
zclClosures_SendDoorLockRequest SYMBOL "zclClosures_SendDoorLockRequest"
`??zclClosures_SendDoorLockRequest::?relay` SYMBOL "?relay", zclClosures_SendDoorLockRequest
zclClosures_SendDoorLockScheduleRequest SYMBOL "zclClosures_SendDoorLockScheduleRequest"
`??zclClosures_SendDoorLockScheduleRequest::?rel` SYMBOL "?relay", zclClosures_SendDoorLockScheduleRequest
zclClosures_SendDoorLockSetHolidayScheduleRequest SYMBOL "zclClosures_SendDoorLockSetHolidayScheduleRequest"
??zclClosures_SendDoorLockSetHolidayScheduleReq SYMBOL "?relay", zclClosures_SendDoorLockSetHolidayScheduleRequest
zclClosures_SendDoorLockSetPINCodeRequest SYMBOL "zclClosures_SendDoorLockSetPINCodeRequest"
`??zclClosures_SendDoorLockSetPINCodeRequest::?r` SYMBOL "?relay", zclClosures_SendDoorLockSetPINCodeRequest
zclClosures_SendDoorLockSetRFIDCodeRequest SYMBOL "zclClosures_SendDoorLockSetRFIDCodeRequest"
`??zclClosures_SendDoorLockSetRFIDCodeRequest::?` SYMBOL "?relay", zclClosures_SendDoorLockSetRFIDCodeRequest
zclClosures_SendDoorLockSetUserStatusRequest SYMBOL "zclClosures_SendDoorLockSetUserStatusRequest"
`??zclClosures_SendDoorLockSetUserStatusRequest:` SYMBOL "?relay", zclClosures_SendDoorLockSetUserStatusRequest
zclClosures_SendDoorLockSetUserTypeRequest SYMBOL "zclClosures_SendDoorLockSetUserTypeRequest"
`??zclClosures_SendDoorLockSetUserTypeRequest::?` SYMBOL "?relay", zclClosures_SendDoorLockSetUserTypeRequest
zclClosures_SendDoorLockSetWeekDayScheduleRequest SYMBOL "zclClosures_SendDoorLockSetWeekDayScheduleRequest"
??zclClosures_SendDoorLockSetWeekDayScheduleReq SYMBOL "?relay", zclClosures_SendDoorLockSetWeekDayScheduleRequest
zclClosures_SendDoorLockSetYearDayScheduleRequest SYMBOL "zclClosures_SendDoorLockSetYearDayScheduleRequest"
??zclClosures_SendDoorLockSetYearDayScheduleReq SYMBOL "?relay", zclClosures_SendDoorLockSetYearDayScheduleRequest
zclClosures_SendDoorLockStatusResponse SYMBOL "zclClosures_SendDoorLockStatusResponse"
`??zclClosures_SendDoorLockStatusResponse::?rela` SYMBOL "?relay", zclClosures_SendDoorLockStatusResponse
zclClosures_SendDoorLockUnlockTimeoutRequest SYMBOL "zclClosures_SendDoorLockUnlockTimeoutRequest"
`??zclClosures_SendDoorLockUnlockTimeoutRequest:` SYMBOL "?relay", zclClosures_SendDoorLockUnlockTimeoutRequest
zclClosures_SendDoorLockUserIDRequest SYMBOL "zclClosures_SendDoorLockUserIDRequest"
`??zclClosures_SendDoorLockUserIDRequest::?relay` SYMBOL "?relay", zclClosures_SendDoorLockUserIDRequest

        EXTERN `??osal_mem_alloc::?relay`
        FUNCTION `??osal_mem_alloc::?relay`,00H
        EXTERN `??osal_mem_free::?relay`
        FUNCTION `??osal_mem_free::?relay`,00H
        EXTERN `??zcl_SendCommand::?relay`
        FUNCTION `??zcl_SendCommand::?relay`,00H
        EXTERN `??zcl_registerPlugin::?relay`
        FUNCTION `??zcl_registerPlugin::?relay`,00H
        EXTERN osal_mem_alloc
        FUNCTION osal_mem_alloc,0202H
        ARGFRAME ISTACK, 0, STACK
        ARGFRAME PSTACK, 0, STACK
        ARGFRAME XSTACK, 35, STACK
        ARGFRAME IOVERLAY, 0, STATIC
        ARGFRAME DOVERLAY, 0, STATIC
        EXTERN osal_mem_free
        FUNCTION osal_mem_free,0202H
        ARGFRAME ISTACK, 0, STACK
        ARGFRAME PSTACK, 0, STACK
        ARGFRAME XSTACK, 35, STACK
        ARGFRAME IOVERLAY, 0, STATIC
        ARGFRAME DOVERLAY, 0, STATIC
        EXTERN zcl_SendCommand
        FUNCTION zcl_SendCommand,0202H
        ARGFRAME ISTACK, 0, STACK
        ARGFRAME PSTACK, 0, STACK
        ARGFRAME XSTACK, 39, STACK
        ARGFRAME IOVERLAY, 0, STATIC
        ARGFRAME DOVERLAY, 0, STATIC
        EXTERN zcl_registerPlugin
        FUNCTION zcl_registerPlugin,0202H
        ARGFRAME ISTACK, 0, STACK
        ARGFRAME PSTACK, 0, STACK
        ARGFRAME XSTACK, 14, STACK
        ARGFRAME IOVERLAY, 0, STATIC
        ARGFRAME DOVERLAY, 0, STATIC

// D:\Z-Stack Home 1.2.2a.44539\Components\stack\zcl\zcl_closures.c
//    1 /**************************************************************************************************
//    2   Filename:       zcl_closures.c
//    3   Revised:        $Date: 2013-10-16 16:38:58 -0700 (Wed, 16 Oct 2013) $
//    4   Revision:       $Revision: 35701 $
//    5 
//    6   Description:    Zigbee Cluster Library - Closures.
//    7 
//    8 
//    9   Copyright 2006-2013 Texas Instruments Incorporated. All rights reserved.
//   10 
//   11   IMPORTANT: Your use of this Software is limited to those specific rights
//   12   granted under the terms of a software license agreement between the user
//   13   who downloaded the software, his/her employer (which must be your employer)
//   14   and Texas Instruments Incorporated (the "License").  You may not use this
//   15   Software unless you agree to abide by the terms of the License. The License
//   16   limits your use, and you acknowledge, that the Software may not be modified,
//   17   copied or distributed unless embedded on a Texas Instruments microcontroller
//   18   or used solely and exclusively in conjunction with a Texas Instruments radio
//   19   frequency transceiver, which is integrated into your product.  Other than for
//   20   the foregoing purpose, you may not use, reproduce, copy, prepare derivative
//   21   works of, modify, distribute, perform, display or sell this Software and/or
//   22   its documentation for any purpose.
//   23 
//   24   YOU FURTHER ACKNOWLEDGE AND AGREE THAT THE SOFTWARE AND DOCUMENTATION ARE
//   25   PROVIDED "AS IS" WITHOUT WARRANTY OF ANY KIND, EITHER EXPRESS OR IMPLIED,
//   26   INCLUDING WITHOUT LIMITATION, ANY WARRANTY OF MERCHANTABILITY, TITLE,
//   27   NON-INFRINGEMENT AND FITNESS FOR A PARTICULAR PURPOSE. IN NO EVENT SHALL
//   28   TEXAS INSTRUMENTS OR ITS LICENSORS BE LIABLE OR OBLIGATED UNDER CONTRACT,
//   29   NEGLIGENCE, STRICT LIABILITY, CONTRIBUTION, BREACH OF WARRANTY, OR OTHER
//   30   LEGAL EQUITABLE THEORY ANY DIRECT OR INDIRECT DAMAGES OR EXPENSES
//   31   INCLUDING BUT NOT LIMITED TO ANY INCIDENTAL, SPECIAL, INDIRECT, PUNITIVE
//   32   OR CONSEQUENTIAL DAMAGES, LOST PROFITS OR LOST DATA, COST OF PROCUREMENT
//   33   OF SUBSTITUTE GOODS, TECHNOLOGY, SERVICES, OR ANY CLAIMS BY THIRD PARTIES
//   34   (INCLUDING BUT NOT LIMITED TO ANY DEFENSE THEREOF), OR OTHER SIMILAR COSTS.
//   35 
//   36   Should you have any questions regarding your right to use this Software,
//   37   contact Texas Instruments Incorporated at www.TI.com.
//   38 **************************************************************************************************/
//   39 
//   40 
//   41 /*********************************************************************
//   42  * INCLUDES
//   43  */
//   44 #include "zcl.h"
//   45 #include "zcl_general.h"
//   46 #include "zcl_closures.h"
//   47 
//   48 #if defined ( INTER_PAN )
//   49   #include "stub_aps.h"
//   50 #endif
//   51 
//   52 /*********************************************************************
//   53  * MACROS
//   54  */
//   55 
//   56 /*********************************************************************
//   57  * CONSTANTS
//   58  */
//   59 
//   60 /*********************************************************************
//   61  * TYPEDEFS
//   62  */
//   63 #ifdef ZCL_DOORLOCK
//   64 typedef struct zclClosuresDoorLockCBRec
//   65 {
//   66   struct zclClosuresDoorLockCBRec     *next;
//   67   uint8                                endpoint; // Used to link it into the endpoint descriptor
//   68   zclClosures_DoorLockAppCallbacks_t  *CBs;     // Pointer to Callback function
//   69 } zclClosuresDoorLockCBRec_t;
//   70 #endif
//   71 
//   72 #ifdef ZCL_WINDOWCOVERING
//   73 typedef struct zclClosuresWindowCoveringCBRec
//   74 {
//   75   struct zclClosuresWindowCoveringCBRec     *next;
//   76   uint8                                     endpoint; // Used to link it into the endpoint descriptor
//   77   zclClosures_WindowCoveringAppCallbacks_t  *CBs;     // Pointer to Callback function
//   78 } zclClosuresWindowCoveringCBRec_t;
//   79 #endif
//   80 
//   81 /*********************************************************************
//   82  * GLOBAL VARIABLES
//   83  */
//   84 
//   85 /*********************************************************************
//   86  * GLOBAL FUNCTIONS
//   87  */
//   88 
//   89 /*********************************************************************
//   90  * LOCAL VARIABLES
//   91  */
//   92 #ifdef ZCL_DOORLOCK

        RSEG XDATA_Z:XDATA:NOROOT(0)
        DATA16
//   93 static zclClosuresDoorLockCBRec_t *zclClosuresDoorLockCBs = (zclClosuresDoorLockCBRec_t *)NULL;
zclClosuresDoorLockCBs:
        DS 2
        REQUIRE __INIT_XDATA_Z
//   94 #endif
//   95 
//   96 #ifdef ZCL_WINDOWCOVERING
//   97 static zclClosuresWindowCoveringCBRec_t *zclClosuresWindowCoveringCBs = (zclClosuresWindowCoveringCBRec_t *)NULL;
//   98 #endif
//   99 
//  100 #ifdef ZCL_DOORLOCK

        RSEG XDATA_Z:XDATA:NOROOT(0)
        DATA8
//  101 static uint8 zclDoorLockPluginRegisted = FALSE;
zclDoorLockPluginRegisted:
        DS 1
        REQUIRE __INIT_XDATA_Z
//  102 #endif
//  103 
//  104 #ifdef ZCL_WINDOWCOVERING
//  105 static uint8 zclWindowCoveringPluginRegisted = FALSE;
//  106 #endif
//  107 
//  108 /*********************************************************************
//  109  * LOCAL FUNCTIONS
//  110  */
//  111 #if defined(ZCL_DOORLOCK) || defined(ZCL_WINDOWCOVERING)
//  112 static ZStatus_t zclClosures_HdlIncoming( zclIncoming_t *pInMsg );
//  113 static ZStatus_t zclClosures_HdlInSpecificCommands( zclIncoming_t *pInMsg );
//  114 #endif
//  115 
//  116 #ifdef ZCL_DOORLOCK
//  117 static zclClosures_DoorLockAppCallbacks_t *zclClosures_FindDoorLockCallbacks( uint8 endpoint );
//  118 static ZStatus_t zclClosures_ProcessInDoorLockCmds( zclIncoming_t *pInMsg,
//  119                                                     zclClosures_DoorLockAppCallbacks_t *pCBs );
//  120 static ZStatus_t zclClosures_ProcessInDoorLock( zclIncoming_t *pInMsg,
//  121                                                 zclClosures_DoorLockAppCallbacks_t *pCBs );
//  122 static ZStatus_t zclClosures_ProcessInDoorLockUnlockWithTimeout( zclIncoming_t *pInMsg,
//  123                                                                  zclClosures_DoorLockAppCallbacks_t *pCBs );
//  124 static ZStatus_t zclClosures_ProcessInDoorLockGetLogRecord( zclIncoming_t *pInMsg,
//  125                                                             zclClosures_DoorLockAppCallbacks_t *pCBs );
//  126 static ZStatus_t zclClosures_ProcessInDoorLockSetPINCode( zclIncoming_t *pInMsg,
//  127                                                           zclClosures_DoorLockAppCallbacks_t *pCBs );
//  128 static ZStatus_t zclClosures_ProcessInDoorLockGetPINCode( zclIncoming_t *pInMsg,
//  129                                                           zclClosures_DoorLockAppCallbacks_t *pCBs );
//  130 static ZStatus_t zclClosures_ProcessInDoorLockClearPINCode( zclIncoming_t *pInMsg,
//  131                                                             zclClosures_DoorLockAppCallbacks_t *pCBs );
//  132 static ZStatus_t zclClosures_ProcessInDoorLockClearAllPINCodes( zclIncoming_t *pInMsg,
//  133                                                                 zclClosures_DoorLockAppCallbacks_t *pCBs );
//  134 static ZStatus_t zclClosures_ProcessInDoorLockSetUserStatus( zclIncoming_t *pInMsg,
//  135                                                              zclClosures_DoorLockAppCallbacks_t *pCBs );
//  136 static ZStatus_t zclClosures_ProcessInDoorLockGetUserStatus( zclIncoming_t *pInMsg,
//  137                                                              zclClosures_DoorLockAppCallbacks_t *pCBs );
//  138 static ZStatus_t zclClosures_ProcessInDoorLockSetWeekDaySchedule( zclIncoming_t *pInMsg,
//  139                                                                   zclClosures_DoorLockAppCallbacks_t *pCBs );
//  140 static ZStatus_t zclClosures_ProcessInDoorLockGetWeekDaySchedule( zclIncoming_t *pInMsg,
//  141                                                                   zclClosures_DoorLockAppCallbacks_t *pCBs );
//  142 static ZStatus_t zclClosures_ProcessInDoorLockClearWeekDaySchedule( zclIncoming_t *pInMsg,
//  143                                                                     zclClosures_DoorLockAppCallbacks_t *pCBs );
//  144 static ZStatus_t zclClosures_ProcessInDoorLockSetYearDaySchedule( zclIncoming_t *pInMsg,
//  145                                                                   zclClosures_DoorLockAppCallbacks_t *pCBs );
//  146 static ZStatus_t zclClosures_ProcessInDoorLockGetYearDaySchedule( zclIncoming_t *pInMsg,
//  147                                                                   zclClosures_DoorLockAppCallbacks_t *pCBs );
//  148 static ZStatus_t zclClosures_ProcessInDoorLockClearYearDaySchedule( zclIncoming_t *pInMsg,
//  149                                                                     zclClosures_DoorLockAppCallbacks_t *pCBs );
//  150 static ZStatus_t zclClosures_ProcessInDoorLockSetHolidaySchedule( zclIncoming_t *pInMsg,
//  151                                                                   zclClosures_DoorLockAppCallbacks_t *pCBs );
//  152 static ZStatus_t zclClosures_ProcessInDoorLockGetHolidaySchedule( zclIncoming_t *pInMsg,
//  153                                                                   zclClosures_DoorLockAppCallbacks_t *pCBs );
//  154 static ZStatus_t zclClosures_ProcessInDoorLockClearHolidaySchedule( zclIncoming_t *pInMsg,
//  155                                                                     zclClosures_DoorLockAppCallbacks_t *pCBs );
//  156 static ZStatus_t zclClosures_ProcessInDoorLockSetUserType( zclIncoming_t *pInMsg,
//  157                                                            zclClosures_DoorLockAppCallbacks_t *pCBs );
//  158 static ZStatus_t zclClosures_ProcessInDoorLockGetUserType( zclIncoming_t *pInMsg,
//  159                                                            zclClosures_DoorLockAppCallbacks_t *pCBs );
//  160 static ZStatus_t zclClosures_ProcessInDoorLockSetRFIDCode( zclIncoming_t *pInMsg,
//  161                                                            zclClosures_DoorLockAppCallbacks_t *pCBs );
//  162 static ZStatus_t zclClosures_ProcessInDoorLockGetRFIDCode( zclIncoming_t *pInMsg,
//  163                                                            zclClosures_DoorLockAppCallbacks_t *pCBs );
//  164 static ZStatus_t zclClosures_ProcessInDoorLockClearRFIDCode( zclIncoming_t *pInMsg,
//  165                                                              zclClosures_DoorLockAppCallbacks_t *pCBs );
//  166 static ZStatus_t zclClosures_ProcessInDoorLockClearAllRFIDCodes( zclIncoming_t *pInMsg,
//  167                                                                  zclClosures_DoorLockAppCallbacks_t *pCBs );
//  168 static ZStatus_t zclClosures_ProcessInDoorLockUnlockWithTimeoutRsp( zclIncoming_t *pInMsg,
//  169                                                                     zclClosures_DoorLockAppCallbacks_t *pCBs );
//  170 static ZStatus_t zclClosures_ProcessInDoorLockGetLogRecordRsp( zclIncoming_t *pInMsg,
//  171                                                                zclClosures_DoorLockAppCallbacks_t *pCBs );
//  172 static ZStatus_t zclClosures_ProcessInDoorLockSetPINCodeRsp( zclIncoming_t *pInMsg,
//  173                                                              zclClosures_DoorLockAppCallbacks_t *pCBs );
//  174 static ZStatus_t zclClosures_ProcessInDoorLockGetPINCodeRsp( zclIncoming_t *pInMsg,
//  175                                                              zclClosures_DoorLockAppCallbacks_t *pCBs );
//  176 static ZStatus_t zclClosures_ProcessInDoorLockClearPINCodeRsp( zclIncoming_t *pInMsg,
//  177                                                                zclClosures_DoorLockAppCallbacks_t *pCBs );
//  178 static ZStatus_t zclClosures_ProcessInDoorLockClearAllPINCodesRsp( zclIncoming_t *pInMsg,
//  179                                                                    zclClosures_DoorLockAppCallbacks_t *pCBs );
//  180 static ZStatus_t zclClosures_ProcessInDoorLockSetUserStatusRsp( zclIncoming_t *pInMsg,
//  181                                                                 zclClosures_DoorLockAppCallbacks_t *pCBs );
//  182 static ZStatus_t zclClosures_ProcessInDoorLockGetUserStatusRsp( zclIncoming_t *pInMsg,
//  183                                                                 zclClosures_DoorLockAppCallbacks_t *pCBs );
//  184 static ZStatus_t zclClosures_ProcessInDoorLockSetWeekDayScheduleRsp( zclIncoming_t *pInMsg,
//  185                                                                      zclClosures_DoorLockAppCallbacks_t *pCBs );
//  186 static ZStatus_t zclClosures_ProcessInDoorLockGetWeekDayScheduleRsp( zclIncoming_t *pInMsg,
//  187                                                                      zclClosures_DoorLockAppCallbacks_t *pCBs );
//  188 static ZStatus_t zclClosures_ProcessInDoorLockClearWeekDayScheduleRsp( zclIncoming_t *pInMsg,
//  189                                                                        zclClosures_DoorLockAppCallbacks_t *pCBs );
//  190 static ZStatus_t zclClosures_ProcessInDoorLockSetYearDayScheduleRsp( zclIncoming_t *pInMsg,
//  191                                                                      zclClosures_DoorLockAppCallbacks_t *pCBs );
//  192 static ZStatus_t zclClosures_ProcessInDoorLockGetYearDayScheduleRsp( zclIncoming_t *pInMsg,
//  193                                                                      zclClosures_DoorLockAppCallbacks_t *pCBs );
//  194 static ZStatus_t zclClosures_ProcessInDoorLockClearYearDayScheduleRsp( zclIncoming_t *pInMsg,
//  195                                                                        zclClosures_DoorLockAppCallbacks_t *pCBs );
//  196 static ZStatus_t zclClosures_ProcessInDoorLockSetHolidayScheduleRsp( zclIncoming_t *pInMsg,
//  197                                                                      zclClosures_DoorLockAppCallbacks_t *pCBs );
//  198 static ZStatus_t zclClosures_ProcessInDoorLockGetHolidayScheduleRsp( zclIncoming_t *pInMsg,
//  199                                                                      zclClosures_DoorLockAppCallbacks_t *pCBs );
//  200 static ZStatus_t zclClosures_ProcessInDoorLockClearHolidayScheduleRsp( zclIncoming_t *pInMsg,
//  201                                                                        zclClosures_DoorLockAppCallbacks_t *pCBs );
//  202 static ZStatus_t zclClosures_ProcessInDoorLockSetUserTypeRsp( zclIncoming_t *pInMsg,
//  203                                                               zclClosures_DoorLockAppCallbacks_t *pCBs );
//  204 static ZStatus_t zclClosures_ProcessInDoorLockGetUserTypeRsp( zclIncoming_t *pInMsg,
//  205                                                               zclClosures_DoorLockAppCallbacks_t *pCBs );
//  206 static ZStatus_t zclClosures_ProcessInDoorLockSetRFIDCodeRsp( zclIncoming_t *pInMsg,
//  207                                                               zclClosures_DoorLockAppCallbacks_t *pCBs );
//  208 static ZStatus_t zclClosures_ProcessInDoorLockGetRFIDCodeRsp( zclIncoming_t *pInMsg,
//  209                                                               zclClosures_DoorLockAppCallbacks_t *pCBs );
//  210 static ZStatus_t zclClosures_ProcessInDoorLockClearRFIDCodeRsp( zclIncoming_t *pInMsg,
//  211                                                                 zclClosures_DoorLockAppCallbacks_t *pCBs );
//  212 static ZStatus_t zclClosures_ProcessInDoorLockClearAllRFIDCodesRsp( zclIncoming_t *pInMsg,
//  213                                                                     zclClosures_DoorLockAppCallbacks_t *pCBs );
//  214 static ZStatus_t zclClosures_ProcessInDoorLockOperationEventNotification( zclIncoming_t *pInMsg,
//  215                                                                           zclClosures_DoorLockAppCallbacks_t *pCBs );
//  216 static ZStatus_t zclClosures_ProcessInDoorLockProgrammingEventNotification( zclIncoming_t *pInMsg,
//  217                                                                             zclClosures_DoorLockAppCallbacks_t *pCBs );
//  218 #endif //ZCL_DOORLOCK
//  219 
//  220 #ifdef ZCL_WINDOWCOVERING
//  221 static zclClosures_WindowCoveringAppCallbacks_t *zclClosures_FindWCCallbacks( uint8 endpoint );
//  222 static ZStatus_t zclClosures_ProcessInWindowCovering( zclIncoming_t *pInMsg,
//  223                                                       zclClosures_WindowCoveringAppCallbacks_t *pCBs );
//  224 #endif //ZCL_WINDOWCOVERING
//  225 
//  226 #ifdef ZCL_DOORLOCK
//  227 /*********************************************************************
//  228  * @fn      zclClosures_RegisterDoorLockCmdCallbacks
//  229  *
//  230  * @brief   Register an applications DoorLock command callbacks
//  231  *
//  232  * @param   endpoint - application's endpoint
//  233  * @param   callbacks - pointer to the callback record.
//  234  *
//  235  * @return  ZMemError if not able to allocate
//  236  */

        RSEG BANKED_CODE:HUGECODE:NOROOT(0)
//  237 ZStatus_t zclClosures_RegisterDoorLockCmdCallbacks( uint8 endpoint, zclClosures_DoorLockAppCallbacks_t *callbacks )
zclClosures_RegisterDoorLockCmdCallbacks:
          CFI Block cfiBlock0 Using cfiCommon0
          CFI Function zclClosures_RegisterDoorLockCmdCallbacks
        CODE
//  238 {
        FUNCALL zclClosures_RegisterDoorLockCmdCallbacks, zcl_registerPlugin
        LOCFRAME ISTACK, 0, STACK
        LOCFRAME PSTACK, 0, STACK
        LOCFRAME XSTACK, 14, STACK
        LOCFRAME IOVERLAY, 0, STATIC
        LOCFRAME DOVERLAY, 0, STATIC
        ARGFRAME ISTACK, 0, STACK
        ARGFRAME PSTACK, 0, STACK
        ARGFRAME XSTACK, 14, STACK
        ARGFRAME IOVERLAY, 0, STATIC
        ARGFRAME DOVERLAY, 0, STATIC
        FUNCALL zclClosures_RegisterDoorLockCmdCallbacks, osal_mem_alloc
        LOCFRAME ISTACK, 0, STACK
        LOCFRAME PSTACK, 0, STACK
        LOCFRAME XSTACK, 12, STACK
        LOCFRAME IOVERLAY, 0, STATIC
        LOCFRAME DOVERLAY, 0, STATIC
        ARGFRAME ISTACK, 0, STACK
        ARGFRAME PSTACK, 0, STACK
        ARGFRAME XSTACK, 12, STACK
        ARGFRAME IOVERLAY, 0, STATIC
        ARGFRAME DOVERLAY, 0, STATIC
        REQUIRE ?V0
        REQUIRE ?V2
        REQUIRE ?V3
        MOV       A,#-0xc
        LCALL     ?BANKED_ENTER_XDATA
          CFI DPH0 load(1, XDATA, add(CFA_XSP16, literal(-1)))
          CFI DPL0 load(1, XDATA, add(CFA_XSP16, literal(-2)))
          CFI ?BRET_EXT load(1, XDATA, add(CFA_XSP16, literal(-3)))
          CFI ?RET_HIGH load(1, XDATA, add(CFA_XSP16, literal(-4)))
          CFI ?RET_LOW load(1, XDATA, add(CFA_XSP16, literal(-5)))
          CFI R7 load(1, XDATA, add(CFA_XSP16, literal(-6)))
          CFI V3 load(1, XDATA, add(CFA_XSP16, literal(-7)))
          CFI V2 load(1, XDATA, add(CFA_XSP16, literal(-8)))
          CFI V1 load(1, XDATA, add(CFA_XSP16, literal(-9)))
          CFI V0 load(1, XDATA, add(CFA_XSP16, literal(-10)))
          CFI VB load(1, XDATA, add(CFA_XSP16, literal(-11)))
          CFI R6 load(1, XDATA, add(CFA_XSP16, literal(-12)))
          CFI CFA_SP SP+0
          CFI CFA_XSP16 add(XSP16, 12)
        ; Saved register size: 12
        ; Auto size: 0
        MOV       ?V0,R1
        MOV       A,R2
        MOV       R6,A
        MOV       A,R3
        MOV       R7,A
//  239   zclClosuresDoorLockCBRec_t *pNewItem;
//  240   zclClosuresDoorLockCBRec_t *pLoop;
//  241 
//  242   // Register as a ZCL Plugin
//  243   if ( !zclDoorLockPluginRegisted )
        MOV       DPTR,#zclDoorLockPluginRegisted
        MOVX      A,@DPTR
        JNZ       ??zclClosures_RegisterDoorLockCmdCallbacks_0
//  244   {
//  245     zcl_registerPlugin( ZCL_CLUSTER_ID_CLOSURES_DOOR_LOCK,
//  246                         ZCL_CLUSTER_ID_CLOSURES_DOOR_LOCK,
//  247                         zclClosures_HdlIncoming );
        ; Setup parameters for call to function zcl_registerPlugin
        MOV       ?V2,#`??zclClosures_HdlIncoming::?relay` & 0xff
        MOV       ?V3,#(`??zclClosures_HdlIncoming::?relay` >> 8) & 0xff
        MOV       R0,#?V2
        LCALL     ?PUSH_XSTACK_I_TWO
          CFI CFA_XSP16 add(XSP16, 14)
        MOV       R4,#0x1
        MOV       R5,#0x1
        MOV       R2,#0x1
        MOV       R3,#0x1
        LCALL     `??zcl_registerPlugin::?relay`; Banked call to: zcl_registerPlugin
        MOV       A,#0x2
        LCALL     ?DEALLOC_XSTACK8
          CFI CFA_XSP16 add(XSP16, 12)
//  248     zclDoorLockPluginRegisted = TRUE;
        MOV       DPTR,#zclDoorLockPluginRegisted
        MOV       A,#0x1
        MOVX      @DPTR,A
//  249   }
//  250 
//  251   // Fill in the new profile list
//  252   pNewItem = zcl_mem_alloc( sizeof( zclClosuresDoorLockCBRec_t ) );
??zclClosures_RegisterDoorLockCmdCallbacks_0:
        ; Setup parameters for call to function osal_mem_alloc
        MOV       R2,#0x5
        MOV       R3,#0x0
        LCALL     `??osal_mem_alloc::?relay`; Banked call to: osal_mem_alloc
        MOV       ?V2,R2
        MOV       ?V3,R3
        MOV       R0,?V2
        MOV       R1,?V3
//  253   if ( pNewItem == NULL )
        MOV       A,R0
        ORL       A,R1
        JNZ       ??zclClosures_RegisterDoorLockCmdCallbacks_1
//  254   {
//  255     return ( ZMemError );
        MOV       R1,#0x10
        SJMP      ??zclClosures_RegisterDoorLockCmdCallbacks_2
//  256   }
//  257 
//  258   pNewItem->next = (zclClosuresDoorLockCBRec_t *)NULL;
??zclClosures_RegisterDoorLockCmdCallbacks_1:
        MOV       DPL,R0
        MOV       DPH,R1
        CLR       A
        MOVX      @DPTR,A
        INC       DPTR
        LCALL     ?Subroutine67 & 0xFFFF
//  259   pNewItem->endpoint = endpoint;
??CrossCallReturnLabel_156:
        MOV       A,?V0
        LCALL     ?Subroutine67 & 0xFFFF
//  260   pNewItem->CBs = callbacks;
??CrossCallReturnLabel_157:
        INC       DPTR
        MOV       A,R6
        MOVX      @DPTR,A
        INC       DPTR
        MOV       A,R7
        MOVX      @DPTR,A
//  261 
//  262   // Find spot in list
//  263   if ( zclClosuresDoorLockCBs == NULL )
        MOV       DPTR,#zclClosuresDoorLockCBs
        LCALL     ?Subroutine37 & 0xFFFF
??CrossCallReturnLabel_83:
        MOV       A,R2
        ORL       A,R3
        MOV       DPTR,#zclClosuresDoorLockCBs
        JZ        ??zclClosures_RegisterDoorLockCmdCallbacks_3
//  264   {
//  265     zclClosuresDoorLockCBs = pNewItem;
//  266   }
//  267   else
//  268   {
//  269     // Look for end of list
//  270     pLoop = zclClosuresDoorLockCBs;
        LCALL     ?Subroutine99 & 0xFFFF
??CrossCallReturnLabel_348:
        SJMP      ??zclClosures_RegisterDoorLockCmdCallbacks_4
//  271     while ( pLoop->next != NULL )
//  272     {
//  273       pLoop = pLoop->next;
??zclClosures_RegisterDoorLockCmdCallbacks_5:
        MOV       A,R2
        MOV       R4,A
        MOV       A,R3
??zclClosures_RegisterDoorLockCmdCallbacks_4:
        MOV       R5,A
//  274     }
        MOV       DPL,R4
        MOV       DPH,R5
        LCALL     ?Subroutine37 & 0xFFFF
??CrossCallReturnLabel_84:
        MOV       A,R2
        ORL       A,R3
        JNZ       ??zclClosures_RegisterDoorLockCmdCallbacks_5
//  275 
//  276     // Put new item at end of list
//  277     pLoop->next = pNewItem;
        MOV       DPL,R4
        MOV       DPH,R5
??zclClosures_RegisterDoorLockCmdCallbacks_3:
        MOV       A,R0
//  278   }
        LCALL     ??Subroutine129_0 & 0xFFFF
//  279   return ( ZSuccess );
??CrossCallReturnLabel_283:
        MOV       R1,#0x0
??zclClosures_RegisterDoorLockCmdCallbacks_2:
        LJMP      ??Subroutine164_0 & 0xFFFF
//  280 }
          CFI EndBlock cfiBlock0
//  281 
//  282 /*********************************************************************
//  283  * @fn      zclClosures_FindDoorLockCallbacks
//  284  *
//  285  * @brief   Find the DoorLock callbacks for an endpoint
//  286  *
//  287  * @param   endpoint
//  288  *
//  289  * @return  pointer to the callbacks
//  290  */
//  291 static zclClosures_DoorLockAppCallbacks_t *zclClosures_FindDoorLockCallbacks( uint8 endpoint )
//  292 {
//  293   zclClosuresDoorLockCBRec_t *pCBs;
//  294 
//  295   pCBs = zclClosuresDoorLockCBs;
//  296   while ( pCBs )
//  297   {
//  298     if ( pCBs->endpoint == endpoint )
//  299     {
//  300       return ( pCBs->CBs );
//  301     }
//  302     pCBs = pCBs->next;
//  303   }
//  304   return ( (zclClosures_DoorLockAppCallbacks_t *)NULL );
//  305 }
//  306 #endif // ZCL_DOORLOCK
//  307 
//  308 #ifdef ZCL_WINDOWCOVERING
//  309 /*********************************************************************
//  310  * @fn      zclClosures_RegisterWindowCoveringCmdCallbacks
//  311  *
//  312  * @brief   Register an applications Window Covering command callbacks
//  313  *
//  314  * @param   endpoint - application's endpoint
//  315  * @param   callbacks - pointer to the callback record.
//  316  *
//  317  * @return  ZMemError if not able to allocate
//  318  */
//  319 ZStatus_t zclClosures_RegisterWindowCoveringCmdCallbacks( uint8 endpoint, zclClosures_WindowCoveringAppCallbacks_t *callbacks )
//  320 {
//  321   zclClosuresWindowCoveringCBRec_t *pNewItem;
//  322   zclClosuresWindowCoveringCBRec_t *pLoop;
//  323 
//  324   // Register as a ZCL Plugin
//  325   if ( !zclWindowCoveringPluginRegisted )
//  326   {
//  327     zcl_registerPlugin( ZCL_CLUSTER_ID_CLOSURES_WINDOW_COVERING,
//  328                         ZCL_CLUSTER_ID_CLOSURES_WINDOW_COVERING,
//  329                         zclClosures_HdlIncoming );
//  330     zclWindowCoveringPluginRegisted = TRUE;
//  331   }
//  332 
//  333   // Fill in the new profile list
//  334   pNewItem = zcl_mem_alloc( sizeof( zclClosuresWindowCoveringCBRec_t ) );
//  335   if ( pNewItem == NULL )
//  336   {
//  337     return ( ZMemError );
//  338   }
//  339 
//  340   pNewItem->next = (zclClosuresWindowCoveringCBRec_t *)NULL;
//  341   pNewItem->endpoint = endpoint;
//  342   pNewItem->CBs = callbacks;
//  343 
//  344   // Find spot in list
//  345   if ( zclClosuresWindowCoveringCBs == NULL )
//  346   {
//  347     zclClosuresWindowCoveringCBs = pNewItem;
//  348   }
//  349   else
//  350   {
//  351     // Look for end of list
//  352     pLoop = zclClosuresWindowCoveringCBs;
//  353     while ( pLoop->next != NULL )
//  354     {
//  355       pLoop = pLoop->next;
//  356     }
//  357 
//  358     // Put new item at end of list
//  359     pLoop->next = pNewItem;
//  360   }
//  361   return ( ZSuccess );
//  362 }
//  363 
//  364 /*********************************************************************
//  365  * @fn      zclClosures_FindWCCallbacks
//  366  *
//  367  * @brief   Find the Window Covering callbacks for an endpoint
//  368  *
//  369  * @param   endpoint
//  370  *
//  371  * @return  pointer to the callbacks
//  372  */
//  373 static zclClosures_WindowCoveringAppCallbacks_t *zclClosures_FindWCCallbacks( uint8 endpoint )
//  374 {
//  375   zclClosuresWindowCoveringCBRec_t *pCBs;
//  376 
//  377   pCBs = zclClosuresWindowCoveringCBs;
//  378   while ( pCBs )
//  379   {
//  380     if ( pCBs->endpoint == endpoint )
//  381     {
//  382       return ( pCBs->CBs );
//  383     }
//  384     pCBs = pCBs->next;
//  385   }
//  386   return ( (zclClosures_WindowCoveringAppCallbacks_t *)NULL );
//  387 }
//  388 #endif // ZCL_WINDOWCOVERING
//  389 
//  390 #if defined(ZCL_DOORLOCK) || defined(ZCL_WINDOWCOVERING)
//  391 /*********************************************************************
//  392  * @fn      zclClosures_HdlIncoming
//  393  *
//  394  * @brief   Callback from ZCL to process incoming Commands specific
//  395  *          to this cluster library or Profile commands for attributes
//  396  *          that aren't in the attribute list
//  397  *
//  398  * @param   pInMsg - pointer to the incoming message
//  399  * @param   logicalClusterID
//  400  *
//  401  * @return  ZStatus_t
//  402  */

        RSEG BANKED_CODE:HUGECODE:NOROOT(0)
//  403 static ZStatus_t zclClosures_HdlIncoming( zclIncoming_t *pInMsg )
zclClosures_HdlIncoming:
          CFI Block cfiBlock1 Using cfiCommon0
          CFI Function zclClosures_HdlIncoming
        CODE
//  404 {
        FUNCALL zclClosures_HdlIncoming, zclClosures_ProcessInDoorLockCmds
        LOCFRAME ISTACK, 0, STACK
        LOCFRAME PSTACK, 0, STACK
        LOCFRAME XSTACK, 12, STACK
        LOCFRAME IOVERLAY, 0, STATIC
        LOCFRAME DOVERLAY, 0, STATIC
        ARGFRAME ISTACK, 0, STACK
        ARGFRAME PSTACK, 0, STACK
        ARGFRAME XSTACK, 12, STACK
        ARGFRAME IOVERLAY, 0, STATIC
        ARGFRAME DOVERLAY, 0, STATIC
        REQUIRE ?V0
        REQUIRE ?V2
        REQUIRE ?V3
        MOV       A,#-0xc
        LCALL     ?BANKED_ENTER_XDATA
          CFI DPH0 load(1, XDATA, add(CFA_XSP16, literal(-1)))
          CFI DPL0 load(1, XDATA, add(CFA_XSP16, literal(-2)))
          CFI ?BRET_EXT load(1, XDATA, add(CFA_XSP16, literal(-3)))
          CFI ?RET_HIGH load(1, XDATA, add(CFA_XSP16, literal(-4)))
          CFI ?RET_LOW load(1, XDATA, add(CFA_XSP16, literal(-5)))
          CFI R7 load(1, XDATA, add(CFA_XSP16, literal(-6)))
          CFI V3 load(1, XDATA, add(CFA_XSP16, literal(-7)))
          CFI V2 load(1, XDATA, add(CFA_XSP16, literal(-8)))
          CFI V1 load(1, XDATA, add(CFA_XSP16, literal(-9)))
          CFI V0 load(1, XDATA, add(CFA_XSP16, literal(-10)))
          CFI VB load(1, XDATA, add(CFA_XSP16, literal(-11)))
          CFI R6 load(1, XDATA, add(CFA_XSP16, literal(-12)))
          CFI CFA_SP SP+0
          CFI CFA_XSP16 add(XSP16, 12)
        ; Saved register size: 12
        ; Auto size: 0
//  405   ZStatus_t stat = ZSuccess;
//  406 
//  407 #if defined ( INTER_PAN )
//  408   if ( StubAPS_InterPan( pInMsg->msg->srcAddr.panId, pInMsg->msg->srcAddr.endPoint ) )
//  409     return ( stat ); // Cluster not supported thru Inter-PAN
//  410 #endif
//  411   if ( zcl_ClusterCmd( pInMsg->hdr.fc.type ) )
        MOV       DPL,R2
        MOV       DPH,R3
        INC       DPTR
        INC       DPTR
        MOVX      A,@DPTR
        MOV       R0,A
        ANL       A,#0x3
        XRL       A,#0x1
        JNZ       ??zclClosures_HdlIncoming_0
//  412   {
//  413     // Is this a manufacturer specific command?
//  414     if ( pInMsg->hdr.fc.manuSpecific == 0 )
        MOV       A,R0
        ANL       A,#0x4
        JNZ       ??zclClosures_HdlIncoming_0
//  415     {
//  416       stat = zclClosures_HdlInSpecificCommands( pInMsg );
        MOV       DPL,R2
        MOV       DPH,R3
        LCALL     ?Subroutine97 & 0xFFFF
//  417     }
//  418     else
//  419     {
//  420       // We don't support any manufacturer specific command.
//  421       stat = ZFailure;
//  422     }
//  423   }
??CrossCallReturnLabel_223:
        ADD       A,#0x14
        MOV       DPL,A
        CLR       A
        ADDC      A,R7
        MOV       DPH,A
        MOVX      A,@DPTR
        MOV       R4,A
        MOV       DPTR,#zclClosuresDoorLockCBs
??zclClosures_HdlIncoming_1:
        LCALL     ??Subroutine144_0 & 0xFFFF
??CrossCallReturnLabel_315:
        JZ        ??zclClosures_HdlIncoming_0
        MOV       DPL,R0
        MOV       DPH,R1
        INC       DPTR
        INC       DPTR
        MOVX      A,@DPTR
        XRL       A,R4
        MOV       DPL,R0
        MOV       DPH,R1
        JNZ       ??zclClosures_HdlIncoming_1
        INC       DPTR
        INC       DPTR
        INC       DPTR
        LCALL     ??Subroutine128_0 & 0xFFFF
??CrossCallReturnLabel_276:
        JNZ       ??zclClosures_HdlIncoming_2
??zclClosures_HdlIncoming_0:
        MOV       R1,#0x1
        SJMP      ??zclClosures_HdlIncoming_3
??zclClosures_HdlIncoming_2:
        MOV       DPL,R6
        MOV       DPH,R7
        INC       DPTR
        INC       DPTR
        INC       DPTR
        INC       DPTR
        MOVX      A,@DPTR
        MOV       ?V2,A
        INC       DPTR
        MOVX      A,@DPTR
        MOV       ?V3,A
        MOV       R0,#?V2
        LCALL     ?US_SWITCH_DENSE
`?<Jumptable for zclClosures_HdlIncoming>_0`:
        DATA
        DATA16
        DATA
        DATA16
        DW        257
        DATA
        DATA8
        DATA
        DATA8
        DB        1
        DATA
        DATA16
        DATA
        DATA16
        DW        ??zclClosures_HdlIncoming_4
        DATA
        DATA16
        DATA
        DATA16
        DW        ??zclClosures_HdlIncoming_5
        DATA
        DATA16
        DATA
        DATA16
        DW        ??zclClosures_HdlIncoming_6
        CODE
??zclClosures_HdlIncoming_5:
        ; Setup parameters for call to function zclClosures_ProcessInDoorLockCmds
        LCALL     `??zclClosures_ProcessInDoorLockCmds::?relay`; Banked call to: zclClosures_ProcessInDoorLockCmds
        MOV       A,R1
        MOV       ?V0,A
        SJMP      ??zclClosures_HdlIncoming_6
??zclClosures_HdlIncoming_4:
        MOV       ?V0,#0x1
??zclClosures_HdlIncoming_6:
        MOV       R1,?V0
//  424   else
//  425   {
//  426     // Handle all the normal (Read, Write...) commands -- should never get here
//  427     stat = ZFailure;
//  428   }
//  429   return ( stat );
??zclClosures_HdlIncoming_3:
        LJMP      ??Subroutine164_0 & 0xFFFF
//  430 }
          CFI EndBlock cfiBlock1
//  431 
//  432 /*********************************************************************
//  433  * @fn      zclClosures_HdlInSpecificCommands
//  434  *
//  435  * @brief   Callback from ZCL to process incoming Commands specific
//  436  *          to this cluster library
//  437 
//  438  * @param   pInMsg - pointer to the incoming message
//  439  *
//  440  * @return  ZStatus_t
//  441  */
//  442 static ZStatus_t zclClosures_HdlInSpecificCommands( zclIncoming_t *pInMsg )
//  443 {
//  444   ZStatus_t stat;
//  445 #ifdef ZCL_DOORLOCK
//  446   zclClosures_DoorLockAppCallbacks_t *pDLCBs;
//  447 #endif
//  448 
//  449 #ifdef ZCL_WINDOWCOVERING
//  450   zclClosures_WindowCoveringAppCallbacks_t *pWCCBs;
//  451 #endif
//  452 
//  453 #ifdef ZCL_DOORLOCK
//  454   // make sure endpoint exists
//  455   pDLCBs = zclClosures_FindDoorLockCallbacks( pInMsg->msg->endPoint );
//  456   if ( pDLCBs == NULL )
//  457   {
//  458     return ( ZFailure );
//  459   }
//  460 #endif
//  461 
//  462 #ifdef ZCL_WINDOWCOVERING
//  463   // make sure endpoint exists
//  464   pWCCBs = zclClosures_FindWCCallbacks( pInMsg->msg->endPoint );
//  465   if ( pWCCBs == NULL )
//  466   {
//  467     return ( ZFailure );
//  468   }
//  469 #endif
//  470 
//  471   switch ( pInMsg->msg->clusterId )
//  472   {
//  473     case ZCL_CLUSTER_ID_CLOSURES_DOOR_LOCK:
//  474 #ifdef ZCL_DOORLOCK
//  475       stat = zclClosures_ProcessInDoorLockCmds( pInMsg, pDLCBs );
//  476 #endif //ZCL_DOORLOCK
//  477       break;
//  478 
//  479     case ZCL_CLUSTER_ID_CLOSURES_WINDOW_COVERING:
//  480 #ifdef ZCL_WINDOWCOVERING
//  481       stat = zclClosures_ProcessInWindowCovering( pInMsg, pWCCBs );
//  482 #endif //ZCL_WINDOWCOVERING
//  483       break;
//  484 
//  485     default:
//  486       stat = ZFailure;
//  487       break;
//  488   }
//  489 
//  490   return ( stat );
//  491 }
//  492 #endif // defined(ZCL_DOORLOCK) || defined(ZCL_WINDOWCOVERING)
//  493 
//  494 #ifdef ZCL_DOORLOCK
//  495 /*********************************************************************
//  496  * @fn      zclClosures_ProcessInDoorLockCmds
//  497  *
//  498  * @brief   Process in the received DoorLock Command.
//  499  *
//  500  * @param   pInMsg - pointer to the incoming message
//  501  * @param   pCBs - pointer to the Application callback functions
//  502  *
//  503  * @return  ZStatus_t
//  504  */

        RSEG BANKED_CODE:HUGECODE:NOROOT(0)
//  505 static ZStatus_t zclClosures_ProcessInDoorLockCmds( zclIncoming_t *pInMsg,
zclClosures_ProcessInDoorLockCmds:
          CFI Block cfiBlock2 Using cfiCommon0
          CFI Function zclClosures_ProcessInDoorLockCmds
        CODE
//  506                                                     zclClosures_DoorLockAppCallbacks_t *pCBs )
//  507 {
        FUNCALL zclClosures_ProcessInDoorLockCmds, zclClosures_ProcessInDoorLock
        LOCFRAME ISTACK, 0, STACK
        LOCFRAME PSTACK, 0, STACK
        LOCFRAME XSTACK, 16, STACK
        LOCFRAME IOVERLAY, 0, STATIC
        LOCFRAME DOVERLAY, 0, STATIC
        ARGFRAME ISTACK, 0, STACK
        ARGFRAME PSTACK, 0, STACK
        ARGFRAME XSTACK, 16, STACK
        ARGFRAME IOVERLAY, 0, STATIC
        ARGFRAME DOVERLAY, 0, STATIC
        FUNCALL zclClosures_ProcessInDoorLockCmds, zclClosures_ProcessInDoorLockUnlockWithTimeout
        LOCFRAME ISTACK, 0, STACK
        LOCFRAME PSTACK, 0, STACK
        LOCFRAME XSTACK, 16, STACK
        LOCFRAME IOVERLAY, 0, STATIC
        LOCFRAME DOVERLAY, 0, STATIC
        ARGFRAME ISTACK, 0, STACK
        ARGFRAME PSTACK, 0, STACK
        ARGFRAME XSTACK, 16, STACK
        ARGFRAME IOVERLAY, 0, STATIC
        ARGFRAME DOVERLAY, 0, STATIC
        FUNCALL zclClosures_ProcessInDoorLockCmds, zclClosures_ProcessInDoorLockSetPINCode
        LOCFRAME ISTACK, 0, STACK
        LOCFRAME PSTACK, 0, STACK
        LOCFRAME XSTACK, 16, STACK
        LOCFRAME IOVERLAY, 0, STATIC
        LOCFRAME DOVERLAY, 0, STATIC
        ARGFRAME ISTACK, 0, STACK
        ARGFRAME PSTACK, 0, STACK
        ARGFRAME XSTACK, 16, STACK
        ARGFRAME IOVERLAY, 0, STATIC
        ARGFRAME DOVERLAY, 0, STATIC
        FUNCALL zclClosures_ProcessInDoorLockCmds, zclClosures_ProcessInDoorLockSetWeekDaySchedule
        LOCFRAME ISTACK, 0, STACK
        LOCFRAME PSTACK, 0, STACK
        LOCFRAME XSTACK, 16, STACK
        LOCFRAME IOVERLAY, 0, STATIC
        LOCFRAME DOVERLAY, 0, STATIC
        ARGFRAME ISTACK, 0, STACK
        ARGFRAME PSTACK, 0, STACK
        ARGFRAME XSTACK, 16, STACK
        ARGFRAME IOVERLAY, 0, STATIC
        ARGFRAME DOVERLAY, 0, STATIC
        FUNCALL zclClosures_ProcessInDoorLockCmds, zclClosures_ProcessInDoorLockSetYearDaySchedule
        LOCFRAME ISTACK, 0, STACK
        LOCFRAME PSTACK, 0, STACK
        LOCFRAME XSTACK, 16, STACK
        LOCFRAME IOVERLAY, 0, STATIC
        LOCFRAME DOVERLAY, 0, STATIC
        ARGFRAME ISTACK, 0, STACK
        ARGFRAME PSTACK, 0, STACK
        ARGFRAME XSTACK, 16, STACK
        ARGFRAME IOVERLAY, 0, STATIC
        ARGFRAME DOVERLAY, 0, STATIC
        FUNCALL zclClosures_ProcessInDoorLockCmds, zclClosures_ProcessInDoorLockSetHolidaySchedule
        LOCFRAME ISTACK, 0, STACK
        LOCFRAME PSTACK, 0, STACK
        LOCFRAME XSTACK, 16, STACK
        LOCFRAME IOVERLAY, 0, STATIC
        LOCFRAME DOVERLAY, 0, STATIC
        ARGFRAME ISTACK, 0, STACK
        ARGFRAME PSTACK, 0, STACK
        ARGFRAME XSTACK, 16, STACK
        ARGFRAME IOVERLAY, 0, STATIC
        ARGFRAME DOVERLAY, 0, STATIC
        FUNCALL zclClosures_ProcessInDoorLockCmds, zclClosures_ProcessInDoorLockSetRFIDCode
        LOCFRAME ISTACK, 0, STACK
        LOCFRAME PSTACK, 0, STACK
        LOCFRAME XSTACK, 16, STACK
        LOCFRAME IOVERLAY, 0, STATIC
        LOCFRAME DOVERLAY, 0, STATIC
        ARGFRAME ISTACK, 0, STACK
        ARGFRAME PSTACK, 0, STACK
        ARGFRAME XSTACK, 16, STACK
        ARGFRAME IOVERLAY, 0, STATIC
        ARGFRAME DOVERLAY, 0, STATIC
        FUNCALL zclClosures_ProcessInDoorLockCmds, zclClosures_ProcessInDoorLock
        LOCFRAME ISTACK, 0, STACK
        LOCFRAME PSTACK, 0, STACK
        LOCFRAME XSTACK, 16, STACK
        LOCFRAME IOVERLAY, 0, STATIC
        LOCFRAME DOVERLAY, 0, STATIC
        ARGFRAME ISTACK, 0, STACK
        ARGFRAME PSTACK, 0, STACK
        ARGFRAME XSTACK, 16, STACK
        ARGFRAME IOVERLAY, 0, STATIC
        ARGFRAME DOVERLAY, 0, STATIC
        FUNCALL zclClosures_ProcessInDoorLockCmds, zclClosures_ProcessInDoorLockGetLogRecordRsp
        LOCFRAME ISTACK, 0, STACK
        LOCFRAME PSTACK, 0, STACK
        LOCFRAME XSTACK, 16, STACK
        LOCFRAME IOVERLAY, 0, STATIC
        LOCFRAME DOVERLAY, 0, STATIC
        ARGFRAME ISTACK, 0, STACK
        ARGFRAME PSTACK, 0, STACK
        ARGFRAME XSTACK, 16, STACK
        ARGFRAME IOVERLAY, 0, STATIC
        ARGFRAME DOVERLAY, 0, STATIC
        FUNCALL zclClosures_ProcessInDoorLockCmds, zclClosures_ProcessInDoorLockGetPINCodeRsp
        LOCFRAME ISTACK, 0, STACK
        LOCFRAME PSTACK, 0, STACK
        LOCFRAME XSTACK, 16, STACK
        LOCFRAME IOVERLAY, 0, STATIC
        LOCFRAME DOVERLAY, 0, STATIC
        ARGFRAME ISTACK, 0, STACK
        ARGFRAME PSTACK, 0, STACK
        ARGFRAME XSTACK, 16, STACK
        ARGFRAME IOVERLAY, 0, STATIC
        ARGFRAME DOVERLAY, 0, STATIC
        FUNCALL zclClosures_ProcessInDoorLockCmds, zclClosures_ProcessInDoorLockGetWeekDayScheduleRsp
        LOCFRAME ISTACK, 0, STACK
        LOCFRAME PSTACK, 0, STACK
        LOCFRAME XSTACK, 16, STACK
        LOCFRAME IOVERLAY, 0, STATIC
        LOCFRAME DOVERLAY, 0, STATIC
        ARGFRAME ISTACK, 0, STACK
        ARGFRAME PSTACK, 0, STACK
        ARGFRAME XSTACK, 16, STACK
        ARGFRAME IOVERLAY, 0, STATIC
        ARGFRAME DOVERLAY, 0, STATIC
        FUNCALL zclClosures_ProcessInDoorLockCmds, zclClosures_ProcessInDoorLockGetYearDayScheduleRsp
        LOCFRAME ISTACK, 0, STACK
        LOCFRAME PSTACK, 0, STACK
        LOCFRAME XSTACK, 16, STACK
        LOCFRAME IOVERLAY, 0, STATIC
        LOCFRAME DOVERLAY, 0, STATIC
        ARGFRAME ISTACK, 0, STACK
        ARGFRAME PSTACK, 0, STACK
        ARGFRAME XSTACK, 16, STACK
        ARGFRAME IOVERLAY, 0, STATIC
        ARGFRAME DOVERLAY, 0, STATIC
        FUNCALL zclClosures_ProcessInDoorLockCmds, zclClosures_ProcessInDoorLockGetHolidayScheduleRsp
        LOCFRAME ISTACK, 0, STACK
        LOCFRAME PSTACK, 0, STACK
        LOCFRAME XSTACK, 16, STACK
        LOCFRAME IOVERLAY, 0, STATIC
        LOCFRAME DOVERLAY, 0, STATIC
        ARGFRAME ISTACK, 0, STACK
        ARGFRAME PSTACK, 0, STACK
        ARGFRAME XSTACK, 16, STACK
        ARGFRAME IOVERLAY, 0, STATIC
        ARGFRAME DOVERLAY, 0, STATIC
        FUNCALL zclClosures_ProcessInDoorLockCmds, zclClosures_ProcessInDoorLockGetRFIDCodeRsp
        LOCFRAME ISTACK, 0, STACK
        LOCFRAME PSTACK, 0, STACK
        LOCFRAME XSTACK, 16, STACK
        LOCFRAME IOVERLAY, 0, STATIC
        LOCFRAME DOVERLAY, 0, STATIC
        ARGFRAME ISTACK, 0, STACK
        ARGFRAME PSTACK, 0, STACK
        ARGFRAME XSTACK, 16, STACK
        ARGFRAME IOVERLAY, 0, STATIC
        ARGFRAME DOVERLAY, 0, STATIC
        FUNCALL zclClosures_ProcessInDoorLockCmds, zclClosures_ProcessInDoorLockOperationEventNotification
        LOCFRAME ISTACK, 0, STACK
        LOCFRAME PSTACK, 0, STACK
        LOCFRAME XSTACK, 16, STACK
        LOCFRAME IOVERLAY, 0, STATIC
        LOCFRAME DOVERLAY, 0, STATIC
        ARGFRAME ISTACK, 0, STACK
        ARGFRAME PSTACK, 0, STACK
        ARGFRAME XSTACK, 16, STACK
        ARGFRAME IOVERLAY, 0, STATIC
        ARGFRAME DOVERLAY, 0, STATIC
        FUNCALL zclClosures_ProcessInDoorLockCmds, zclClosures_ProcessInDoorLockProgrammingEventNotification
        LOCFRAME ISTACK, 0, STACK
        LOCFRAME PSTACK, 0, STACK
        LOCFRAME XSTACK, 16, STACK
        LOCFRAME IOVERLAY, 0, STATIC
        LOCFRAME DOVERLAY, 0, STATIC
        ARGFRAME ISTACK, 0, STACK
        ARGFRAME PSTACK, 0, STACK
        ARGFRAME XSTACK, 16, STACK
        ARGFRAME IOVERLAY, 0, STATIC
        ARGFRAME DOVERLAY, 0, STATIC
        REQUIRE ?V0
        REQUIRE ?V1
        MOV       A,#-0xa
        LCALL     ?BANKED_ENTER_XDATA
          CFI DPH0 load(1, XDATA, add(CFA_XSP16, literal(-1)))
          CFI DPL0 load(1, XDATA, add(CFA_XSP16, literal(-2)))
          CFI ?BRET_EXT load(1, XDATA, add(CFA_XSP16, literal(-3)))
          CFI ?RET_HIGH load(1, XDATA, add(CFA_XSP16, literal(-4)))
          CFI ?RET_LOW load(1, XDATA, add(CFA_XSP16, literal(-5)))
          CFI R7 load(1, XDATA, add(CFA_XSP16, literal(-6)))
          CFI V1 load(1, XDATA, add(CFA_XSP16, literal(-7)))
          CFI V0 load(1, XDATA, add(CFA_XSP16, literal(-8)))
          CFI VB load(1, XDATA, add(CFA_XSP16, literal(-9)))
          CFI R6 load(1, XDATA, add(CFA_XSP16, literal(-10)))
          CFI CFA_SP SP+0
          CFI CFA_XSP16 add(XSP16, 10)
        ; Saved register size: 10
        ; Auto size: 6
        MOV       A,#-0x6
        LCALL     ?ALLOC_XSTACK8
          CFI CFA_XSP16 add(XSP16, 16)
//  508   ZStatus_t stat;
//  509 
//  510   // Client-to-Server
//  511   if ( zcl_ServerCmd( pInMsg->hdr.fc.direction ) )
        MOV       A,R2
        ADD       A,#0x8
        MOV       R0,A
        CLR       A
        ADDC      A,R3
        MOV       R1,A
        MOV       ?V0,R0
        MOV       ?V1,R1
        MOV       DPL,R2
        MOV       DPH,R3
        INC       DPTR
        INC       DPTR
        MOVX      A,@DPTR
        ANL       A,#0x8
        MOV       DPL,R2
        MOV       DPH,R3
        INC       DPTR
        INC       DPTR
        INC       DPTR
        INC       DPTR
        INC       DPTR
        INC       DPTR
        INC       DPTR
        JZ        $+5
        LJMP      ??zclClosures_ProcessInDoorLockCmds_0 & 0xFFFF
//  512   {
//  513     switch(pInMsg->hdr.commandID)
        MOVX      A,@DPTR
        LCALL     ?UC_SWITCH_DENSE
`?<Jumptable for zclClosures_ProcessInDoorLockC_0`:
        DATA
        DATA8
        DATA
        DATA8
        DB        0
        DATA
        DATA8
        DATA
        DATA8
        DB        25
        DATA
        DATA16
        DATA
        DATA16
        DW        ??zclClosures_ProcessInDoorLockCmds_1
        DATA
        DATA16
        DATA
        DATA16
        DW        ??zclClosures_ProcessInDoorLockCmds_2
        DATA
        DATA16
        DATA
        DATA16
        DW        ??zclClosures_ProcessInDoorLockCmds_2
        DATA
        DATA16
        DATA
        DATA16
        DW        ??zclClosures_ProcessInDoorLockCmds_2
        DATA
        DATA16
        DATA
        DATA16
        DW        ??zclClosures_ProcessInDoorLockCmds_3
        DATA
        DATA16
        DATA
        DATA16
        DW        ??zclClosures_ProcessInDoorLockCmds_4
        DATA
        DATA16
        DATA
        DATA16
        DW        ??zclClosures_ProcessInDoorLockCmds_5
        DATA
        DATA16
        DATA
        DATA16
        DW        ??zclClosures_ProcessInDoorLockCmds_6
        DATA
        DATA16
        DATA
        DATA16
        DW        ??zclClosures_ProcessInDoorLockCmds_7
        DATA
        DATA16
        DATA
        DATA16
        DW        ??zclClosures_ProcessInDoorLockCmds_8
        DATA
        DATA16
        DATA
        DATA16
        DW        ??zclClosures_ProcessInDoorLockCmds_9
        DATA
        DATA16
        DATA
        DATA16
        DW        ??zclClosures_ProcessInDoorLockCmds_10
        DATA
        DATA16
        DATA
        DATA16
        DW        ??zclClosures_ProcessInDoorLockCmds_11
        DATA
        DATA16
        DATA
        DATA16
        DW        ??zclClosures_ProcessInDoorLockCmds_12
        DATA
        DATA16
        DATA
        DATA16
        DW        ??zclClosures_ProcessInDoorLockCmds_13
        DATA
        DATA16
        DATA
        DATA16
        DW        ??zclClosures_ProcessInDoorLockCmds_14
        DATA
        DATA16
        DATA
        DATA16
        DW        ??zclClosures_ProcessInDoorLockCmds_15
        DATA
        DATA16
        DATA
        DATA16
        DW        ??zclClosures_ProcessInDoorLockCmds_16
        DATA
        DATA16
        DATA
        DATA16
        DW        ??zclClosures_ProcessInDoorLockCmds_17
        DATA
        DATA16
        DATA
        DATA16
        DW        ??zclClosures_ProcessInDoorLockCmds_18
        DATA
        DATA16
        DATA
        DATA16
        DW        ??zclClosures_ProcessInDoorLockCmds_19
        DATA
        DATA16
        DATA
        DATA16
        DW        ??zclClosures_ProcessInDoorLockCmds_20
        DATA
        DATA16
        DATA
        DATA16
        DW        ??zclClosures_ProcessInDoorLockCmds_21
        DATA
        DATA16
        DATA
        DATA16
        DW        ??zclClosures_ProcessInDoorLockCmds_22
        DATA
        DATA16
        DATA
        DATA16
        DW        ??zclClosures_ProcessInDoorLockCmds_23
        DATA
        DATA16
        DATA
        DATA16
        DW        ??zclClosures_ProcessInDoorLockCmds_24
        DATA
        DATA16
        DATA
        DATA16
        DW        ??zclClosures_ProcessInDoorLockCmds_25
        CODE
//  514     {
//  515       case COMMAND_CLOSURES_LOCK_DOOR:
//  516       case COMMAND_CLOSURES_UNLOCK_DOOR:
//  517       case COMMAND_CLOSURES_TOGGLE_DOOR:
//  518         stat = zclClosures_ProcessInDoorLock( pInMsg, pCBs );
//  519         break;
//  520 
//  521       case COMMAND_CLOSURES_UNLOCK_WITH_TIMEOUT:
//  522         stat = zclClosures_ProcessInDoorLockUnlockWithTimeout( pInMsg, pCBs );
??zclClosures_ProcessInDoorLockCmds_3:
        ; Setup parameters for call to function zclClosures_ProcessInDoorLockUnlockWithTimeout
        LCALL     ??zclClosures_ProcessInDoorLockUnlockWithTimeou; Banked call to: zclClosures_ProcessInDoorLockUnlockWithTimeout
        LJMP      ??zclClosures_ProcessInDoorLockCmds_26 & 0xFFFF
//  523         break;
//  524 
//  525       case COMMAND_CLOSURES_GET_LOG_RECORD:
//  526         stat = zclClosures_ProcessInDoorLockGetLogRecord( pInMsg, pCBs );
??zclClosures_ProcessInDoorLockCmds_4:
        MOV       DPL,R4
        MOV       DPH,R5
        SJMP      ??zclClosures_ProcessInDoorLockCmds_27
//  527         break;
//  528 
//  529       case COMMAND_CLOSURES_SET_PIN_CODE:
//  530         stat = zclClosures_ProcessInDoorLockSetPINCode( pInMsg, pCBs );
??zclClosures_ProcessInDoorLockCmds_5:
        ; Setup parameters for call to function zclClosures_ProcessInDoorLockSetPINCode
        LCALL     `??zclClosures_ProcessInDoorLockSetPINCode::?rel`; Banked call to: zclClosures_ProcessInDoorLockSetPINCode
        LJMP      ??zclClosures_ProcessInDoorLockCmds_26 & 0xFFFF
//  531         break;
//  532 
//  533       case COMMAND_CLOSURES_GET_PIN_CODE:
//  534         stat = zclClosures_ProcessInDoorLockGetPINCode( pInMsg, pCBs );
??zclClosures_ProcessInDoorLockCmds_6:
        MOV       DPL,R4
        MOV       DPH,R5
        INC       DPTR
        INC       DPTR
        INC       DPTR
        INC       DPTR
??zclClosures_ProcessInDoorLockCmds_27:
        INC       DPTR
        INC       DPTR
        INC       DPTR
        INC       DPTR
        INC       DPTR
        INC       DPTR
        LJMP      ??zclClosures_ProcessInDoorLockCmds_28 & 0xFFFF
//  535         break;
//  536 
//  537       case COMMAND_CLOSURES_CLEAR_PIN_CODE:
//  538         stat = zclClosures_ProcessInDoorLockClearPINCode( pInMsg, pCBs );
??zclClosures_ProcessInDoorLockCmds_7:
        MOV       A,R4
        ADD       A,#0xc
        LJMP      ??zclClosures_ProcessInDoorLockCmds_29 & 0xFFFF
//  539         break;
//  540 
//  541       case COMMAND_CLOSURES_CLEAR_ALL_PIN_CODES:
//  542         stat = zclClosures_ProcessInDoorLockClearAllPINCodes( pInMsg, pCBs );
??zclClosures_ProcessInDoorLockCmds_8:
        MOV       A,R4
        ADD       A,#0xe
        LJMP      ??zclClosures_ProcessInDoorLockCmds_30 & 0xFFFF
//  543         break;
//  544 
//  545       case COMMAND_CLOSURES_SET_USER_STATUS:
//  546         stat = zclClosures_ProcessInDoorLockSetUserStatus( pInMsg, pCBs );
??zclClosures_ProcessInDoorLockCmds_9:
        MOV       A,R4
        ADD       A,#0x10
        LJMP      ??zclClosures_ProcessInDoorLockCmds_31 & 0xFFFF
//  547         break;
//  548 
//  549       case COMMAND_CLOSURES_GET_USER_STATUS:
//  550         stat = zclClosures_ProcessInDoorLockGetUserStatus( pInMsg, pCBs );
??zclClosures_ProcessInDoorLockCmds_10:
        MOV       A,R4
        ADD       A,#0x12
        LJMP      ??zclClosures_ProcessInDoorLockCmds_29 & 0xFFFF
//  551         break;
//  552 
//  553       case COMMAND_CLOSURES_SET_WEEK_DAY_SCHEDULE:
//  554         stat = zclClosures_ProcessInDoorLockSetWeekDaySchedule( pInMsg, pCBs );
??zclClosures_ProcessInDoorLockCmds_11:
        ; Setup parameters for call to function zclClosures_ProcessInDoorLockSetWeekDaySchedule
        LCALL     ??zclClosures_ProcessInDoorLockSetWeekDaySchedu; Banked call to: zclClosures_ProcessInDoorLockSetWeekDaySchedule
        LJMP      ??zclClosures_ProcessInDoorLockCmds_26 & 0xFFFF
//  555         break;
//  556 
//  557       case COMMAND_CLOSURES_GET_WEEK_DAY_SCHEDULE:
//  558         stat = zclClosures_ProcessInDoorLockGetWeekDaySchedule( pInMsg, pCBs );
??zclClosures_ProcessInDoorLockCmds_12:
        MOV       A,R4
        ADD       A,#0x16
        SJMP      ??zclClosures_ProcessInDoorLockCmds_32
//  559         break;
//  560 
//  561       case COMMAND_CLOSURES_CLEAR_WEEK_DAY_SCHEDULE:
//  562         stat = zclClosures_ProcessInDoorLockClearWeekDaySchedule( pInMsg, pCBs );
??zclClosures_ProcessInDoorLockCmds_13:
        MOV       A,R4
        ADD       A,#0x18
        SJMP      ??zclClosures_ProcessInDoorLockCmds_32
//  563         break;
//  564 
//  565       case COMMAND_CLOSURES_SET_YEAR_DAY_SCHEDULE:
//  566         stat = zclClosures_ProcessInDoorLockSetYearDaySchedule( pInMsg, pCBs );
??zclClosures_ProcessInDoorLockCmds_14:
        ; Setup parameters for call to function zclClosures_ProcessInDoorLockSetYearDaySchedule
        LCALL     ??zclClosures_ProcessInDoorLockSetYearDaySchedu; Banked call to: zclClosures_ProcessInDoorLockSetYearDaySchedule
        LJMP      ??zclClosures_ProcessInDoorLockCmds_26 & 0xFFFF
//  567         break;
//  568 
//  569       case COMMAND_CLOSURES_GET_YEAR_DAY_SCHEDULE:
//  570         stat = zclClosures_ProcessInDoorLockGetYearDaySchedule( pInMsg, pCBs );
??zclClosures_ProcessInDoorLockCmds_15:
        MOV       A,R4
        ADD       A,#0x1c
??zclClosures_ProcessInDoorLockCmds_32:
        LCALL     ?Subroutine25 & 0xFFFF
??CrossCallReturnLabel_277:
        JNZ       ??zclClosures_ProcessInDoorLockCmds_33
        LJMP      ??zclClosures_ProcessInDoorLockCmds_1 & 0xFFFF
//  571         break;
//  572 
//  573       case COMMAND_CLOSURES_CLEAR_YEAR_DAY_SCHEDULE:
//  574         stat = zclClosures_ProcessInDoorLockClearYearDaySchedule( pInMsg, pCBs );
??zclClosures_ProcessInDoorLockCmds_16:
        MOV       A,R4
        ADD       A,#0x1e
        LCALL     ?Subroutine25 & 0xFFFF
??CrossCallReturnLabel_278:
        JZ        ??zclClosures_ProcessInDoorLockCmds_34
??zclClosures_ProcessInDoorLockCmds_33:
        LCALL     ?Subroutine53 & 0xFFFF
??CrossCallReturnLabel_123:
        MOV       DPL,?XSP + 0
        MOV       DPH,?XSP + 1
        LCALL     ?Subroutine79 & 0xFFFF
??CrossCallReturnLabel_187:
        LCALL     ??Subroutine146_0 & 0xFFFF
??CrossCallReturnLabel_345:
        INC       DPTR
        MOVX      A,@DPTR
        MOV       R6,A
        MOV       DPL,R4
        MOV       DPH,R5
        INC       DPTR
        INC       DPTR
        MOVX      A,@DPTR
        MOV       R5,A
        MOV       A,R6
        MOV       R4,A
        MOV       A,#0x1
        LCALL     ?XSTACK_DISP0_8
        MOV       A,R4
        MOVX      @DPTR,A
        INC       DPTR
        MOV       A,R5
        MOVX      @DPTR,A
        ; Setup parameters for indirect call
        MOV       R4,?XSP + 0
        MOV       R5,?XSP + 1
        SJMP      ??zclClosures_ProcessInDoorLockCmds_35
??zclClosures_ProcessInDoorLockCmds_34:
        LJMP      ??zclClosures_ProcessInDoorLockCmds_1 & 0xFFFF
//  575         break;
//  576 
//  577       case COMMAND_CLOSURES_SET_HOLIDAY_SCHEDULE:
//  578         stat = zclClosures_ProcessInDoorLockSetHolidaySchedule( pInMsg, pCBs );
??zclClosures_ProcessInDoorLockCmds_17:
        ; Setup parameters for call to function zclClosures_ProcessInDoorLockSetHolidaySchedule
        LCALL     ??zclClosures_ProcessInDoorLockSetHolidaySchedu; Banked call to: zclClosures_ProcessInDoorLockSetHolidaySchedule
        LJMP      ??zclClosures_ProcessInDoorLockCmds_26 & 0xFFFF
//  579         break;
//  580 
//  581       case COMMAND_CLOSURES_GET_HOLIDAY_SCHEDULE:
//  582         stat = zclClosures_ProcessInDoorLockGetHolidaySchedule( pInMsg, pCBs );
??zclClosures_ProcessInDoorLockCmds_18:
        MOV       A,R4
        ADD       A,#0x22
        LCALL     ?Subroutine25 & 0xFFFF
??CrossCallReturnLabel_279:
        JNZ       ??zclClosures_ProcessInDoorLockCmds_36
        LJMP      ??zclClosures_ProcessInDoorLockCmds_1 & 0xFFFF
//  583         break;
//  584 
//  585       case COMMAND_CLOSURES_CLEAR_HOLIDAY_SCHEDULE:
//  586         stat = zclClosures_ProcessInDoorLockClearHolidaySchedule( pInMsg, pCBs );
??zclClosures_ProcessInDoorLockCmds_19:
        MOV       A,R4
        ADD       A,#0x24
        LCALL     ?Subroutine25 & 0xFFFF
??CrossCallReturnLabel_280:
        JZ        ??zclClosures_ProcessInDoorLockCmds_37
??zclClosures_ProcessInDoorLockCmds_36:
        LCALL     ?Subroutine53 & 0xFFFF
??CrossCallReturnLabel_124:
        PUSH      A
          CFI CFA_SP SP+-1
        MOV       A,#0x5
        LCALL     ?XSTACK_DISP0_8
        POP       A
          CFI CFA_SP SP+0
        MOVX      @DPTR,A
        ; Setup parameters for indirect call
        MOV       A,#0x5
        LCALL     ?XSTACK_DISP102_8
??zclClosures_ProcessInDoorLockCmds_35:
        MOV       DPL,R0
        MOV       DPH,R1
        LJMP      ??CrossCallReturnLabel_167 & 0xFFFF
??zclClosures_ProcessInDoorLockCmds_37:
        LJMP      ??zclClosures_ProcessInDoorLockCmds_1 & 0xFFFF
//  587         break;
//  588 
//  589       case COMMAND_CLOSURES_SET_USER_TYPE:
//  590         stat = zclClosures_ProcessInDoorLockSetUserType( pInMsg, pCBs );
??zclClosures_ProcessInDoorLockCmds_20:
        MOV       A,R4
        ADD       A,#0x26
        LJMP      ??zclClosures_ProcessInDoorLockCmds_31 & 0xFFFF
//  591         break;
//  592 
//  593       case COMMAND_CLOSURES_GET_USER_TYPE:
//  594         stat = zclClosures_ProcessInDoorLockGetUserType( pInMsg, pCBs );
??zclClosures_ProcessInDoorLockCmds_21:
        MOV       A,R4
        ADD       A,#0x28
        SJMP      ??zclClosures_ProcessInDoorLockCmds_29
//  595         break;
//  596 
//  597       case COMMAND_CLOSURES_SET_RFID_CODE:
//  598         stat = zclClosures_ProcessInDoorLockSetRFIDCode( pInMsg, pCBs );
??zclClosures_ProcessInDoorLockCmds_22:
        ; Setup parameters for call to function zclClosures_ProcessInDoorLockSetRFIDCode
        LCALL     `??zclClosures_ProcessInDoorLockSetRFIDCode::?re`; Banked call to: zclClosures_ProcessInDoorLockSetRFIDCode
        LJMP      ??zclClosures_ProcessInDoorLockCmds_26 & 0xFFFF
//  599         break;
//  600 
//  601       case COMMAND_CLOSURES_GET_RFID_CODE:
//  602         stat = zclClosures_ProcessInDoorLockGetRFIDCode( pInMsg, pCBs );
??zclClosures_ProcessInDoorLockCmds_23:
        MOV       A,R4
        ADD       A,#0x2c
??zclClosures_ProcessInDoorLockCmds_29:
        MOV       DPL,A
        CLR       A
        ADDC      A,R5
        MOV       DPH,A
??zclClosures_ProcessInDoorLockCmds_28:
        LCALL     ?Subroutine50 & 0xFFFF
??CrossCallReturnLabel_116:
        JNZ       ??zclClosures_ProcessInDoorLockCmds_38
        LJMP      ??zclClosures_ProcessInDoorLockCmds_1 & 0xFFFF
//  603         break;
//  604 
//  605       case COMMAND_CLOSURES_CLEAR_RFID_CODE:
//  606         stat = zclClosures_ProcessInDoorLockClearRFIDCode( pInMsg, pCBs );
??zclClosures_ProcessInDoorLockCmds_24:
        MOV       A,R4
        ADD       A,#0x2e
        MOV       DPL,A
        CLR       A
        ADDC      A,R5
        MOV       DPH,A
        LCALL     ?Subroutine50 & 0xFFFF
??CrossCallReturnLabel_117:
        JZ        ??zclClosures_ProcessInDoorLockCmds_39
??zclClosures_ProcessInDoorLockCmds_38:
        LCALL     ?Subroutine34 & 0xFFFF
??CrossCallReturnLabel_266:
        MOV       R4,A
        INC       DPTR
        MOVX      A,@DPTR
        MOV       R1,A
        MOV       A,R4
        MOV       R0,A
        MOV       A,#0x3
        LCALL     ?XSTACK_DISP0_8
        MOV       A,R0
        LCALL     ??Subroutine129_0 & 0xFFFF
??CrossCallReturnLabel_284:
        ; Setup parameters for indirect call
        MOV       A,#0x3
        LCALL     ?XSTACK_DISP102_8
        MOV       DPL,R6
        MOV       DPH,R7
        LJMP      ??CrossCallReturnLabel_96 & 0xFFFF
??zclClosures_ProcessInDoorLockCmds_39:
        LJMP      ??zclClosures_ProcessInDoorLockCmds_1 & 0xFFFF
//  607         break;
//  608 
//  609       case COMMAND_CLOSURES_CLEAR_ALL_RFID_CODES:
//  610         stat = zclClosures_ProcessInDoorLockClearAllRFIDCodes( pInMsg, pCBs );
??zclClosures_ProcessInDoorLockCmds_25:
        MOV       A,R4
        ADD       A,#0x30
??zclClosures_ProcessInDoorLockCmds_30:
        MOV       DPL,A
        CLR       A
        ADDC      A,R5
        MOV       DPH,A
//  611         break;
//  612 
//  613       default:
//  614         // Unknown command
//  615         stat = ZFailure;
//  616         break;
//  617     }
//  618   }
        LCALL     ?Subroutine54 & 0xFFFF
??CrossCallReturnLabel_125:
        MOV       A,DPL
        ORL       A,DPH
        JZ        $+5
        LJMP      ??CrossCallReturnLabel_96 & 0xFFFF
        ; Setup parameters for indirect call
        LJMP      ??zclClosures_ProcessInDoorLockCmds_1 & 0xFFFF
//  619   // Server-to-Client
//  620   else
//  621   {
//  622     switch(pInMsg->hdr.commandID)
??zclClosures_ProcessInDoorLockCmds_0:
        MOVX      A,@DPTR
        LCALL     ?UC_SWITCH_DENSE
`?<Jumptable for zclClosures_ProcessInDoorLockC_1`:
        DATA
        DATA8
        DATA
        DATA8
        DB        0
        DATA
        DATA8
        DATA
        DATA8
        DB        33
        DATA
        DATA16
        DATA
        DATA16
        DW        ??zclClosures_ProcessInDoorLockCmds_1
        DATA
        DATA16
        DATA
        DATA16
        DW        ??zclClosures_ProcessInDoorLockCmds_2
        DATA
        DATA16
        DATA
        DATA16
        DW        ??zclClosures_ProcessInDoorLockCmds_2
        DATA
        DATA16
        DATA
        DATA16
        DW        ??zclClosures_ProcessInDoorLockCmds_2
        DATA
        DATA16
        DATA
        DATA16
        DW        ??zclClosures_ProcessInDoorLockCmds_40
        DATA
        DATA16
        DATA
        DATA16
        DW        ??zclClosures_ProcessInDoorLockCmds_41
        DATA
        DATA16
        DATA
        DATA16
        DW        ??zclClosures_ProcessInDoorLockCmds_42
        DATA
        DATA16
        DATA
        DATA16
        DW        ??zclClosures_ProcessInDoorLockCmds_43
        DATA
        DATA16
        DATA
        DATA16
        DW        ??zclClosures_ProcessInDoorLockCmds_44
        DATA
        DATA16
        DATA
        DATA16
        DW        ??zclClosures_ProcessInDoorLockCmds_45
        DATA
        DATA16
        DATA
        DATA16
        DW        ??zclClosures_ProcessInDoorLockCmds_46
        DATA
        DATA16
        DATA
        DATA16
        DW        ??zclClosures_ProcessInDoorLockCmds_47
        DATA
        DATA16
        DATA
        DATA16
        DW        ??zclClosures_ProcessInDoorLockCmds_48
        DATA
        DATA16
        DATA
        DATA16
        DW        ??zclClosures_ProcessInDoorLockCmds_49
        DATA
        DATA16
        DATA
        DATA16
        DW        ??zclClosures_ProcessInDoorLockCmds_50
        DATA
        DATA16
        DATA
        DATA16
        DW        ??zclClosures_ProcessInDoorLockCmds_51
        DATA
        DATA16
        DATA
        DATA16
        DW        ??zclClosures_ProcessInDoorLockCmds_52
        DATA
        DATA16
        DATA
        DATA16
        DW        ??zclClosures_ProcessInDoorLockCmds_53
        DATA
        DATA16
        DATA
        DATA16
        DW        ??zclClosures_ProcessInDoorLockCmds_54
        DATA
        DATA16
        DATA
        DATA16
        DW        ??zclClosures_ProcessInDoorLockCmds_55
        DATA
        DATA16
        DATA
        DATA16
        DW        ??zclClosures_ProcessInDoorLockCmds_56
        DATA
        DATA16
        DATA
        DATA16
        DW        ??zclClosures_ProcessInDoorLockCmds_57
        DATA
        DATA16
        DATA
        DATA16
        DW        ??zclClosures_ProcessInDoorLockCmds_58
        DATA
        DATA16
        DATA
        DATA16
        DW        ??zclClosures_ProcessInDoorLockCmds_59
        DATA
        DATA16
        DATA
        DATA16
        DW        ??zclClosures_ProcessInDoorLockCmds_60
        DATA
        DATA16
        DATA
        DATA16
        DW        ??zclClosures_ProcessInDoorLockCmds_61
        DATA
        DATA16
        DATA
        DATA16
        DW        ??zclClosures_ProcessInDoorLockCmds_62
        DATA
        DATA16
        DATA
        DATA16
        DW        ??zclClosures_ProcessInDoorLockCmds_1
        DATA
        DATA16
        DATA
        DATA16
        DW        ??zclClosures_ProcessInDoorLockCmds_1
        DATA
        DATA16
        DATA
        DATA16
        DW        ??zclClosures_ProcessInDoorLockCmds_1
        DATA
        DATA16
        DATA
        DATA16
        DW        ??zclClosures_ProcessInDoorLockCmds_1
        DATA
        DATA16
        DATA
        DATA16
        DW        ??zclClosures_ProcessInDoorLockCmds_1
        DATA
        DATA16
        DATA
        DATA16
        DW        ??zclClosures_ProcessInDoorLockCmds_1
        DATA
        DATA16
        DATA
        DATA16
        DW        ??zclClosures_ProcessInDoorLockCmds_63
        DATA
        DATA16
        DATA
        DATA16
        DW        ??zclClosures_ProcessInDoorLockCmds_64
        CODE
//  623     {
//  624       case COMMAND_CLOSURES_LOCK_DOOR_RSP:
//  625       case COMMAND_CLOSURES_UNLOCK_DOOR_RSP:
//  626       case COMMAND_CLOSURES_TOGGLE_DOOR_RSP:
//  627         stat = zclClosures_ProcessInDoorLock( pInMsg, pCBs );
??zclClosures_ProcessInDoorLockCmds_2:
        ; Setup parameters for call to function zclClosures_ProcessInDoorLock
        LCALL     `??zclClosures_ProcessInDoorLock::?relay`; Banked call to: zclClosures_ProcessInDoorLock
        LJMP      ??zclClosures_ProcessInDoorLockCmds_26 & 0xFFFF
//  628         break;
//  629 
//  630       case COMMAND_CLOSURES_UNLOCK_WITH_TIMEOUT_RSP:
//  631         stat = zclClosures_ProcessInDoorLockUnlockWithTimeoutRsp( pInMsg, pCBs );
??zclClosures_ProcessInDoorLockCmds_40:
        MOV       A,R4
        ADD       A,#0x32
        SJMP      ??zclClosures_ProcessInDoorLockCmds_65
//  632         break;
//  633 
//  634       case COMMAND_CLOSURES_GET_LOG_RECORD_RSP:
//  635         stat = zclClosures_ProcessInDoorLockGetLogRecordRsp( pInMsg, pCBs );
??zclClosures_ProcessInDoorLockCmds_41:
        ; Setup parameters for call to function zclClosures_ProcessInDoorLockGetLogRecordRsp
        LCALL     `??zclClosures_ProcessInDoorLockGetLogRecordRsp:`; Banked call to: zclClosures_ProcessInDoorLockGetLogRecordRsp
        LJMP      ??zclClosures_ProcessInDoorLockCmds_26 & 0xFFFF
//  636         break;
//  637 
//  638       case COMMAND_CLOSURES_SET_PIN_CODE_RSP:
//  639         stat = zclClosures_ProcessInDoorLockSetPINCodeRsp( pInMsg, pCBs );
??zclClosures_ProcessInDoorLockCmds_42:
        MOV       A,R4
        ADD       A,#0x36
        SJMP      ??zclClosures_ProcessInDoorLockCmds_65
//  640         break;
//  641 
//  642       case COMMAND_CLOSURES_GET_PIN_CODE_RSP:
//  643         stat = zclClosures_ProcessInDoorLockGetPINCodeRsp( pInMsg, pCBs );
??zclClosures_ProcessInDoorLockCmds_43:
        ; Setup parameters for call to function zclClosures_ProcessInDoorLockGetPINCodeRsp
        LCALL     `??zclClosures_ProcessInDoorLockGetPINCodeRsp::?`; Banked call to: zclClosures_ProcessInDoorLockGetPINCodeRsp
        LJMP      ??zclClosures_ProcessInDoorLockCmds_26 & 0xFFFF
//  644         break;
//  645 
//  646       case COMMAND_CLOSURES_CLEAR_PIN_CODE_RSP:
//  647         stat = zclClosures_ProcessInDoorLockClearPINCodeRsp( pInMsg, pCBs );
??zclClosures_ProcessInDoorLockCmds_44:
        MOV       A,R4
        ADD       A,#0x3a
        SJMP      ??zclClosures_ProcessInDoorLockCmds_65
//  648         break;
//  649 
//  650       case COMMAND_CLOSURES_CLEAR_ALL_PIN_CODES_RSP:
//  651         stat = zclClosures_ProcessInDoorLockClearAllPINCodesRsp( pInMsg, pCBs );
??zclClosures_ProcessInDoorLockCmds_45:
        MOV       A,R4
        ADD       A,#0x3c
        SJMP      ??zclClosures_ProcessInDoorLockCmds_65
//  652         break;
//  653 
//  654       case COMMAND_CLOSURES_SET_USER_STATUS_RSP:
//  655         stat = zclClosures_ProcessInDoorLockSetUserStatusRsp( pInMsg, pCBs );
??zclClosures_ProcessInDoorLockCmds_46:
        MOV       A,R4
        ADD       A,#0x3e
        SJMP      ??zclClosures_ProcessInDoorLockCmds_65
//  656         break;
//  657 
//  658       case COMMAND_CLOSURES_GET_USER_STATUS_RSP:
//  659         stat = zclClosures_ProcessInDoorLockGetUserStatusRsp( pInMsg, pCBs );
??zclClosures_ProcessInDoorLockCmds_47:
        MOV       A,R4
        ADD       A,#0x40
??zclClosures_ProcessInDoorLockCmds_31:
        LCALL     ?Subroutine85 & 0xFFFF
??CrossCallReturnLabel_201:
        LCALL     ??Subroutine144_0 & 0xFFFF
??CrossCallReturnLabel_316:
        JNZ       ??zclClosures_ProcessInDoorLockCmds_66
        LJMP      ??zclClosures_ProcessInDoorLockCmds_1 & 0xFFFF
//  660         break;
//  661 
//  662       case COMMAND_CLOSURES_SET_WEEK_DAY_SCHEDULE_RSP:
//  663         stat = zclClosures_ProcessInDoorLockSetWeekDayScheduleRsp( pInMsg, pCBs );
??zclClosures_ProcessInDoorLockCmds_48:
        MOV       A,R4
        ADD       A,#0x42
        SJMP      ??zclClosures_ProcessInDoorLockCmds_65
//  664         break;
//  665 
//  666       case COMMAND_CLOSURES_GET_WEEK_DAY_SCHEDULE_RSP:
//  667         stat = zclClosures_ProcessInDoorLockGetWeekDayScheduleRsp( pInMsg, pCBs );
??zclClosures_ProcessInDoorLockCmds_49:
        ; Setup parameters for call to function zclClosures_ProcessInDoorLockGetWeekDayScheduleRsp
        LCALL     ??zclClosures_ProcessInDoorLockGetWeekDaySchedu; Banked call to: zclClosures_ProcessInDoorLockGetWeekDayScheduleRsp
        LJMP      ??zclClosures_ProcessInDoorLockCmds_26 & 0xFFFF
//  668         break;
//  669 
//  670       case COMMAND_CLOSURES_CLEAR_WEEK_DAY_SCHEDULE_RSP:
//  671         stat = zclClosures_ProcessInDoorLockClearWeekDayScheduleRsp( pInMsg, pCBs );
??zclClosures_ProcessInDoorLockCmds_50:
        MOV       A,R4
        ADD       A,#0x46
        SJMP      ??zclClosures_ProcessInDoorLockCmds_65
//  672         break;
//  673 
//  674       case COMMAND_CLOSURES_SET_YEAR_DAY_SCHEDULE_RSP:
//  675         stat = zclClosures_ProcessInDoorLockSetYearDayScheduleRsp( pInMsg, pCBs );
??zclClosures_ProcessInDoorLockCmds_51:
        MOV       A,R4
        ADD       A,#0x48
        SJMP      ??zclClosures_ProcessInDoorLockCmds_65
//  676         break;
//  677 
//  678       case COMMAND_CLOSURES_GET_YEAR_DAY_SCHEDULE_RSP:
//  679         stat = zclClosures_ProcessInDoorLockGetYearDayScheduleRsp( pInMsg, pCBs );
??zclClosures_ProcessInDoorLockCmds_52:
        ; Setup parameters for call to function zclClosures_ProcessInDoorLockGetYearDayScheduleRsp
        LCALL     ??zclClosures_ProcessInDoorLockGetYearDaySchedu; Banked call to: zclClosures_ProcessInDoorLockGetYearDayScheduleRsp
        LJMP      ??zclClosures_ProcessInDoorLockCmds_26 & 0xFFFF
//  680         break;
//  681 
//  682       case COMMAND_CLOSURES_CLEAR_YEAR_DAY_SCHEDULE_RSP:
//  683         stat = zclClosures_ProcessInDoorLockClearYearDayScheduleRsp( pInMsg, pCBs );
??zclClosures_ProcessInDoorLockCmds_53:
        MOV       A,R4
        ADD       A,#0x4c
        SJMP      ??zclClosures_ProcessInDoorLockCmds_65
//  684         break;
//  685 
//  686       case COMMAND_CLOSURES_SET_HOLIDAY_SCHEDULE_RSP:
//  687         stat = zclClosures_ProcessInDoorLockSetHolidayScheduleRsp( pInMsg, pCBs );
??zclClosures_ProcessInDoorLockCmds_54:
        MOV       A,R4
        ADD       A,#0x4e
        SJMP      ??zclClosures_ProcessInDoorLockCmds_65
//  688         break;
//  689 
//  690       case COMMAND_CLOSURES_GET_HOLIDAY_SCHEDULE_RSP:
//  691         stat = zclClosures_ProcessInDoorLockGetHolidayScheduleRsp( pInMsg, pCBs );
??zclClosures_ProcessInDoorLockCmds_55:
        ; Setup parameters for call to function zclClosures_ProcessInDoorLockGetHolidayScheduleRsp
        LCALL     ??zclClosures_ProcessInDoorLockGetHolidaySchedu; Banked call to: zclClosures_ProcessInDoorLockGetHolidayScheduleRsp
        SJMP      ??zclClosures_ProcessInDoorLockCmds_26
//  692         break;
//  693 
//  694       case COMMAND_CLOSURES_CLEAR_HOLIDAY_SCHEDULE_RSP:
//  695         stat = zclClosures_ProcessInDoorLockClearHolidayScheduleRsp( pInMsg, pCBs );
??zclClosures_ProcessInDoorLockCmds_56:
        MOV       A,R4
        ADD       A,#0x52
        SJMP      ??zclClosures_ProcessInDoorLockCmds_65
//  696         break;
//  697 
//  698       case COMMAND_CLOSURES_SET_USER_TYPE_RSP:
//  699         stat = zclClosures_ProcessInDoorLockSetUserTypeRsp( pInMsg, pCBs );
??zclClosures_ProcessInDoorLockCmds_57:
        MOV       A,R4
        ADD       A,#0x54
??zclClosures_ProcessInDoorLockCmds_65:
        LCALL     ?Subroutine26 & 0xFFFF
??CrossCallReturnLabel_273:
        JNZ       ??zclClosures_ProcessInDoorLockCmds_67
        ; Setup parameters for indirect call
        SJMP      ??zclClosures_ProcessInDoorLockCmds_1
//  700         break;
//  701 
//  702       case COMMAND_CLOSURES_GET_USER_TYPE_RSP:
//  703         stat = zclClosures_ProcessInDoorLockGetUserTypeRsp( pInMsg, pCBs );
??zclClosures_ProcessInDoorLockCmds_58:
        MOV       A,R4
        ADD       A,#0x56
        LCALL     ?Subroutine85 & 0xFFFF
??CrossCallReturnLabel_202:
        LCALL     ??Subroutine144_0 & 0xFFFF
??CrossCallReturnLabel_317:
        JZ        ??zclClosures_ProcessInDoorLockCmds_1
??zclClosures_ProcessInDoorLockCmds_66:
        LCALL     ?Subroutine34 & 0xFFFF
??CrossCallReturnLabel_267:
        MOV       ?V0,A
        INC       DPTR
        MOVX      A,@DPTR
        MOV       R5,A
        MOV       A,?V0
        MOV       DPL,?XSP + 0
        MOV       DPH,?XSP + 1
        MOVX      @DPTR,A
        INC       DPTR
        MOV       A,R5
        LCALL     ?Subroutine67 & 0xFFFF
??CrossCallReturnLabel_158:
        MOVX      A,@DPTR
        PUSH      A
          CFI CFA_SP SP+-1
        MOV       A,#0x2
        LCALL     ?XSTACK_DISP0_8
        POP       A
          CFI CFA_SP SP+0
        LCALL     ?Subroutine72 & 0xFFFF
??CrossCallReturnLabel_167:
        LCALL     ??Subroutine152_0 & 0xFFFF
??CrossCallReturnLabel_362:
        SJMP      ??CrossCallReturnLabel_96
//  704         break;
//  705 
//  706       case COMMAND_CLOSURES_SET_RFID_CODE_RSP:
//  707         stat = zclClosures_ProcessInDoorLockSetRFIDCodeRsp( pInMsg, pCBs );
??zclClosures_ProcessInDoorLockCmds_59:
        MOV       A,R4
        ADD       A,#0x58
        LCALL     ?Subroutine26 & 0xFFFF
??CrossCallReturnLabel_274:
        JZ        ??zclClosures_ProcessInDoorLockCmds_1
        ; Setup parameters for indirect call
        SJMP      ??zclClosures_ProcessInDoorLockCmds_67
//  708         break;
//  709 
//  710       case COMMAND_CLOSURES_GET_RFID_CODE_RSP:
//  711         stat = zclClosures_ProcessInDoorLockGetRFIDCodeRsp( pInMsg, pCBs );
??zclClosures_ProcessInDoorLockCmds_60:
        ; Setup parameters for call to function zclClosures_ProcessInDoorLockGetRFIDCodeRsp
        LCALL     `??zclClosures_ProcessInDoorLockGetRFIDCodeRsp::`; Banked call to: zclClosures_ProcessInDoorLockGetRFIDCodeRsp
        SJMP      ??zclClosures_ProcessInDoorLockCmds_26
//  712         break;
//  713 
//  714       case COMMAND_CLOSURES_CLEAR_RFID_CODE_RSP:
//  715         stat = zclClosures_ProcessInDoorLockClearRFIDCodeRsp( pInMsg, pCBs );
??zclClosures_ProcessInDoorLockCmds_61:
        MOV       A,R4
        ADD       A,#0x5c
        SJMP      ??zclClosures_ProcessInDoorLockCmds_68
//  716         break;
//  717 
//  718       case COMMAND_CLOSURES_CLEAR_ALL_RFID_CODES_RSP:
//  719         stat = zclClosures_ProcessInDoorLockClearAllRFIDCodesRsp( pInMsg, pCBs );
??zclClosures_ProcessInDoorLockCmds_62:
        MOV       A,R4
        ADD       A,#0x5e
??zclClosures_ProcessInDoorLockCmds_68:
        LCALL     ?Subroutine26 & 0xFFFF
??CrossCallReturnLabel_275:
        JZ        ??zclClosures_ProcessInDoorLockCmds_1
        ; Setup parameters for indirect call
??zclClosures_ProcessInDoorLockCmds_67:
        MOV       DPL,?V0
        MOV       DPH,?V1
        LCALL     ?Subroutine40 & 0xFFFF
??CrossCallReturnLabel_96:
        LCALL     ?CALL_IND
        SJMP      ??zclClosures_ProcessInDoorLockCmds_26
//  720         break;
//  721 
//  722       case COMMAND_CLOSURES_OPERATION_EVENT_NOTIFICATION:
//  723         stat = zclClosures_ProcessInDoorLockOperationEventNotification( pInMsg, pCBs );
??zclClosures_ProcessInDoorLockCmds_63:
        ; Setup parameters for call to function zclClosures_ProcessInDoorLockOperationEventNotification
        LCALL     ??zclClosures_ProcessInDoorLockOperationEventNo; Banked call to: zclClosures_ProcessInDoorLockOperationEventNotification
        SJMP      ??zclClosures_ProcessInDoorLockCmds_26
//  724         break;
//  725 
//  726       case COMMAND_CLOSURES_PROGRAMMING_EVENT_NOTIFICATION:
//  727         stat = zclClosures_ProcessInDoorLockProgrammingEventNotification( pInMsg, pCBs );
??zclClosures_ProcessInDoorLockCmds_64:
        ; Setup parameters for call to function zclClosures_ProcessInDoorLockProgrammingEventNotification
        LCALL     ??zclClosures_ProcessInDoorLockProgrammingEvent; Banked call to: zclClosures_ProcessInDoorLockProgrammingEventNotification
??zclClosures_ProcessInDoorLockCmds_26:
        MOV       A,R1
        MOV       R1,A
//  728         break;
        SJMP      ??zclClosures_ProcessInDoorLockCmds_69
//  729 
//  730       default:
//  731         // Unknown command
//  732         stat = ZFailure;
??zclClosures_ProcessInDoorLockCmds_1:
        MOV       R1,#0x1
//  733         break;
//  734     }
//  735   }
//  736 
//  737   return ( stat );
??zclClosures_ProcessInDoorLockCmds_69:
        MOV       A,#0x6
        LJMP      ??Subroutine174_0 & 0xFFFF
//  738 }
          CFI EndBlock cfiBlock2

        RSEG BANKED_CODE:HUGECODE:NOROOT(0)
?Subroutine85:
          CFI Block cfiCond3 Using cfiCommon0
          CFI Function zclClosures_ProcessInDoorLockCmds
          CFI Conditional ??CrossCallReturnLabel_201
          CFI R6 load(1, XDATA, add(CFA_XSP16, literal(-10)))
          CFI VB load(1, XDATA, add(CFA_XSP16, literal(-9)))
          CFI V0 load(1, XDATA, add(CFA_XSP16, literal(-8)))
          CFI V1 load(1, XDATA, add(CFA_XSP16, literal(-7)))
          CFI R7 load(1, XDATA, add(CFA_XSP16, literal(-6)))
          CFI ?RET_LOW load(1, XDATA, add(CFA_XSP16, literal(-5)))
          CFI ?RET_HIGH load(1, XDATA, add(CFA_XSP16, literal(-4)))
          CFI ?BRET_EXT load(1, XDATA, add(CFA_XSP16, literal(-3)))
          CFI DPL0 load(1, XDATA, add(CFA_XSP16, literal(-2)))
          CFI DPH0 load(1, XDATA, add(CFA_XSP16, literal(-1)))
          CFI CFA_SP SP+-2
          CFI CFA_XSP16 add(XSP16, 16)
          CFI Block cfiCond4 Using cfiCommon0
          CFI (cfiCond4) Function zclClosures_ProcessInDoorLockCmds
          CFI (cfiCond4) Conditional ??CrossCallReturnLabel_202
          CFI (cfiCond4) R6 load(1, XDATA, add(CFA_XSP16, literal(-10)))
          CFI (cfiCond4) VB load(1, XDATA, add(CFA_XSP16, literal(-9)))
          CFI (cfiCond4) V0 load(1, XDATA, add(CFA_XSP16, literal(-8)))
          CFI (cfiCond4) V1 load(1, XDATA, add(CFA_XSP16, literal(-7)))
          CFI (cfiCond4) R7 load(1, XDATA, add(CFA_XSP16, literal(-6)))
          CFI (cfiCond4) ?RET_LOW load(1, XDATA, add(CFA_XSP16, literal(-5)))
          CFI (cfiCond4) ?RET_HIGH load(1, XDATA, add(CFA_XSP16, literal(-4)))
          CFI (cfiCond4) ?BRET_EXT load(1, XDATA, add(CFA_XSP16, literal(-3)))
          CFI (cfiCond4) DPL0 load(1, XDATA, add(CFA_XSP16, literal(-2)))
          CFI (cfiCond4) DPH0 load(1, XDATA, add(CFA_XSP16, literal(-1)))
          CFI (cfiCond4) CFA_SP SP+-2
          CFI (cfiCond4) CFA_XSP16 add(XSP16, 16)
          CFI Block cfiPicker5 Using cfiCommon1
          CFI (cfiPicker5) NoFunction
          CFI (cfiPicker5) Picker
        MOV       R0,A
        CLR       A
        ADDC      A,R5
        MOV       R1,A
        MOV       A,R0
        MOV       R6,A
        MOV       A,R1
        MOV       R7,A
        MOV       DPL,R6
        MOV       DPH,R7
        RET
          CFI EndBlock cfiCond3
          CFI EndBlock cfiCond4
          CFI EndBlock cfiPicker5

        RSEG BANKED_CODE:HUGECODE:NOROOT(0)
?Subroutine67:
          CFI Block cfiCond6 Using cfiCommon0
          CFI Function zclClosures_RegisterDoorLockCmdCallbacks
          CFI Conditional ??CrossCallReturnLabel_156
          CFI R6 load(1, XDATA, add(CFA_XSP16, literal(-12)))
          CFI VB load(1, XDATA, add(CFA_XSP16, literal(-11)))
          CFI V0 load(1, XDATA, add(CFA_XSP16, literal(-10)))
          CFI V1 load(1, XDATA, add(CFA_XSP16, literal(-9)))
          CFI V2 load(1, XDATA, add(CFA_XSP16, literal(-8)))
          CFI V3 load(1, XDATA, add(CFA_XSP16, literal(-7)))
          CFI R7 load(1, XDATA, add(CFA_XSP16, literal(-6)))
          CFI ?RET_LOW load(1, XDATA, add(CFA_XSP16, literal(-5)))
          CFI ?RET_HIGH load(1, XDATA, add(CFA_XSP16, literal(-4)))
          CFI ?BRET_EXT load(1, XDATA, add(CFA_XSP16, literal(-3)))
          CFI DPL0 load(1, XDATA, add(CFA_XSP16, literal(-2)))
          CFI DPH0 load(1, XDATA, add(CFA_XSP16, literal(-1)))
          CFI CFA_SP SP+-2
          CFI CFA_XSP16 add(XSP16, 12)
          CFI Block cfiCond7 Using cfiCommon0
          CFI (cfiCond7) Function zclClosures_RegisterDoorLockCmdCallbacks
          CFI (cfiCond7) Conditional ??CrossCallReturnLabel_157
          CFI (cfiCond7) R6 load(1, XDATA, add(CFA_XSP16, literal(-12)))
          CFI (cfiCond7) VB load(1, XDATA, add(CFA_XSP16, literal(-11)))
          CFI (cfiCond7) V0 load(1, XDATA, add(CFA_XSP16, literal(-10)))
          CFI (cfiCond7) V1 load(1, XDATA, add(CFA_XSP16, literal(-9)))
          CFI (cfiCond7) V2 load(1, XDATA, add(CFA_XSP16, literal(-8)))
          CFI (cfiCond7) V3 load(1, XDATA, add(CFA_XSP16, literal(-7)))
          CFI (cfiCond7) R7 load(1, XDATA, add(CFA_XSP16, literal(-6)))
          CFI (cfiCond7) ?RET_LOW load(1, XDATA, add(CFA_XSP16, literal(-5)))
          CFI (cfiCond7) ?RET_HIGH load(1, XDATA, add(CFA_XSP16, literal(-4)))
          CFI (cfiCond7) ?BRET_EXT load(1, XDATA, add(CFA_XSP16, literal(-3)))
          CFI (cfiCond7) DPL0 load(1, XDATA, add(CFA_XSP16, literal(-2)))
          CFI (cfiCond7) DPH0 load(1, XDATA, add(CFA_XSP16, literal(-1)))
          CFI (cfiCond7) CFA_SP SP+-2
          CFI (cfiCond7) CFA_XSP16 add(XSP16, 12)
          CFI Block cfiCond8 Using cfiCommon0
          CFI (cfiCond8) Function zclClosures_ProcessInDoorLockCmds
          CFI (cfiCond8) Conditional ??CrossCallReturnLabel_158
          CFI (cfiCond8) R6 load(1, XDATA, add(CFA_XSP16, literal(-10)))
          CFI (cfiCond8) VB load(1, XDATA, add(CFA_XSP16, literal(-9)))
          CFI (cfiCond8) V0 load(1, XDATA, add(CFA_XSP16, literal(-8)))
          CFI (cfiCond8) V1 load(1, XDATA, add(CFA_XSP16, literal(-7)))
          CFI (cfiCond8) R7 load(1, XDATA, add(CFA_XSP16, literal(-6)))
          CFI (cfiCond8) ?RET_LOW load(1, XDATA, add(CFA_XSP16, literal(-5)))
          CFI (cfiCond8) ?RET_HIGH load(1, XDATA, add(CFA_XSP16, literal(-4)))
          CFI (cfiCond8) ?BRET_EXT load(1, XDATA, add(CFA_XSP16, literal(-3)))
          CFI (cfiCond8) DPL0 load(1, XDATA, add(CFA_XSP16, literal(-2)))
          CFI (cfiCond8) DPH0 load(1, XDATA, add(CFA_XSP16, literal(-1)))
          CFI (cfiCond8) CFA_SP SP+-2
          CFI (cfiCond8) CFA_XSP16 add(XSP16, 16)
          CFI Block cfiPicker9 Using cfiCommon1
          CFI (cfiPicker9) NoFunction
          CFI (cfiPicker9) Picker
        LCALL     ??Subroutine145_0 & 0xFFFF
??CrossCallReturnLabel_341:
        RET
          CFI EndBlock cfiCond6
          CFI EndBlock cfiCond7
          CFI EndBlock cfiCond8
          CFI EndBlock cfiPicker9

        RSEG BANKED_CODE:HUGECODE:NOROOT(0)
?Subroutine53:
          CFI Block cfiCond10 Using cfiCommon0
          CFI Function zclClosures_ProcessInDoorLockCmds
          CFI Conditional ??CrossCallReturnLabel_123
          CFI R6 load(1, XDATA, add(CFA_XSP16, literal(-10)))
          CFI VB load(1, XDATA, add(CFA_XSP16, literal(-9)))
          CFI V0 load(1, XDATA, add(CFA_XSP16, literal(-8)))
          CFI V1 load(1, XDATA, add(CFA_XSP16, literal(-7)))
          CFI R7 load(1, XDATA, add(CFA_XSP16, literal(-6)))
          CFI ?RET_LOW load(1, XDATA, add(CFA_XSP16, literal(-5)))
          CFI ?RET_HIGH load(1, XDATA, add(CFA_XSP16, literal(-4)))
          CFI ?BRET_EXT load(1, XDATA, add(CFA_XSP16, literal(-3)))
          CFI DPL0 load(1, XDATA, add(CFA_XSP16, literal(-2)))
          CFI DPH0 load(1, XDATA, add(CFA_XSP16, literal(-1)))
          CFI CFA_SP SP+-2
          CFI CFA_XSP16 add(XSP16, 16)
          CFI Block cfiCond11 Using cfiCommon0
          CFI (cfiCond11) Function zclClosures_ProcessInDoorLockCmds
          CFI (cfiCond11) Conditional ??CrossCallReturnLabel_124
          CFI (cfiCond11) R6 load(1, XDATA, add(CFA_XSP16, literal(-10)))
          CFI (cfiCond11) VB load(1, XDATA, add(CFA_XSP16, literal(-9)))
          CFI (cfiCond11) V0 load(1, XDATA, add(CFA_XSP16, literal(-8)))
          CFI (cfiCond11) V1 load(1, XDATA, add(CFA_XSP16, literal(-7)))
          CFI (cfiCond11) R7 load(1, XDATA, add(CFA_XSP16, literal(-6)))
          CFI (cfiCond11) ?RET_LOW load(1, XDATA, add(CFA_XSP16, literal(-5)))
          CFI (cfiCond11) ?RET_HIGH load(1, XDATA, add(CFA_XSP16, literal(-4)))
          CFI (cfiCond11) ?BRET_EXT load(1, XDATA, add(CFA_XSP16, literal(-3)))
          CFI (cfiCond11) DPL0 load(1, XDATA, add(CFA_XSP16, literal(-2)))
          CFI (cfiCond11) DPH0 load(1, XDATA, add(CFA_XSP16, literal(-1)))
          CFI (cfiCond11) CFA_SP SP+-2
          CFI (cfiCond11) CFA_XSP16 add(XSP16, 16)
          CFI Block cfiPicker12 Using cfiCommon1
          CFI (cfiPicker12) NoFunction
          CFI (cfiPicker12) Picker
        MOV       DPL,?V0
        MOV       DPH,?V1
        LCALL     ?Subroutine99 & 0xFFFF
??CrossCallReturnLabel_351:
        MOV       DPH,A
        MOV       DPL,R4
        MOVX      A,@DPTR
        RET
          CFI EndBlock cfiCond10
          CFI EndBlock cfiCond11
          CFI EndBlock cfiPicker12

        RSEG BANKED_CODE:HUGECODE:NOROOT(0)
?Subroutine50:
          CFI Block cfiCond13 Using cfiCommon0
          CFI Function zclClosures_ProcessInDoorLockCmds
          CFI Conditional ??CrossCallReturnLabel_116
          CFI R6 load(1, XDATA, add(CFA_XSP16, literal(-10)))
          CFI VB load(1, XDATA, add(CFA_XSP16, literal(-9)))
          CFI V0 load(1, XDATA, add(CFA_XSP16, literal(-8)))
          CFI V1 load(1, XDATA, add(CFA_XSP16, literal(-7)))
          CFI R7 load(1, XDATA, add(CFA_XSP16, literal(-6)))
          CFI ?RET_LOW load(1, XDATA, add(CFA_XSP16, literal(-5)))
          CFI ?RET_HIGH load(1, XDATA, add(CFA_XSP16, literal(-4)))
          CFI ?BRET_EXT load(1, XDATA, add(CFA_XSP16, literal(-3)))
          CFI DPL0 load(1, XDATA, add(CFA_XSP16, literal(-2)))
          CFI DPH0 load(1, XDATA, add(CFA_XSP16, literal(-1)))
          CFI CFA_SP SP+-2
          CFI CFA_XSP16 add(XSP16, 16)
          CFI Block cfiCond14 Using cfiCommon0
          CFI (cfiCond14) Function zclClosures_ProcessInDoorLockCmds
          CFI (cfiCond14) Conditional ??CrossCallReturnLabel_117
          CFI (cfiCond14) R6 load(1, XDATA, add(CFA_XSP16, literal(-10)))
          CFI (cfiCond14) VB load(1, XDATA, add(CFA_XSP16, literal(-9)))
          CFI (cfiCond14) V0 load(1, XDATA, add(CFA_XSP16, literal(-8)))
          CFI (cfiCond14) V1 load(1, XDATA, add(CFA_XSP16, literal(-7)))
          CFI (cfiCond14) R7 load(1, XDATA, add(CFA_XSP16, literal(-6)))
          CFI (cfiCond14) ?RET_LOW load(1, XDATA, add(CFA_XSP16, literal(-5)))
          CFI (cfiCond14) ?RET_HIGH load(1, XDATA, add(CFA_XSP16, literal(-4)))
          CFI (cfiCond14) ?BRET_EXT load(1, XDATA, add(CFA_XSP16, literal(-3)))
          CFI (cfiCond14) DPL0 load(1, XDATA, add(CFA_XSP16, literal(-2)))
          CFI (cfiCond14) DPH0 load(1, XDATA, add(CFA_XSP16, literal(-1)))
          CFI (cfiCond14) CFA_SP SP+-2
          CFI (cfiCond14) CFA_XSP16 add(XSP16, 16)
          CFI Block cfiPicker15 Using cfiCommon1
          CFI (cfiPicker15) NoFunction
          CFI (cfiPicker15) Picker
        LCALL     ?Subroutine97 & 0xFFFF
??CrossCallReturnLabel_224:
        ORL       A,R7
        RET
          CFI EndBlock cfiCond13
          CFI EndBlock cfiCond14
          CFI EndBlock cfiPicker15

        RSEG BANKED_CODE:HUGECODE:NOROOT(0)
?Subroutine97:
          CFI Block cfiCond16 Using cfiCommon0
          CFI Function zclClosures_HdlIncoming
          CFI Conditional ??CrossCallReturnLabel_223
          CFI R6 load(1, XDATA, add(CFA_XSP16, literal(-12)))
          CFI VB load(1, XDATA, add(CFA_XSP16, literal(-11)))
          CFI V0 load(1, XDATA, add(CFA_XSP16, literal(-10)))
          CFI V1 load(1, XDATA, add(CFA_XSP16, literal(-9)))
          CFI V2 load(1, XDATA, add(CFA_XSP16, literal(-8)))
          CFI V3 load(1, XDATA, add(CFA_XSP16, literal(-7)))
          CFI R7 load(1, XDATA, add(CFA_XSP16, literal(-6)))
          CFI ?RET_LOW load(1, XDATA, add(CFA_XSP16, literal(-5)))
          CFI ?RET_HIGH load(1, XDATA, add(CFA_XSP16, literal(-4)))
          CFI ?BRET_EXT load(1, XDATA, add(CFA_XSP16, literal(-3)))
          CFI DPL0 load(1, XDATA, add(CFA_XSP16, literal(-2)))
          CFI DPH0 load(1, XDATA, add(CFA_XSP16, literal(-1)))
          CFI CFA_SP SP+-2
          CFI CFA_XSP16 add(XSP16, 12)
          CFI Block cfiCond17 Using cfiCommon0
          CFI (cfiCond17) Function zclClosures_ProcessInDoorLockCmds
          CFI (cfiCond17) Conditional ??CrossCallReturnLabel_224, ??CrossCallReturnLabel_116
          CFI (cfiCond17) R6 load(1, XDATA, add(CFA_XSP16, literal(-10)))
          CFI (cfiCond17) VB load(1, XDATA, add(CFA_XSP16, literal(-9)))
          CFI (cfiCond17) V0 load(1, XDATA, add(CFA_XSP16, literal(-8)))
          CFI (cfiCond17) V1 load(1, XDATA, add(CFA_XSP16, literal(-7)))
          CFI (cfiCond17) R7 load(1, XDATA, add(CFA_XSP16, literal(-6)))
          CFI (cfiCond17) ?RET_LOW load(1, XDATA, add(CFA_XSP16, literal(-5)))
          CFI (cfiCond17) ?RET_HIGH load(1, XDATA, add(CFA_XSP16, literal(-4)))
          CFI (cfiCond17) ?BRET_EXT load(1, XDATA, add(CFA_XSP16, literal(-3)))
          CFI (cfiCond17) DPL0 load(1, XDATA, add(CFA_XSP16, literal(-2)))
          CFI (cfiCond17) DPH0 load(1, XDATA, add(CFA_XSP16, literal(-1)))
          CFI (cfiCond17) CFA_SP SP+-4
          CFI (cfiCond17) CFA_XSP16 add(XSP16, 16)
          CFI Block cfiCond18 Using cfiCommon0
          CFI (cfiCond18) Function zclClosures_ProcessInDoorLockCmds
          CFI (cfiCond18) Conditional ??CrossCallReturnLabel_224, ??CrossCallReturnLabel_117
          CFI (cfiCond18) R6 load(1, XDATA, add(CFA_XSP16, literal(-10)))
          CFI (cfiCond18) VB load(1, XDATA, add(CFA_XSP16, literal(-9)))
          CFI (cfiCond18) V0 load(1, XDATA, add(CFA_XSP16, literal(-8)))
          CFI (cfiCond18) V1 load(1, XDATA, add(CFA_XSP16, literal(-7)))
          CFI (cfiCond18) R7 load(1, XDATA, add(CFA_XSP16, literal(-6)))
          CFI (cfiCond18) ?RET_LOW load(1, XDATA, add(CFA_XSP16, literal(-5)))
          CFI (cfiCond18) ?RET_HIGH load(1, XDATA, add(CFA_XSP16, literal(-4)))
          CFI (cfiCond18) ?BRET_EXT load(1, XDATA, add(CFA_XSP16, literal(-3)))
          CFI (cfiCond18) DPL0 load(1, XDATA, add(CFA_XSP16, literal(-2)))
          CFI (cfiCond18) DPH0 load(1, XDATA, add(CFA_XSP16, literal(-1)))
          CFI (cfiCond18) CFA_SP SP+-4
          CFI (cfiCond18) CFA_XSP16 add(XSP16, 16)
          CFI Block cfiPicker19 Using cfiCommon1
          CFI (cfiPicker19) NoFunction
          CFI (cfiPicker19) Picker
        LCALL     ?Subroutine117 & 0xFFFF
??CrossCallReturnLabel_336:
        MOV       A,R0
        MOV       R6,A
        MOV       A,R1
        MOV       R7,A
        MOV       A,R6
        RET
          CFI EndBlock cfiCond16
          CFI EndBlock cfiCond17
          CFI EndBlock cfiCond18
          CFI EndBlock cfiPicker19

        RSEG BANKED_CODE:HUGECODE:NOROOT(0)
?Subroutine34:
          CFI Block cfiCond20 Using cfiCommon0
          CFI Function zclClosures_ProcessInDoorLockCmds
          CFI Conditional ??CrossCallReturnLabel_266
          CFI R6 load(1, XDATA, add(CFA_XSP16, literal(-10)))
          CFI VB load(1, XDATA, add(CFA_XSP16, literal(-9)))
          CFI V0 load(1, XDATA, add(CFA_XSP16, literal(-8)))
          CFI V1 load(1, XDATA, add(CFA_XSP16, literal(-7)))
          CFI R7 load(1, XDATA, add(CFA_XSP16, literal(-6)))
          CFI ?RET_LOW load(1, XDATA, add(CFA_XSP16, literal(-5)))
          CFI ?RET_HIGH load(1, XDATA, add(CFA_XSP16, literal(-4)))
          CFI ?BRET_EXT load(1, XDATA, add(CFA_XSP16, literal(-3)))
          CFI DPL0 load(1, XDATA, add(CFA_XSP16, literal(-2)))
          CFI DPH0 load(1, XDATA, add(CFA_XSP16, literal(-1)))
          CFI CFA_SP SP+-2
          CFI CFA_XSP16 add(XSP16, 16)
          CFI Block cfiCond21 Using cfiCommon0
          CFI (cfiCond21) Function zclClosures_ProcessInDoorLockCmds
          CFI (cfiCond21) Conditional ??CrossCallReturnLabel_267
          CFI (cfiCond21) R6 load(1, XDATA, add(CFA_XSP16, literal(-10)))
          CFI (cfiCond21) VB load(1, XDATA, add(CFA_XSP16, literal(-9)))
          CFI (cfiCond21) V0 load(1, XDATA, add(CFA_XSP16, literal(-8)))
          CFI (cfiCond21) V1 load(1, XDATA, add(CFA_XSP16, literal(-7)))
          CFI (cfiCond21) R7 load(1, XDATA, add(CFA_XSP16, literal(-6)))
          CFI (cfiCond21) ?RET_LOW load(1, XDATA, add(CFA_XSP16, literal(-5)))
          CFI (cfiCond21) ?RET_HIGH load(1, XDATA, add(CFA_XSP16, literal(-4)))
          CFI (cfiCond21) ?BRET_EXT load(1, XDATA, add(CFA_XSP16, literal(-3)))
          CFI (cfiCond21) DPL0 load(1, XDATA, add(CFA_XSP16, literal(-2)))
          CFI (cfiCond21) DPH0 load(1, XDATA, add(CFA_XSP16, literal(-1)))
          CFI (cfiCond21) CFA_SP SP+-2
          CFI (cfiCond21) CFA_XSP16 add(XSP16, 16)
          CFI Block cfiPicker22 Using cfiCommon1
          CFI (cfiPicker22) NoFunction
          CFI (cfiPicker22) Picker
        MOV       DPL,?V0
        MOV       DPH,?V1
          CFI EndBlock cfiCond20
          CFI EndBlock cfiCond21
          CFI EndBlock cfiPicker22
        REQUIRE ??Subroutine125_0
        ; // Fall through to label ??Subroutine125_0

        RSEG BANKED_CODE:HUGECODE:NOROOT(0)
??Subroutine125_0:
          CFI Block cfiCond23 Using cfiCommon0
          CFI Function zclClosures_ProcessInDoorLockUnlockWithTimeout
          CFI Conditional ??CrossCallReturnLabel_265
          CFI R6 load(1, XDATA, add(CFA_XSP16, literal(-16)))
          CFI VB load(1, XDATA, add(CFA_XSP16, literal(-15)))
          CFI V0 load(1, XDATA, add(CFA_XSP16, literal(-14)))
          CFI V1 load(1, XDATA, add(CFA_XSP16, literal(-13)))
          CFI V2 load(1, XDATA, add(CFA_XSP16, literal(-12)))
          CFI V3 load(1, XDATA, add(CFA_XSP16, literal(-11)))
          CFI V4 load(1, XDATA, add(CFA_XSP16, literal(-10)))
          CFI V5 load(1, XDATA, add(CFA_XSP16, literal(-9)))
          CFI V6 load(1, XDATA, add(CFA_XSP16, literal(-8)))
          CFI V7 load(1, XDATA, add(CFA_XSP16, literal(-7)))
          CFI R7 load(1, XDATA, add(CFA_XSP16, literal(-6)))
          CFI ?RET_LOW load(1, XDATA, add(CFA_XSP16, literal(-5)))
          CFI ?RET_HIGH load(1, XDATA, add(CFA_XSP16, literal(-4)))
          CFI ?BRET_EXT load(1, XDATA, add(CFA_XSP16, literal(-3)))
          CFI DPL0 load(1, XDATA, add(CFA_XSP16, literal(-2)))
          CFI DPH0 load(1, XDATA, add(CFA_XSP16, literal(-1)))
          CFI CFA_SP SP+-2
          CFI CFA_XSP16 add(XSP16, 20)
          CFI Block cfiCond24 Using cfiCommon0
          CFI (cfiCond24) Function zclClosures_ProcessInDoorLockCmds
          CFI (cfiCond24) Conditional ??CrossCallReturnLabel_266
          CFI (cfiCond24) R6 load(1, XDATA, add(CFA_XSP16, literal(-10)))
          CFI (cfiCond24) VB load(1, XDATA, add(CFA_XSP16, literal(-9)))
          CFI (cfiCond24) V0 load(1, XDATA, add(CFA_XSP16, literal(-8)))
          CFI (cfiCond24) V1 load(1, XDATA, add(CFA_XSP16, literal(-7)))
          CFI (cfiCond24) R7 load(1, XDATA, add(CFA_XSP16, literal(-6)))
          CFI (cfiCond24) ?RET_LOW load(1, XDATA, add(CFA_XSP16, literal(-5)))
          CFI (cfiCond24) ?RET_HIGH load(1, XDATA, add(CFA_XSP16, literal(-4)))
          CFI (cfiCond24) ?BRET_EXT load(1, XDATA, add(CFA_XSP16, literal(-3)))
          CFI (cfiCond24) DPL0 load(1, XDATA, add(CFA_XSP16, literal(-2)))
          CFI (cfiCond24) DPH0 load(1, XDATA, add(CFA_XSP16, literal(-1)))
          CFI (cfiCond24) CFA_SP SP+-2
          CFI (cfiCond24) CFA_XSP16 add(XSP16, 16)
          CFI Block cfiCond25 Using cfiCommon0
          CFI (cfiCond25) Function zclClosures_ProcessInDoorLockCmds
          CFI (cfiCond25) Conditional ??CrossCallReturnLabel_267
          CFI (cfiCond25) R6 load(1, XDATA, add(CFA_XSP16, literal(-10)))
          CFI (cfiCond25) VB load(1, XDATA, add(CFA_XSP16, literal(-9)))
          CFI (cfiCond25) V0 load(1, XDATA, add(CFA_XSP16, literal(-8)))
          CFI (cfiCond25) V1 load(1, XDATA, add(CFA_XSP16, literal(-7)))
          CFI (cfiCond25) R7 load(1, XDATA, add(CFA_XSP16, literal(-6)))
          CFI (cfiCond25) ?RET_LOW load(1, XDATA, add(CFA_XSP16, literal(-5)))
          CFI (cfiCond25) ?RET_HIGH load(1, XDATA, add(CFA_XSP16, literal(-4)))
          CFI (cfiCond25) ?BRET_EXT load(1, XDATA, add(CFA_XSP16, literal(-3)))
          CFI (cfiCond25) DPL0 load(1, XDATA, add(CFA_XSP16, literal(-2)))
          CFI (cfiCond25) DPH0 load(1, XDATA, add(CFA_XSP16, literal(-1)))
          CFI (cfiCond25) CFA_SP SP+-2
          CFI (cfiCond25) CFA_XSP16 add(XSP16, 16)
          CFI Block cfiPicker26 Using cfiCommon1
          CFI (cfiPicker26) NoFunction
          CFI (cfiPicker26) Picker
        LCALL     ?Subroutine92 & 0xFFFF
??CrossCallReturnLabel_271:
        MOVX      A,@DPTR
        RET
          CFI EndBlock cfiCond23
          CFI EndBlock cfiCond24
          CFI EndBlock cfiCond25
          CFI EndBlock cfiPicker26

        RSEG BANKED_CODE:HUGECODE:NOROOT(0)
?Subroutine26:
          CFI Block cfiCond27 Using cfiCommon0
          CFI Function zclClosures_ProcessInDoorLockCmds
          CFI Conditional ??CrossCallReturnLabel_273
          CFI R6 load(1, XDATA, add(CFA_XSP16, literal(-10)))
          CFI VB load(1, XDATA, add(CFA_XSP16, literal(-9)))
          CFI V0 load(1, XDATA, add(CFA_XSP16, literal(-8)))
          CFI V1 load(1, XDATA, add(CFA_XSP16, literal(-7)))
          CFI R7 load(1, XDATA, add(CFA_XSP16, literal(-6)))
          CFI ?RET_LOW load(1, XDATA, add(CFA_XSP16, literal(-5)))
          CFI ?RET_HIGH load(1, XDATA, add(CFA_XSP16, literal(-4)))
          CFI ?BRET_EXT load(1, XDATA, add(CFA_XSP16, literal(-3)))
          CFI DPL0 load(1, XDATA, add(CFA_XSP16, literal(-2)))
          CFI DPH0 load(1, XDATA, add(CFA_XSP16, literal(-1)))
          CFI CFA_SP SP+-2
          CFI CFA_XSP16 add(XSP16, 16)
          CFI Block cfiCond28 Using cfiCommon0
          CFI (cfiCond28) Function zclClosures_ProcessInDoorLockCmds
          CFI (cfiCond28) Conditional ??CrossCallReturnLabel_274
          CFI (cfiCond28) R6 load(1, XDATA, add(CFA_XSP16, literal(-10)))
          CFI (cfiCond28) VB load(1, XDATA, add(CFA_XSP16, literal(-9)))
          CFI (cfiCond28) V0 load(1, XDATA, add(CFA_XSP16, literal(-8)))
          CFI (cfiCond28) V1 load(1, XDATA, add(CFA_XSP16, literal(-7)))
          CFI (cfiCond28) R7 load(1, XDATA, add(CFA_XSP16, literal(-6)))
          CFI (cfiCond28) ?RET_LOW load(1, XDATA, add(CFA_XSP16, literal(-5)))
          CFI (cfiCond28) ?RET_HIGH load(1, XDATA, add(CFA_XSP16, literal(-4)))
          CFI (cfiCond28) ?BRET_EXT load(1, XDATA, add(CFA_XSP16, literal(-3)))
          CFI (cfiCond28) DPL0 load(1, XDATA, add(CFA_XSP16, literal(-2)))
          CFI (cfiCond28) DPH0 load(1, XDATA, add(CFA_XSP16, literal(-1)))
          CFI (cfiCond28) CFA_SP SP+-2
          CFI (cfiCond28) CFA_XSP16 add(XSP16, 16)
          CFI Block cfiCond29 Using cfiCommon0
          CFI (cfiCond29) Function zclClosures_ProcessInDoorLockCmds
          CFI (cfiCond29) Conditional ??CrossCallReturnLabel_275
          CFI (cfiCond29) R6 load(1, XDATA, add(CFA_XSP16, literal(-10)))
          CFI (cfiCond29) VB load(1, XDATA, add(CFA_XSP16, literal(-9)))
          CFI (cfiCond29) V0 load(1, XDATA, add(CFA_XSP16, literal(-8)))
          CFI (cfiCond29) V1 load(1, XDATA, add(CFA_XSP16, literal(-7)))
          CFI (cfiCond29) R7 load(1, XDATA, add(CFA_XSP16, literal(-6)))
          CFI (cfiCond29) ?RET_LOW load(1, XDATA, add(CFA_XSP16, literal(-5)))
          CFI (cfiCond29) ?RET_HIGH load(1, XDATA, add(CFA_XSP16, literal(-4)))
          CFI (cfiCond29) ?BRET_EXT load(1, XDATA, add(CFA_XSP16, literal(-3)))
          CFI (cfiCond29) DPL0 load(1, XDATA, add(CFA_XSP16, literal(-2)))
          CFI (cfiCond29) DPH0 load(1, XDATA, add(CFA_XSP16, literal(-1)))
          CFI (cfiCond29) CFA_SP SP+-2
          CFI (cfiCond29) CFA_XSP16 add(XSP16, 16)
          CFI Block cfiPicker30 Using cfiCommon1
          CFI (cfiPicker30) NoFunction
          CFI (cfiPicker30) Picker
        MOV       DPL,A
        CLR       A
        ADDC      A,R5
        MOV       DPH,A
          CFI EndBlock cfiCond27
          CFI EndBlock cfiCond28
          CFI EndBlock cfiCond29
          CFI EndBlock cfiPicker30
        REQUIRE ??Subroutine126_0
        ; // Fall through to label ??Subroutine126_0

        RSEG BANKED_CODE:HUGECODE:NOROOT(0)
??Subroutine126_0:
          CFI Block cfiCond31 Using cfiCommon0
          CFI Function zclClosures_ProcessInDoorLock
          CFI Conditional ??CrossCallReturnLabel_272
          CFI R6 load(1, XDATA, add(CFA_XSP16, literal(-13)))
          CFI VB load(1, XDATA, add(CFA_XSP16, literal(-12)))
          CFI V0 load(1, XDATA, add(CFA_XSP16, literal(-11)))
          CFI V1 load(1, XDATA, add(CFA_XSP16, literal(-10)))
          CFI V2 load(1, XDATA, add(CFA_XSP16, literal(-9)))
          CFI V3 load(1, XDATA, add(CFA_XSP16, literal(-8)))
          CFI V4 load(1, XDATA, add(CFA_XSP16, literal(-7)))
          CFI R7 load(1, XDATA, add(CFA_XSP16, literal(-6)))
          CFI ?RET_LOW load(1, XDATA, add(CFA_XSP16, literal(-5)))
          CFI ?RET_HIGH load(1, XDATA, add(CFA_XSP16, literal(-4)))
          CFI ?BRET_EXT load(1, XDATA, add(CFA_XSP16, literal(-3)))
          CFI DPL0 load(1, XDATA, add(CFA_XSP16, literal(-2)))
          CFI DPH0 load(1, XDATA, add(CFA_XSP16, literal(-1)))
          CFI CFA_SP SP+-2
          CFI CFA_XSP16 add(XSP16, 15)
          CFI Block cfiCond32 Using cfiCommon0
          CFI (cfiCond32) Function zclClosures_ProcessInDoorLockCmds
          CFI (cfiCond32) Conditional ??CrossCallReturnLabel_273
          CFI (cfiCond32) R6 load(1, XDATA, add(CFA_XSP16, literal(-10)))
          CFI (cfiCond32) VB load(1, XDATA, add(CFA_XSP16, literal(-9)))
          CFI (cfiCond32) V0 load(1, XDATA, add(CFA_XSP16, literal(-8)))
          CFI (cfiCond32) V1 load(1, XDATA, add(CFA_XSP16, literal(-7)))
          CFI (cfiCond32) R7 load(1, XDATA, add(CFA_XSP16, literal(-6)))
          CFI (cfiCond32) ?RET_LOW load(1, XDATA, add(CFA_XSP16, literal(-5)))
          CFI (cfiCond32) ?RET_HIGH load(1, XDATA, add(CFA_XSP16, literal(-4)))
          CFI (cfiCond32) ?BRET_EXT load(1, XDATA, add(CFA_XSP16, literal(-3)))
          CFI (cfiCond32) DPL0 load(1, XDATA, add(CFA_XSP16, literal(-2)))
          CFI (cfiCond32) DPH0 load(1, XDATA, add(CFA_XSP16, literal(-1)))
          CFI (cfiCond32) CFA_SP SP+-2
          CFI (cfiCond32) CFA_XSP16 add(XSP16, 16)
          CFI Block cfiCond33 Using cfiCommon0
          CFI (cfiCond33) Function zclClosures_ProcessInDoorLockCmds
          CFI (cfiCond33) Conditional ??CrossCallReturnLabel_274
          CFI (cfiCond33) R6 load(1, XDATA, add(CFA_XSP16, literal(-10)))
          CFI (cfiCond33) VB load(1, XDATA, add(CFA_XSP16, literal(-9)))
          CFI (cfiCond33) V0 load(1, XDATA, add(CFA_XSP16, literal(-8)))
          CFI (cfiCond33) V1 load(1, XDATA, add(CFA_XSP16, literal(-7)))
          CFI (cfiCond33) R7 load(1, XDATA, add(CFA_XSP16, literal(-6)))
          CFI (cfiCond33) ?RET_LOW load(1, XDATA, add(CFA_XSP16, literal(-5)))
          CFI (cfiCond33) ?RET_HIGH load(1, XDATA, add(CFA_XSP16, literal(-4)))
          CFI (cfiCond33) ?BRET_EXT load(1, XDATA, add(CFA_XSP16, literal(-3)))
          CFI (cfiCond33) DPL0 load(1, XDATA, add(CFA_XSP16, literal(-2)))
          CFI (cfiCond33) DPH0 load(1, XDATA, add(CFA_XSP16, literal(-1)))
          CFI (cfiCond33) CFA_SP SP+-2
          CFI (cfiCond33) CFA_XSP16 add(XSP16, 16)
          CFI Block cfiCond34 Using cfiCommon0
          CFI (cfiCond34) Function zclClosures_ProcessInDoorLockCmds
          CFI (cfiCond34) Conditional ??CrossCallReturnLabel_275
          CFI (cfiCond34) R6 load(1, XDATA, add(CFA_XSP16, literal(-10)))
          CFI (cfiCond34) VB load(1, XDATA, add(CFA_XSP16, literal(-9)))
          CFI (cfiCond34) V0 load(1, XDATA, add(CFA_XSP16, literal(-8)))
          CFI (cfiCond34) V1 load(1, XDATA, add(CFA_XSP16, literal(-7)))
          CFI (cfiCond34) R7 load(1, XDATA, add(CFA_XSP16, literal(-6)))
          CFI (cfiCond34) ?RET_LOW load(1, XDATA, add(CFA_XSP16, literal(-5)))
          CFI (cfiCond34) ?RET_HIGH load(1, XDATA, add(CFA_XSP16, literal(-4)))
          CFI (cfiCond34) ?BRET_EXT load(1, XDATA, add(CFA_XSP16, literal(-3)))
          CFI (cfiCond34) DPL0 load(1, XDATA, add(CFA_XSP16, literal(-2)))
          CFI (cfiCond34) DPH0 load(1, XDATA, add(CFA_XSP16, literal(-1)))
          CFI (cfiCond34) CFA_SP SP+-2
          CFI (cfiCond34) CFA_XSP16 add(XSP16, 16)
          CFI Block cfiPicker35 Using cfiCommon1
          CFI (cfiPicker35) NoFunction
          CFI (cfiPicker35) Picker
        LCALL     ?Subroutine100 & 0xFFFF
??CrossCallReturnLabel_333:
        MOV       R4,A
        MOV       A,R1
        MOV       R5,A
        MOV       A,R4
        ORL       A,R5
        RET
          CFI EndBlock cfiCond31
          CFI EndBlock cfiCond32
          CFI EndBlock cfiCond33
          CFI EndBlock cfiCond34
          CFI EndBlock cfiPicker35
//  739 
//  740 /*********************************************************************
//  741  * @fn      zclClosures_ProcessInDoorLock
//  742  *
//  743  * @brief   Process in the received Door Lock cmds
//  744  *
//  745  * @param   pInMsg - pointer to the incoming message
//  746  * @param   pCBs - pointer to the application callbacks
//  747  *
//  748  * @return  ZStatus_t
//  749  */

        RSEG BANKED_CODE:HUGECODE:NOROOT(0)
//  750 static ZStatus_t zclClosures_ProcessInDoorLock( zclIncoming_t *pInMsg,
zclClosures_ProcessInDoorLock:
          CFI Block cfiBlock36 Using cfiCommon0
          CFI Function zclClosures_ProcessInDoorLock
        CODE
//  751                                                 zclClosures_DoorLockAppCallbacks_t *pCBs )
//  752 {
        FUNCALL zclClosures_ProcessInDoorLock, osal_mem_alloc
        LOCFRAME ISTACK, 0, STACK
        LOCFRAME PSTACK, 0, STACK
        LOCFRAME XSTACK, 15, STACK
        LOCFRAME IOVERLAY, 0, STATIC
        LOCFRAME DOVERLAY, 0, STATIC
        ARGFRAME ISTACK, 0, STACK
        ARGFRAME PSTACK, 0, STACK
        ARGFRAME XSTACK, 15, STACK
        ARGFRAME IOVERLAY, 0, STATIC
        ARGFRAME DOVERLAY, 0, STATIC
        FUNCALL zclClosures_ProcessInDoorLock, osal_mem_free
        LOCFRAME ISTACK, 0, STACK
        LOCFRAME PSTACK, 0, STACK
        LOCFRAME XSTACK, 15, STACK
        LOCFRAME IOVERLAY, 0, STATIC
        LOCFRAME DOVERLAY, 0, STATIC
        ARGFRAME ISTACK, 0, STACK
        ARGFRAME PSTACK, 0, STACK
        ARGFRAME XSTACK, 15, STACK
        ARGFRAME IOVERLAY, 0, STATIC
        ARGFRAME DOVERLAY, 0, STATIC
        REQUIRE ?V0
        REQUIRE ?V1
        REQUIRE ?V2
        REQUIRE ?V3
        REQUIRE ?V4
        MOV       A,#-0xd
        LCALL     ?BANKED_ENTER_XDATA
          CFI DPH0 load(1, XDATA, add(CFA_XSP16, literal(-1)))
          CFI DPL0 load(1, XDATA, add(CFA_XSP16, literal(-2)))
          CFI ?BRET_EXT load(1, XDATA, add(CFA_XSP16, literal(-3)))
          CFI ?RET_HIGH load(1, XDATA, add(CFA_XSP16, literal(-4)))
          CFI ?RET_LOW load(1, XDATA, add(CFA_XSP16, literal(-5)))
          CFI R7 load(1, XDATA, add(CFA_XSP16, literal(-6)))
          CFI V4 load(1, XDATA, add(CFA_XSP16, literal(-7)))
          CFI V3 load(1, XDATA, add(CFA_XSP16, literal(-8)))
          CFI V2 load(1, XDATA, add(CFA_XSP16, literal(-9)))
          CFI V1 load(1, XDATA, add(CFA_XSP16, literal(-10)))
          CFI V0 load(1, XDATA, add(CFA_XSP16, literal(-11)))
          CFI VB load(1, XDATA, add(CFA_XSP16, literal(-12)))
          CFI R6 load(1, XDATA, add(CFA_XSP16, literal(-13)))
          CFI CFA_SP SP+0
          CFI CFA_XSP16 add(XSP16, 13)
        ; Saved register size: 13
        ; Auto size: 2
        MOV       A,#-0x2
        LCALL     ?ALLOC_XSTACK8
          CFI CFA_XSP16 add(XSP16, 15)
        MOV       A,R2
        MOV       R6,A
        MOV       A,R3
        MOV       R7,A
        MOV       ?V0,R4
        MOV       ?V1,R5
//  753   ZStatus_t status;
//  754 
//  755   // Client-to-Server
//  756   if ( zcl_ServerCmd( pInMsg->hdr.fc.direction ) )
        LCALL     ?Subroutine81 & 0xFFFF
??CrossCallReturnLabel_190:
        MOV       DPL,R6
        MOV       DPH,R7
        INC       DPTR
        INC       DPTR
        MOVX      A,@DPTR
        ANL       A,#0x8
        MOV       DPL,R6
        MOV       DPH,R7
        INC       DPTR
        INC       DPTR
        INC       DPTR
        INC       DPTR
        INC       DPTR
        INC       DPTR
        INC       DPTR
        JNZ       ??zclClosures_ProcessInDoorLock_0
//  757   {
//  758     switch(pInMsg->hdr.commandID)
        MOVX      A,@DPTR
        JZ        ??zclClosures_ProcessInDoorLock_1
        DEC       A
        JZ        ??zclClosures_ProcessInDoorLock_1
        DEC       A
        JZ        $+5
        LJMP      ??zclClosures_ProcessInDoorLock_2 & 0xFFFF
//  759     {
//  760       case COMMAND_CLOSURES_LOCK_DOOR:
//  761       case COMMAND_CLOSURES_UNLOCK_DOOR:
//  762       case COMMAND_CLOSURES_TOGGLE_DOOR:
//  763         if ( pCBs->pfnDoorLock )
??zclClosures_ProcessInDoorLock_1:
        MOV       DPL,R4
        MOV       DPH,R5
        LCALL     ??Subroutine144_0 & 0xFFFF
??CrossCallReturnLabel_318:
        JNZ       $+5
        LJMP      ??zclClosures_ProcessInDoorLock_2 & 0xFFFF
//  764         {
//  765           uint8 i;
//  766           uint8 calculatedArrayLen;
//  767           zclDoorLock_t cmd;
//  768 
//  769           // first octet of PIN/RFID Code variable string identifies its length
//  770           calculatedArrayLen = pInMsg->pData[0] + 1; // add first byte of string
        MOV       DPL,?V2
        MOV       DPH,?V3
        LCALL     ??Subroutine162_0 & 0xFFFF
??CrossCallReturnLabel_403:
        MOV       ?V4,A
//  771 
//  772           cmd.pPinRfidCode = zcl_mem_alloc( calculatedArrayLen );
        ; Setup parameters for call to function osal_mem_alloc
        MOV       R2,A
        MOV       R3,#0x0
        LCALL     `??osal_mem_alloc::?relay`; Banked call to: osal_mem_alloc
        MOV       DPL,?XSP + 0
        MOV       DPH,?XSP + 1
        MOV       A,R2
        MOVX      @DPTR,A
        INC       DPTR
        MOV       A,R3
        MOVX      @DPTR,A
//  773 
//  774           if ( !cmd.pPinRfidCode )
        MOV       DPL,?XSP + 0
        MOV       DPH,?XSP + 1
        LCALL     ??Subroutine144_0 & 0xFFFF
??CrossCallReturnLabel_319:
        JNZ       ??zclClosures_ProcessInDoorLock_3
//  775           {
//  776             return ( ZMemError );  // no memory
        MOV       R1,#0x10
        SJMP      ??zclClosures_ProcessInDoorLock_4
//  777           }
//  778 
//  779           for ( i = 0; i < calculatedArrayLen; i++ )
??zclClosures_ProcessInDoorLock_3:
        MOV       R2,#0x0
        SJMP      ??zclClosures_ProcessInDoorLock_5
//  780           {
//  781             cmd.pPinRfidCode[i] = pInMsg->pData[i];
??zclClosures_ProcessInDoorLock_6:
        MOV       A,R2
        MOV       R0,A
        MOV       DPL,?V2
        MOV       DPH,?V3
        LCALL     ?Subroutine49 & 0xFFFF
//  782           }
??CrossCallReturnLabel_114:
        PUSH      A
          CFI CFA_SP SP+-1
        MOV       DPL,?XSP + 0
        MOV       DPH,?XSP + 1
        LCALL     ?Subroutine95 & 0xFFFF
??CrossCallReturnLabel_221:
        POP       A
          CFI CFA_SP SP+0
        MOVX      @DPTR,A
        INC       R2
??zclClosures_ProcessInDoorLock_5:
        MOV       A,R2
        CLR       C
        SUBB      A,?V4
        JC        ??zclClosures_ProcessInDoorLock_6
//  783 
//  784           status = ( pCBs->pfnDoorLock( pInMsg, &cmd ) );
        ; Setup parameters for indirect call
        LCALL     ?Subroutine48 & 0xFFFF
??CrossCallReturnLabel_374:
        LCALL     ?CALL_IND
        MOV       A,R1
        MOV       R6,A
//  785           zcl_mem_free( cmd.pPinRfidCode );
        ; Setup parameters for call to function osal_mem_free
        MOV       DPL,?XSP + 0
        MOV       DPH,?XSP + 1
        LCALL     ?Subroutine37 & 0xFFFF
??CrossCallReturnLabel_85:
        LCALL     `??osal_mem_free::?relay`; Banked call to: osal_mem_free
//  786           return status;
        MOV       A,R6
        MOV       R1,A
        SJMP      ??zclClosures_ProcessInDoorLock_4
//  787         }
//  788 
//  789         return ( ZCL_STATUS_FAILURE );
//  790         break;
//  791 
//  792       default:
//  793         return ( ZFailure );   // Error ignore the command
//  794     }
//  795   }
//  796   // Server-to-Client
//  797   else
//  798   {
//  799     switch(pInMsg->hdr.commandID)
??zclClosures_ProcessInDoorLock_0:
        MOVX      A,@DPTR
        JZ        ??zclClosures_ProcessInDoorLock_7
        DEC       A
        JZ        ??zclClosures_ProcessInDoorLock_7
        DEC       A
        JNZ       ??zclClosures_ProcessInDoorLock_2
//  800     {
//  801       case COMMAND_CLOSURES_LOCK_DOOR_RSP:
//  802       case COMMAND_CLOSURES_UNLOCK_DOOR_RSP:
//  803       case COMMAND_CLOSURES_TOGGLE_DOOR_RSP:
//  804         if ( pCBs->pfnDoorLockRsp )
??zclClosures_ProcessInDoorLock_7:
        MOV       DPL,R4
        MOV       DPH,R5
        INC       DPTR
        INC       DPTR
        LCALL     ??Subroutine126_0 & 0xFFFF
??CrossCallReturnLabel_272:
        JZ        ??zclClosures_ProcessInDoorLock_2
//  805         {
//  806           return ( pCBs->pfnDoorLockRsp( pInMsg, pInMsg->pData[0] ) );
        ; Setup parameters for indirect call
        MOV       DPL,?V2
        MOV       DPH,?V3
        LCALL     ?Subroutine40 & 0xFFFF
//  807         }
??CrossCallReturnLabel_97:
        LCALL     ?CALL_IND
        SJMP      ??zclClosures_ProcessInDoorLock_4
//  808 
//  809         return ( ZCL_STATUS_FAILURE );
//  810         break;
//  811 
//  812       default:
//  813         return ( ZFailure );   // Error ignore the command
??zclClosures_ProcessInDoorLock_2:
        MOV       R1,#0x1
??zclClosures_ProcessInDoorLock_4:
        MOV       A,#0x2
        LCALL     ?DEALLOC_XSTACK8
          CFI CFA_XSP16 add(XSP16, 13)
        MOV       R7,#0x5
        LJMP      ?BANKED_LEAVE_XDATA
//  814     }
//  815   }
//  816 }
          CFI EndBlock cfiBlock36

        RSEG BANKED_CODE:HUGECODE:NOROOT(0)
?Subroutine40:
          CFI Block cfiCond37 Using cfiCommon0
          CFI Function zclClosures_ProcessInDoorLockCmds
          CFI Conditional ??CrossCallReturnLabel_96
          CFI R6 load(1, XDATA, add(CFA_XSP16, literal(-10)))
          CFI VB load(1, XDATA, add(CFA_XSP16, literal(-9)))
          CFI V0 load(1, XDATA, add(CFA_XSP16, literal(-8)))
          CFI V1 load(1, XDATA, add(CFA_XSP16, literal(-7)))
          CFI R7 load(1, XDATA, add(CFA_XSP16, literal(-6)))
          CFI ?RET_LOW load(1, XDATA, add(CFA_XSP16, literal(-5)))
          CFI ?RET_HIGH load(1, XDATA, add(CFA_XSP16, literal(-4)))
          CFI ?BRET_EXT load(1, XDATA, add(CFA_XSP16, literal(-3)))
          CFI DPL0 load(1, XDATA, add(CFA_XSP16, literal(-2)))
          CFI DPH0 load(1, XDATA, add(CFA_XSP16, literal(-1)))
          CFI CFA_SP SP+-2
          CFI CFA_XSP16 add(XSP16, 16)
          CFI Block cfiCond38 Using cfiCommon0
          CFI (cfiCond38) Function zclClosures_ProcessInDoorLock
          CFI (cfiCond38) Conditional ??CrossCallReturnLabel_97
          CFI (cfiCond38) R6 load(1, XDATA, add(CFA_XSP16, literal(-13)))
          CFI (cfiCond38) VB load(1, XDATA, add(CFA_XSP16, literal(-12)))
          CFI (cfiCond38) V0 load(1, XDATA, add(CFA_XSP16, literal(-11)))
          CFI (cfiCond38) V1 load(1, XDATA, add(CFA_XSP16, literal(-10)))
          CFI (cfiCond38) V2 load(1, XDATA, add(CFA_XSP16, literal(-9)))
          CFI (cfiCond38) V3 load(1, XDATA, add(CFA_XSP16, literal(-8)))
          CFI (cfiCond38) V4 load(1, XDATA, add(CFA_XSP16, literal(-7)))
          CFI (cfiCond38) R7 load(1, XDATA, add(CFA_XSP16, literal(-6)))
          CFI (cfiCond38) ?RET_LOW load(1, XDATA, add(CFA_XSP16, literal(-5)))
          CFI (cfiCond38) ?RET_HIGH load(1, XDATA, add(CFA_XSP16, literal(-4)))
          CFI (cfiCond38) ?BRET_EXT load(1, XDATA, add(CFA_XSP16, literal(-3)))
          CFI (cfiCond38) DPL0 load(1, XDATA, add(CFA_XSP16, literal(-2)))
          CFI (cfiCond38) DPH0 load(1, XDATA, add(CFA_XSP16, literal(-1)))
          CFI (cfiCond38) CFA_SP SP+-2
          CFI (cfiCond38) CFA_XSP16 add(XSP16, 15)
          CFI Block cfiPicker39 Using cfiCommon1
          CFI (cfiPicker39) NoFunction
          CFI (cfiPicker39) Picker
        LCALL     ?Subroutine101 & 0xFFFF
??CrossCallReturnLabel_226:
        MOV       R1,A
        MOV       DPL,R4
        MOV       DPH,R5
        RET
          CFI EndBlock cfiCond37
          CFI EndBlock cfiCond38
          CFI EndBlock cfiPicker39
//  817 
//  818 /*********************************************************************
//  819  * @fn      zclClosures_ProcessInDoorLockUnlockWithTimeout
//  820  *
//  821  * @brief   Process in the received Unlock With Timeout cmd
//  822  *
//  823  * @param   pInMsg - pointer to the incoming message
//  824  * @param   pCBs - pointer to the application callbacks
//  825  *
//  826  * @return  ZStatus_t
//  827  */

        RSEG BANKED_CODE:HUGECODE:NOROOT(0)
//  828 static ZStatus_t zclClosures_ProcessInDoorLockUnlockWithTimeout( zclIncoming_t *pInMsg,
zclClosures_ProcessInDoorLockUnlockWithTimeout:
          CFI Block cfiBlock40 Using cfiCommon0
          CFI Function zclClosures_ProcessInDoorLockUnlockWithTimeout
        CODE
//  829                                                                  zclClosures_DoorLockAppCallbacks_t *pCBs )
//  830 {
        FUNCALL zclClosures_ProcessInDoorLockUnlockWithTimeout, osal_mem_alloc
        LOCFRAME ISTACK, 0, STACK
        LOCFRAME PSTACK, 0, STACK
        LOCFRAME XSTACK, 20, STACK
        LOCFRAME IOVERLAY, 0, STATIC
        LOCFRAME DOVERLAY, 0, STATIC
        ARGFRAME ISTACK, 0, STACK
        ARGFRAME PSTACK, 0, STACK
        ARGFRAME XSTACK, 20, STACK
        ARGFRAME IOVERLAY, 0, STATIC
        ARGFRAME DOVERLAY, 0, STATIC
        FUNCALL zclClosures_ProcessInDoorLockUnlockWithTimeout, osal_mem_free
        LOCFRAME ISTACK, 0, STACK
        LOCFRAME PSTACK, 0, STACK
        LOCFRAME XSTACK, 20, STACK
        LOCFRAME IOVERLAY, 0, STATIC
        LOCFRAME DOVERLAY, 0, STATIC
        ARGFRAME ISTACK, 0, STACK
        ARGFRAME PSTACK, 0, STACK
        ARGFRAME XSTACK, 20, STACK
        ARGFRAME IOVERLAY, 0, STATIC
        ARGFRAME DOVERLAY, 0, STATIC
        REQUIRE ?V0
        REQUIRE ?V1
        REQUIRE ?V2
        REQUIRE ?V3
        REQUIRE ?V4
        REQUIRE ?V6
        REQUIRE ?V7
        MOV       A,#-0x10
        LCALL     ?BANKED_ENTER_XDATA
          CFI DPH0 load(1, XDATA, add(CFA_XSP16, literal(-1)))
          CFI DPL0 load(1, XDATA, add(CFA_XSP16, literal(-2)))
          CFI ?BRET_EXT load(1, XDATA, add(CFA_XSP16, literal(-3)))
          CFI ?RET_HIGH load(1, XDATA, add(CFA_XSP16, literal(-4)))
          CFI ?RET_LOW load(1, XDATA, add(CFA_XSP16, literal(-5)))
          CFI R7 load(1, XDATA, add(CFA_XSP16, literal(-6)))
          CFI V7 load(1, XDATA, add(CFA_XSP16, literal(-7)))
          CFI V6 load(1, XDATA, add(CFA_XSP16, literal(-8)))
          CFI V5 load(1, XDATA, add(CFA_XSP16, literal(-9)))
          CFI V4 load(1, XDATA, add(CFA_XSP16, literal(-10)))
          CFI V3 load(1, XDATA, add(CFA_XSP16, literal(-11)))
          CFI V2 load(1, XDATA, add(CFA_XSP16, literal(-12)))
          CFI V1 load(1, XDATA, add(CFA_XSP16, literal(-13)))
          CFI V0 load(1, XDATA, add(CFA_XSP16, literal(-14)))
          CFI VB load(1, XDATA, add(CFA_XSP16, literal(-15)))
          CFI R6 load(1, XDATA, add(CFA_XSP16, literal(-16)))
          CFI CFA_SP SP+0
          CFI CFA_XSP16 add(XSP16, 16)
        ; Saved register size: 16
        ; Auto size: 4
        MOV       A,#-0x4
        LCALL     ?ALLOC_XSTACK8
          CFI CFA_XSP16 add(XSP16, 20)
        MOV       A,R2
        MOV       R6,A
        MOV       A,R3
        MOV       R7,A
//  831   ZStatus_t status;
//  832 
//  833   if ( pCBs->pfnDoorLockUnlockWithTimeout )
        MOV       A,R4
        ADD       A,#0x4
        LCALL     ?Subroutine17 & 0xFFFF
??CrossCallReturnLabel_327:
        JZ        ??zclClosures_ProcessInDoorLockUnlockWithTimeou_1
//  834   {
//  835     uint8 i;
//  836     uint8 offset;
//  837     uint8 calculatedArrayLen;
//  838     zclDoorLockUnlockTimeout_t cmd;
//  839 
//  840     // first octet of PIN/RFID Code variable string identifies its length
//  841     calculatedArrayLen = pInMsg->pData[2] + 1;  // add first byte of string
        LCALL     ?Subroutine81 & 0xFFFF
??CrossCallReturnLabel_191:
        MOV       DPL,R0
        MOV       DPH,A
        LCALL     ??Subroutine152_0 & 0xFFFF
??CrossCallReturnLabel_363:
        INC       DPTR
        INC       DPTR
        MOVX      A,@DPTR
        INC       A
        MOV       ?V4,A
//  842 
//  843     cmd.pPinRfidCode = zcl_mem_alloc( calculatedArrayLen );
        ; Setup parameters for call to function osal_mem_alloc
        MOV       R2,A
        MOV       R3,#0x0
        LCALL     `??osal_mem_alloc::?relay`; Banked call to: osal_mem_alloc
        MOV       ?V6,R2
        MOV       ?V7,R3
        MOV       R0,?V6
        MOV       R1,?V7
        MOV       A,#0x2
        LCALL     ?XSTACK_DISP0_8
        LCALL     ?Subroutine61 & 0xFFFF
//  844     if ( !cmd.pPinRfidCode )
??CrossCallReturnLabel_140:
        JNZ       ??zclClosures_ProcessInDoorLockUnlockWithTimeou_2
//  845     {
//  846       return ( ZMemError );  // no memory
        MOV       R1,#0x10
        SJMP      ??zclClosures_ProcessInDoorLockUnlockWithTimeou_3
//  847     }
//  848 
//  849     cmd.timeout = BUILD_UINT16( pInMsg->pData[0], pInMsg->pData[1] );
??zclClosures_ProcessInDoorLockUnlockWithTimeou_2:
        MOV       DPL,?V2
        MOV       DPH,?V3
        LCALL     ??Subroutine125_0 & 0xFFFF
??CrossCallReturnLabel_265:
        MOV       R2,A
        INC       DPTR
        MOVX      A,@DPTR
        MOV       R1,A
        MOV       A,R2
        LCALL     ?Subroutine77 & 0xFFFF
//  850     offset = 2;
??CrossCallReturnLabel_287:
        MOV       R1,#0x2
//  851     for ( i = 0; i < calculatedArrayLen; i++ )
        MOV       R0,#0x0
        SJMP      ??zclClosures_ProcessInDoorLockUnlockWithTimeou_4
//  852     {
//  853       cmd.pPinRfidCode[i] = pInMsg->pData[offset++];
??zclClosures_ProcessInDoorLockUnlockWithTimeou_5:
        MOV       A,R1
        MOV       R2,A
        MOV       DPL,?V2
        MOV       DPH,?V3
        LCALL     ??Subroutine168_0 & 0xFFFF
//  854     }
??CrossCallReturnLabel_419:
        PUSH      A
          CFI CFA_SP SP+-1
        MOV       A,R0
        MOV       R2,A
        MOV       A,#0x2
        LCALL     ?XSTACK_DISP0_8
        LCALL     ?Subroutine19 & 0xFFFF
??CrossCallReturnLabel_43:
        POP       A
          CFI CFA_SP SP+0
        MOVX      @DPTR,A
        INC       R1
        INC       R0
??zclClosures_ProcessInDoorLockUnlockWithTimeou_4:
        MOV       A,R0
        CLR       C
        SUBB      A,?V4
        JC        ??zclClosures_ProcessInDoorLockUnlockWithTimeou_5
//  855 
//  856     status = ( pCBs->pfnDoorLockUnlockWithTimeout( pInMsg, &cmd ) );
        ; Setup parameters for indirect call
        LCALL     ?Subroutine48 & 0xFFFF
??CrossCallReturnLabel_375:
        LCALL     ?CALL_IND
        MOV       A,R1
        MOV       R6,A
//  857     zcl_mem_free( cmd.pPinRfidCode );
        ; Setup parameters for call to function osal_mem_free
        MOV       A,#0x2
        LCALL     ?XSTACK_DISP0_8
        LCALL     ?Subroutine37 & 0xFFFF
??CrossCallReturnLabel_86:
        LCALL     `??osal_mem_free::?relay`; Banked call to: osal_mem_free
//  858     return status;
        MOV       A,R6
        MOV       R1,A
        SJMP      ??zclClosures_ProcessInDoorLockUnlockWithTimeou_3
//  859   }
//  860 
//  861   return ( ZFailure );
??zclClosures_ProcessInDoorLockUnlockWithTimeou_1:
        MOV       R1,#0x1
??zclClosures_ProcessInDoorLockUnlockWithTimeou_3:
        MOV       A,#0x4
        SJMP      ??Subroutine127_0
//  862 }
          CFI EndBlock cfiBlock40

        RSEG BANKED_CODE:HUGECODE:NOROOT(0)
?Subroutine81:
          CFI Block cfiCond41 Using cfiCommon0
          CFI Function zclClosures_ProcessInDoorLock
          CFI Conditional ??CrossCallReturnLabel_190
          CFI R6 load(1, XDATA, add(CFA_XSP16, literal(-13)))
          CFI VB load(1, XDATA, add(CFA_XSP16, literal(-12)))
          CFI V0 load(1, XDATA, add(CFA_XSP16, literal(-11)))
          CFI V1 load(1, XDATA, add(CFA_XSP16, literal(-10)))
          CFI V2 load(1, XDATA, add(CFA_XSP16, literal(-9)))
          CFI V3 load(1, XDATA, add(CFA_XSP16, literal(-8)))
          CFI V4 load(1, XDATA, add(CFA_XSP16, literal(-7)))
          CFI R7 load(1, XDATA, add(CFA_XSP16, literal(-6)))
          CFI ?RET_LOW load(1, XDATA, add(CFA_XSP16, literal(-5)))
          CFI ?RET_HIGH load(1, XDATA, add(CFA_XSP16, literal(-4)))
          CFI ?BRET_EXT load(1, XDATA, add(CFA_XSP16, literal(-3)))
          CFI DPL0 load(1, XDATA, add(CFA_XSP16, literal(-2)))
          CFI DPH0 load(1, XDATA, add(CFA_XSP16, literal(-1)))
          CFI CFA_SP SP+-2
          CFI CFA_XSP16 add(XSP16, 15)
          CFI Block cfiCond42 Using cfiCommon0
          CFI (cfiCond42) Function zclClosures_ProcessInDoorLockUnlockWithTimeout
          CFI (cfiCond42) Conditional ??CrossCallReturnLabel_191
          CFI (cfiCond42) R6 load(1, XDATA, add(CFA_XSP16, literal(-16)))
          CFI (cfiCond42) VB load(1, XDATA, add(CFA_XSP16, literal(-15)))
          CFI (cfiCond42) V0 load(1, XDATA, add(CFA_XSP16, literal(-14)))
          CFI (cfiCond42) V1 load(1, XDATA, add(CFA_XSP16, literal(-13)))
          CFI (cfiCond42) V2 load(1, XDATA, add(CFA_XSP16, literal(-12)))
          CFI (cfiCond42) V3 load(1, XDATA, add(CFA_XSP16, literal(-11)))
          CFI (cfiCond42) V4 load(1, XDATA, add(CFA_XSP16, literal(-10)))
          CFI (cfiCond42) V5 load(1, XDATA, add(CFA_XSP16, literal(-9)))
          CFI (cfiCond42) V6 load(1, XDATA, add(CFA_XSP16, literal(-8)))
          CFI (cfiCond42) V7 load(1, XDATA, add(CFA_XSP16, literal(-7)))
          CFI (cfiCond42) R7 load(1, XDATA, add(CFA_XSP16, literal(-6)))
          CFI (cfiCond42) ?RET_LOW load(1, XDATA, add(CFA_XSP16, literal(-5)))
          CFI (cfiCond42) ?RET_HIGH load(1, XDATA, add(CFA_XSP16, literal(-4)))
          CFI (cfiCond42) ?BRET_EXT load(1, XDATA, add(CFA_XSP16, literal(-3)))
          CFI (cfiCond42) DPL0 load(1, XDATA, add(CFA_XSP16, literal(-2)))
          CFI (cfiCond42) DPH0 load(1, XDATA, add(CFA_XSP16, literal(-1)))
          CFI (cfiCond42) CFA_SP SP+-2
          CFI (cfiCond42) CFA_XSP16 add(XSP16, 20)
          CFI Block cfiPicker43 Using cfiCommon1
          CFI (cfiPicker43) NoFunction
          CFI (cfiPicker43) Picker
        LCALL     ?Subroutine114 & 0xFFFF
??CrossCallReturnLabel_254:
        RET
          CFI EndBlock cfiCond41
          CFI EndBlock cfiCond42
          CFI EndBlock cfiPicker43

        RSEG BANKED_CODE:HUGECODE:NOROOT(0)
?Subroutine114:
          CFI Block cfiCond44 Using cfiCommon0
          CFI Function zclClosures_ProcessInDoorLock
          CFI Conditional ??CrossCallReturnLabel_254, ??CrossCallReturnLabel_190
          CFI R6 load(1, XDATA, add(CFA_XSP16, literal(-13)))
          CFI VB load(1, XDATA, add(CFA_XSP16, literal(-12)))
          CFI V0 load(1, XDATA, add(CFA_XSP16, literal(-11)))
          CFI V1 load(1, XDATA, add(CFA_XSP16, literal(-10)))
          CFI V2 load(1, XDATA, add(CFA_XSP16, literal(-9)))
          CFI V3 load(1, XDATA, add(CFA_XSP16, literal(-8)))
          CFI V4 load(1, XDATA, add(CFA_XSP16, literal(-7)))
          CFI R7 load(1, XDATA, add(CFA_XSP16, literal(-6)))
          CFI ?RET_LOW load(1, XDATA, add(CFA_XSP16, literal(-5)))
          CFI ?RET_HIGH load(1, XDATA, add(CFA_XSP16, literal(-4)))
          CFI ?BRET_EXT load(1, XDATA, add(CFA_XSP16, literal(-3)))
          CFI DPL0 load(1, XDATA, add(CFA_XSP16, literal(-2)))
          CFI DPH0 load(1, XDATA, add(CFA_XSP16, literal(-1)))
          CFI CFA_SP SP+-4
          CFI CFA_XSP16 add(XSP16, 15)
          CFI Block cfiCond45 Using cfiCommon0
          CFI (cfiCond45) Function zclClosures_ProcessInDoorLockUnlockWithTimeout
          CFI (cfiCond45) Conditional ??CrossCallReturnLabel_254, ??CrossCallReturnLabel_191
          CFI (cfiCond45) R6 load(1, XDATA, add(CFA_XSP16, literal(-16)))
          CFI (cfiCond45) VB load(1, XDATA, add(CFA_XSP16, literal(-15)))
          CFI (cfiCond45) V0 load(1, XDATA, add(CFA_XSP16, literal(-14)))
          CFI (cfiCond45) V1 load(1, XDATA, add(CFA_XSP16, literal(-13)))
          CFI (cfiCond45) V2 load(1, XDATA, add(CFA_XSP16, literal(-12)))
          CFI (cfiCond45) V3 load(1, XDATA, add(CFA_XSP16, literal(-11)))
          CFI (cfiCond45) V4 load(1, XDATA, add(CFA_XSP16, literal(-10)))
          CFI (cfiCond45) V5 load(1, XDATA, add(CFA_XSP16, literal(-9)))
          CFI (cfiCond45) V6 load(1, XDATA, add(CFA_XSP16, literal(-8)))
          CFI (cfiCond45) V7 load(1, XDATA, add(CFA_XSP16, literal(-7)))
          CFI (cfiCond45) R7 load(1, XDATA, add(CFA_XSP16, literal(-6)))
          CFI (cfiCond45) ?RET_LOW load(1, XDATA, add(CFA_XSP16, literal(-5)))
          CFI (cfiCond45) ?RET_HIGH load(1, XDATA, add(CFA_XSP16, literal(-4)))
          CFI (cfiCond45) ?BRET_EXT load(1, XDATA, add(CFA_XSP16, literal(-3)))
          CFI (cfiCond45) DPL0 load(1, XDATA, add(CFA_XSP16, literal(-2)))
          CFI (cfiCond45) DPH0 load(1, XDATA, add(CFA_XSP16, literal(-1)))
          CFI (cfiCond45) CFA_SP SP+-4
          CFI (cfiCond45) CFA_XSP16 add(XSP16, 20)
          CFI Block cfiCond46 Using cfiCommon0
          CFI (cfiCond46) Function zclClosures_ProcessInDoorLockSetPINCode
          CFI (cfiCond46) Conditional ??CrossCallReturnLabel_253, ??CrossCallReturnLabel_51
          CFI (cfiCond46) R6 load(1, XDATA, add(CFA_XSP16, literal(-16)))
          CFI (cfiCond46) VB load(1, XDATA, add(CFA_XSP16, literal(-15)))
          CFI (cfiCond46) V0 load(1, XDATA, add(CFA_XSP16, literal(-14)))
          CFI (cfiCond46) V1 load(1, XDATA, add(CFA_XSP16, literal(-13)))
          CFI (cfiCond46) V2 load(1, XDATA, add(CFA_XSP16, literal(-12)))
          CFI (cfiCond46) V3 load(1, XDATA, add(CFA_XSP16, literal(-11)))
          CFI (cfiCond46) V4 load(1, XDATA, add(CFA_XSP16, literal(-10)))
          CFI (cfiCond46) V5 load(1, XDATA, add(CFA_XSP16, literal(-9)))
          CFI (cfiCond46) V6 load(1, XDATA, add(CFA_XSP16, literal(-8)))
          CFI (cfiCond46) V7 load(1, XDATA, add(CFA_XSP16, literal(-7)))
          CFI (cfiCond46) R7 load(1, XDATA, add(CFA_XSP16, literal(-6)))
          CFI (cfiCond46) ?RET_LOW load(1, XDATA, add(CFA_XSP16, literal(-5)))
          CFI (cfiCond46) ?RET_HIGH load(1, XDATA, add(CFA_XSP16, literal(-4)))
          CFI (cfiCond46) ?BRET_EXT load(1, XDATA, add(CFA_XSP16, literal(-3)))
          CFI (cfiCond46) DPL0 load(1, XDATA, add(CFA_XSP16, literal(-2)))
          CFI (cfiCond46) DPH0 load(1, XDATA, add(CFA_XSP16, literal(-1)))
          CFI (cfiCond46) CFA_SP SP+-4
          CFI (cfiCond46) CFA_XSP16 add(XSP16, 22)
          CFI Block cfiCond47 Using cfiCommon0
          CFI (cfiCond47) Function zclClosures_ProcessInDoorLockSetRFIDCode
          CFI (cfiCond47) Conditional ??CrossCallReturnLabel_253, ??CrossCallReturnLabel_52
          CFI (cfiCond47) R6 load(1, XDATA, add(CFA_XSP16, literal(-16)))
          CFI (cfiCond47) VB load(1, XDATA, add(CFA_XSP16, literal(-15)))
          CFI (cfiCond47) V0 load(1, XDATA, add(CFA_XSP16, literal(-14)))
          CFI (cfiCond47) V1 load(1, XDATA, add(CFA_XSP16, literal(-13)))
          CFI (cfiCond47) V2 load(1, XDATA, add(CFA_XSP16, literal(-12)))
          CFI (cfiCond47) V3 load(1, XDATA, add(CFA_XSP16, literal(-11)))
          CFI (cfiCond47) V4 load(1, XDATA, add(CFA_XSP16, literal(-10)))
          CFI (cfiCond47) V5 load(1, XDATA, add(CFA_XSP16, literal(-9)))
          CFI (cfiCond47) V6 load(1, XDATA, add(CFA_XSP16, literal(-8)))
          CFI (cfiCond47) V7 load(1, XDATA, add(CFA_XSP16, literal(-7)))
          CFI (cfiCond47) R7 load(1, XDATA, add(CFA_XSP16, literal(-6)))
          CFI (cfiCond47) ?RET_LOW load(1, XDATA, add(CFA_XSP16, literal(-5)))
          CFI (cfiCond47) ?RET_HIGH load(1, XDATA, add(CFA_XSP16, literal(-4)))
          CFI (cfiCond47) ?BRET_EXT load(1, XDATA, add(CFA_XSP16, literal(-3)))
          CFI (cfiCond47) DPL0 load(1, XDATA, add(CFA_XSP16, literal(-2)))
          CFI (cfiCond47) DPH0 load(1, XDATA, add(CFA_XSP16, literal(-1)))
          CFI (cfiCond47) CFA_SP SP+-4
          CFI (cfiCond47) CFA_XSP16 add(XSP16, 22)
          CFI Block cfiCond48 Using cfiCommon0
          CFI (cfiCond48) Function zclClosures_ProcessInDoorLockGetPINCodeRsp
          CFI (cfiCond48) Conditional ??CrossCallReturnLabel_253, ??CrossCallReturnLabel_53
          CFI (cfiCond48) R6 load(1, XDATA, add(CFA_XSP16, literal(-16)))
          CFI (cfiCond48) VB load(1, XDATA, add(CFA_XSP16, literal(-15)))
          CFI (cfiCond48) V0 load(1, XDATA, add(CFA_XSP16, literal(-14)))
          CFI (cfiCond48) V1 load(1, XDATA, add(CFA_XSP16, literal(-13)))
          CFI (cfiCond48) V2 load(1, XDATA, add(CFA_XSP16, literal(-12)))
          CFI (cfiCond48) V3 load(1, XDATA, add(CFA_XSP16, literal(-11)))
          CFI (cfiCond48) V4 load(1, XDATA, add(CFA_XSP16, literal(-10)))
          CFI (cfiCond48) V5 load(1, XDATA, add(CFA_XSP16, literal(-9)))
          CFI (cfiCond48) V6 load(1, XDATA, add(CFA_XSP16, literal(-8)))
          CFI (cfiCond48) V7 load(1, XDATA, add(CFA_XSP16, literal(-7)))
          CFI (cfiCond48) R7 load(1, XDATA, add(CFA_XSP16, literal(-6)))
          CFI (cfiCond48) ?RET_LOW load(1, XDATA, add(CFA_XSP16, literal(-5)))
          CFI (cfiCond48) ?RET_HIGH load(1, XDATA, add(CFA_XSP16, literal(-4)))
          CFI (cfiCond48) ?BRET_EXT load(1, XDATA, add(CFA_XSP16, literal(-3)))
          CFI (cfiCond48) DPL0 load(1, XDATA, add(CFA_XSP16, literal(-2)))
          CFI (cfiCond48) DPH0 load(1, XDATA, add(CFA_XSP16, literal(-1)))
          CFI (cfiCond48) CFA_SP SP+-4
          CFI (cfiCond48) CFA_XSP16 add(XSP16, 22)
          CFI Block cfiCond49 Using cfiCommon0
          CFI (cfiCond49) Function zclClosures_ProcessInDoorLockGetRFIDCodeRsp
          CFI (cfiCond49) Conditional ??CrossCallReturnLabel_253, ??CrossCallReturnLabel_54
          CFI (cfiCond49) R6 load(1, XDATA, add(CFA_XSP16, literal(-16)))
          CFI (cfiCond49) VB load(1, XDATA, add(CFA_XSP16, literal(-15)))
          CFI (cfiCond49) V0 load(1, XDATA, add(CFA_XSP16, literal(-14)))
          CFI (cfiCond49) V1 load(1, XDATA, add(CFA_XSP16, literal(-13)))
          CFI (cfiCond49) V2 load(1, XDATA, add(CFA_XSP16, literal(-12)))
          CFI (cfiCond49) V3 load(1, XDATA, add(CFA_XSP16, literal(-11)))
          CFI (cfiCond49) V4 load(1, XDATA, add(CFA_XSP16, literal(-10)))
          CFI (cfiCond49) V5 load(1, XDATA, add(CFA_XSP16, literal(-9)))
          CFI (cfiCond49) V6 load(1, XDATA, add(CFA_XSP16, literal(-8)))
          CFI (cfiCond49) V7 load(1, XDATA, add(CFA_XSP16, literal(-7)))
          CFI (cfiCond49) R7 load(1, XDATA, add(CFA_XSP16, literal(-6)))
          CFI (cfiCond49) ?RET_LOW load(1, XDATA, add(CFA_XSP16, literal(-5)))
          CFI (cfiCond49) ?RET_HIGH load(1, XDATA, add(CFA_XSP16, literal(-4)))
          CFI (cfiCond49) ?BRET_EXT load(1, XDATA, add(CFA_XSP16, literal(-3)))
          CFI (cfiCond49) DPL0 load(1, XDATA, add(CFA_XSP16, literal(-2)))
          CFI (cfiCond49) DPH0 load(1, XDATA, add(CFA_XSP16, literal(-1)))
          CFI (cfiCond49) CFA_SP SP+-4
          CFI (cfiCond49) CFA_XSP16 add(XSP16, 22)
          CFI Block cfiPicker50 Using cfiCommon1
          CFI (cfiPicker50) NoFunction
          CFI (cfiPicker50) Picker
        MOV       A,R6
        ADD       A,#0x8
        MOV       R0,A
        CLR       A
        ADDC      A,R7
        MOV       R1,A
        MOV       ?V2,R0
        MOV       ?V3,R1
        RET
          CFI EndBlock cfiCond44
          CFI EndBlock cfiCond45
          CFI EndBlock cfiCond46
          CFI EndBlock cfiCond47
          CFI EndBlock cfiCond48
          CFI EndBlock cfiCond49
          CFI EndBlock cfiPicker50
//  863 
//  864 /*********************************************************************
//  865  * @fn      zclClosures_ProcessInDoorLockGetLogRecord
//  866  *
//  867  * @brief   Process in the received Get Log Record cmd
//  868  *
//  869  * @param   pInMsg - pointer to the incoming message
//  870  * @param   pCBs - pointer to the application callbacks
//  871  *
//  872  * @return  ZStatus_t
//  873  */
//  874 static ZStatus_t zclClosures_ProcessInDoorLockGetLogRecord( zclIncoming_t *pInMsg,
//  875                                                             zclClosures_DoorLockAppCallbacks_t *pCBs )
//  876 {
//  877   if ( pCBs->pfnDoorLockGetLogRecord )
//  878   {
//  879     zclDoorLockGetLogRecord_t cmd;
//  880 
//  881     cmd.logIndex = BUILD_UINT16( pInMsg->pData[0], pInMsg->pData[1] );
//  882 
//  883     return ( pCBs->pfnDoorLockGetLogRecord( pInMsg, &cmd ) );
//  884   }
//  885 
//  886   return ( ZFailure );
//  887 }
//  888 
//  889 /*********************************************************************
//  890  * @fn      zclClosures_ProcessInDoorLockSetPINCode
//  891  *
//  892  * @brief   Process in the received Set PIN Code cmd
//  893  *
//  894  * @param   pInMsg - pointer to the incoming message
//  895  * @param   pCBs - pointer to the application callbacks
//  896  *
//  897  * @return  ZStatus_t
//  898  */

        RSEG BANKED_CODE:HUGECODE:NOROOT(0)
?Subroutine2:
          CFI Block cfiBlock51 Using cfiCommon0
          CFI NoFunction
          CFI CFA_SP SP+0
          CFI CFA_XSP16 add(XSP16, 22)
          CFI VB load(1, XDATA, add(CFA_XSP16, literal(-15)))
          CFI DPL0 load(1, XDATA, add(CFA_XSP16, literal(-2)))
          CFI DPH0 load(1, XDATA, add(CFA_XSP16, literal(-1)))
          CFI R6 load(1, XDATA, add(CFA_XSP16, literal(-16)))
          CFI R7 load(1, XDATA, add(CFA_XSP16, literal(-6)))
          CFI V0 load(1, XDATA, add(CFA_XSP16, literal(-14)))
          CFI V1 load(1, XDATA, add(CFA_XSP16, literal(-13)))
          CFI V2 load(1, XDATA, add(CFA_XSP16, literal(-12)))
          CFI V3 load(1, XDATA, add(CFA_XSP16, literal(-11)))
          CFI V4 load(1, XDATA, add(CFA_XSP16, literal(-10)))
          CFI V5 load(1, XDATA, add(CFA_XSP16, literal(-9)))
          CFI V6 load(1, XDATA, add(CFA_XSP16, literal(-8)))
          CFI V7 load(1, XDATA, add(CFA_XSP16, literal(-7)))
          CFI ?BRET_EXT load(1, XDATA, add(CFA_XSP16, literal(-3)))
          CFI ?RET_HIGH load(1, XDATA, add(CFA_XSP16, literal(-4)))
          CFI ?RET_LOW load(1, XDATA, add(CFA_XSP16, literal(-5)))
        MOV       A,#0x6
          CFI EndBlock cfiBlock51
        REQUIRE ??Subroutine127_0
        ; // Fall through to label ??Subroutine127_0

        RSEG BANKED_CODE:HUGECODE:NOROOT(0)
??Subroutine127_0:
          CFI Block cfiBlock52 Using cfiCommon0
          CFI NoFunction
          CFI CFA_SP SP+0
          CFI CFA_XSP16 add(XSP16, 20)
          CFI VB load(1, XDATA, add(CFA_XSP16, literal(-15)))
          CFI DPL0 load(1, XDATA, add(CFA_XSP16, literal(-2)))
          CFI DPH0 load(1, XDATA, add(CFA_XSP16, literal(-1)))
          CFI R6 load(1, XDATA, add(CFA_XSP16, literal(-16)))
          CFI R7 load(1, XDATA, add(CFA_XSP16, literal(-6)))
          CFI V0 load(1, XDATA, add(CFA_XSP16, literal(-14)))
          CFI V1 load(1, XDATA, add(CFA_XSP16, literal(-13)))
          CFI V2 load(1, XDATA, add(CFA_XSP16, literal(-12)))
          CFI V3 load(1, XDATA, add(CFA_XSP16, literal(-11)))
          CFI V4 load(1, XDATA, add(CFA_XSP16, literal(-10)))
          CFI V5 load(1, XDATA, add(CFA_XSP16, literal(-9)))
          CFI V6 load(1, XDATA, add(CFA_XSP16, literal(-8)))
          CFI V7 load(1, XDATA, add(CFA_XSP16, literal(-7)))
          CFI ?BRET_EXT load(1, XDATA, add(CFA_XSP16, literal(-3)))
          CFI ?RET_HIGH load(1, XDATA, add(CFA_XSP16, literal(-4)))
          CFI ?RET_LOW load(1, XDATA, add(CFA_XSP16, literal(-5)))
          CFI Invalid
        LCALL     ?DEALLOC_XSTACK8
          CFI CFA_XSP16 add(XSP16, 16)
          CFI Valid
        MOV       R7,#0x8
        LJMP      ?BANKED_LEAVE_XDATA
          CFI EndBlock cfiBlock52

        RSEG BANKED_CODE:HUGECODE:NOROOT(0)
//  899 static ZStatus_t zclClosures_ProcessInDoorLockSetPINCode( zclIncoming_t *pInMsg,
zclClosures_ProcessInDoorLockSetPINCode:
          CFI Block cfiBlock53 Using cfiCommon0
          CFI Function zclClosures_ProcessInDoorLockSetPINCode
        CODE
//  900                                                           zclClosures_DoorLockAppCallbacks_t *pCBs )
//  901 {
        FUNCALL zclClosures_ProcessInDoorLockSetPINCode, osal_mem_alloc
        LOCFRAME ISTACK, 0, STACK
        LOCFRAME PSTACK, 0, STACK
        LOCFRAME XSTACK, 22, STACK
        LOCFRAME IOVERLAY, 0, STATIC
        LOCFRAME DOVERLAY, 0, STATIC
        ARGFRAME ISTACK, 0, STACK
        ARGFRAME PSTACK, 0, STACK
        ARGFRAME XSTACK, 22, STACK
        ARGFRAME IOVERLAY, 0, STATIC
        ARGFRAME DOVERLAY, 0, STATIC
        FUNCALL zclClosures_ProcessInDoorLockSetPINCode, osal_mem_free
        LOCFRAME ISTACK, 0, STACK
        LOCFRAME PSTACK, 0, STACK
        LOCFRAME XSTACK, 22, STACK
        LOCFRAME IOVERLAY, 0, STATIC
        LOCFRAME DOVERLAY, 0, STATIC
        ARGFRAME ISTACK, 0, STACK
        ARGFRAME PSTACK, 0, STACK
        ARGFRAME XSTACK, 22, STACK
        ARGFRAME IOVERLAY, 0, STATIC
        ARGFRAME DOVERLAY, 0, STATIC
        REQUIRE ?V0
        REQUIRE ?V1
        REQUIRE ?V2
        REQUIRE ?V3
        REQUIRE ?V4
        REQUIRE ?V6
        REQUIRE ?V7
        MOV       A,#-0x10
        LCALL     ?BANKED_ENTER_XDATA
          CFI DPH0 load(1, XDATA, add(CFA_XSP16, literal(-1)))
          CFI DPL0 load(1, XDATA, add(CFA_XSP16, literal(-2)))
          CFI ?BRET_EXT load(1, XDATA, add(CFA_XSP16, literal(-3)))
          CFI ?RET_HIGH load(1, XDATA, add(CFA_XSP16, literal(-4)))
          CFI ?RET_LOW load(1, XDATA, add(CFA_XSP16, literal(-5)))
          CFI R7 load(1, XDATA, add(CFA_XSP16, literal(-6)))
          CFI V7 load(1, XDATA, add(CFA_XSP16, literal(-7)))
          CFI V6 load(1, XDATA, add(CFA_XSP16, literal(-8)))
          CFI V5 load(1, XDATA, add(CFA_XSP16, literal(-9)))
          CFI V4 load(1, XDATA, add(CFA_XSP16, literal(-10)))
          CFI V3 load(1, XDATA, add(CFA_XSP16, literal(-11)))
          CFI V2 load(1, XDATA, add(CFA_XSP16, literal(-12)))
          CFI V1 load(1, XDATA, add(CFA_XSP16, literal(-13)))
          CFI V0 load(1, XDATA, add(CFA_XSP16, literal(-14)))
          CFI VB load(1, XDATA, add(CFA_XSP16, literal(-15)))
          CFI R6 load(1, XDATA, add(CFA_XSP16, literal(-16)))
          CFI CFA_SP SP+0
          CFI CFA_XSP16 add(XSP16, 16)
        ; Saved register size: 16
        ; Auto size: 6
        MOV       A,#-0x6
        LCALL     ?ALLOC_XSTACK8
          CFI CFA_XSP16 add(XSP16, 22)
        MOV       A,R2
        MOV       R6,A
        MOV       A,R3
        MOV       R7,A
//  902  if ( pCBs->pfnDoorLockSetPINCode )
        MOV       A,R4
        ADD       A,#0x8
        LCALL     ?Subroutine17 & 0xFFFF
??CrossCallReturnLabel_328:
        JZ        ??zclClosures_ProcessInDoorLockSetPINCode_0
//  903  {
//  904     uint8 i;
//  905     uint8 offset;
//  906     uint8 calculatedArrayLen;
//  907     zclDoorLockSetPINCode_t cmd;
//  908     ZStatus_t status;
//  909 
//  910     // first octet of PIN/RFID Code variable string identifies its length
//  911     calculatedArrayLen = pInMsg->pData[4] + 1; // add first byte of string
        LCALL     ?Subroutine20 & 0xFFFF
//  912 
//  913     cmd.pPIN = zcl_mem_alloc( calculatedArrayLen );
??CrossCallReturnLabel_51:
        LCALL     `??osal_mem_alloc::?relay`; Banked call to: osal_mem_alloc
        MOV       ?V6,R2
        MOV       ?V7,R3
        MOV       R0,?V6
        MOV       R1,?V7
        MOV       A,#0x4
        LCALL     ?XSTACK_DISP0_8
        LCALL     ?Subroutine61 & 0xFFFF
//  914     if ( !cmd.pPIN )
??CrossCallReturnLabel_141:
        JNZ       ??zclClosures_ProcessInDoorLockSetPINCode_1
//  915     {
//  916       return ( ZMemError );  // no memory
        MOV       R1,#0x10
        SJMP      ??zclClosures_ProcessInDoorLockSetPINCode_2
//  917     }
//  918 
//  919     cmd.userID = BUILD_UINT16( pInMsg->pData[0], pInMsg->pData[1] );
??zclClosures_ProcessInDoorLockSetPINCode_1:
        LCALL     ?Subroutine11 & 0xFFFF
//  920     cmd.userStatus = pInMsg->pData[2];
??CrossCallReturnLabel_4:
        PUSH      A
          CFI CFA_SP SP+-1
        MOV       A,#0x2
        LCALL     ?XSTACK_DISP0_8
        POP       A
          CFI CFA_SP SP+0
        LCALL     ?Subroutine24 & 0xFFFF
//  921     cmd.userType = pInMsg->pData[3];
??CrossCallReturnLabel_61:
        PUSH      A
          CFI CFA_SP SP+-1
        MOV       A,#0x3
        LCALL     ?XSTACK_DISP0_8
        POP       A
          CFI CFA_SP SP+0
        LCALL     ?Subroutine73 & 0xFFFF
//  922     offset = 4;
//  923     for ( i = 0; i < calculatedArrayLen; i++ )
??CrossCallReturnLabel_168:
        SJMP      ??zclClosures_ProcessInDoorLockSetPINCode_3
//  924     {
//  925       cmd.pPIN[i] = pInMsg->pData[offset++];
??zclClosures_ProcessInDoorLockSetPINCode_4:
        MOV       A,R1
        MOV       R2,A
        MOV       DPL,?V2
        MOV       DPH,?V3
        LCALL     ??Subroutine168_0 & 0xFFFF
//  926     }
??CrossCallReturnLabel_420:
        PUSH      A
          CFI CFA_SP SP+-1
        MOV       A,R0
        MOV       R2,A
        MOV       A,#0x4
        LCALL     ?XSTACK_DISP0_8
        LCALL     ?Subroutine19 & 0xFFFF
??CrossCallReturnLabel_44:
        POP       A
          CFI CFA_SP SP+0
        MOVX      @DPTR,A
        INC       R1
        INC       R0
??zclClosures_ProcessInDoorLockSetPINCode_3:
        MOV       A,R0
        CLR       C
        SUBB      A,?V4
        JC        ??zclClosures_ProcessInDoorLockSetPINCode_4
//  927 
//  928     status = ( pCBs->pfnDoorLockSetPINCode( pInMsg, &cmd ) );
        ; Setup parameters for indirect call
        LCALL     ?Subroutine48 & 0xFFFF
??CrossCallReturnLabel_376:
        LCALL     ?CALL_IND
        MOV       A,R1
        MOV       R6,A
//  929     zcl_mem_free( cmd.pPIN );
        ; Setup parameters for call to function osal_mem_free
        MOV       A,#0x4
        LCALL     ?XSTACK_DISP0_8
        LCALL     ?Subroutine37 & 0xFFFF
??CrossCallReturnLabel_87:
        LCALL     `??osal_mem_free::?relay`; Banked call to: osal_mem_free
//  930     return status;
        MOV       A,R6
        MOV       R1,A
        SJMP      ??zclClosures_ProcessInDoorLockSetPINCode_2
//  931  }
//  932 
//  933  return ( ZFailure );
??zclClosures_ProcessInDoorLockSetPINCode_0:
        MOV       R1,#0x1
??zclClosures_ProcessInDoorLockSetPINCode_2:
        LJMP      ?Subroutine2 & 0xFFFF
//  934 }
          CFI EndBlock cfiBlock53
//  935 
//  936 /*********************************************************************
//  937  * @fn      zclClosures_ProcessInDoorLockGetPINCode
//  938  *
//  939  * @brief   Process in the received Get PIN Code cmd
//  940  *
//  941  * @param   pInMsg - pointer to the incoming message
//  942  * @param   pCBs - pointer to the application callbacks
//  943  *
//  944  * @return  ZStatus_t
//  945  */
//  946 static ZStatus_t zclClosures_ProcessInDoorLockGetPINCode( zclIncoming_t *pInMsg,
//  947                                                           zclClosures_DoorLockAppCallbacks_t *pCBs )
//  948 {
//  949  if ( pCBs->pfnDoorLockGetPINCode )
//  950  {
//  951    zclDoorLockUserID_t cmd;
//  952 
//  953    cmd.userID = BUILD_UINT16( pInMsg->pData[0], pInMsg->pData[1] );
//  954 
//  955    return ( pCBs->pfnDoorLockGetPINCode( pInMsg, &cmd ) );
//  956  }
//  957 
//  958  return ( ZFailure );
//  959 }
//  960 
//  961 /*********************************************************************
//  962  * @fn      zclClosures_ProcessInDoorLockClearPINCode
//  963  *
//  964  * @brief   Process in the received Clear PIN Code cmd
//  965  *
//  966  * @param   pInMsg - pointer to the incoming message
//  967  * @param   pCBs - pointer to the application callbacks
//  968  *
//  969  * @return  ZStatus_t
//  970  */
//  971 static ZStatus_t zclClosures_ProcessInDoorLockClearPINCode( zclIncoming_t *pInMsg,
//  972                                                             zclClosures_DoorLockAppCallbacks_t *pCBs )
//  973 {
//  974  if ( pCBs->pfnDoorLockClearPINCode )
//  975  {
//  976    zclDoorLockUserID_t cmd;
//  977 
//  978    cmd.userID = BUILD_UINT16( pInMsg->pData[0], pInMsg->pData[1] );
//  979 
//  980    return ( pCBs->pfnDoorLockClearPINCode( pInMsg, &cmd ) );
//  981  }
//  982 
//  983  return ( ZFailure );
//  984 }
//  985 
//  986 /*********************************************************************
//  987  * @fn      zclClosures_ProcessInDoorLockClearAllPINCodes
//  988  *
//  989  * @brief   Process in the received Clear All PIN Codes cmd
//  990  *
//  991  * @param   pInMsg - pointer to the incoming message
//  992  * @param   pCBs - pointer to the application callbacks
//  993  *
//  994  * @return  ZStatus_t
//  995  */
//  996 static ZStatus_t zclClosures_ProcessInDoorLockClearAllPINCodes( zclIncoming_t *pInMsg,
//  997                                                                 zclClosures_DoorLockAppCallbacks_t *pCBs )
//  998 {
//  999  if ( pCBs->pfnDoorLockClearAllPINCodes )
// 1000  {
// 1001    // no payload
// 1002 
// 1003    return ( pCBs->pfnDoorLockClearAllPINCodes( pInMsg ) );
// 1004  }
// 1005 
// 1006  return ( ZFailure );
// 1007 }
// 1008 
// 1009 /*********************************************************************
// 1010  * @fn      zclClosures_ProcessInDoorLockSetUserStatus
// 1011  *
// 1012  * @brief   Process in the received Set User Status cmd
// 1013  *
// 1014  * @param   pInMsg - pointer to the incoming message
// 1015  * @param   pCBs - pointer to the application callbacks
// 1016  *
// 1017  * @return  ZStatus_t
// 1018  */
// 1019 static ZStatus_t zclClosures_ProcessInDoorLockSetUserStatus( zclIncoming_t *pInMsg,
// 1020                                                              zclClosures_DoorLockAppCallbacks_t *pCBs )
// 1021 {
// 1022  if ( pCBs->pfnDoorLockSetUserStatus )
// 1023  {
// 1024    zclDoorLockSetUserStatus_t cmd;
// 1025 
// 1026    cmd.userID = BUILD_UINT16( pInMsg->pData[0], pInMsg->pData[1] );
// 1027    cmd.userStatus = pInMsg->pData[2];
// 1028 
// 1029    return ( pCBs->pfnDoorLockSetUserStatus( pInMsg, &cmd ) );
// 1030  }
// 1031 
// 1032  return ( ZFailure );
// 1033 }
// 1034 
// 1035 /*********************************************************************
// 1036  * @fn      zclClosures_ProcessInDoorLockGetUserStatus
// 1037  *
// 1038  * @brief   Process in the received Get User Status cmd
// 1039  *
// 1040  * @param   pInMsg - pointer to the incoming message
// 1041  * @param   pCBs - pointer to the application callbacks
// 1042  *
// 1043  * @return  ZStatus_t
// 1044  */
// 1045 static ZStatus_t zclClosures_ProcessInDoorLockGetUserStatus( zclIncoming_t *pInMsg,
// 1046                                                              zclClosures_DoorLockAppCallbacks_t *pCBs )
// 1047 {
// 1048  if ( pCBs->pfnDoorLockGetUserStatus )
// 1049  {
// 1050    zclDoorLockUserID_t cmd;
// 1051 
// 1052    cmd.userID = BUILD_UINT16( pInMsg->pData[0], pInMsg->pData[1] );
// 1053 
// 1054    return ( pCBs->pfnDoorLockGetUserStatus( pInMsg, &cmd ) );
// 1055  }
// 1056 
// 1057  return ( ZFailure );
// 1058 }
// 1059 
// 1060 /*********************************************************************
// 1061  * @fn      zclClosures_ProcessInDoorLockSetWeekDaySchedule
// 1062  *
// 1063  * @brief   Process in the received Set Week Day Schedule cmd
// 1064  *
// 1065  * @param   pInMsg - pointer to the incoming message
// 1066  * @param   pCBs - pointer to the application callbacks
// 1067  *
// 1068  * @return  ZStatus_t
// 1069  */

        RSEG BANKED_CODE:HUGECODE:NOROOT(0)
// 1070 static ZStatus_t zclClosures_ProcessInDoorLockSetWeekDaySchedule( zclIncoming_t *pInMsg,
zclClosures_ProcessInDoorLockSetWeekDaySchedule:
          CFI Block cfiBlock54 Using cfiCommon0
          CFI Function zclClosures_ProcessInDoorLockSetWeekDaySchedule
        CODE
// 1071                                                                   zclClosures_DoorLockAppCallbacks_t *pCBs )
// 1072 {
        REQUIRE ?V0
        REQUIRE ?V1
        REQUIRE ?V2
        REQUIRE ?V3
        MOV       A,#-0xc
        LCALL     ?BANKED_ENTER_XDATA
          CFI DPH0 load(1, XDATA, add(CFA_XSP16, literal(-1)))
          CFI DPL0 load(1, XDATA, add(CFA_XSP16, literal(-2)))
          CFI ?BRET_EXT load(1, XDATA, add(CFA_XSP16, literal(-3)))
          CFI ?RET_HIGH load(1, XDATA, add(CFA_XSP16, literal(-4)))
          CFI ?RET_LOW load(1, XDATA, add(CFA_XSP16, literal(-5)))
          CFI R7 load(1, XDATA, add(CFA_XSP16, literal(-6)))
          CFI V3 load(1, XDATA, add(CFA_XSP16, literal(-7)))
          CFI V2 load(1, XDATA, add(CFA_XSP16, literal(-8)))
          CFI V1 load(1, XDATA, add(CFA_XSP16, literal(-9)))
          CFI V0 load(1, XDATA, add(CFA_XSP16, literal(-10)))
          CFI VB load(1, XDATA, add(CFA_XSP16, literal(-11)))
          CFI R6 load(1, XDATA, add(CFA_XSP16, literal(-12)))
          CFI CFA_SP SP+0
          CFI CFA_XSP16 add(XSP16, 12)
        ; Saved register size: 12
        ; Auto size: 8
        MOV       A,#-0x8
        LCALL     ?ALLOC_XSTACK8
          CFI CFA_XSP16 add(XSP16, 20)
// 1073  if ( pCBs->pfnDoorLockSetWeekDaySchedule )
        MOV       A,R4
        ADD       A,#0x14
        LCALL     ?Subroutine25 & 0xFFFF
??CrossCallReturnLabel_281:
        JZ        ??zclClosures_ProcessInDoorLockSetWeekDaySchedu_1
// 1074  {
// 1075    zclDoorLockSetWeekDaySchedule_t cmd;
// 1076 
// 1077    cmd.scheduleID = pInMsg->pData[0];
        LCALL     ?Subroutine21 & 0xFFFF
// 1078    cmd.userID = BUILD_UINT16( pInMsg->pData[1], pInMsg->pData[2] );
??CrossCallReturnLabel_55:
        LCALL     ?XSTACK_DISP0_8
        LCALL     ?Subroutine64 & 0xFFFF
// 1079    cmd.daysMask = pInMsg->pData[3];
??CrossCallReturnLabel_150:
        PUSH      A
          CFI CFA_SP SP+-1
        MOV       A,#0x3
        LCALL     ?XSTACK_DISP0_8
        POP       A
          CFI CFA_SP SP+0
        MOVX      @DPTR,A
// 1080    cmd.startHour = pInMsg->pData[4];
        LCALL     ?Subroutine45 & 0xFFFF
??CrossCallReturnLabel_110:
        PUSH      A
          CFI CFA_SP SP+-1
        MOV       A,#0x4
        LCALL     ?XSTACK_DISP0_8
        POP       A
          CFI CFA_SP SP+0
        LCALL     ?Subroutine41 & 0xFFFF
// 1081    cmd.startMinute = pInMsg->pData[5];
??CrossCallReturnLabel_98:
        PUSH      A
          CFI CFA_SP SP+-1
        MOV       A,#0x5
        LCALL     ?XSTACK_DISP0_8
        POP       A
          CFI CFA_SP SP+0
        LCALL     ?Subroutine42 & 0xFFFF
// 1082    cmd.endHour = pInMsg->pData[6];
??CrossCallReturnLabel_100:
        PUSH      A
          CFI CFA_SP SP+-1
        MOV       A,#0x6
        LCALL     ?XSTACK_DISP0_8
        POP       A
          CFI CFA_SP SP+0
        LCALL     ?Subroutine71 & 0xFFFF
// 1083    cmd.endMinute = pInMsg->pData[7];
??CrossCallReturnLabel_164:
        ADD       A,#0x7
        MOV       DPL,A
        CLR       A
        ADDC      A,R4
        MOV       DPH,A
        MOVX      A,@DPTR
        PUSH      A
          CFI CFA_SP SP+-1
        MOV       A,#0x7
        LCALL     ?XSTACK_DISP0_8
        POP       A
          CFI CFA_SP SP+0
        MOVX      @DPTR,A
// 1084 
// 1085    return ( pCBs->pfnDoorLockSetWeekDaySchedule( pInMsg, &cmd ) );
        ; Setup parameters for indirect call
        MOV       R4,?XSP + 0
        MOV       R5,?XSP + 1
        MOV       DPL,R0
        MOV       DPH,R1
        LCALL     ??Subroutine152_0 & 0xFFFF
// 1086  }
??CrossCallReturnLabel_364:
        LCALL     ?CALL_IND
        SJMP      ??zclClosures_ProcessInDoorLockSetWeekDaySchedu_2
// 1087 
// 1088  return ( ZFailure );
??zclClosures_ProcessInDoorLockSetWeekDaySchedu_1:
        MOV       R1,#0x1
??zclClosures_ProcessInDoorLockSetWeekDaySchedu_2:
          CFI EndBlock cfiBlock54
        REQUIRE ?Subroutine8
        ; // Fall through to label ?Subroutine8
// 1089 }

        RSEG BANKED_CODE:HUGECODE:NOROOT(0)
?Subroutine8:
          CFI Block cfiBlock55 Using cfiCommon0
          CFI NoFunction
          CFI CFA_SP SP+0
          CFI CFA_XSP16 add(XSP16, 20)
          CFI VB load(1, XDATA, add(CFA_XSP16, literal(-11)))
          CFI DPL0 load(1, XDATA, add(CFA_XSP16, literal(-2)))
          CFI DPH0 load(1, XDATA, add(CFA_XSP16, literal(-1)))
          CFI R6 load(1, XDATA, add(CFA_XSP16, literal(-12)))
          CFI R7 load(1, XDATA, add(CFA_XSP16, literal(-6)))
          CFI V0 load(1, XDATA, add(CFA_XSP16, literal(-10)))
          CFI V1 load(1, XDATA, add(CFA_XSP16, literal(-9)))
          CFI V2 load(1, XDATA, add(CFA_XSP16, literal(-8)))
          CFI V3 load(1, XDATA, add(CFA_XSP16, literal(-7)))
          CFI ?BRET_EXT load(1, XDATA, add(CFA_XSP16, literal(-3)))
          CFI ?RET_HIGH load(1, XDATA, add(CFA_XSP16, literal(-4)))
          CFI ?RET_LOW load(1, XDATA, add(CFA_XSP16, literal(-5)))
        MOV       A,#0x8
        LJMP      ??Subroutine163_0 & 0xFFFF
          CFI EndBlock cfiBlock55

        RSEG BANKED_CODE:HUGECODE:NOROOT(0)
?Subroutine25:
          CFI Block cfiCond56 Using cfiCommon0
          CFI Function zclClosures_ProcessInDoorLockCmds
          CFI Conditional ??CrossCallReturnLabel_277
          CFI R6 load(1, XDATA, add(CFA_XSP16, literal(-10)))
          CFI VB load(1, XDATA, add(CFA_XSP16, literal(-9)))
          CFI V0 load(1, XDATA, add(CFA_XSP16, literal(-8)))
          CFI V1 load(1, XDATA, add(CFA_XSP16, literal(-7)))
          CFI R7 load(1, XDATA, add(CFA_XSP16, literal(-6)))
          CFI ?RET_LOW load(1, XDATA, add(CFA_XSP16, literal(-5)))
          CFI ?RET_HIGH load(1, XDATA, add(CFA_XSP16, literal(-4)))
          CFI ?BRET_EXT load(1, XDATA, add(CFA_XSP16, literal(-3)))
          CFI DPL0 load(1, XDATA, add(CFA_XSP16, literal(-2)))
          CFI DPH0 load(1, XDATA, add(CFA_XSP16, literal(-1)))
          CFI CFA_SP SP+-2
          CFI CFA_XSP16 add(XSP16, 16)
          CFI Block cfiCond57 Using cfiCommon0
          CFI (cfiCond57) Function zclClosures_ProcessInDoorLockCmds
          CFI (cfiCond57) Conditional ??CrossCallReturnLabel_278
          CFI (cfiCond57) R6 load(1, XDATA, add(CFA_XSP16, literal(-10)))
          CFI (cfiCond57) VB load(1, XDATA, add(CFA_XSP16, literal(-9)))
          CFI (cfiCond57) V0 load(1, XDATA, add(CFA_XSP16, literal(-8)))
          CFI (cfiCond57) V1 load(1, XDATA, add(CFA_XSP16, literal(-7)))
          CFI (cfiCond57) R7 load(1, XDATA, add(CFA_XSP16, literal(-6)))
          CFI (cfiCond57) ?RET_LOW load(1, XDATA, add(CFA_XSP16, literal(-5)))
          CFI (cfiCond57) ?RET_HIGH load(1, XDATA, add(CFA_XSP16, literal(-4)))
          CFI (cfiCond57) ?BRET_EXT load(1, XDATA, add(CFA_XSP16, literal(-3)))
          CFI (cfiCond57) DPL0 load(1, XDATA, add(CFA_XSP16, literal(-2)))
          CFI (cfiCond57) DPH0 load(1, XDATA, add(CFA_XSP16, literal(-1)))
          CFI (cfiCond57) CFA_SP SP+-2
          CFI (cfiCond57) CFA_XSP16 add(XSP16, 16)
          CFI Block cfiCond58 Using cfiCommon0
          CFI (cfiCond58) Function zclClosures_ProcessInDoorLockCmds
          CFI (cfiCond58) Conditional ??CrossCallReturnLabel_279
          CFI (cfiCond58) R6 load(1, XDATA, add(CFA_XSP16, literal(-10)))
          CFI (cfiCond58) VB load(1, XDATA, add(CFA_XSP16, literal(-9)))
          CFI (cfiCond58) V0 load(1, XDATA, add(CFA_XSP16, literal(-8)))
          CFI (cfiCond58) V1 load(1, XDATA, add(CFA_XSP16, literal(-7)))
          CFI (cfiCond58) R7 load(1, XDATA, add(CFA_XSP16, literal(-6)))
          CFI (cfiCond58) ?RET_LOW load(1, XDATA, add(CFA_XSP16, literal(-5)))
          CFI (cfiCond58) ?RET_HIGH load(1, XDATA, add(CFA_XSP16, literal(-4)))
          CFI (cfiCond58) ?BRET_EXT load(1, XDATA, add(CFA_XSP16, literal(-3)))
          CFI (cfiCond58) DPL0 load(1, XDATA, add(CFA_XSP16, literal(-2)))
          CFI (cfiCond58) DPH0 load(1, XDATA, add(CFA_XSP16, literal(-1)))
          CFI (cfiCond58) CFA_SP SP+-2
          CFI (cfiCond58) CFA_XSP16 add(XSP16, 16)
          CFI Block cfiCond59 Using cfiCommon0
          CFI (cfiCond59) Function zclClosures_ProcessInDoorLockCmds
          CFI (cfiCond59) Conditional ??CrossCallReturnLabel_280
          CFI (cfiCond59) R6 load(1, XDATA, add(CFA_XSP16, literal(-10)))
          CFI (cfiCond59) VB load(1, XDATA, add(CFA_XSP16, literal(-9)))
          CFI (cfiCond59) V0 load(1, XDATA, add(CFA_XSP16, literal(-8)))
          CFI (cfiCond59) V1 load(1, XDATA, add(CFA_XSP16, literal(-7)))
          CFI (cfiCond59) R7 load(1, XDATA, add(CFA_XSP16, literal(-6)))
          CFI (cfiCond59) ?RET_LOW load(1, XDATA, add(CFA_XSP16, literal(-5)))
          CFI (cfiCond59) ?RET_HIGH load(1, XDATA, add(CFA_XSP16, literal(-4)))
          CFI (cfiCond59) ?BRET_EXT load(1, XDATA, add(CFA_XSP16, literal(-3)))
          CFI (cfiCond59) DPL0 load(1, XDATA, add(CFA_XSP16, literal(-2)))
          CFI (cfiCond59) DPH0 load(1, XDATA, add(CFA_XSP16, literal(-1)))
          CFI (cfiCond59) CFA_SP SP+-2
          CFI (cfiCond59) CFA_XSP16 add(XSP16, 16)
          CFI Block cfiCond60 Using cfiCommon0
          CFI (cfiCond60) Function zclClosures_ProcessInDoorLockSetWeekDaySchedule
          CFI (cfiCond60) Conditional ??CrossCallReturnLabel_281
          CFI (cfiCond60) R6 load(1, XDATA, add(CFA_XSP16, literal(-12)))
          CFI (cfiCond60) VB load(1, XDATA, add(CFA_XSP16, literal(-11)))
          CFI (cfiCond60) V0 load(1, XDATA, add(CFA_XSP16, literal(-10)))
          CFI (cfiCond60) V1 load(1, XDATA, add(CFA_XSP16, literal(-9)))
          CFI (cfiCond60) V2 load(1, XDATA, add(CFA_XSP16, literal(-8)))
          CFI (cfiCond60) V3 load(1, XDATA, add(CFA_XSP16, literal(-7)))
          CFI (cfiCond60) R7 load(1, XDATA, add(CFA_XSP16, literal(-6)))
          CFI (cfiCond60) ?RET_LOW load(1, XDATA, add(CFA_XSP16, literal(-5)))
          CFI (cfiCond60) ?RET_HIGH load(1, XDATA, add(CFA_XSP16, literal(-4)))
          CFI (cfiCond60) ?BRET_EXT load(1, XDATA, add(CFA_XSP16, literal(-3)))
          CFI (cfiCond60) DPL0 load(1, XDATA, add(CFA_XSP16, literal(-2)))
          CFI (cfiCond60) DPH0 load(1, XDATA, add(CFA_XSP16, literal(-1)))
          CFI (cfiCond60) CFA_SP SP+-2
          CFI (cfiCond60) CFA_XSP16 add(XSP16, 20)
          CFI Block cfiCond61 Using cfiCommon0
          CFI (cfiCond61) Function zclClosures_ProcessInDoorLockGetWeekDayScheduleRsp
          CFI (cfiCond61) Conditional ??CrossCallReturnLabel_282
          CFI (cfiCond61) R6 load(1, XDATA, add(CFA_XSP16, literal(-12)))
          CFI (cfiCond61) VB load(1, XDATA, add(CFA_XSP16, literal(-11)))
          CFI (cfiCond61) V0 load(1, XDATA, add(CFA_XSP16, literal(-10)))
          CFI (cfiCond61) V1 load(1, XDATA, add(CFA_XSP16, literal(-9)))
          CFI (cfiCond61) V2 load(1, XDATA, add(CFA_XSP16, literal(-8)))
          CFI (cfiCond61) V3 load(1, XDATA, add(CFA_XSP16, literal(-7)))
          CFI (cfiCond61) R7 load(1, XDATA, add(CFA_XSP16, literal(-6)))
          CFI (cfiCond61) ?RET_LOW load(1, XDATA, add(CFA_XSP16, literal(-5)))
          CFI (cfiCond61) ?RET_HIGH load(1, XDATA, add(CFA_XSP16, literal(-4)))
          CFI (cfiCond61) ?BRET_EXT load(1, XDATA, add(CFA_XSP16, literal(-3)))
          CFI (cfiCond61) DPL0 load(1, XDATA, add(CFA_XSP16, literal(-2)))
          CFI (cfiCond61) DPH0 load(1, XDATA, add(CFA_XSP16, literal(-1)))
          CFI (cfiCond61) CFA_SP SP+-2
          CFI (cfiCond61) CFA_XSP16 add(XSP16, 21)
          CFI Block cfiPicker62 Using cfiCommon1
          CFI (cfiPicker62) NoFunction
          CFI (cfiPicker62) Picker
        MOV       R0,A
        CLR       A
        ADDC      A,R5
        MOV       R1,A
        MOV       DPL,R0
        MOV       DPH,R1
          CFI EndBlock cfiCond56
          CFI EndBlock cfiCond57
          CFI EndBlock cfiCond58
          CFI EndBlock cfiCond59
          CFI EndBlock cfiCond60
          CFI EndBlock cfiCond61
          CFI EndBlock cfiPicker62
        REQUIRE ??Subroutine128_0
        ; // Fall through to label ??Subroutine128_0

        RSEG BANKED_CODE:HUGECODE:NOROOT(0)
??Subroutine128_0:
          CFI Block cfiCond63 Using cfiCommon0
          CFI Function zclClosures_HdlIncoming
          CFI Conditional ??CrossCallReturnLabel_276
          CFI R6 load(1, XDATA, add(CFA_XSP16, literal(-12)))
          CFI VB load(1, XDATA, add(CFA_XSP16, literal(-11)))
          CFI V0 load(1, XDATA, add(CFA_XSP16, literal(-10)))
          CFI V1 load(1, XDATA, add(CFA_XSP16, literal(-9)))
          CFI V2 load(1, XDATA, add(CFA_XSP16, literal(-8)))
          CFI V3 load(1, XDATA, add(CFA_XSP16, literal(-7)))
          CFI R7 load(1, XDATA, add(CFA_XSP16, literal(-6)))
          CFI ?RET_LOW load(1, XDATA, add(CFA_XSP16, literal(-5)))
          CFI ?RET_HIGH load(1, XDATA, add(CFA_XSP16, literal(-4)))
          CFI ?BRET_EXT load(1, XDATA, add(CFA_XSP16, literal(-3)))
          CFI DPL0 load(1, XDATA, add(CFA_XSP16, literal(-2)))
          CFI DPH0 load(1, XDATA, add(CFA_XSP16, literal(-1)))
          CFI CFA_SP SP+-2
          CFI CFA_XSP16 add(XSP16, 12)
          CFI Block cfiCond64 Using cfiCommon0
          CFI (cfiCond64) Function zclClosures_ProcessInDoorLockCmds
          CFI (cfiCond64) Conditional ??CrossCallReturnLabel_277
          CFI (cfiCond64) R6 load(1, XDATA, add(CFA_XSP16, literal(-10)))
          CFI (cfiCond64) VB load(1, XDATA, add(CFA_XSP16, literal(-9)))
          CFI (cfiCond64) V0 load(1, XDATA, add(CFA_XSP16, literal(-8)))
          CFI (cfiCond64) V1 load(1, XDATA, add(CFA_XSP16, literal(-7)))
          CFI (cfiCond64) R7 load(1, XDATA, add(CFA_XSP16, literal(-6)))
          CFI (cfiCond64) ?RET_LOW load(1, XDATA, add(CFA_XSP16, literal(-5)))
          CFI (cfiCond64) ?RET_HIGH load(1, XDATA, add(CFA_XSP16, literal(-4)))
          CFI (cfiCond64) ?BRET_EXT load(1, XDATA, add(CFA_XSP16, literal(-3)))
          CFI (cfiCond64) DPL0 load(1, XDATA, add(CFA_XSP16, literal(-2)))
          CFI (cfiCond64) DPH0 load(1, XDATA, add(CFA_XSP16, literal(-1)))
          CFI (cfiCond64) CFA_SP SP+-2
          CFI (cfiCond64) CFA_XSP16 add(XSP16, 16)
          CFI Block cfiCond65 Using cfiCommon0
          CFI (cfiCond65) Function zclClosures_ProcessInDoorLockCmds
          CFI (cfiCond65) Conditional ??CrossCallReturnLabel_278
          CFI (cfiCond65) R6 load(1, XDATA, add(CFA_XSP16, literal(-10)))
          CFI (cfiCond65) VB load(1, XDATA, add(CFA_XSP16, literal(-9)))
          CFI (cfiCond65) V0 load(1, XDATA, add(CFA_XSP16, literal(-8)))
          CFI (cfiCond65) V1 load(1, XDATA, add(CFA_XSP16, literal(-7)))
          CFI (cfiCond65) R7 load(1, XDATA, add(CFA_XSP16, literal(-6)))
          CFI (cfiCond65) ?RET_LOW load(1, XDATA, add(CFA_XSP16, literal(-5)))
          CFI (cfiCond65) ?RET_HIGH load(1, XDATA, add(CFA_XSP16, literal(-4)))
          CFI (cfiCond65) ?BRET_EXT load(1, XDATA, add(CFA_XSP16, literal(-3)))
          CFI (cfiCond65) DPL0 load(1, XDATA, add(CFA_XSP16, literal(-2)))
          CFI (cfiCond65) DPH0 load(1, XDATA, add(CFA_XSP16, literal(-1)))
          CFI (cfiCond65) CFA_SP SP+-2
          CFI (cfiCond65) CFA_XSP16 add(XSP16, 16)
          CFI Block cfiCond66 Using cfiCommon0
          CFI (cfiCond66) Function zclClosures_ProcessInDoorLockCmds
          CFI (cfiCond66) Conditional ??CrossCallReturnLabel_279
          CFI (cfiCond66) R6 load(1, XDATA, add(CFA_XSP16, literal(-10)))
          CFI (cfiCond66) VB load(1, XDATA, add(CFA_XSP16, literal(-9)))
          CFI (cfiCond66) V0 load(1, XDATA, add(CFA_XSP16, literal(-8)))
          CFI (cfiCond66) V1 load(1, XDATA, add(CFA_XSP16, literal(-7)))
          CFI (cfiCond66) R7 load(1, XDATA, add(CFA_XSP16, literal(-6)))
          CFI (cfiCond66) ?RET_LOW load(1, XDATA, add(CFA_XSP16, literal(-5)))
          CFI (cfiCond66) ?RET_HIGH load(1, XDATA, add(CFA_XSP16, literal(-4)))
          CFI (cfiCond66) ?BRET_EXT load(1, XDATA, add(CFA_XSP16, literal(-3)))
          CFI (cfiCond66) DPL0 load(1, XDATA, add(CFA_XSP16, literal(-2)))
          CFI (cfiCond66) DPH0 load(1, XDATA, add(CFA_XSP16, literal(-1)))
          CFI (cfiCond66) CFA_SP SP+-2
          CFI (cfiCond66) CFA_XSP16 add(XSP16, 16)
          CFI Block cfiCond67 Using cfiCommon0
          CFI (cfiCond67) Function zclClosures_ProcessInDoorLockCmds
          CFI (cfiCond67) Conditional ??CrossCallReturnLabel_280
          CFI (cfiCond67) R6 load(1, XDATA, add(CFA_XSP16, literal(-10)))
          CFI (cfiCond67) VB load(1, XDATA, add(CFA_XSP16, literal(-9)))
          CFI (cfiCond67) V0 load(1, XDATA, add(CFA_XSP16, literal(-8)))
          CFI (cfiCond67) V1 load(1, XDATA, add(CFA_XSP16, literal(-7)))
          CFI (cfiCond67) R7 load(1, XDATA, add(CFA_XSP16, literal(-6)))
          CFI (cfiCond67) ?RET_LOW load(1, XDATA, add(CFA_XSP16, literal(-5)))
          CFI (cfiCond67) ?RET_HIGH load(1, XDATA, add(CFA_XSP16, literal(-4)))
          CFI (cfiCond67) ?BRET_EXT load(1, XDATA, add(CFA_XSP16, literal(-3)))
          CFI (cfiCond67) DPL0 load(1, XDATA, add(CFA_XSP16, literal(-2)))
          CFI (cfiCond67) DPH0 load(1, XDATA, add(CFA_XSP16, literal(-1)))
          CFI (cfiCond67) CFA_SP SP+-2
          CFI (cfiCond67) CFA_XSP16 add(XSP16, 16)
          CFI Block cfiCond68 Using cfiCommon0
          CFI (cfiCond68) Function zclClosures_ProcessInDoorLockSetWeekDaySchedule
          CFI (cfiCond68) Conditional ??CrossCallReturnLabel_281
          CFI (cfiCond68) R6 load(1, XDATA, add(CFA_XSP16, literal(-12)))
          CFI (cfiCond68) VB load(1, XDATA, add(CFA_XSP16, literal(-11)))
          CFI (cfiCond68) V0 load(1, XDATA, add(CFA_XSP16, literal(-10)))
          CFI (cfiCond68) V1 load(1, XDATA, add(CFA_XSP16, literal(-9)))
          CFI (cfiCond68) V2 load(1, XDATA, add(CFA_XSP16, literal(-8)))
          CFI (cfiCond68) V3 load(1, XDATA, add(CFA_XSP16, literal(-7)))
          CFI (cfiCond68) R7 load(1, XDATA, add(CFA_XSP16, literal(-6)))
          CFI (cfiCond68) ?RET_LOW load(1, XDATA, add(CFA_XSP16, literal(-5)))
          CFI (cfiCond68) ?RET_HIGH load(1, XDATA, add(CFA_XSP16, literal(-4)))
          CFI (cfiCond68) ?BRET_EXT load(1, XDATA, add(CFA_XSP16, literal(-3)))
          CFI (cfiCond68) DPL0 load(1, XDATA, add(CFA_XSP16, literal(-2)))
          CFI (cfiCond68) DPH0 load(1, XDATA, add(CFA_XSP16, literal(-1)))
          CFI (cfiCond68) CFA_SP SP+-2
          CFI (cfiCond68) CFA_XSP16 add(XSP16, 20)
          CFI Block cfiCond69 Using cfiCommon0
          CFI (cfiCond69) Function zclClosures_ProcessInDoorLockGetWeekDayScheduleRsp
          CFI (cfiCond69) Conditional ??CrossCallReturnLabel_282
          CFI (cfiCond69) R6 load(1, XDATA, add(CFA_XSP16, literal(-12)))
          CFI (cfiCond69) VB load(1, XDATA, add(CFA_XSP16, literal(-11)))
          CFI (cfiCond69) V0 load(1, XDATA, add(CFA_XSP16, literal(-10)))
          CFI (cfiCond69) V1 load(1, XDATA, add(CFA_XSP16, literal(-9)))
          CFI (cfiCond69) V2 load(1, XDATA, add(CFA_XSP16, literal(-8)))
          CFI (cfiCond69) V3 load(1, XDATA, add(CFA_XSP16, literal(-7)))
          CFI (cfiCond69) R7 load(1, XDATA, add(CFA_XSP16, literal(-6)))
          CFI (cfiCond69) ?RET_LOW load(1, XDATA, add(CFA_XSP16, literal(-5)))
          CFI (cfiCond69) ?RET_HIGH load(1, XDATA, add(CFA_XSP16, literal(-4)))
          CFI (cfiCond69) ?BRET_EXT load(1, XDATA, add(CFA_XSP16, literal(-3)))
          CFI (cfiCond69) DPL0 load(1, XDATA, add(CFA_XSP16, literal(-2)))
          CFI (cfiCond69) DPH0 load(1, XDATA, add(CFA_XSP16, literal(-1)))
          CFI (cfiCond69) CFA_SP SP+-2
          CFI (cfiCond69) CFA_XSP16 add(XSP16, 21)
          CFI Block cfiPicker70 Using cfiCommon1
          CFI (cfiPicker70) NoFunction
          CFI (cfiPicker70) Picker
        LCALL     ?Subroutine99 & 0xFFFF
??CrossCallReturnLabel_353:
        MOV       R5,A
        MOV       A,R4
        ORL       A,R5
        RET
          CFI EndBlock cfiCond63
          CFI EndBlock cfiCond64
          CFI EndBlock cfiCond65
          CFI EndBlock cfiCond66
          CFI EndBlock cfiCond67
          CFI EndBlock cfiCond68
          CFI EndBlock cfiCond69
          CFI EndBlock cfiPicker70
// 1090 
// 1091 /*********************************************************************
// 1092  * @fn      zclClosures_ProcessInDoorLockGetWeekDaySchedule
// 1093  *
// 1094  * @brief   Process in the received Get Week Day Schedule cmd
// 1095  *
// 1096  * @param   pInMsg - pointer to the incoming message
// 1097  * @param   pCBs - pointer to the application callbacks
// 1098  *
// 1099  * @return  ZStatus_t
// 1100  */
// 1101 static ZStatus_t zclClosures_ProcessInDoorLockGetWeekDaySchedule( zclIncoming_t *pInMsg,
// 1102                                                                   zclClosures_DoorLockAppCallbacks_t *pCBs )
// 1103 {
// 1104  if ( pCBs->pfnDoorLockGetWeekDaySchedule )
// 1105  {
// 1106    zclDoorLockSchedule_t cmd;
// 1107 
// 1108    cmd.scheduleID = pInMsg->pData[0];
// 1109    cmd.userID = BUILD_UINT16( pInMsg->pData[1], pInMsg->pData[2] );
// 1110 
// 1111    return ( pCBs->pfnDoorLockGetWeekDaySchedule( pInMsg, &cmd ) );
// 1112  }
// 1113 
// 1114  return ( ZFailure );
// 1115 }
// 1116 
// 1117 /*********************************************************************
// 1118  * @fn      zclClosures_ProcessInDoorLockClearWeekDaySchedule
// 1119  *
// 1120  * @brief   Process in the received Clear Week Day Schedule cmd
// 1121  *
// 1122  * @param   pInMsg - pointer to the incoming message
// 1123  * @param   pCBs - pointer to the application callbacks
// 1124  *
// 1125  * @return  ZStatus_t
// 1126  */
// 1127 static ZStatus_t zclClosures_ProcessInDoorLockClearWeekDaySchedule( zclIncoming_t *pInMsg,
// 1128                                                                     zclClosures_DoorLockAppCallbacks_t *pCBs )
// 1129 {
// 1130  if ( pCBs->pfnDoorLockClearWeekDaySchedule )
// 1131  {
// 1132    zclDoorLockSchedule_t cmd;
// 1133 
// 1134    cmd.scheduleID = pInMsg->pData[0];
// 1135    cmd.userID = BUILD_UINT16( pInMsg->pData[1], pInMsg->pData[2] );
// 1136 
// 1137    return ( pCBs->pfnDoorLockClearWeekDaySchedule( pInMsg, &cmd ) );
// 1138  }
// 1139 
// 1140  return ( ZFailure );
// 1141 }
// 1142 /*********************************************************************
// 1143  * @fn      zclClosures_ProcessInDoorLockSetYearDaySchedule
// 1144  *
// 1145  * @brief   Process in the received Set Year Day Schedule cmd
// 1146  *
// 1147  * @param   pInMsg - pointer to the incoming message
// 1148  * @param   pCBs - pointer to the application callbacks
// 1149  *
// 1150  * @return  ZStatus_t
// 1151  */

        RSEG BANKED_CODE:HUGECODE:NOROOT(0)
// 1152 static ZStatus_t zclClosures_ProcessInDoorLockSetYearDaySchedule( zclIncoming_t *pInMsg,
zclClosures_ProcessInDoorLockSetYearDaySchedule:
          CFI Block cfiBlock71 Using cfiCommon0
          CFI Function zclClosures_ProcessInDoorLockSetYearDaySchedule
        CODE
// 1153                                                                   zclClosures_DoorLockAppCallbacks_t *pCBs )
// 1154 {
        REQUIRE ?V0
        REQUIRE ?V1
        REQUIRE ?V2
        REQUIRE ?V3
        REQUIRE ?V4
        REQUIRE ?V5
        REQUIRE ?V6
        REQUIRE ?V7
        MOV       A,#-0x10
        LCALL     ?BANKED_ENTER_XDATA
          CFI DPH0 load(1, XDATA, add(CFA_XSP16, literal(-1)))
          CFI DPL0 load(1, XDATA, add(CFA_XSP16, literal(-2)))
          CFI ?BRET_EXT load(1, XDATA, add(CFA_XSP16, literal(-3)))
          CFI ?RET_HIGH load(1, XDATA, add(CFA_XSP16, literal(-4)))
          CFI ?RET_LOW load(1, XDATA, add(CFA_XSP16, literal(-5)))
          CFI R7 load(1, XDATA, add(CFA_XSP16, literal(-6)))
          CFI V7 load(1, XDATA, add(CFA_XSP16, literal(-7)))
          CFI V6 load(1, XDATA, add(CFA_XSP16, literal(-8)))
          CFI V5 load(1, XDATA, add(CFA_XSP16, literal(-9)))
          CFI V4 load(1, XDATA, add(CFA_XSP16, literal(-10)))
          CFI V3 load(1, XDATA, add(CFA_XSP16, literal(-11)))
          CFI V2 load(1, XDATA, add(CFA_XSP16, literal(-12)))
          CFI V1 load(1, XDATA, add(CFA_XSP16, literal(-13)))
          CFI V0 load(1, XDATA, add(CFA_XSP16, literal(-14)))
          CFI VB load(1, XDATA, add(CFA_XSP16, literal(-15)))
          CFI R6 load(1, XDATA, add(CFA_XSP16, literal(-16)))
          CFI CFA_SP SP+0
          CFI CFA_XSP16 add(XSP16, 16)
        ; Saved register size: 16
        ; Auto size: 11
        MOV       A,#-0xb
        LCALL     ?ALLOC_XSTACK8
          CFI CFA_XSP16 add(XSP16, 27)
// 1155  if ( pCBs->pfnDoorLockSetYearDaySchedule )
        MOV       A,R4
        ADD       A,#0x1a
        LCALL     ?Subroutine84 & 0xFFFF
??CrossCallReturnLabel_197:
        LCALL     ??Subroutine144_0 & 0xFFFF
??CrossCallReturnLabel_320:
        JNZ       $+5
        LJMP      ??zclClosures_ProcessInDoorLockSetYearDaySchedu_1 & 0xFFFF
// 1156  {
// 1157    zclDoorLockSetYearDaySchedule_t cmd;
// 1158 
// 1159    cmd.scheduleID = pInMsg->pData[0];
        LCALL     ?Subroutine22 & 0xFFFF
// 1160    cmd.userID = BUILD_UINT16( pInMsg->pData[1], pInMsg->pData[2] );
??CrossCallReturnLabel_57:
        MOV       DPL,R4
        MOV       DPH,R5
        INC       DPTR
        INC       DPTR
        MOVX      A,@DPTR
        MOV       R1,A
        MOV       A,#0x1
        LCALL     ?XSTACK_DISP0_8
        MOV       A,?V0
        LCALL     ??Subroutine129_0 & 0xFFFF
// 1161    cmd.zigBeeLocalStartTime = BUILD_UINT32( pInMsg->pData[3], pInMsg->pData[4], pInMsg->pData[5], pInMsg->pData[6] );
??CrossCallReturnLabel_285:
        MOV       DPL,R4
        MOV       DPH,R5
        LCALL     ??Subroutine150_0 & 0xFFFF
??CrossCallReturnLabel_356:
        LCALL     ??Subroutine133_0 & 0xFFFF
??CrossCallReturnLabel_296:
        LCALL     ?L_SHL
        MOV       R0,#?V0
        MOV       R1,#?V4
        LCALL     ?L_ADD
        MOV       DPL,R4
        MOV       DPH,R5
        LCALL     ??Subroutine139_0 & 0xFFFF
??CrossCallReturnLabel_303:
        LCALL     ?L_SHL
        MOV       R0,#?V0
        MOV       R1,#?V4
        LCALL     ?L_ADD
        MOV       DPL,R4
        MOV       DPH,R5
        LCALL     ??Subroutine156_0 & 0xFFFF
??CrossCallReturnLabel_388:
        LCALL     ?L_SHL
        MOV       R0,#?V0
        MOV       R1,#?V4
        LCALL     ?L_ADD
        MOV       A,#0x3
        LCALL     ?XSTACK_DISP0_8
        MOV       R0,#?V0
        LCALL     ?L_MOV_TO_X
// 1162    cmd.zigBeeLocalEndTime = BUILD_UINT32( pInMsg->pData[7], pInMsg->pData[8], pInMsg->pData[9], pInMsg->pData[10] );
        MOV       DPL,R4
        MOV       DPH,R5
        LCALL     ?Subroutine31 & 0xFFFF
??CrossCallReturnLabel_360:
        LCALL     ?Subroutine30 & 0xFFFF
??CrossCallReturnLabel_291:
        LCALL     ?L_SHL
        MOV       R0,#?V0
        MOV       R1,#?V4
        LCALL     ?L_ADD
        MOV       DPL,R4
        MOV       DPH,R5
        LCALL     ?Subroutine13 & 0xFFFF
??CrossCallReturnLabel_308:
        LCALL     ?L_SHL
        MOV       R0,#?V0
        MOV       R1,#?V4
        LCALL     ?L_ADD
        MOV       DPL,R4
        MOV       DPH,R5
        LCALL     ?Subroutine14 & 0xFFFF
??CrossCallReturnLabel_393:
        LCALL     ?L_SHL
        MOV       R0,#?V0
        MOV       R1,#?V4
        LCALL     ?L_ADD
        MOV       A,#0x7
        LCALL     ?XSTACK_DISP0_8
        MOV       R0,#?V0
        LCALL     ?L_MOV_TO_X
// 1163 
// 1164    return ( pCBs->pfnDoorLockSetYearDaySchedule( pInMsg, &cmd ) );
        ; Setup parameters for indirect call
        MOV       R4,?XSP + 0
        MOV       R5,?XSP + 1
        MOV       DPL,R6
        MOV       DPH,R7
        LCALL     ??Subroutine152_0 & 0xFFFF
// 1165  }
??CrossCallReturnLabel_365:
        LCALL     ?CALL_IND
        SJMP      ??zclClosures_ProcessInDoorLockSetYearDaySchedu_2
// 1166 
// 1167  return ( ZFailure );
??zclClosures_ProcessInDoorLockSetYearDaySchedu_1:
        MOV       R1,#0x1
??zclClosures_ProcessInDoorLockSetYearDaySchedu_2:
          CFI EndBlock cfiBlock71
        REQUIRE ?Subroutine7
        ; // Fall through to label ?Subroutine7
// 1168 }

        RSEG BANKED_CODE:HUGECODE:NOROOT(0)
?Subroutine7:
          CFI Block cfiBlock72 Using cfiCommon0
          CFI NoFunction
          CFI CFA_SP SP+0
          CFI CFA_XSP16 add(XSP16, 27)
          CFI VB load(1, XDATA, add(CFA_XSP16, literal(-15)))
          CFI DPL0 load(1, XDATA, add(CFA_XSP16, literal(-2)))
          CFI DPH0 load(1, XDATA, add(CFA_XSP16, literal(-1)))
          CFI R6 load(1, XDATA, add(CFA_XSP16, literal(-16)))
          CFI R7 load(1, XDATA, add(CFA_XSP16, literal(-6)))
          CFI V0 load(1, XDATA, add(CFA_XSP16, literal(-14)))
          CFI V1 load(1, XDATA, add(CFA_XSP16, literal(-13)))
          CFI V2 load(1, XDATA, add(CFA_XSP16, literal(-12)))
          CFI V3 load(1, XDATA, add(CFA_XSP16, literal(-11)))
          CFI V4 load(1, XDATA, add(CFA_XSP16, literal(-10)))
          CFI V5 load(1, XDATA, add(CFA_XSP16, literal(-9)))
          CFI V6 load(1, XDATA, add(CFA_XSP16, literal(-8)))
          CFI V7 load(1, XDATA, add(CFA_XSP16, literal(-7)))
          CFI ?BRET_EXT load(1, XDATA, add(CFA_XSP16, literal(-3)))
          CFI ?RET_HIGH load(1, XDATA, add(CFA_XSP16, literal(-4)))
          CFI ?RET_LOW load(1, XDATA, add(CFA_XSP16, literal(-5)))
        MOV       A,#0xb
        LJMP      ??Subroutine127_0 & 0xFFFF
          CFI EndBlock cfiBlock72

        RSEG BANKED_CODE:HUGECODE:NOROOT(0)
?Subroutine77:
          CFI Block cfiCond73 Using cfiCommon0
          CFI Function zclClosures_ProcessInDoorLockUnlockWithTimeout
          CFI Conditional ??CrossCallReturnLabel_287
          CFI R6 load(1, XDATA, add(CFA_XSP16, literal(-16)))
          CFI VB load(1, XDATA, add(CFA_XSP16, literal(-15)))
          CFI V0 load(1, XDATA, add(CFA_XSP16, literal(-14)))
          CFI V1 load(1, XDATA, add(CFA_XSP16, literal(-13)))
          CFI V2 load(1, XDATA, add(CFA_XSP16, literal(-12)))
          CFI V3 load(1, XDATA, add(CFA_XSP16, literal(-11)))
          CFI V4 load(1, XDATA, add(CFA_XSP16, literal(-10)))
          CFI V5 load(1, XDATA, add(CFA_XSP16, literal(-9)))
          CFI V6 load(1, XDATA, add(CFA_XSP16, literal(-8)))
          CFI V7 load(1, XDATA, add(CFA_XSP16, literal(-7)))
          CFI R7 load(1, XDATA, add(CFA_XSP16, literal(-6)))
          CFI ?RET_LOW load(1, XDATA, add(CFA_XSP16, literal(-5)))
          CFI ?RET_HIGH load(1, XDATA, add(CFA_XSP16, literal(-4)))
          CFI ?BRET_EXT load(1, XDATA, add(CFA_XSP16, literal(-3)))
          CFI DPL0 load(1, XDATA, add(CFA_XSP16, literal(-2)))
          CFI DPH0 load(1, XDATA, add(CFA_XSP16, literal(-1)))
          CFI CFA_SP SP+-2
          CFI CFA_XSP16 add(XSP16, 20)
          CFI Block cfiCond74 Using cfiCommon0
          CFI (cfiCond74) Function zclClosures_ProcessInDoorLockGetLogRecordRsp
          CFI (cfiCond74) Conditional ??CrossCallReturnLabel_288
          CFI (cfiCond74) R6 load(1, XDATA, add(CFA_XSP16, literal(-22)))
          CFI (cfiCond74) VB load(1, XDATA, add(CFA_XSP16, literal(-21)))
          CFI (cfiCond74) V0 load(1, XDATA, add(CFA_XSP16, literal(-20)))
          CFI (cfiCond74) V1 load(1, XDATA, add(CFA_XSP16, literal(-19)))
          CFI (cfiCond74) V2 load(1, XDATA, add(CFA_XSP16, literal(-18)))
          CFI (cfiCond74) V3 load(1, XDATA, add(CFA_XSP16, literal(-17)))
          CFI (cfiCond74) V4 load(1, XDATA, add(CFA_XSP16, literal(-16)))
          CFI (cfiCond74) V5 load(1, XDATA, add(CFA_XSP16, literal(-15)))
          CFI (cfiCond74) V6 load(1, XDATA, add(CFA_XSP16, literal(-14)))
          CFI (cfiCond74) V7 load(1, XDATA, add(CFA_XSP16, literal(-13)))
          CFI (cfiCond74) V8 load(1, XDATA, add(CFA_XSP16, literal(-12)))
          CFI (cfiCond74) V9 load(1, XDATA, add(CFA_XSP16, literal(-11)))
          CFI (cfiCond74) V10 load(1, XDATA, add(CFA_XSP16, literal(-10)))
          CFI (cfiCond74) V11 load(1, XDATA, add(CFA_XSP16, literal(-9)))
          CFI (cfiCond74) V12 load(1, XDATA, add(CFA_XSP16, literal(-8)))
          CFI (cfiCond74) V13 load(1, XDATA, add(CFA_XSP16, literal(-7)))
          CFI (cfiCond74) R7 load(1, XDATA, add(CFA_XSP16, literal(-6)))
          CFI (cfiCond74) ?RET_LOW load(1, XDATA, add(CFA_XSP16, literal(-5)))
          CFI (cfiCond74) ?RET_HIGH load(1, XDATA, add(CFA_XSP16, literal(-4)))
          CFI (cfiCond74) ?BRET_EXT load(1, XDATA, add(CFA_XSP16, literal(-3)))
          CFI (cfiCond74) DPL0 load(1, XDATA, add(CFA_XSP16, literal(-2)))
          CFI (cfiCond74) DPH0 load(1, XDATA, add(CFA_XSP16, literal(-1)))
          CFI (cfiCond74) CFA_SP SP+-2
          CFI (cfiCond74) CFA_XSP16 add(XSP16, 35)
          CFI Block cfiPicker75 Using cfiCommon1
          CFI (cfiPicker75) NoFunction
          CFI (cfiPicker75) Picker
        MOV       DPL,?XSP + 0
        MOV       DPH,?XSP + 1
          CFI EndBlock cfiCond73
          CFI EndBlock cfiCond74
          CFI EndBlock cfiPicker75
        REQUIRE ??Subroutine129_0
        ; // Fall through to label ??Subroutine129_0

        RSEG BANKED_CODE:HUGECODE:NOROOT(0)
??Subroutine129_0:
          CFI Block cfiCond76 Using cfiCommon0
          CFI Function zclClosures_RegisterDoorLockCmdCallbacks
          CFI Conditional ??CrossCallReturnLabel_283
          CFI R6 load(1, XDATA, add(CFA_XSP16, literal(-12)))
          CFI VB load(1, XDATA, add(CFA_XSP16, literal(-11)))
          CFI V0 load(1, XDATA, add(CFA_XSP16, literal(-10)))
          CFI V1 load(1, XDATA, add(CFA_XSP16, literal(-9)))
          CFI V2 load(1, XDATA, add(CFA_XSP16, literal(-8)))
          CFI V3 load(1, XDATA, add(CFA_XSP16, literal(-7)))
          CFI R7 load(1, XDATA, add(CFA_XSP16, literal(-6)))
          CFI ?RET_LOW load(1, XDATA, add(CFA_XSP16, literal(-5)))
          CFI ?RET_HIGH load(1, XDATA, add(CFA_XSP16, literal(-4)))
          CFI ?BRET_EXT load(1, XDATA, add(CFA_XSP16, literal(-3)))
          CFI DPL0 load(1, XDATA, add(CFA_XSP16, literal(-2)))
          CFI DPH0 load(1, XDATA, add(CFA_XSP16, literal(-1)))
          CFI CFA_SP SP+-2
          CFI CFA_XSP16 add(XSP16, 12)
          CFI Block cfiCond77 Using cfiCommon0
          CFI (cfiCond77) Function zclClosures_ProcessInDoorLockCmds
          CFI (cfiCond77) Conditional ??CrossCallReturnLabel_284
          CFI (cfiCond77) R6 load(1, XDATA, add(CFA_XSP16, literal(-10)))
          CFI (cfiCond77) VB load(1, XDATA, add(CFA_XSP16, literal(-9)))
          CFI (cfiCond77) V0 load(1, XDATA, add(CFA_XSP16, literal(-8)))
          CFI (cfiCond77) V1 load(1, XDATA, add(CFA_XSP16, literal(-7)))
          CFI (cfiCond77) R7 load(1, XDATA, add(CFA_XSP16, literal(-6)))
          CFI (cfiCond77) ?RET_LOW load(1, XDATA, add(CFA_XSP16, literal(-5)))
          CFI (cfiCond77) ?RET_HIGH load(1, XDATA, add(CFA_XSP16, literal(-4)))
          CFI (cfiCond77) ?BRET_EXT load(1, XDATA, add(CFA_XSP16, literal(-3)))
          CFI (cfiCond77) DPL0 load(1, XDATA, add(CFA_XSP16, literal(-2)))
          CFI (cfiCond77) DPH0 load(1, XDATA, add(CFA_XSP16, literal(-1)))
          CFI (cfiCond77) CFA_SP SP+-2
          CFI (cfiCond77) CFA_XSP16 add(XSP16, 16)
          CFI Block cfiCond78 Using cfiCommon0
          CFI (cfiCond78) Function zclClosures_ProcessInDoorLockSetYearDaySchedule
          CFI (cfiCond78) Conditional ??CrossCallReturnLabel_285
          CFI (cfiCond78) R6 load(1, XDATA, add(CFA_XSP16, literal(-16)))
          CFI (cfiCond78) VB load(1, XDATA, add(CFA_XSP16, literal(-15)))
          CFI (cfiCond78) V0 load(1, XDATA, add(CFA_XSP16, literal(-14)))
          CFI (cfiCond78) V1 load(1, XDATA, add(CFA_XSP16, literal(-13)))
          CFI (cfiCond78) V2 load(1, XDATA, add(CFA_XSP16, literal(-12)))
          CFI (cfiCond78) V3 load(1, XDATA, add(CFA_XSP16, literal(-11)))
          CFI (cfiCond78) V4 load(1, XDATA, add(CFA_XSP16, literal(-10)))
          CFI (cfiCond78) V5 load(1, XDATA, add(CFA_XSP16, literal(-9)))
          CFI (cfiCond78) V6 load(1, XDATA, add(CFA_XSP16, literal(-8)))
          CFI (cfiCond78) V7 load(1, XDATA, add(CFA_XSP16, literal(-7)))
          CFI (cfiCond78) R7 load(1, XDATA, add(CFA_XSP16, literal(-6)))
          CFI (cfiCond78) ?RET_LOW load(1, XDATA, add(CFA_XSP16, literal(-5)))
          CFI (cfiCond78) ?RET_HIGH load(1, XDATA, add(CFA_XSP16, literal(-4)))
          CFI (cfiCond78) ?BRET_EXT load(1, XDATA, add(CFA_XSP16, literal(-3)))
          CFI (cfiCond78) DPL0 load(1, XDATA, add(CFA_XSP16, literal(-2)))
          CFI (cfiCond78) DPH0 load(1, XDATA, add(CFA_XSP16, literal(-1)))
          CFI (cfiCond78) CFA_SP SP+-2
          CFI (cfiCond78) CFA_XSP16 add(XSP16, 27)
          CFI Block cfiCond79 Using cfiCommon0
          CFI (cfiCond79) Function zclClosures_ProcessInDoorLockGetLogRecordRsp
          CFI (cfiCond79) Conditional ??CrossCallReturnLabel_286
          CFI (cfiCond79) R6 load(1, XDATA, add(CFA_XSP16, literal(-22)))
          CFI (cfiCond79) VB load(1, XDATA, add(CFA_XSP16, literal(-21)))
          CFI (cfiCond79) V0 load(1, XDATA, add(CFA_XSP16, literal(-20)))
          CFI (cfiCond79) V1 load(1, XDATA, add(CFA_XSP16, literal(-19)))
          CFI (cfiCond79) V2 load(1, XDATA, add(CFA_XSP16, literal(-18)))
          CFI (cfiCond79) V3 load(1, XDATA, add(CFA_XSP16, literal(-17)))
          CFI (cfiCond79) V4 load(1, XDATA, add(CFA_XSP16, literal(-16)))
          CFI (cfiCond79) V5 load(1, XDATA, add(CFA_XSP16, literal(-15)))
          CFI (cfiCond79) V6 load(1, XDATA, add(CFA_XSP16, literal(-14)))
          CFI (cfiCond79) V7 load(1, XDATA, add(CFA_XSP16, literal(-13)))
          CFI (cfiCond79) V8 load(1, XDATA, add(CFA_XSP16, literal(-12)))
          CFI (cfiCond79) V9 load(1, XDATA, add(CFA_XSP16, literal(-11)))
          CFI (cfiCond79) V10 load(1, XDATA, add(CFA_XSP16, literal(-10)))
          CFI (cfiCond79) V11 load(1, XDATA, add(CFA_XSP16, literal(-9)))
          CFI (cfiCond79) V12 load(1, XDATA, add(CFA_XSP16, literal(-8)))
          CFI (cfiCond79) V13 load(1, XDATA, add(CFA_XSP16, literal(-7)))
          CFI (cfiCond79) R7 load(1, XDATA, add(CFA_XSP16, literal(-6)))
          CFI (cfiCond79) ?RET_LOW load(1, XDATA, add(CFA_XSP16, literal(-5)))
          CFI (cfiCond79) ?RET_HIGH load(1, XDATA, add(CFA_XSP16, literal(-4)))
          CFI (cfiCond79) ?BRET_EXT load(1, XDATA, add(CFA_XSP16, literal(-3)))
          CFI (cfiCond79) DPL0 load(1, XDATA, add(CFA_XSP16, literal(-2)))
          CFI (cfiCond79) DPH0 load(1, XDATA, add(CFA_XSP16, literal(-1)))
          CFI (cfiCond79) CFA_SP SP+-2
          CFI (cfiCond79) CFA_XSP16 add(XSP16, 35)
          CFI Block cfiCond80 Using cfiCommon0
          CFI (cfiCond80) Function zclClosures_ProcessInDoorLockUnlockWithTimeout
          CFI (cfiCond80) Conditional ??CrossCallReturnLabel_287
          CFI (cfiCond80) R6 load(1, XDATA, add(CFA_XSP16, literal(-16)))
          CFI (cfiCond80) VB load(1, XDATA, add(CFA_XSP16, literal(-15)))
          CFI (cfiCond80) V0 load(1, XDATA, add(CFA_XSP16, literal(-14)))
          CFI (cfiCond80) V1 load(1, XDATA, add(CFA_XSP16, literal(-13)))
          CFI (cfiCond80) V2 load(1, XDATA, add(CFA_XSP16, literal(-12)))
          CFI (cfiCond80) V3 load(1, XDATA, add(CFA_XSP16, literal(-11)))
          CFI (cfiCond80) V4 load(1, XDATA, add(CFA_XSP16, literal(-10)))
          CFI (cfiCond80) V5 load(1, XDATA, add(CFA_XSP16, literal(-9)))
          CFI (cfiCond80) V6 load(1, XDATA, add(CFA_XSP16, literal(-8)))
          CFI (cfiCond80) V7 load(1, XDATA, add(CFA_XSP16, literal(-7)))
          CFI (cfiCond80) R7 load(1, XDATA, add(CFA_XSP16, literal(-6)))
          CFI (cfiCond80) ?RET_LOW load(1, XDATA, add(CFA_XSP16, literal(-5)))
          CFI (cfiCond80) ?RET_HIGH load(1, XDATA, add(CFA_XSP16, literal(-4)))
          CFI (cfiCond80) ?BRET_EXT load(1, XDATA, add(CFA_XSP16, literal(-3)))
          CFI (cfiCond80) DPL0 load(1, XDATA, add(CFA_XSP16, literal(-2)))
          CFI (cfiCond80) DPH0 load(1, XDATA, add(CFA_XSP16, literal(-1)))
          CFI (cfiCond80) CFA_SP SP+-2
          CFI (cfiCond80) CFA_XSP16 add(XSP16, 20)
          CFI Block cfiCond81 Using cfiCommon0
          CFI (cfiCond81) Function zclClosures_ProcessInDoorLockGetLogRecordRsp
          CFI (cfiCond81) Conditional ??CrossCallReturnLabel_288
          CFI (cfiCond81) R6 load(1, XDATA, add(CFA_XSP16, literal(-22)))
          CFI (cfiCond81) VB load(1, XDATA, add(CFA_XSP16, literal(-21)))
          CFI (cfiCond81) V0 load(1, XDATA, add(CFA_XSP16, literal(-20)))
          CFI (cfiCond81) V1 load(1, XDATA, add(CFA_XSP16, literal(-19)))
          CFI (cfiCond81) V2 load(1, XDATA, add(CFA_XSP16, literal(-18)))
          CFI (cfiCond81) V3 load(1, XDATA, add(CFA_XSP16, literal(-17)))
          CFI (cfiCond81) V4 load(1, XDATA, add(CFA_XSP16, literal(-16)))
          CFI (cfiCond81) V5 load(1, XDATA, add(CFA_XSP16, literal(-15)))
          CFI (cfiCond81) V6 load(1, XDATA, add(CFA_XSP16, literal(-14)))
          CFI (cfiCond81) V7 load(1, XDATA, add(CFA_XSP16, literal(-13)))
          CFI (cfiCond81) V8 load(1, XDATA, add(CFA_XSP16, literal(-12)))
          CFI (cfiCond81) V9 load(1, XDATA, add(CFA_XSP16, literal(-11)))
          CFI (cfiCond81) V10 load(1, XDATA, add(CFA_XSP16, literal(-10)))
          CFI (cfiCond81) V11 load(1, XDATA, add(CFA_XSP16, literal(-9)))
          CFI (cfiCond81) V12 load(1, XDATA, add(CFA_XSP16, literal(-8)))
          CFI (cfiCond81) V13 load(1, XDATA, add(CFA_XSP16, literal(-7)))
          CFI (cfiCond81) R7 load(1, XDATA, add(CFA_XSP16, literal(-6)))
          CFI (cfiCond81) ?RET_LOW load(1, XDATA, add(CFA_XSP16, literal(-5)))
          CFI (cfiCond81) ?RET_HIGH load(1, XDATA, add(CFA_XSP16, literal(-4)))
          CFI (cfiCond81) ?BRET_EXT load(1, XDATA, add(CFA_XSP16, literal(-3)))
          CFI (cfiCond81) DPL0 load(1, XDATA, add(CFA_XSP16, literal(-2)))
          CFI (cfiCond81) DPH0 load(1, XDATA, add(CFA_XSP16, literal(-1)))
          CFI (cfiCond81) CFA_SP SP+-2
          CFI (cfiCond81) CFA_XSP16 add(XSP16, 35)
          CFI Block cfiPicker82 Using cfiCommon1
          CFI (cfiPicker82) NoFunction
          CFI (cfiPicker82) Picker
        MOVX      @DPTR,A
        INC       DPTR
        MOV       A,R1
        MOVX      @DPTR,A
        RET
          CFI EndBlock cfiCond76
          CFI EndBlock cfiCond77
          CFI EndBlock cfiCond78
          CFI EndBlock cfiCond79
          CFI EndBlock cfiCond80
          CFI EndBlock cfiCond81
          CFI EndBlock cfiPicker82

        RSEG BANKED_CODE:HUGECODE:NOROOT(0)
?Subroutine30:
          CFI Block cfiCond83 Using cfiCommon0
          CFI Function zclClosures_ProcessInDoorLockSetYearDaySchedule
          CFI Conditional ??CrossCallReturnLabel_291
          CFI R6 load(1, XDATA, add(CFA_XSP16, literal(-16)))
          CFI VB load(1, XDATA, add(CFA_XSP16, literal(-15)))
          CFI V0 load(1, XDATA, add(CFA_XSP16, literal(-14)))
          CFI V1 load(1, XDATA, add(CFA_XSP16, literal(-13)))
          CFI V2 load(1, XDATA, add(CFA_XSP16, literal(-12)))
          CFI V3 load(1, XDATA, add(CFA_XSP16, literal(-11)))
          CFI V4 load(1, XDATA, add(CFA_XSP16, literal(-10)))
          CFI V5 load(1, XDATA, add(CFA_XSP16, literal(-9)))
          CFI V6 load(1, XDATA, add(CFA_XSP16, literal(-8)))
          CFI V7 load(1, XDATA, add(CFA_XSP16, literal(-7)))
          CFI R7 load(1, XDATA, add(CFA_XSP16, literal(-6)))
          CFI ?RET_LOW load(1, XDATA, add(CFA_XSP16, literal(-5)))
          CFI ?RET_HIGH load(1, XDATA, add(CFA_XSP16, literal(-4)))
          CFI ?BRET_EXT load(1, XDATA, add(CFA_XSP16, literal(-3)))
          CFI DPL0 load(1, XDATA, add(CFA_XSP16, literal(-2)))
          CFI DPH0 load(1, XDATA, add(CFA_XSP16, literal(-1)))
          CFI CFA_SP SP+-2
          CFI CFA_XSP16 add(XSP16, 27)
          CFI Block cfiCond84 Using cfiCommon0
          CFI (cfiCond84) Function zclClosures_ProcessInDoorLockGetYearDayScheduleRsp
          CFI (cfiCond84) Conditional ??CrossCallReturnLabel_292
          CFI (cfiCond84) R6 load(1, XDATA, add(CFA_XSP16, literal(-16)))
          CFI (cfiCond84) VB load(1, XDATA, add(CFA_XSP16, literal(-15)))
          CFI (cfiCond84) V0 load(1, XDATA, add(CFA_XSP16, literal(-14)))
          CFI (cfiCond84) V1 load(1, XDATA, add(CFA_XSP16, literal(-13)))
          CFI (cfiCond84) V2 load(1, XDATA, add(CFA_XSP16, literal(-12)))
          CFI (cfiCond84) V3 load(1, XDATA, add(CFA_XSP16, literal(-11)))
          CFI (cfiCond84) V4 load(1, XDATA, add(CFA_XSP16, literal(-10)))
          CFI (cfiCond84) V5 load(1, XDATA, add(CFA_XSP16, literal(-9)))
          CFI (cfiCond84) V6 load(1, XDATA, add(CFA_XSP16, literal(-8)))
          CFI (cfiCond84) V7 load(1, XDATA, add(CFA_XSP16, literal(-7)))
          CFI (cfiCond84) R7 load(1, XDATA, add(CFA_XSP16, literal(-6)))
          CFI (cfiCond84) ?RET_LOW load(1, XDATA, add(CFA_XSP16, literal(-5)))
          CFI (cfiCond84) ?RET_HIGH load(1, XDATA, add(CFA_XSP16, literal(-4)))
          CFI (cfiCond84) ?BRET_EXT load(1, XDATA, add(CFA_XSP16, literal(-3)))
          CFI (cfiCond84) DPL0 load(1, XDATA, add(CFA_XSP16, literal(-2)))
          CFI (cfiCond84) DPH0 load(1, XDATA, add(CFA_XSP16, literal(-1)))
          CFI (cfiCond84) CFA_SP SP+-2
          CFI (cfiCond84) CFA_XSP16 add(XSP16, 28)
          CFI Block cfiPicker85 Using cfiCommon1
          CFI (cfiPicker85) NoFunction
          CFI (cfiPicker85) Picker
        INC       DPTR
          CFI EndBlock cfiCond83
          CFI EndBlock cfiCond84
          CFI EndBlock cfiPicker85
        REQUIRE ??Subroutine130_0
        ; // Fall through to label ??Subroutine130_0

        RSEG BANKED_CODE:HUGECODE:NOROOT(0)
??Subroutine130_0:
          CFI Block cfiCond86 Using cfiCommon0
          CFI Function zclClosures_ProcessInDoorLockGetHolidayScheduleRsp
          CFI Conditional ??CrossCallReturnLabel_290
          CFI R6 load(1, XDATA, add(CFA_XSP16, literal(-16)))
          CFI VB load(1, XDATA, add(CFA_XSP16, literal(-15)))
          CFI V0 load(1, XDATA, add(CFA_XSP16, literal(-14)))
          CFI V1 load(1, XDATA, add(CFA_XSP16, literal(-13)))
          CFI V2 load(1, XDATA, add(CFA_XSP16, literal(-12)))
          CFI V3 load(1, XDATA, add(CFA_XSP16, literal(-11)))
          CFI V4 load(1, XDATA, add(CFA_XSP16, literal(-10)))
          CFI V5 load(1, XDATA, add(CFA_XSP16, literal(-9)))
          CFI V6 load(1, XDATA, add(CFA_XSP16, literal(-8)))
          CFI V7 load(1, XDATA, add(CFA_XSP16, literal(-7)))
          CFI R7 load(1, XDATA, add(CFA_XSP16, literal(-6)))
          CFI ?RET_LOW load(1, XDATA, add(CFA_XSP16, literal(-5)))
          CFI ?RET_HIGH load(1, XDATA, add(CFA_XSP16, literal(-4)))
          CFI ?BRET_EXT load(1, XDATA, add(CFA_XSP16, literal(-3)))
          CFI DPL0 load(1, XDATA, add(CFA_XSP16, literal(-2)))
          CFI DPH0 load(1, XDATA, add(CFA_XSP16, literal(-1)))
          CFI CFA_SP SP+-2
          CFI CFA_XSP16 add(XSP16, 27)
          CFI Block cfiCond87 Using cfiCommon0
          CFI (cfiCond87) Function zclClosures_ProcessInDoorLockSetYearDaySchedule
          CFI (cfiCond87) Conditional ??CrossCallReturnLabel_291
          CFI (cfiCond87) R6 load(1, XDATA, add(CFA_XSP16, literal(-16)))
          CFI (cfiCond87) VB load(1, XDATA, add(CFA_XSP16, literal(-15)))
          CFI (cfiCond87) V0 load(1, XDATA, add(CFA_XSP16, literal(-14)))
          CFI (cfiCond87) V1 load(1, XDATA, add(CFA_XSP16, literal(-13)))
          CFI (cfiCond87) V2 load(1, XDATA, add(CFA_XSP16, literal(-12)))
          CFI (cfiCond87) V3 load(1, XDATA, add(CFA_XSP16, literal(-11)))
          CFI (cfiCond87) V4 load(1, XDATA, add(CFA_XSP16, literal(-10)))
          CFI (cfiCond87) V5 load(1, XDATA, add(CFA_XSP16, literal(-9)))
          CFI (cfiCond87) V6 load(1, XDATA, add(CFA_XSP16, literal(-8)))
          CFI (cfiCond87) V7 load(1, XDATA, add(CFA_XSP16, literal(-7)))
          CFI (cfiCond87) R7 load(1, XDATA, add(CFA_XSP16, literal(-6)))
          CFI (cfiCond87) ?RET_LOW load(1, XDATA, add(CFA_XSP16, literal(-5)))
          CFI (cfiCond87) ?RET_HIGH load(1, XDATA, add(CFA_XSP16, literal(-4)))
          CFI (cfiCond87) ?BRET_EXT load(1, XDATA, add(CFA_XSP16, literal(-3)))
          CFI (cfiCond87) DPL0 load(1, XDATA, add(CFA_XSP16, literal(-2)))
          CFI (cfiCond87) DPH0 load(1, XDATA, add(CFA_XSP16, literal(-1)))
          CFI (cfiCond87) CFA_SP SP+-2
          CFI (cfiCond87) CFA_XSP16 add(XSP16, 27)
          CFI Block cfiCond88 Using cfiCommon0
          CFI (cfiCond88) Function zclClosures_ProcessInDoorLockGetYearDayScheduleRsp
          CFI (cfiCond88) Conditional ??CrossCallReturnLabel_292
          CFI (cfiCond88) R6 load(1, XDATA, add(CFA_XSP16, literal(-16)))
          CFI (cfiCond88) VB load(1, XDATA, add(CFA_XSP16, literal(-15)))
          CFI (cfiCond88) V0 load(1, XDATA, add(CFA_XSP16, literal(-14)))
          CFI (cfiCond88) V1 load(1, XDATA, add(CFA_XSP16, literal(-13)))
          CFI (cfiCond88) V2 load(1, XDATA, add(CFA_XSP16, literal(-12)))
          CFI (cfiCond88) V3 load(1, XDATA, add(CFA_XSP16, literal(-11)))
          CFI (cfiCond88) V4 load(1, XDATA, add(CFA_XSP16, literal(-10)))
          CFI (cfiCond88) V5 load(1, XDATA, add(CFA_XSP16, literal(-9)))
          CFI (cfiCond88) V6 load(1, XDATA, add(CFA_XSP16, literal(-8)))
          CFI (cfiCond88) V7 load(1, XDATA, add(CFA_XSP16, literal(-7)))
          CFI (cfiCond88) R7 load(1, XDATA, add(CFA_XSP16, literal(-6)))
          CFI (cfiCond88) ?RET_LOW load(1, XDATA, add(CFA_XSP16, literal(-5)))
          CFI (cfiCond88) ?RET_HIGH load(1, XDATA, add(CFA_XSP16, literal(-4)))
          CFI (cfiCond88) ?BRET_EXT load(1, XDATA, add(CFA_XSP16, literal(-3)))
          CFI (cfiCond88) DPL0 load(1, XDATA, add(CFA_XSP16, literal(-2)))
          CFI (cfiCond88) DPH0 load(1, XDATA, add(CFA_XSP16, literal(-1)))
          CFI (cfiCond88) CFA_SP SP+-2
          CFI (cfiCond88) CFA_XSP16 add(XSP16, 28)
          CFI Block cfiPicker89 Using cfiCommon1
          CFI (cfiPicker89) NoFunction
          CFI (cfiPicker89) Picker
        INC       DPTR
          CFI EndBlock cfiCond86
          CFI EndBlock cfiCond87
          CFI EndBlock cfiCond88
          CFI EndBlock cfiPicker89
        REQUIRE ??Subroutine131_0
        ; // Fall through to label ??Subroutine131_0

        RSEG BANKED_CODE:HUGECODE:NOROOT(0)
??Subroutine131_0:
          CFI Block cfiCond90 Using cfiCommon0
          CFI Function zclClosures_ProcessInDoorLockSetHolidaySchedule
          CFI Conditional ??CrossCallReturnLabel_289
          CFI R6 load(1, XDATA, add(CFA_XSP16, literal(-16)))
          CFI VB load(1, XDATA, add(CFA_XSP16, literal(-15)))
          CFI V0 load(1, XDATA, add(CFA_XSP16, literal(-14)))
          CFI V1 load(1, XDATA, add(CFA_XSP16, literal(-13)))
          CFI V2 load(1, XDATA, add(CFA_XSP16, literal(-12)))
          CFI V3 load(1, XDATA, add(CFA_XSP16, literal(-11)))
          CFI V4 load(1, XDATA, add(CFA_XSP16, literal(-10)))
          CFI V5 load(1, XDATA, add(CFA_XSP16, literal(-9)))
          CFI V6 load(1, XDATA, add(CFA_XSP16, literal(-8)))
          CFI V7 load(1, XDATA, add(CFA_XSP16, literal(-7)))
          CFI R7 load(1, XDATA, add(CFA_XSP16, literal(-6)))
          CFI ?RET_LOW load(1, XDATA, add(CFA_XSP16, literal(-5)))
          CFI ?RET_HIGH load(1, XDATA, add(CFA_XSP16, literal(-4)))
          CFI ?BRET_EXT load(1, XDATA, add(CFA_XSP16, literal(-3)))
          CFI DPL0 load(1, XDATA, add(CFA_XSP16, literal(-2)))
          CFI DPH0 load(1, XDATA, add(CFA_XSP16, literal(-1)))
          CFI CFA_SP SP+-2
          CFI CFA_XSP16 add(XSP16, 26)
          CFI Block cfiCond91 Using cfiCommon0
          CFI (cfiCond91) Function zclClosures_ProcessInDoorLockGetHolidayScheduleRsp
          CFI (cfiCond91) Conditional ??CrossCallReturnLabel_290
          CFI (cfiCond91) R6 load(1, XDATA, add(CFA_XSP16, literal(-16)))
          CFI (cfiCond91) VB load(1, XDATA, add(CFA_XSP16, literal(-15)))
          CFI (cfiCond91) V0 load(1, XDATA, add(CFA_XSP16, literal(-14)))
          CFI (cfiCond91) V1 load(1, XDATA, add(CFA_XSP16, literal(-13)))
          CFI (cfiCond91) V2 load(1, XDATA, add(CFA_XSP16, literal(-12)))
          CFI (cfiCond91) V3 load(1, XDATA, add(CFA_XSP16, literal(-11)))
          CFI (cfiCond91) V4 load(1, XDATA, add(CFA_XSP16, literal(-10)))
          CFI (cfiCond91) V5 load(1, XDATA, add(CFA_XSP16, literal(-9)))
          CFI (cfiCond91) V6 load(1, XDATA, add(CFA_XSP16, literal(-8)))
          CFI (cfiCond91) V7 load(1, XDATA, add(CFA_XSP16, literal(-7)))
          CFI (cfiCond91) R7 load(1, XDATA, add(CFA_XSP16, literal(-6)))
          CFI (cfiCond91) ?RET_LOW load(1, XDATA, add(CFA_XSP16, literal(-5)))
          CFI (cfiCond91) ?RET_HIGH load(1, XDATA, add(CFA_XSP16, literal(-4)))
          CFI (cfiCond91) ?BRET_EXT load(1, XDATA, add(CFA_XSP16, literal(-3)))
          CFI (cfiCond91) DPL0 load(1, XDATA, add(CFA_XSP16, literal(-2)))
          CFI (cfiCond91) DPH0 load(1, XDATA, add(CFA_XSP16, literal(-1)))
          CFI (cfiCond91) CFA_SP SP+-2
          CFI (cfiCond91) CFA_XSP16 add(XSP16, 27)
          CFI Block cfiCond92 Using cfiCommon0
          CFI (cfiCond92) Function zclClosures_ProcessInDoorLockSetYearDaySchedule
          CFI (cfiCond92) Conditional ??CrossCallReturnLabel_291
          CFI (cfiCond92) R6 load(1, XDATA, add(CFA_XSP16, literal(-16)))
          CFI (cfiCond92) VB load(1, XDATA, add(CFA_XSP16, literal(-15)))
          CFI (cfiCond92) V0 load(1, XDATA, add(CFA_XSP16, literal(-14)))
          CFI (cfiCond92) V1 load(1, XDATA, add(CFA_XSP16, literal(-13)))
          CFI (cfiCond92) V2 load(1, XDATA, add(CFA_XSP16, literal(-12)))
          CFI (cfiCond92) V3 load(1, XDATA, add(CFA_XSP16, literal(-11)))
          CFI (cfiCond92) V4 load(1, XDATA, add(CFA_XSP16, literal(-10)))
          CFI (cfiCond92) V5 load(1, XDATA, add(CFA_XSP16, literal(-9)))
          CFI (cfiCond92) V6 load(1, XDATA, add(CFA_XSP16, literal(-8)))
          CFI (cfiCond92) V7 load(1, XDATA, add(CFA_XSP16, literal(-7)))
          CFI (cfiCond92) R7 load(1, XDATA, add(CFA_XSP16, literal(-6)))
          CFI (cfiCond92) ?RET_LOW load(1, XDATA, add(CFA_XSP16, literal(-5)))
          CFI (cfiCond92) ?RET_HIGH load(1, XDATA, add(CFA_XSP16, literal(-4)))
          CFI (cfiCond92) ?BRET_EXT load(1, XDATA, add(CFA_XSP16, literal(-3)))
          CFI (cfiCond92) DPL0 load(1, XDATA, add(CFA_XSP16, literal(-2)))
          CFI (cfiCond92) DPH0 load(1, XDATA, add(CFA_XSP16, literal(-1)))
          CFI (cfiCond92) CFA_SP SP+-2
          CFI (cfiCond92) CFA_XSP16 add(XSP16, 27)
          CFI Block cfiCond93 Using cfiCommon0
          CFI (cfiCond93) Function zclClosures_ProcessInDoorLockGetYearDayScheduleRsp
          CFI (cfiCond93) Conditional ??CrossCallReturnLabel_292
          CFI (cfiCond93) R6 load(1, XDATA, add(CFA_XSP16, literal(-16)))
          CFI (cfiCond93) VB load(1, XDATA, add(CFA_XSP16, literal(-15)))
          CFI (cfiCond93) V0 load(1, XDATA, add(CFA_XSP16, literal(-14)))
          CFI (cfiCond93) V1 load(1, XDATA, add(CFA_XSP16, literal(-13)))
          CFI (cfiCond93) V2 load(1, XDATA, add(CFA_XSP16, literal(-12)))
          CFI (cfiCond93) V3 load(1, XDATA, add(CFA_XSP16, literal(-11)))
          CFI (cfiCond93) V4 load(1, XDATA, add(CFA_XSP16, literal(-10)))
          CFI (cfiCond93) V5 load(1, XDATA, add(CFA_XSP16, literal(-9)))
          CFI (cfiCond93) V6 load(1, XDATA, add(CFA_XSP16, literal(-8)))
          CFI (cfiCond93) V7 load(1, XDATA, add(CFA_XSP16, literal(-7)))
          CFI (cfiCond93) R7 load(1, XDATA, add(CFA_XSP16, literal(-6)))
          CFI (cfiCond93) ?RET_LOW load(1, XDATA, add(CFA_XSP16, literal(-5)))
          CFI (cfiCond93) ?RET_HIGH load(1, XDATA, add(CFA_XSP16, literal(-4)))
          CFI (cfiCond93) ?BRET_EXT load(1, XDATA, add(CFA_XSP16, literal(-3)))
          CFI (cfiCond93) DPL0 load(1, XDATA, add(CFA_XSP16, literal(-2)))
          CFI (cfiCond93) DPH0 load(1, XDATA, add(CFA_XSP16, literal(-1)))
          CFI (cfiCond93) CFA_SP SP+-2
          CFI (cfiCond93) CFA_XSP16 add(XSP16, 28)
          CFI Block cfiPicker94 Using cfiCommon1
          CFI (cfiPicker94) NoFunction
          CFI (cfiPicker94) Picker
        INC       DPTR
        INC       DPTR
        INC       DPTR
        INC       DPTR
        INC       DPTR
        INC       DPTR
        MOVX      A,@DPTR
        MOV       ?V4,A
        CLR       A
        MOV       ?V7,A
        MOV       A,#0x8
        MOV       R0,#?V4
        RET
          CFI EndBlock cfiCond90
          CFI EndBlock cfiCond91
          CFI EndBlock cfiCond92
          CFI EndBlock cfiCond93
          CFI EndBlock cfiPicker94

        RSEG BANKED_CODE:HUGECODE:NOROOT(0)
?Subroutine15:
          CFI Block cfiCond95 Using cfiCommon0
          CFI Function zclClosures_ProcessInDoorLockOperationEventNotification
          CFI Conditional ??CrossCallReturnLabel_298
          CFI R6 load(1, XDATA, add(CFA_XSP16, literal(-22)))
          CFI VB load(1, XDATA, add(CFA_XSP16, literal(-21)))
          CFI V0 load(1, XDATA, add(CFA_XSP16, literal(-20)))
          CFI V1 load(1, XDATA, add(CFA_XSP16, literal(-19)))
          CFI V2 load(1, XDATA, add(CFA_XSP16, literal(-18)))
          CFI V3 load(1, XDATA, add(CFA_XSP16, literal(-17)))
          CFI V4 load(1, XDATA, add(CFA_XSP16, literal(-16)))
          CFI V5 load(1, XDATA, add(CFA_XSP16, literal(-15)))
          CFI V6 load(1, XDATA, add(CFA_XSP16, literal(-14)))
          CFI V7 load(1, XDATA, add(CFA_XSP16, literal(-13)))
          CFI V8 load(1, XDATA, add(CFA_XSP16, literal(-12)))
          CFI V9 load(1, XDATA, add(CFA_XSP16, literal(-11)))
          CFI V10 load(1, XDATA, add(CFA_XSP16, literal(-10)))
          CFI V11 load(1, XDATA, add(CFA_XSP16, literal(-9)))
          CFI V12 load(1, XDATA, add(CFA_XSP16, literal(-8)))
          CFI V13 load(1, XDATA, add(CFA_XSP16, literal(-7)))
          CFI R7 load(1, XDATA, add(CFA_XSP16, literal(-6)))
          CFI ?RET_LOW load(1, XDATA, add(CFA_XSP16, literal(-5)))
          CFI ?RET_HIGH load(1, XDATA, add(CFA_XSP16, literal(-4)))
          CFI ?BRET_EXT load(1, XDATA, add(CFA_XSP16, literal(-3)))
          CFI DPL0 load(1, XDATA, add(CFA_XSP16, literal(-2)))
          CFI DPH0 load(1, XDATA, add(CFA_XSP16, literal(-1)))
          CFI CFA_SP SP+-2
          CFI CFA_XSP16 add(XSP16, 33)
          CFI Block cfiCond96 Using cfiCommon0
          CFI (cfiCond96) Function zclClosures_ProcessInDoorLockProgrammingEventNotification
          CFI (cfiCond96) Conditional ??CrossCallReturnLabel_299
          CFI (cfiCond96) R6 load(1, XDATA, add(CFA_XSP16, literal(-22)))
          CFI (cfiCond96) VB load(1, XDATA, add(CFA_XSP16, literal(-21)))
          CFI (cfiCond96) V0 load(1, XDATA, add(CFA_XSP16, literal(-20)))
          CFI (cfiCond96) V1 load(1, XDATA, add(CFA_XSP16, literal(-19)))
          CFI (cfiCond96) V2 load(1, XDATA, add(CFA_XSP16, literal(-18)))
          CFI (cfiCond96) V3 load(1, XDATA, add(CFA_XSP16, literal(-17)))
          CFI (cfiCond96) V4 load(1, XDATA, add(CFA_XSP16, literal(-16)))
          CFI (cfiCond96) V5 load(1, XDATA, add(CFA_XSP16, literal(-15)))
          CFI (cfiCond96) V6 load(1, XDATA, add(CFA_XSP16, literal(-14)))
          CFI (cfiCond96) V7 load(1, XDATA, add(CFA_XSP16, literal(-13)))
          CFI (cfiCond96) V8 load(1, XDATA, add(CFA_XSP16, literal(-12)))
          CFI (cfiCond96) V9 load(1, XDATA, add(CFA_XSP16, literal(-11)))
          CFI (cfiCond96) V10 load(1, XDATA, add(CFA_XSP16, literal(-10)))
          CFI (cfiCond96) V11 load(1, XDATA, add(CFA_XSP16, literal(-9)))
          CFI (cfiCond96) V12 load(1, XDATA, add(CFA_XSP16, literal(-8)))
          CFI (cfiCond96) V13 load(1, XDATA, add(CFA_XSP16, literal(-7)))
          CFI (cfiCond96) R7 load(1, XDATA, add(CFA_XSP16, literal(-6)))
          CFI (cfiCond96) ?RET_LOW load(1, XDATA, add(CFA_XSP16, literal(-5)))
          CFI (cfiCond96) ?RET_HIGH load(1, XDATA, add(CFA_XSP16, literal(-4)))
          CFI (cfiCond96) ?BRET_EXT load(1, XDATA, add(CFA_XSP16, literal(-3)))
          CFI (cfiCond96) DPL0 load(1, XDATA, add(CFA_XSP16, literal(-2)))
