///////////////////////////////////////////////////////////////////////////////
//
// IAR C/C++ Compiler V10.10.1.4655 for 8051              20/Nov/2021  20:16:52
// Copyright 2004-2017 IAR Systems AB.
// Standalone license - IAR Embedded Workbench for 8051
//
//    Core               =  plain
//    Code model         =  banked
//    Data model         =  large
//    Calling convention =  xdata reentrant
//    Constant location  =  data_rom
//    Dptr setup         =  1,16
//                          
//    Source file        =  
//        D:\Z-Stack Home 1.2.2a.44539\Components\stack\zdo\ZDProfile.c
//    Command line       =  
//        -f C:\Users\tatbo\AppData\Local\Temp\EWE281.tmp ("D:\Z-Stack Home
//        1.2.2a.44539\Components\stack\zdo\ZDProfile.c" -D SECURE=1 -D
//        HAL_KEY=FALSE -D HAL_LED=FALSE -D HAL_LCD=FALSE -D HAL_UART=FALSE -D
//        TC_LINKKEY_JOIN -D NV_INIT -D NV_RESTORE -D xHOLD_AUTO_START -D
//        ZTOOL_P1 -D MT_TASK -D MT_APP_FUNC -D MT_SYS_FUNC -D MT_ZDO_FUNC -D
//        LCD_SUPPORTED=FALSE -D MULTICAST_ENABLED=FALSE -D ZCL_READ -D
//        ZCL_WRITE -D ZCL_REPORT -D xZCL_EZMODE -D ZCL_BASIC -D ZCL_IDENTIFY
//        -D ZCL_ON_OFF -D ZCL_SCENES -D ZCL_GROUPS -D xZCL_LEVEL_CTRL -D
//        ZCL_DIAGNOSTIC -D FEATURE_SYSTEM_STATS -D ZCL_DOORLOCK -lC
//        "D:\Z-Stack Home
//        1.2.2a.44539\Projects\zstack\HomeAutomation\ZigUP\CC2530DB\EndDeviceEB\List"
//        -lA "D:\Z-Stack Home
//        1.2.2a.44539\Projects\zstack\HomeAutomation\ZigUP\CC2530DB\EndDeviceEB\List"
//        --diag_suppress Pe001,Pa010 -o "D:\Z-Stack Home
//        1.2.2a.44539\Projects\zstack\HomeAutomation\ZigUP\CC2530DB\EndDeviceEB\Obj"
//        -e --debug --core=plain --dptr=16,1 --data_model=large
//        --code_model=banked --calling_convention=xdata_reentrant
//        --place_constants=data_rom --nr_virtual_regs 16 -f "D:\Z-Stack Home
//        1.2.2a.44539\Projects\zstack\HomeAutomation\ZigUP\CC2530DB\..\..\..\Tools\CC2530DB\f8wEndev.cfg"
//        (-DCPU32MHZ -DROOT=__near_func -DMAC_CFG_TX_DATA_MAX=3
//        -DMAC_CFG_TX_MAX=6 -DMAC_CFG_RX_MAX=3) -f "D:\Z-Stack Home
//        1.2.2a.44539\Projects\zstack\HomeAutomation\ZigUP\CC2530DB\..\..\..\Tools\CC2530DB\f8wConfig.cfg"
//        (-DZIGBEEPRO -DSECURE=1 -DZG_SECURE_DYNAMIC=0 -DREFLECTOR
//        -DDEFAULT_CHANLIST=0x00000800 -DZDAPP_CONFIG_PAN_ID=0xFFFF
//        -DNWK_START_DELAY=100 -DEXTENDED_JOINING_RANDOM_MASK=0x007F
//        -DBEACON_REQUEST_DELAY=100 -DBEACON_REQ_DELAY_MASK=0x00FF
//        -DLINK_STATUS_JITTER_MASK=0x007F -DROUTE_EXPIRY_TIME=30
//        -DAPSC_ACK_WAIT_DURATION_POLLED=3000 -DNWK_INDIRECT_MSG_TIMEOUT=7
//        -DMAX_RREQ_ENTRIES=8 -DAPSC_MAX_FRAME_RETRIES=3
//        -DNWK_MAX_DATA_RETRIES=2 -DMAX_POLL_FAILURE_RETRIES=2 -DMAX_BCAST=9
//        -DAPS_MAX_GROUPS=16 -DMAX_RTG_ENTRIES=40 -DNWK_MAX_BINDING_ENTRIES=4
//        -DMAX_BINDING_CLUSTER_IDS=4 "-DDEFAULT_KEY={0x01, 0x03, 0x05, 0x07,
//        0x09, 0x0B, 0x0D, 0x0F, 0x00, 0x02, 0x04, 0x06, 0x08, 0x0A, 0x0C,
//        0x0D}" -DMAC_MAX_FRAME_SIZE=116 -DZDNWKMGR_MIN_TRANSMISSIONS=20
//        "-DCONST=const __code" -DGENERIC=__generic -DRFD_RCVC_ALWAYS_ON=FALSE
//        -DPOLL_RATE=1000 -DQUEUED_POLL_RATE=100 -DRESPONSE_POLL_RATE=100
//        -DREJOIN_POLL_RATE=440 -DREJOIN_BACKOFF=900000 -DREJOIN_SCAN=900000)
//        -f "D:\Z-Stack Home
//        1.2.2a.44539\Projects\zstack\HomeAutomation\ZigUP\CC2530DB\..\..\..\Tools\CC2530DB\f8wZCL.cfg"
//        -I "D:\Z-Stack Home
//        1.2.2a.44539\Projects\zstack\HomeAutomation\ZigUP\CC2530DB\" -I
//        "D:\Z-Stack Home
//        1.2.2a.44539\Projects\zstack\HomeAutomation\ZigUP\CC2530DB\..\Source\"
//        -I "D:\Z-Stack Home
//        1.2.2a.44539\Projects\zstack\HomeAutomation\ZigUP\CC2530DB\..\..\Source\"
//        -I "D:\Z-Stack Home
//        1.2.2a.44539\Projects\zstack\HomeAutomation\ZigUP\CC2530DB\..\..\..\ZMain\TI2530DB\"
//        -I "D:\Z-Stack Home
//        1.2.2a.44539\Projects\zstack\HomeAutomation\ZigUP\CC2530DB\..\..\..\..\..\Components\hal\include\"
//        -I "D:\Z-Stack Home
//        1.2.2a.44539\Projects\zstack\HomeAutomation\ZigUP\CC2530DB\..\..\..\..\..\Components\hal\target\CC2530EB\"
//        -I "D:\Z-Stack Home
//        1.2.2a.44539\Projects\zstack\HomeAutomation\ZigUP\CC2530DB\..\..\..\..\..\Components\mac\include\"
//        -I "D:\Z-Stack Home
//        1.2.2a.44539\Projects\zstack\HomeAutomation\ZigUP\CC2530DB\..\..\..\..\..\Components\mac\high_level\"
//        -I "D:\Z-Stack Home
//        1.2.2a.44539\Projects\zstack\HomeAutomation\ZigUP\CC2530DB\..\..\..\..\..\Components\mac\low_level\srf04\"
//        -I "D:\Z-Stack Home
//        1.2.2a.44539\Projects\zstack\HomeAutomation\ZigUP\CC2530DB\..\..\..\..\..\Components\mac\low_level\srf04\single_chip\"
//        -I "D:\Z-Stack Home
//        1.2.2a.44539\Projects\zstack\HomeAutomation\ZigUP\CC2530DB\..\..\..\..\..\Components\mt\"
//        -I "D:\Z-Stack Home
//        1.2.2a.44539\Projects\zstack\HomeAutomation\ZigUP\CC2530DB\..\..\..\..\..\Components\osal\include\"
//        -I "D:\Z-Stack Home
//        1.2.2a.44539\Projects\zstack\HomeAutomation\ZigUP\CC2530DB\..\..\..\..\..\Components\services\saddr\"
//        -I "D:\Z-Stack Home
//        1.2.2a.44539\Projects\zstack\HomeAutomation\ZigUP\CC2530DB\..\..\..\..\..\Components\services\sdata\"
//        -I "D:\Z-Stack Home
//        1.2.2a.44539\Projects\zstack\HomeAutomation\ZigUP\CC2530DB\..\..\..\..\..\Components\stack\af\"
//        -I "D:\Z-Stack Home
//        1.2.2a.44539\Projects\zstack\HomeAutomation\ZigUP\CC2530DB\..\..\..\..\..\Components\stack\nwk\"
//        -I "D:\Z-Stack Home
//        1.2.2a.44539\Projects\zstack\HomeAutomation\ZigUP\CC2530DB\..\..\..\..\..\Components\stack\sapi\"
//        -I "D:\Z-Stack Home
//        1.2.2a.44539\Projects\zstack\HomeAutomation\ZigUP\CC2530DB\..\..\..\..\..\Components\stack\sec\"
//        -I "D:\Z-Stack Home
//        1.2.2a.44539\Projects\zstack\HomeAutomation\ZigUP\CC2530DB\..\..\..\..\..\Components\stack\sys\"
//        -I "D:\Z-Stack Home
//        1.2.2a.44539\Projects\zstack\HomeAutomation\ZigUP\CC2530DB\..\..\..\..\..\Components\stack\zcl\"
//        -I "D:\Z-Stack Home
//        1.2.2a.44539\Projects\zstack\HomeAutomation\ZigUP\CC2530DB\..\..\..\..\..\Components\stack\zdo\"
//        -I "D:\Z-Stack Home
//        1.2.2a.44539\Projects\zstack\HomeAutomation\ZigUP\CC2530DB\..\..\..\..\..\Components\zmac\"
//        -I "D:\Z-Stack Home
//        1.2.2a.44539\Projects\zstack\HomeAutomation\ZigUP\CC2530DB\..\..\..\..\..\Components\zmac\f8w\"
//        -Ohz --require_prototypes)
//    Locale             =  Chinese (Simplified)_China.936
//    List file          =  
//        D:\Z-Stack Home
//        1.2.2a.44539\Projects\zstack\HomeAutomation\ZigUP\CC2530DB\EndDeviceEB\List\ZDProfile.s51
//
///////////////////////////////////////////////////////////////////////////////

        NAME ZDProfile

        RTMODEL "__SystemLibrary", "CLib"
        RTMODEL "__calling_convention", "xdata_reentrant"
        RTMODEL "__code_model", "banked"
        RTMODEL "__core", "plain"
        RTMODEL "__data_model", "large"
        RTMODEL "__dptr_size", "16"
        RTMODEL "__extended_stack", "disabled"
        RTMODEL "__location_for_constants", "data"
        RTMODEL "__number_of_dptrs", "1"
        RTMODEL "__register_banks", "*"
        RTMODEL "__rt_version", "1"

        RSEG DOVERLAY:DATA:NOROOT(0)
        RSEG IOVERLAY:IDATA:NOROOT(0)
        RSEG ISTACK:IDATA:NOROOT(0)
        RSEG PSTACK:XDATA:NOROOT(0)
        RSEG XSTACK:XDATA:NOROOT(0)

        EXTERN ?V0
        EXTERN ?V1
        EXTERN ?V2
        EXTERN ?V3
        EXTERN ?V4
        EXTERN ?V5
        EXTERN ?V6
        EXTERN ?V7
        EXTERN ?V8
        EXTERN ?V10
        EXTERN ?V11
        EXTERN ?V9
        EXTERN ?V12
        EXTERN ?V13
        EXTERN ?ALLOC_XSTACK8
        EXTERN ?BANKED_ENTER_XDATA
        EXTERN ?BANKED_LEAVE_XDATA
        EXTERN ?BDISPATCH
        EXTERN ?CALL_IND
        EXTERN ?DEALLOC_XSTACK8
        EXTERN ?PUSH_XSTACK8_X_FOUR
        EXTERN ?PUSH_XSTACK8_X_TWO
        EXTERN ?PUSH_XSTACK_I_ONE
        EXTERN ?PUSH_XSTACK_I_THREE
        EXTERN ?PUSH_XSTACK_I_TWO
        EXTERN ?S_SHL
        EXTERN ?US_SHR
        EXTERN ?XSP
        EXTERN ?XSTACK_DISP0_8
        EXTERN ?XSTACK_DISP101_8
        EXTERN ?XSTACK_DISP102_8
        EXTERN __INIT_XDATA_I
        EXTERN __INIT_XDATA_Z

        PUBLIC `??ZDO_RegisterForZDOMsg::?relay`
        FUNCTION `??ZDO_RegisterForZDOMsg::?relay`,0203H
        PUBLIC `??ZDO_RemoveRegisteredCB::?relay`
        FUNCTION `??ZDO_RemoveRegisteredCB::?relay`,0203H
        PUBLIC `??ZDO_SendMsgCBs::?relay`
        FUNCTION `??ZDO_SendMsgCBs::?relay`,0203H
        PUBLIC `??ZDP_BindUnbindReq::?relay`
        FUNCTION `??ZDP_BindUnbindReq::?relay`,0203H
        PUBLIC `??ZDP_DeviceAnnce::?relay`
        FUNCTION `??ZDP_DeviceAnnce::?relay`,0203H
        PUBLIC `??ZDP_EPRsp::?relay`
        FUNCTION `??ZDP_EPRsp::?relay`,0203H
        PUBLIC `??ZDP_EndDeviceBindReq::?relay`
        FUNCTION `??ZDP_EndDeviceBindReq::?relay`,0203H
        PUBLIC `??ZDP_GenericRsp::?relay`
        FUNCTION `??ZDP_GenericRsp::?relay`,0203H
        PUBLIC `??ZDP_IEEEAddrReq::?relay`
        FUNCTION `??ZDP_IEEEAddrReq::?relay`,0203H
        PUBLIC `??ZDP_IncomingData::?relay`
        FUNCTION `??ZDP_IncomingData::?relay`,0203H
        PUBLIC `??ZDP_MatchDescReq::?relay`
        FUNCTION `??ZDP_MatchDescReq::?relay`,0203H
        PUBLIC `??ZDP_MgmtBindRsp::?relay`
        FUNCTION `??ZDP_MgmtBindRsp::?relay`,0203H
        PUBLIC `??ZDP_MgmtDirectJoinReq::?relay`
        FUNCTION `??ZDP_MgmtDirectJoinReq::?relay`,0203H
        PUBLIC `??ZDP_MgmtLeaveReq::?relay`
        FUNCTION `??ZDP_MgmtLeaveReq::?relay`,0203H
        PUBLIC `??ZDP_MgmtLqiRsp::?relay`
        FUNCTION `??ZDP_MgmtLqiRsp::?relay`,0203H
        PUBLIC `??ZDP_MgmtNwkDiscReq::?relay`
        FUNCTION `??ZDP_MgmtNwkDiscReq::?relay`,0203H
        PUBLIC `??ZDP_MgmtNwkDiscRsp::?relay`
        FUNCTION `??ZDP_MgmtNwkDiscRsp::?relay`,0203H
        PUBLIC `??ZDP_MgmtNwkUpdateNotify::?relay`
        FUNCTION `??ZDP_MgmtNwkUpdateNotify::?relay`,0203H
        PUBLIC `??ZDP_MgmtNwkUpdateReq::?relay`
        FUNCTION `??ZDP_MgmtNwkUpdateReq::?relay`,0203H
        PUBLIC `??ZDP_MgmtPermitJoinReq::?relay`
        FUNCTION `??ZDP_MgmtPermitJoinReq::?relay`,0203H
        PUBLIC `??ZDP_MgmtRtgRsp::?relay`
        FUNCTION `??ZDP_MgmtRtgRsp::?relay`,0203H
        PUBLIC `??ZDP_NWKAddrOfInterestReq::?relay`
        FUNCTION `??ZDP_NWKAddrOfInterestReq::?relay`,0203H
        PUBLIC `??ZDP_NodeDescMsg::?relay`
        FUNCTION `??ZDP_NodeDescMsg::?relay`,0203H
        PUBLIC `??ZDP_NwkAddrReq::?relay`
        FUNCTION `??ZDP_NwkAddrReq::?relay`,0203H
        PUBLIC `??ZDP_ParentAnnce::?relay`
        FUNCTION `??ZDP_ParentAnnce::?relay`,0203H
        PUBLIC `??ZDP_PowerDescMsg::?relay`
        FUNCTION `??ZDP_PowerDescMsg::?relay`,0203H
        PUBLIC `??ZDP_SendData::?relay`
        FUNCTION `??ZDP_SendData::?relay`,0203H
        PUBLIC `??ZDP_ServerDiscReq::?relay`
        FUNCTION `??ZDP_ServerDiscReq::?relay`,0203H
        PUBLIC `??ZDP_ServerDiscRsp::?relay`
        FUNCTION `??ZDP_ServerDiscRsp::?relay`,0203H
        PUBLIC `??ZDP_SimpleDescMsg::?relay`
        FUNCTION `??ZDP_SimpleDescMsg::?relay`,0203H
        PUBLIC `??ZDP_SimpleDescReq::?relay`
        FUNCTION `??ZDP_SimpleDescReq::?relay`,0203H
        PUBLIC `??ZDP_UserDescRsp::?relay`
        FUNCTION `??ZDP_UserDescRsp::?relay`,0203H
        PUBLIC `??ZDP_UserDescSet::?relay`
        FUNCTION `??ZDP_UserDescSet::?relay`,0203H
        FUNCTION `??fillAndSend::?relay`,0203H
        PUBLIC `??zdpProcessAddrReq::?relay`
        FUNCTION `??zdpProcessAddrReq::?relay`,0203H
        PUBLIC ZDO_RegisterForZDOMsg
        FUNCTION ZDO_RegisterForZDOMsg,0a1203H
        ARGFRAME XSTACK, 0, STACK
        LOCFRAME ISTACK, 1, STACK
        LOCFRAME XSTACK, 14, STACK
        PUBLIC ZDO_RemoveRegisteredCB
        FUNCTION ZDO_RemoveRegisteredCB,021203H
        ARGFRAME XSTACK, 0, STACK
        LOCFRAME XSTACK, 9, STACK
        PUBLIC ZDO_SendMsgCBs
        FUNCTION ZDO_SendMsgCBs,0a1203H
        ARGFRAME XSTACK, 33, STACK
        ARGFRAME IOVERLAY, 0, STATIC
        ARGFRAME DOVERLAY, 0, STATIC
        LOCFRAME XSTACK, 21, STACK
        PUBLIC ZDP_AF_ENDPOINT
        PUBLIC ZDP_BindUnbindReq
        FUNCTION ZDP_BindUnbindReq,0a1203H
        ARGFRAME XSTACK, 8, STACK
        LOCFRAME ISTACK, 1, STACK
        LOCFRAME XSTACK, 20, STACK
        PUBLIC ZDP_DeviceAnnce
        FUNCTION ZDP_DeviceAnnce,0a1203H
        ARGFRAME XSTACK, 1, STACK
        LOCFRAME ISTACK, 1, STACK
        LOCFRAME XSTACK, 21, STACK
        PUBLIC ZDP_EPRsp
        FUNCTION ZDP_EPRsp,0a1203H
        ARGFRAME XSTACK, 7, STACK
        LOCFRAME ISTACK, 1, STACK
        LOCFRAME XSTACK, 19, STACK
        PUBLIC ZDP_EndDeviceBindReq
        FUNCTION ZDP_EndDeviceBindReq,0a1203H
        ARGFRAME XSTACK, 9, STACK
        LOCFRAME ISTACK, 1, STACK
        LOCFRAME XSTACK, 20, STACK
        PUBLIC ZDP_GenericRsp
        FUNCTION ZDP_GenericRsp,021203H
        ARGFRAME XSTACK, 4, STACK
        LOCFRAME ISTACK, 1, STACK
        LOCFRAME XSTACK, 12, STACK
        PUBLIC ZDP_IEEEAddrReq
        FUNCTION ZDP_IEEEAddrReq,0a1203H
        ARGFRAME XSTACK, 0, STACK
        LOCFRAME ISTACK, 1, STACK
        LOCFRAME XSTACK, 21, STACK
        PUBLIC ZDP_IncomingData
        FUNCTION ZDP_IncomingData,0a1203H
        ARGFRAME XSTACK, 0, STACK
        LOCFRAME ISTACK, 1, STACK
        LOCFRAME XSTACK, 33, STACK
        PUBLIC ZDP_MatchDescReq
        FUNCTION ZDP_MatchDescReq,0a1203H
        ARGFRAME XSTACK, 8, STACK
        LOCFRAME ISTACK, 1, STACK
        LOCFRAME XSTACK, 16, STACK
        PUBLIC ZDP_MgmtBindRsp
        FUNCTION ZDP_MgmtBindRsp,0a1203H
        ARGFRAME XSTACK, 5, STACK
        LOCFRAME ISTACK, 1, STACK
        LOCFRAME XSTACK, 25, STACK
        PUBLIC ZDP_MgmtDirectJoinReq
        FUNCTION ZDP_MgmtDirectJoinReq,0a1203H
        ARGFRAME XSTACK, 1, STACK
        LOCFRAME ISTACK, 1, STACK
        LOCFRAME XSTACK, 14, STACK
        PUBLIC ZDP_MgmtLeaveReq
        FUNCTION ZDP_MgmtLeaveReq,0a1203H
        ARGFRAME XSTACK, 2, STACK
        LOCFRAME XSTACK, 14, STACK
        PUBLIC ZDP_MgmtLqiRsp
        FUNCTION ZDP_MgmtLqiRsp,0a1203H
        ARGFRAME XSTACK, 5, STACK
        LOCFRAME ISTACK, 1, STACK
        LOCFRAME XSTACK, 24, STACK
        PUBLIC ZDP_MgmtNwkDiscReq
        FUNCTION ZDP_MgmtNwkDiscReq,0a1203H
        ARGFRAME XSTACK, 4, STACK
        LOCFRAME ISTACK, 1, STACK
        LOCFRAME XSTACK, 16, STACK
        PUBLIC ZDP_MgmtNwkDiscRsp
        FUNCTION ZDP_MgmtNwkDiscRsp,0a1203H
        ARGFRAME XSTACK, 5, STACK
        LOCFRAME ISTACK, 1, STACK
        LOCFRAME XSTACK, 25, STACK
        PUBLIC ZDP_MgmtNwkUpdateNotify
        FUNCTION ZDP_MgmtNwkUpdateNotify,0a1203H
        ARGFRAME XSTACK, 12, STACK
        LOCFRAME ISTACK, 1, STACK
        LOCFRAME XSTACK, 23, STACK
        PUBLIC ZDP_MgmtNwkUpdateReq
        FUNCTION ZDP_MgmtNwkUpdateReq,0a1203H
        ARGFRAME XSTACK, 6, STACK
        LOCFRAME ISTACK, 1, STACK
        LOCFRAME XSTACK, 18, STACK
        PUBLIC ZDP_MgmtPermitJoinReq
        FUNCTION ZDP_MgmtPermitJoinReq,0a1203H
        ARGFRAME XSTACK, 0, STACK
        LOCFRAME ISTACK, 1, STACK
        LOCFRAME XSTACK, 23, STACK
        PUBLIC ZDP_MgmtRtgRsp
        FUNCTION ZDP_MgmtRtgRsp,0a1203H
        ARGFRAME XSTACK, 5, STACK
        LOCFRAME ISTACK, 1, STACK
        LOCFRAME XSTACK, 23, STACK
        PUBLIC ZDP_NWKAddrOfInterestReq
        FUNCTION ZDP_NWKAddrOfInterestReq,0a1203H
        ARGFRAME XSTACK, 1, STACK
        LOCFRAME ISTACK, 1, STACK
        LOCFRAME XSTACK, 12, STACK
        PUBLIC ZDP_NodeDescMsg
        FUNCTION ZDP_NodeDescMsg,0a1203H
        ARGFRAME XSTACK, 2, STACK
        LOCFRAME ISTACK, 1, STACK
        LOCFRAME XSTACK, 12, STACK
        PUBLIC ZDP_NwkAddrReq
        FUNCTION ZDP_NwkAddrReq,0a1203H
        ARGFRAME XSTACK, 0, STACK
        LOCFRAME ISTACK, 1, STACK
        LOCFRAME XSTACK, 23, STACK
        PUBLIC ZDP_ParentAnnce
        FUNCTION ZDP_ParentAnnce,0a1203H
        ARGFRAME XSTACK, 5, STACK
        LOCFRAME ISTACK, 1, STACK
        LOCFRAME XSTACK, 24, STACK
        PUBLIC ZDP_PowerDescMsg
        FUNCTION ZDP_PowerDescMsg,0a1203H
        ARGFRAME XSTACK, 2, STACK
        LOCFRAME ISTACK, 1, STACK
        LOCFRAME XSTACK, 12, STACK
        PUBLIC ZDP_SendData
        FUNCTION ZDP_SendData,0a1203H
        ARGFRAME XSTACK, 5, STACK
        LOCFRAME ISTACK, 1, STACK
        LOCFRAME XSTACK, 14, STACK
        PUBLIC ZDP_ServerDiscReq
        FUNCTION ZDP_ServerDiscReq,0a1203H
        ARGFRAME XSTACK, 0, STACK
        LOCFRAME ISTACK, 1, STACK
        LOCFRAME XSTACK, 21, STACK
        PUBLIC ZDP_ServerDiscRsp
        FUNCTION ZDP_ServerDiscRsp,0a1203H
        ARGFRAME XSTACK, 4, STACK
        LOCFRAME ISTACK, 1, STACK
        LOCFRAME XSTACK, 13, STACK
        PUBLIC ZDP_SimpleDescMsg
        FUNCTION ZDP_SimpleDescMsg,0a1203H
        ARGFRAME XSTACK, 0, STACK
        LOCFRAME ISTACK, 1, STACK
        LOCFRAME XSTACK, 22, STACK
        PUBLIC ZDP_SimpleDescReq
        FUNCTION ZDP_SimpleDescReq,0a1203H
        ARGFRAME XSTACK, 1, STACK
        LOCFRAME ISTACK, 1, STACK
        LOCFRAME XSTACK, 12, STACK
        PUBLIC ZDP_TransID
        PUBLIC ZDP_TxOptions
        PUBLIC ZDP_UserDescRsp
        FUNCTION ZDP_UserDescRsp,0a1203H
        ARGFRAME XSTACK, 3, STACK
        LOCFRAME ISTACK, 1, STACK
        LOCFRAME XSTACK, 22, STACK
        PUBLIC ZDP_UserDescSet
        FUNCTION ZDP_UserDescSet,0a1203H
        ARGFRAME XSTACK, 2, STACK
        LOCFRAME ISTACK, 1, STACK
        LOCFRAME XSTACK, 18, STACK
        FUNCTION fillAndSend,0a1203H
        ARGFRAME XSTACK, 25, STACK
        ARGFRAME IOVERLAY, 0, STATIC
        ARGFRAME DOVERLAY, 0, STATIC
        LOCFRAME ISTACK, 1, STACK
        LOCFRAME XSTACK, 35, STACK
        PUBLIC zdoMsgCBs
        PUBLIC zdpMsgProcs
        PUBLIC zdpProcessAddrReq
        FUNCTION zdpProcessAddrReq,0a1603H
        ARGFRAME XSTACK, 0, STACK
        LOCFRAME ISTACK, 1, STACK
        LOCFRAME XSTACK, 17, STACK
        
          CFI Names cfiNames0
          CFI StackFrame CFA_SP SP IDATA
          CFI StackFrame CFA_PSP16 PSP16 XDATA
          CFI StackFrame CFA_XSP16 XSP16 XDATA
          CFI StaticOverlayFrame CFA_IOVERLAY IOVERLAY
          CFI StaticOverlayFrame CFA_DOVERLAY DOVERLAY
          CFI Resource `PSW.CY`:1, `B.BR0`:1, `B.BR1`:1, `B.BR2`:1, `B.BR3`:1
          CFI Resource `B.BR4`:1, `B.BR5`:1, `B.BR6`:1, `B.BR7`:1, `VB.BR8`:1
          CFI Resource `VB.BR9`:1, `VB.BR10`:1, `VB.BR11`:1, `VB.BR12`:1
          CFI Resource `VB.BR13`:1, `VB.BR14`:1, `VB.BR15`:1, VB:8, B:8, A:8
          CFI Resource PSW:8, DPL0:8, DPH0:8, R0:8, R1:8, R2:8, R3:8, R4:8, R5:8
          CFI Resource R6:8, R7:8, V0:8, V1:8, V2:8, V3:8, V4:8, V5:8, V6:8, V7:8
          CFI Resource V8:8, V9:8, V10:8, V11:8, V12:8, V13:8, V14:8, V15:8, SP:8
          CFI Resource PSPH:8, PSPL:8, PSP16:16, XSPH:8, XSPL:8, XSP16:16
          CFI VirtualResource ?RET:24
          CFI Resource ?BRET_EXT:8
          CFI VirtualResource ?RET_HIGH:8, ?RET_LOW:8
          CFI ResourceParts PSP16 PSPH, PSPL
          CFI ResourceParts XSP16 XSPH, XSPL
          CFI ResourceParts ?RET ?BRET_EXT, ?RET_HIGH, ?RET_LOW
          CFI EndNames cfiNames0
        
          CFI Common cfiCommon0 Using cfiNames0
          CFI CodeAlign 1
          CFI DataAlign -1
          CFI ReturnAddress ?RET CODE
          CFI CFA_DOVERLAY Used
          CFI CFA_IOVERLAY Used
          CFI CFA_SP SP+-3
          CFI CFA_PSP16 PSP16+0
          CFI CFA_XSP16 XSP16+0
          CFI `PSW.CY` SameValue
          CFI `B.BR0` SameValue
          CFI `B.BR1` SameValue
          CFI `B.BR2` SameValue
          CFI `B.BR3` SameValue
          CFI `B.BR4` SameValue
          CFI `B.BR5` SameValue
          CFI `B.BR6` SameValue
          CFI `B.BR7` SameValue
          CFI `VB.BR8` SameValue
          CFI `VB.BR9` SameValue
          CFI `VB.BR10` SameValue
          CFI `VB.BR11` SameValue
          CFI `VB.BR12` SameValue
          CFI `VB.BR13` SameValue
          CFI `VB.BR14` SameValue
          CFI `VB.BR15` SameValue
          CFI VB SameValue
          CFI B Undefined
          CFI A Undefined
          CFI PSW SameValue
          CFI DPL0 SameValue
          CFI DPH0 SameValue
          CFI R0 Undefined
          CFI R1 Undefined
          CFI R2 Undefined
          CFI R3 Undefined
          CFI R4 Undefined
          CFI R5 Undefined
          CFI R6 SameValue
          CFI R7 SameValue
          CFI V0 SameValue
          CFI V1 SameValue
          CFI V2 SameValue
          CFI V3 SameValue
          CFI V4 SameValue
          CFI V5 SameValue
          CFI V6 SameValue
          CFI V7 SameValue
          CFI V8 SameValue
          CFI V9 SameValue
          CFI V10 SameValue
          CFI V11 SameValue
          CFI V12 SameValue
          CFI V13 SameValue
          CFI V14 SameValue
          CFI V15 SameValue
          CFI PSPH Undefined
          CFI PSPL Undefined
          CFI XSPH Undefined
          CFI XSPL Undefined
          CFI ?RET Concat
          CFI ?BRET_EXT Frame(CFA_SP, 3)
          CFI ?RET_HIGH Frame(CFA_SP, 2)
          CFI ?RET_LOW Frame(CFA_SP, 1)
          CFI EndCommon cfiCommon0
        
        
          CFI Common cfiCommon1 Using cfiNames0
          CFI CodeAlign 1
          CFI DataAlign -1
          CFI ReturnAddress ?RET CODE
          CFI CFA_DOVERLAY Used
          CFI CFA_IOVERLAY Used
          CFI CFA_SP SP+-2
          CFI CFA_PSP16 PSP16+0
          CFI CFA_XSP16 XSP16+0
          CFI `PSW.CY` SameValue
          CFI `B.BR0` SameValue
          CFI `B.BR1` SameValue
          CFI `B.BR2` SameValue
          CFI `B.BR3` SameValue
          CFI `B.BR4` SameValue
          CFI `B.BR5` SameValue
          CFI `B.BR6` SameValue
          CFI `B.BR7` SameValue
          CFI `VB.BR8` SameValue
          CFI `VB.BR9` SameValue
          CFI `VB.BR10` SameValue
          CFI `VB.BR11` SameValue
          CFI `VB.BR12` SameValue
          CFI `VB.BR13` SameValue
          CFI `VB.BR14` SameValue
          CFI `VB.BR15` SameValue
          CFI VB SameValue
          CFI B SameValue
          CFI A SameValue
          CFI PSW SameValue
          CFI DPL0 SameValue
          CFI DPH0 SameValue
          CFI R0 SameValue
          CFI R1 SameValue
          CFI R2 SameValue
          CFI R3 SameValue
          CFI R4 SameValue
          CFI R5 SameValue
          CFI R6 SameValue
          CFI R7 SameValue
          CFI V0 SameValue
          CFI V1 SameValue
          CFI V2 SameValue
          CFI V3 SameValue
          CFI V4 SameValue
          CFI V5 SameValue
          CFI V6 SameValue
          CFI V7 SameValue
          CFI V8 SameValue
          CFI V9 SameValue
          CFI V10 SameValue
          CFI V11 SameValue
          CFI V12 SameValue
          CFI V13 SameValue
          CFI V14 SameValue
          CFI V15 SameValue
          CFI PSPH Undefined
          CFI PSPL Undefined
          CFI XSPH Undefined
          CFI XSPL Undefined
          CFI ?RET Concat
          CFI ?BRET_EXT SameValue
          CFI ?RET_HIGH Frame(CFA_SP, 2)
          CFI ?RET_LOW Frame(CFA_SP, 1)
          CFI EndCommon cfiCommon1
        
AF_DataRequest      SYMBOL "AF_DataRequest"
`??AF_DataRequest::?relay` SYMBOL "?relay", AF_DataRequest
NLME_GetExtAddr     SYMBOL "NLME_GetExtAddr"
`??NLME_GetExtAddr::?relay` SYMBOL "?relay", NLME_GetExtAddr
NLME_GetShortAddr   SYMBOL "NLME_GetShortAddr"
`??NLME_GetShortAddr::?relay` SYMBOL "?relay", NLME_GetShortAddr
ZDApp_InMsgCB       SYMBOL "ZDApp_InMsgCB"
`??ZDApp_InMsgCB::?relay` SYMBOL "?relay", ZDApp_InMsgCB
`?<Name ZDO_ProcessActiveEPR 8>` SYMBOL "ZDO_ProcessActiveEPReq"
`??ZDO_ProcessActiveEPReq::?relay` SYMBOL "?relay", `?<Name ZDO_ProcessActiveEPR 8>`
`?<Name ZDO_ProcessMatchDesc 10>` SYMBOL "ZDO_ProcessMatchDescReq"
`??ZDO_ProcessMatchDescReq::?relay` SYMBOL "?relay", `?<Name ZDO_ProcessMatchDesc 10>`
`?<Name ZDO_ProcessNodeDescR 12>` SYMBOL "ZDO_ProcessNodeDescReq"
`??ZDO_ProcessNodeDescReq::?relay` SYMBOL "?relay", `?<Name ZDO_ProcessNodeDescR 12>`
`?<Name ZDO_ProcessPowerDesc 14>` SYMBOL "ZDO_ProcessPowerDescReq"
`??ZDO_ProcessPowerDescReq::?relay` SYMBOL "?relay", `?<Name ZDO_ProcessPowerDesc 14>`
`?<Name ZDO_ProcessServerDis 16>` SYMBOL "ZDO_ProcessServerDiscReq"
`??ZDO_ProcessServerDiscReq::?relay` SYMBOL "?relay", `?<Name ZDO_ProcessServerDis 16>`
`?<Name ZDO_ProcessSimpleDes 18>` SYMBOL "ZDO_ProcessSimpleDescReq"
`??ZDO_ProcessSimpleDescReq::?relay` SYMBOL "?relay", `?<Name ZDO_ProcessSimpleDes 18>`
`?<Name ZDO_ProcessUserDescR 20>` SYMBOL "ZDO_ProcessUserDescReq"
`??ZDO_ProcessUserDescReq::?relay` SYMBOL "?relay", `?<Name ZDO_ProcessUserDescR 20>`
`?<Name ZDO_ProcessUserDescS 22>` SYMBOL "ZDO_ProcessUserDescSet"
`??ZDO_ProcessUserDescSet::?relay` SYMBOL "?relay", `?<Name ZDO_ProcessUserDescS 22>`
osal_buffer_uint32  SYMBOL "osal_buffer_uint32"
`??osal_buffer_uint32::?relay` SYMBOL "?relay", osal_buffer_uint32
osal_mem_alloc      SYMBOL "osal_mem_alloc"
`??osal_mem_alloc::?relay` SYMBOL "?relay", osal_mem_alloc
osal_mem_free       SYMBOL "osal_mem_free"
`??osal_mem_free::?relay` SYMBOL "?relay", osal_mem_free
osal_memcpy         SYMBOL "osal_memcpy"
`??osal_memcpy::?relay` SYMBOL "?relay", osal_memcpy
osal_memset         SYMBOL "osal_memset"
`??osal_memset::?relay` SYMBOL "?relay", osal_memset
osal_msg_allocate   SYMBOL "osal_msg_allocate"
`??osal_msg_allocate::?relay` SYMBOL "?relay", osal_msg_allocate
osal_msg_send       SYMBOL "osal_msg_send"
`??osal_msg_send::?relay` SYMBOL "?relay", osal_msg_send
sAddrExtCmp         SYMBOL "sAddrExtCmp"
`??sAddrExtCmp::?relay` SYMBOL "?relay", sAddrExtCmp
sAddrExtCpy         SYMBOL "sAddrExtCpy"
`??sAddrExtCpy::?relay` SYMBOL "?relay", sAddrExtCpy
ZDO_RegisterForZDOMsg SYMBOL "ZDO_RegisterForZDOMsg"
`??ZDO_RegisterForZDOMsg::?relay` SYMBOL "?relay", ZDO_RegisterForZDOMsg
ZDO_RemoveRegisteredCB SYMBOL "ZDO_RemoveRegisteredCB"
`??ZDO_RemoveRegisteredCB::?relay` SYMBOL "?relay", ZDO_RemoveRegisteredCB
ZDO_SendMsgCBs      SYMBOL "ZDO_SendMsgCBs"
`??ZDO_SendMsgCBs::?relay` SYMBOL "?relay", ZDO_SendMsgCBs
ZDP_BindUnbindReq   SYMBOL "ZDP_BindUnbindReq"
`??ZDP_BindUnbindReq::?relay` SYMBOL "?relay", ZDP_BindUnbindReq
ZDP_DeviceAnnce     SYMBOL "ZDP_DeviceAnnce"
`??ZDP_DeviceAnnce::?relay` SYMBOL "?relay", ZDP_DeviceAnnce
ZDP_EPRsp           SYMBOL "ZDP_EPRsp"
`??ZDP_EPRsp::?relay` SYMBOL "?relay", ZDP_EPRsp
ZDP_EndDeviceBindReq SYMBOL "ZDP_EndDeviceBindReq"
`??ZDP_EndDeviceBindReq::?relay` SYMBOL "?relay", ZDP_EndDeviceBindReq
ZDP_GenericRsp      SYMBOL "ZDP_GenericRsp"
`??ZDP_GenericRsp::?relay` SYMBOL "?relay", ZDP_GenericRsp
ZDP_IEEEAddrReq     SYMBOL "ZDP_IEEEAddrReq"
`??ZDP_IEEEAddrReq::?relay` SYMBOL "?relay", ZDP_IEEEAddrReq
ZDP_IncomingData    SYMBOL "ZDP_IncomingData"
`??ZDP_IncomingData::?relay` SYMBOL "?relay", ZDP_IncomingData
ZDP_MatchDescReq    SYMBOL "ZDP_MatchDescReq"
`??ZDP_MatchDescReq::?relay` SYMBOL "?relay", ZDP_MatchDescReq
ZDP_MgmtBindRsp     SYMBOL "ZDP_MgmtBindRsp"
`??ZDP_MgmtBindRsp::?relay` SYMBOL "?relay", ZDP_MgmtBindRsp
ZDP_MgmtDirectJoinReq SYMBOL "ZDP_MgmtDirectJoinReq"
`??ZDP_MgmtDirectJoinReq::?relay` SYMBOL "?relay", ZDP_MgmtDirectJoinReq
ZDP_MgmtLeaveReq    SYMBOL "ZDP_MgmtLeaveReq"
`??ZDP_MgmtLeaveReq::?relay` SYMBOL "?relay", ZDP_MgmtLeaveReq
ZDP_MgmtLqiRsp      SYMBOL "ZDP_MgmtLqiRsp"
`??ZDP_MgmtLqiRsp::?relay` SYMBOL "?relay", ZDP_MgmtLqiRsp
ZDP_MgmtNwkDiscReq  SYMBOL "ZDP_MgmtNwkDiscReq"
`??ZDP_MgmtNwkDiscReq::?relay` SYMBOL "?relay", ZDP_MgmtNwkDiscReq
ZDP_MgmtNwkDiscRsp  SYMBOL "ZDP_MgmtNwkDiscRsp"
`??ZDP_MgmtNwkDiscRsp::?relay` SYMBOL "?relay", ZDP_MgmtNwkDiscRsp
ZDP_MgmtNwkUpdateNotify SYMBOL "ZDP_MgmtNwkUpdateNotify"
`??ZDP_MgmtNwkUpdateNotify::?relay` SYMBOL "?relay", ZDP_MgmtNwkUpdateNotify
ZDP_MgmtNwkUpdateReq SYMBOL "ZDP_MgmtNwkUpdateReq"
`??ZDP_MgmtNwkUpdateReq::?relay` SYMBOL "?relay", ZDP_MgmtNwkUpdateReq
ZDP_MgmtPermitJoinReq SYMBOL "ZDP_MgmtPermitJoinReq"
`??ZDP_MgmtPermitJoinReq::?relay` SYMBOL "?relay", ZDP_MgmtPermitJoinReq
ZDP_MgmtRtgRsp      SYMBOL "ZDP_MgmtRtgRsp"
`??ZDP_MgmtRtgRsp::?relay` SYMBOL "?relay", ZDP_MgmtRtgRsp
ZDP_NWKAddrOfInterestReq SYMBOL "ZDP_NWKAddrOfInterestReq"
`??ZDP_NWKAddrOfInterestReq::?relay` SYMBOL "?relay", ZDP_NWKAddrOfInterestReq
ZDP_NodeDescMsg     SYMBOL "ZDP_NodeDescMsg"
`??ZDP_NodeDescMsg::?relay` SYMBOL "?relay", ZDP_NodeDescMsg
ZDP_NwkAddrReq      SYMBOL "ZDP_NwkAddrReq"
`??ZDP_NwkAddrReq::?relay` SYMBOL "?relay", ZDP_NwkAddrReq
ZDP_ParentAnnce     SYMBOL "ZDP_ParentAnnce"
`??ZDP_ParentAnnce::?relay` SYMBOL "?relay", ZDP_ParentAnnce
ZDP_PowerDescMsg    SYMBOL "ZDP_PowerDescMsg"
`??ZDP_PowerDescMsg::?relay` SYMBOL "?relay", ZDP_PowerDescMsg
ZDP_SendData        SYMBOL "ZDP_SendData"
`??ZDP_SendData::?relay` SYMBOL "?relay", ZDP_SendData
ZDP_ServerDiscReq   SYMBOL "ZDP_ServerDiscReq"
`??ZDP_ServerDiscReq::?relay` SYMBOL "?relay", ZDP_ServerDiscReq
ZDP_ServerDiscRsp   SYMBOL "ZDP_ServerDiscRsp"
`??ZDP_ServerDiscRsp::?relay` SYMBOL "?relay", ZDP_ServerDiscRsp
ZDP_SimpleDescMsg   SYMBOL "ZDP_SimpleDescMsg"
`??ZDP_SimpleDescMsg::?relay` SYMBOL "?relay", ZDP_SimpleDescMsg
ZDP_SimpleDescReq   SYMBOL "ZDP_SimpleDescReq"
`??ZDP_SimpleDescReq::?relay` SYMBOL "?relay", ZDP_SimpleDescReq
ZDP_UserDescRsp     SYMBOL "ZDP_UserDescRsp"
`??ZDP_UserDescRsp::?relay` SYMBOL "?relay", ZDP_UserDescRsp
ZDP_UserDescSet     SYMBOL "ZDP_UserDescSet"
`??ZDP_UserDescSet::?relay` SYMBOL "?relay", ZDP_UserDescSet
zdpProcessAddrReq   SYMBOL "zdpProcessAddrReq"
`??zdpProcessAddrReq::?relay` SYMBOL "?relay", zdpProcessAddrReq

        EXTERN `??AF_DataRequest::?relay`
        FUNCTION `??AF_DataRequest::?relay`,00H
        EXTERN `??NLME_GetExtAddr::?relay`
        FUNCTION `??NLME_GetExtAddr::?relay`,00H
        EXTERN `??NLME_GetShortAddr::?relay`
        FUNCTION `??NLME_GetShortAddr::?relay`,00H
        EXTERN `??ZDApp_InMsgCB::?relay`
        FUNCTION `??ZDApp_InMsgCB::?relay`,00H
        EXTERN `??ZDO_ProcessActiveEPReq::?relay`
        FUNCTION `??ZDO_ProcessActiveEPReq::?relay`,00H
        EXTERN `??ZDO_ProcessMatchDescReq::?relay`
        FUNCTION `??ZDO_ProcessMatchDescReq::?relay`,00H
        EXTERN `??ZDO_ProcessNodeDescReq::?relay`
        FUNCTION `??ZDO_ProcessNodeDescReq::?relay`,00H
        EXTERN `??ZDO_ProcessPowerDescReq::?relay`
        FUNCTION `??ZDO_ProcessPowerDescReq::?relay`,00H
        EXTERN `??ZDO_ProcessServerDiscReq::?relay`
        FUNCTION `??ZDO_ProcessServerDiscReq::?relay`,00H
        EXTERN `??ZDO_ProcessSimpleDescReq::?relay`
        FUNCTION `??ZDO_ProcessSimpleDescReq::?relay`,00H
        EXTERN `??ZDO_ProcessUserDescReq::?relay`
        FUNCTION `??ZDO_ProcessUserDescReq::?relay`,00H
        EXTERN `??ZDO_ProcessUserDescSet::?relay`
        FUNCTION `??ZDO_ProcessUserDescSet::?relay`,00H
        EXTERN `??osal_buffer_uint32::?relay`
        FUNCTION `??osal_buffer_uint32::?relay`,00H
        EXTERN `??osal_mem_alloc::?relay`
        FUNCTION `??osal_mem_alloc::?relay`,00H
        EXTERN `??osal_mem_free::?relay`
        FUNCTION `??osal_mem_free::?relay`,00H
        EXTERN `??osal_memcpy::?relay`
        FUNCTION `??osal_memcpy::?relay`,00H
        EXTERN `??osal_memset::?relay`
        FUNCTION `??osal_memset::?relay`,00H
        EXTERN `??osal_msg_allocate::?relay`
        FUNCTION `??osal_msg_allocate::?relay`,00H
        EXTERN `??osal_msg_send::?relay`
        FUNCTION `??osal_msg_send::?relay`,00H
        EXTERN `??sAddrExtCmp::?relay`
        FUNCTION `??sAddrExtCmp::?relay`,00H
        EXTERN `??sAddrExtCpy::?relay`
        FUNCTION `??sAddrExtCpy::?relay`,00H
        EXTERN AF_DataRequest
        FUNCTION AF_DataRequest,0202H
        ARGFRAME ISTACK, 0, STACK
        ARGFRAME PSTACK, 0, STACK
        ARGFRAME XSTACK, 35, STACK
        ARGFRAME IOVERLAY, 0, STATIC
        ARGFRAME DOVERLAY, 0, STATIC
        EXTERN NLME_GetExtAddr
        FUNCTION NLME_GetExtAddr,0202H
        ARGFRAME ISTACK, 0, STACK
        ARGFRAME PSTACK, 0, STACK
        ARGFRAME XSTACK, 18, STACK
        ARGFRAME IOVERLAY, 0, STATIC
        ARGFRAME DOVERLAY, 0, STATIC
        EXTERN NLME_GetShortAddr
        FUNCTION NLME_GetShortAddr,0202H
        ARGFRAME ISTACK, 0, STACK
        ARGFRAME PSTACK, 0, STACK
        ARGFRAME XSTACK, 21, STACK
        ARGFRAME IOVERLAY, 0, STATIC
        ARGFRAME DOVERLAY, 0, STATIC
        EXTERN ZDAppNwkAddr
        EXTERN ZDApp_InMsgCB
        FUNCTION ZDApp_InMsgCB,0202H
        ARGFRAME ISTACK, 0, STACK
        ARGFRAME PSTACK, 0, STACK
        ARGFRAME XSTACK, 33, STACK
        ARGFRAME IOVERLAY, 0, STATIC
        ARGFRAME DOVERLAY, 0, STATIC
        EXTERN ZDApp_epDesc
        EXTERN osal_buffer_uint32
        FUNCTION osal_buffer_uint32,0202H
        ARGFRAME ISTACK, 0, STACK
        ARGFRAME PSTACK, 0, STACK
        ARGFRAME XSTACK, 24, STACK
        ARGFRAME IOVERLAY, 0, STATIC
        ARGFRAME DOVERLAY, 0, STATIC
        EXTERN osal_mem_alloc
        FUNCTION osal_mem_alloc,0202H
        ARGFRAME ISTACK, 0, STACK
        ARGFRAME PSTACK, 0, STACK
        ARGFRAME XSTACK, 23, STACK
        ARGFRAME IOVERLAY, 0, STATIC
        ARGFRAME DOVERLAY, 0, STATIC
        EXTERN osal_mem_free
        FUNCTION osal_mem_free,0202H
        ARGFRAME ISTACK, 0, STACK
        ARGFRAME PSTACK, 0, STACK
        ARGFRAME XSTACK, 23, STACK
        ARGFRAME IOVERLAY, 0, STATIC
        ARGFRAME DOVERLAY, 0, STATIC
        EXTERN osal_memcpy
        FUNCTION osal_memcpy,0202H
        ARGFRAME ISTACK, 0, STACK
        ARGFRAME PSTACK, 0, STACK
        ARGFRAME XSTACK, 22, STACK
        ARGFRAME IOVERLAY, 0, STATIC
        ARGFRAME DOVERLAY, 0, STATIC
        EXTERN osal_memset
        FUNCTION osal_memset,0202H
        ARGFRAME ISTACK, 0, STACK
        ARGFRAME PSTACK, 0, STACK
        ARGFRAME XSTACK, 26, STACK
        ARGFRAME IOVERLAY, 0, STATIC
        ARGFRAME DOVERLAY, 0, STATIC
        EXTERN osal_msg_allocate
        FUNCTION osal_msg_allocate,0202H
        ARGFRAME ISTACK, 0, STACK
        ARGFRAME PSTACK, 0, STACK
        ARGFRAME XSTACK, 18, STACK
        ARGFRAME IOVERLAY, 0, STATIC
        ARGFRAME DOVERLAY, 0, STATIC
        EXTERN osal_msg_send
        FUNCTION osal_msg_send,0202H
        ARGFRAME ISTACK, 0, STACK
        ARGFRAME PSTACK, 0, STACK
        ARGFRAME XSTACK, 18, STACK
        ARGFRAME IOVERLAY, 0, STATIC
        ARGFRAME DOVERLAY, 0, STATIC
        EXTERN sAddrExtCmp
        FUNCTION sAddrExtCmp,0202H
        ARGFRAME ISTACK, 0, STACK
        ARGFRAME PSTACK, 0, STACK
        ARGFRAME XSTACK, 21, STACK
        ARGFRAME IOVERLAY, 0, STATIC
        ARGFRAME DOVERLAY, 0, STATIC
        EXTERN sAddrExtCpy
        FUNCTION sAddrExtCpy,0202H
        ARGFRAME ISTACK, 1, STACK
        ARGFRAME PSTACK, 0, STACK
        ARGFRAME XSTACK, 23, STACK
        ARGFRAME IOVERLAY, 0, STATIC
        ARGFRAME DOVERLAY, 0, STATIC
        EXTERN saveExtAddr

// D:\Z-Stack Home 1.2.2a.44539\Components\stack\zdo\ZDProfile.c
//    1 /**************************************************************************************************
//    2   Filename:       ZDProfile.c
//    3   Revised:        $Date: 2015-10-14 11:48:06 -0700 (Wed, 14 Oct 2015) $
//    4   Revision:       $Revision: 44530 $
//    5 
//    6   Description:    This is the Zigbee Device Profile.
//    7 
//    8 
//    9   Copyright 2004-2015 Texas Instruments Incorporated. All rights reserved.
//   10 
//   11   IMPORTANT: Your use of this Software is limited to those specific rights
//   12   granted under the terms of a software license agreement between the user
//   13   who downloaded the software, his/her employer (which must be your employer)
//   14   and Texas Instruments Incorporated (the "License").  You may not use this
//   15   Software unless you agree to abide by the terms of the License. The License
//   16   limits your use, and you acknowledge, that the Software may not be modified,
//   17   copied or distributed unless embedded on a Texas Instruments microcontroller
//   18   or used solely and exclusively in conjunction with a Texas Instruments radio
//   19   frequency transceiver, which is integrated into your product.  Other than for
//   20   the foregoing purpose, you may not use, reproduce, copy, prepare derivative
//   21   works of, modify, distribute, perform, display or sell this Software and/or
//   22   its documentation for any purpose.
//   23 
//   24   YOU FURTHER ACKNOWLEDGE AND AGREE THAT THE SOFTWARE AND DOCUMENTATION ARE
//   25   PROVIDED "AS IS" WITHOUT WARRANTY OF ANY KIND, EITHER EXPRESS OR IMPLIED,
//   26   INCLUDING WITHOUT LIMITATION, ANY WARRANTY OF MERCHANTABILITY, TITLE,
//   27   NON-INFRINGEMENT AND FITNESS FOR A PARTICULAR PURPOSE. IN NO EVENT SHALL
//   28   TEXAS INSTRUMENTS OR ITS LICENSORS BE LIABLE OR OBLIGATED UNDER CONTRACT,
//   29   NEGLIGENCE, STRICT LIABILITY, CONTRIBUTION, BREACH OF WARRANTY, OR OTHER
//   30   LEGAL EQUITABLE THEORY ANY DIRECT OR INDIRECT DAMAGES OR EXPENSES
//   31   INCLUDING BUT NOT LIMITED TO ANY INCIDENTAL, SPECIAL, INDIRECT, PUNITIVE
//   32   OR CONSEQUENTIAL DAMAGES, LOST PROFITS OR LOST DATA, COST OF PROCUREMENT
//   33   OF SUBSTITUTE GOODS, TECHNOLOGY, SERVICES, OR ANY CLAIMS BY THIRD PARTIES
//   34   (INCLUDING BUT NOT LIMITED TO ANY DEFENSE THEREOF), OR OTHER SIMILAR COSTS.
//   35 
//   36   Should you have any questions regarding your right to use this Software,
//   37   contact Texas Instruments Incorporated at www.TI.com.
//   38 **************************************************************************************************/
//   39 
//   40 /*********************************************************************
//   41  * INCLUDES
//   42  */
//   43 #include "ZComDef.h"
//   44 #include "OSAL.h"
//   45 #include "AF.h"
//   46 #include "NLMEDE.h"
//   47 #include "nwk_util.h"
//   48 #include "APS.h"
//   49 
//   50 #include "AddrMgr.h"
//   51 #include "ZDConfig.h"
//   52 #include "ZDProfile.h"
//   53 #include "ZDObject.h"
//   54 #include "ZDNwkMgr.h"
//   55 
//   56 #if defined( LCD_SUPPORTED )
//   57   #include "OnBoard.h"
//   58 #endif
//   59 
//   60 #include "nwk_util.h"
//   61 
//   62 #if defined( MT_ZDO_FUNC )
//   63   #include "MT_ZDO.h"
//   64 #endif
//   65 
//   66 /*********************************************************************
//   67  * MACROS
//   68  */
//   69 
//   70 #define ZADDR_TO_AFADDR( pZADDR, AFADDR ) {                            \ 
//   71   (AFADDR).endPoint = ZDP_AF_ENDPOINT;                                 \ 
//   72   (AFADDR).addrMode = (afAddrMode_t)(pZADDR)->addrMode;                \ 
//   73   (AFADDR).addr.shortAddr = (pZADDR)->addr.shortAddr;                  \ 
//   74 }
//   75 
//   76 #define FillAndSendBuffer( TRANSSEQ, ADDR, ID, LEN, BUF ) {     \ 
//   77   afStatus_t stat;                                    \ 
//   78   ZDP_TmpBuf = (BUF)+1;                               \ 
//   79   stat = fillAndSend( (TRANSSEQ), (ADDR), (ID), (LEN) );          \ 
//   80   osal_mem_free( (BUF) );                             \ 
//   81   ZDP_TmpBuf = ZDP_Buf+1;                             \ 
//   82   return stat;                                        \ 
//   83 }
//   84 
//   85 #define FillAndSendTxOptions( TRANSSEQ, ADDR, ID, LEN, TxO ) {  \ 
//   86   afStatus_t stat;                                    \ 
//   87   ZDP_TxOptions = (TxO);                              \ 
//   88   stat = fillAndSend( (TRANSSEQ), (ADDR), (ID), (LEN) );          \ 
//   89   ZDP_TxOptions = AF_TX_OPTIONS_NONE;                 \ 
//   90   return stat;                                        \ 
//   91 }
//   92 
//   93 #define FillAndSendBufferTxOptions( TRANSSEQ, ADDR, ID, LEN, BUF, TxO ) { \ 
//   94   afStatus_t stat;                                    \ 
//   95   ZDP_TmpBuf = (BUF)+1;                               \ 
//   96   ZDP_TxOptions = (TxO);                              \ 
//   97   stat = fillAndSend( (TRANSSEQ), (ADDR), (ID), (LEN) );          \ 
//   98   osal_mem_free( (BUF) );                             \ 
//   99   ZDP_TmpBuf = ZDP_Buf+1;                             \ 
//  100   ZDP_TxOptions = AF_TX_OPTIONS_NONE;                 \ 
//  101   return stat;                                        \ 
//  102 }
//  103 
//  104 /*********************************************************************
//  105  * CONSTANTS
//  106  */
//  107 
//  108 #define ZDP_BUF_SZ          80
//  109 

        RSEG CODE_C:CODE:REORDER:NOROOT(0)
        DATA8
//  110 CONST byte ZDP_AF_ENDPOINT = 0;
ZDP_AF_ENDPOINT:
        DB 0
//  111 
//  112 // Routing table options
//  113 #define ZP_RTG_RECORD       0x04       // Routing table indication that a route record is needed
//  114 #define ZP_MTO_ROUTE_RC     0x08       // Concentrator with routing cache
//  115 #define ZP_MTO_ROUTE_NRC    0x10       // Concentrator with limited cache
//  116 
//  117 
//  118 /*********************************************************************
//  119  * TYPEDEFS
//  120  */
//  121 typedef struct
//  122 {
//  123   void *next;
//  124   uint8 taskID;
//  125   uint16 clusterID;
//  126 } ZDO_MsgCB_t;
//  127 
//  128 
//  129 /*********************************************************************
//  130  * GLOBAL VARIABLES
//  131  */
//  132 

        RSEG XDATA_Z:XDATA:NOROOT(0)
        DATA8
//  133 byte ZDP_TransID = 0;
ZDP_TransID:
        DS 1
        REQUIRE __INIT_XDATA_Z
//  134 
//  135 /*********************************************************************
//  136  * EXTERNAL VARIABLES
//  137  */
//  138 
//  139 extern endPointDesc_t ZDApp_epDesc;
//  140 
//  141 /*********************************************************************
//  142  * EXTERNAL FUNCTIONS
//  143  */
//  144 
//  145 /*********************************************************************
//  146  * LOCAL FUNCTIONS
//  147  */
//  148 
//  149 static afStatus_t fillAndSend( uint8 *transSeq, zAddrType_t *addr, cId_t clusterID, byte len );
//  150 uint8 ZDO_SendMsgCBs( zdoIncomingMsg_t *inMsg );
//  151 void zdpProcessAddrReq( zdoIncomingMsg_t *inMsg );
//  152 
//  153 /*********************************************************************
//  154  * LOCAL VARIABLES
//  155  */
//  156 

        RSEG XDATA_Z:XDATA:NOROOT(0)
        DATA8
//  157 static uint8  ZDP_Buf[ ZDP_BUF_SZ ];
ZDP_Buf:
        DS 80
        REQUIRE __INIT_XDATA_Z

        RSEG XDATA_I:XDATA:NOROOT(0)
//  158 static uint8 *ZDP_TmpBuf = ZDP_Buf+1;
ZDP_TmpBuf:
        DATA16
        DS 2
        REQUIRE `?<Initializer for ZDP_TmpBuf>`
        REQUIRE __INIT_XDATA_I
//  159 

        RSEG XDATA_Z:XDATA:NOROOT(0)
        DATA8
//  160 byte ZDP_TxOptions = AF_TX_OPTIONS_NONE;
ZDP_TxOptions:
        DS 1
        REQUIRE __INIT_XDATA_Z

        RSEG XDATA_Z:XDATA:NOROOT(0)
        DATA16
//  161 ZDO_MsgCB_t *zdoMsgCBs = (ZDO_MsgCB_t *)NULL;
zdoMsgCBs:
        DS 2
        REQUIRE __INIT_XDATA_Z
//  162 
//  163 /*********************************************************************
//  164  * ZDO Message Processing table
//  165  */
//  166 
//  167 typedef void (*pfnZDPMsgProcessor)( zdoIncomingMsg_t *inMsg );
//  168 
//  169 typedef struct
//  170 {
//  171   uint16                clusterID;
//  172   pfnZDPMsgProcessor    pFn;
//  173 } zdpMsgProcItem_t;
//  174 

        RSEG CODE_C:CODE:REORDER:NOROOT(0)
        DATA8
//  175 CONST zdpMsgProcItem_t zdpMsgProcs[] =
zdpMsgProcs:
        DATA16
        DW 1
        DW `??zdpProcessAddrReq::?relay`
        DW 2
        DW `??ZDO_ProcessNodeDescReq::?relay`
        DW 3
        DW `??ZDO_ProcessPowerDescReq::?relay`
        DW 4
        DW `??ZDO_ProcessSimpleDescReq::?relay`
        DW 5
        DW `??ZDO_ProcessActiveEPReq::?relay`
        DW 6
        DW `??ZDO_ProcessMatchDescReq::?relay`
        DW 17
        DW `??ZDO_ProcessUserDescReq::?relay`
        DW 20
        DW `??ZDO_ProcessUserDescSet::?relay`
        DW 21
        DW `??ZDO_ProcessServerDiscReq::?relay`
        DW 65535
        DW 0H
//  176 {
//  177 #if ( RFD_RCVC_ALWAYS_ON==TRUE ) || ( ZG_BUILD_RTR_TYPE )
//  178   // These aren't processed by sleeping end devices.
//  179   { NWK_addr_req,           zdpProcessAddrReq },
//  180   { Device_annce,           ZDO_ProcessDeviceAnnce },
//  181 #endif
//  182 #if ( ZG_BUILD_RTR_TYPE )
//  183   // These aren't processed by end devices.
//  184   { Parent_annce,           ZDO_ProcessParentAnnce },
//  185   { Parent_annce_rsp,       ZDO_ProcessParentAnnceRsp },
//  186 #endif
//  187   { IEEE_addr_req,          zdpProcessAddrReq },
//  188   { Node_Desc_req,          ZDO_ProcessNodeDescReq },
//  189   { Power_Desc_req,         ZDO_ProcessPowerDescReq },
//  190   { Simple_Desc_req,        ZDO_ProcessSimpleDescReq },
//  191   { Active_EP_req,          ZDO_ProcessActiveEPReq },
//  192   { Match_Desc_req,         ZDO_ProcessMatchDescReq },
//  193 #if defined ( ZDO_MGMT_NWKDISC_RESPONSE )
//  194   { Mgmt_NWK_Disc_req,      ZDO_ProcessMgmtNwkDiscReq },
//  195 #endif
//  196 #if defined ( ZDO_MGMT_LQI_RESPONSE ) && ( ZG_BUILD_RTR_TYPE )
//  197   { Mgmt_Lqi_req,           ZDO_ProcessMgmtLqiReq },
//  198 #endif
//  199 #if defined ( ZDO_MGMT_RTG_RESPONSE ) && ( ZG_BUILD_RTR_TYPE )
//  200   { Mgmt_Rtg_req,           ZDO_ProcessMgmtRtgReq },
//  201 #endif
//  202 #if defined ( ZDO_MGMT_BIND_RESPONSE ) && defined ( REFLECTOR )
//  203   { Mgmt_Bind_req,          ZDO_ProcessMgmtBindReq },
//  204 #endif
//  205 #if defined ( ZDO_MGMT_JOINDIRECT_RESPONSE ) && ( ZG_BUILD_RTR_TYPE )
//  206   { Mgmt_Direct_Join_req,   ZDO_ProcessMgmtDirectJoinReq },
//  207 #endif
//  208 #if defined ( ZDO_MGMT_LEAVE_RESPONSE )
//  209   { Mgmt_Leave_req,         ZDO_ProcessMgmtLeaveReq },
//  210 #endif
//  211 #if defined ( ZDO_MGMT_PERMIT_JOIN_RESPONSE )  && ( ZG_BUILD_RTR_TYPE )
//  212   { Mgmt_Permit_Join_req,   ZDO_ProcessMgmtPermitJoinReq },
//  213 #endif
//  214 #if defined ( ZDO_USERDESC_RESPONSE )
//  215   { User_Desc_req,          ZDO_ProcessUserDescReq },
//  216 #endif
//  217 #if defined ( ZDO_USERDESCSET_RESPONSE )
//  218   { User_Desc_set,          ZDO_ProcessUserDescSet },
//  219 #endif
//  220 #if defined ( ZDO_SERVERDISC_RESPONSE )
//  221   { Server_Discovery_req,   ZDO_ProcessServerDiscReq },
//  222 #endif
//  223   {0xFFFF, NULL} // Last
//  224 };
//  225 
//  226 /*********************************************************************
//  227  * @fn          fillAndSend
//  228  *
//  229  * @brief       Combined to reduce space
//  230  *
//  231  * @param
//  232  * @param
//  233  *
//  234  * @return      afStatus_t
//  235  */

        RSEG BANKED_CODE:HUGECODE:NOROOT(0)
//  236 static afStatus_t fillAndSend( uint8 *transSeq, zAddrType_t *addr, cId_t clusterID, byte len )
fillAndSend:
          CFI Block cfiBlock0 Using cfiCommon0
          CFI Function fillAndSend
        CODE
//  237 {
        FUNCALL fillAndSend, osal_memset
        LOCFRAME ISTACK, 0, STACK
        LOCFRAME PSTACK, 0, STACK
        LOCFRAME XSTACK, 26, STACK
        LOCFRAME IOVERLAY, 0, STATIC
        LOCFRAME DOVERLAY, 0, STATIC
        ARGFRAME ISTACK, 0, STACK
        ARGFRAME PSTACK, 0, STACK
        ARGFRAME XSTACK, 26, STACK
        ARGFRAME IOVERLAY, 0, STATIC
        ARGFRAME DOVERLAY, 0, STATIC
        FUNCALL fillAndSend, AF_DataRequest
        LOCFRAME ISTACK, 0, STACK
        LOCFRAME PSTACK, 0, STACK
        LOCFRAME XSTACK, 35, STACK
        LOCFRAME IOVERLAY, 0, STATIC
        LOCFRAME DOVERLAY, 0, STATIC
        ARGFRAME ISTACK, 0, STACK
        ARGFRAME PSTACK, 0, STACK
        ARGFRAME XSTACK, 35, STACK
        ARGFRAME IOVERLAY, 0, STATIC
        ARGFRAME DOVERLAY, 0, STATIC
        REQUIRE ?V0
        REQUIRE ?V1
        REQUIRE ?V2
        REQUIRE ?V3
        REQUIRE ?V4
        REQUIRE ?V5
        MOV       A,#-0xe
        LCALL     ?BANKED_ENTER_XDATA
          CFI DPH0 load(1, XDATA, add(CFA_XSP16, literal(-1)))
          CFI DPL0 load(1, XDATA, add(CFA_XSP16, literal(-2)))
          CFI ?BRET_EXT load(1, XDATA, add(CFA_XSP16, literal(-3)))
          CFI ?RET_HIGH load(1, XDATA, add(CFA_XSP16, literal(-4)))
          CFI ?RET_LOW load(1, XDATA, add(CFA_XSP16, literal(-5)))
          CFI R7 load(1, XDATA, add(CFA_XSP16, literal(-6)))
          CFI V5 load(1, XDATA, add(CFA_XSP16, literal(-7)))
          CFI V4 load(1, XDATA, add(CFA_XSP16, literal(-8)))
          CFI V3 load(1, XDATA, add(CFA_XSP16, literal(-9)))
          CFI V2 load(1, XDATA, add(CFA_XSP16, literal(-10)))
          CFI V1 load(1, XDATA, add(CFA_XSP16, literal(-11)))
          CFI V0 load(1, XDATA, add(CFA_XSP16, literal(-12)))
          CFI VB load(1, XDATA, add(CFA_XSP16, literal(-13)))
          CFI R6 load(1, XDATA, add(CFA_XSP16, literal(-14)))
          CFI CFA_SP SP+0
          CFI CFA_XSP16 add(XSP16, 14)
        ; Saved register size: 14
        ; Auto size: 12
        MOV       A,#-0xc
        LCALL     ?ALLOC_XSTACK8
          CFI CFA_XSP16 add(XSP16, 26)
        MOV       ?V0,R2
        MOV       ?V1,R3
        MOV       A,R4
        MOV       R6,A
        MOV       A,R5
        MOV       R7,A
        MOV       ?V4,R1
//  238   afAddrType_t afAddr;
//  239 
//  240   osal_memset( &afAddr, 0, sizeof(afAddrType_t) );
        ; Setup parameters for call to function osal_memset
        MOV       R4,#0xc
        MOV       R5,#0x0
        MOV       R1,#0x0
        MOV       R2,?XSP + 0
        MOV       R3,?XSP + 1
        LCALL     `??osal_memset::?relay`; Banked call to: osal_memset
//  241   ZADDR_TO_AFADDR( addr, afAddr );
        MOV       A,#0x9
        LCALL     ?XSTACK_DISP0_8
        CLR       A
        LCALL     ?Subroutine20 & 0xFFFF
??CrossCallReturnLabel_22:
        MOVX      A,@DPTR
        PUSH      A
          CFI CFA_SP SP+-1
        MOV       A,#0x8
        LCALL     ?XSTACK_DISP0_8
        POP       A
          CFI CFA_SP SP+0
        MOVX      @DPTR,A
        MOV       DPL,R6
        MOV       DPH,R7
        LCALL     ?Subroutine48 & 0xFFFF
??CrossCallReturnLabel_70:
        LCALL     ?Subroutine28 & 0xFFFF
//  242 
//  243   *(ZDP_TmpBuf-1) = *transSeq;
??CrossCallReturnLabel_33:
        MOV       DPTR,#ZDP_TmpBuf
        MOVX      A,@DPTR
        ADD       A,#-0x1
        MOV       ?V2,A
        INC       DPTR
        MOVX      A,@DPTR
        ADDC      A,#-0x1
        MOV       ?V3,A
        MOV       DPL,?V0
        MOV       DPH,?V1
        MOVX      A,@DPTR
        MOV       DPL,?V2
        MOV       DPH,?V3
        MOVX      @DPTR,A
//  244 
//  245   return AF_DataRequest( &afAddr, &ZDApp_epDesc, clusterID,
//  246                            (uint16)(len+1), (uint8*)(ZDP_TmpBuf-1),
//  247                            transSeq, ZDP_TxOptions,  AF_DEFAULT_RADIUS );
        ; Setup parameters for call to function AF_DataRequest
        MOV       ?V5,#0x1e
        MOV       R0,#?V5
        LCALL     ?PUSH_XSTACK_I_ONE
          CFI CFA_XSP16 add(XSP16, 27)
        MOV       R0,#?V0
        LCALL     ?PUSH_XSTACK_I_TWO
          CFI CFA_XSP16 add(XSP16, 29)
        MOV       R0,#?V2
        LCALL     ?PUSH_XSTACK_I_TWO
          CFI CFA_XSP16 add(XSP16, 31)
        MOV       A,?V4
        ADD       A,#0x1
        MOV       ?V0,A
        CLR       A
        ADDC      A,#0x0
        MOV       ?V1,A
        MOV       R0,#?V0
        LCALL     ?PUSH_XSTACK_I_TWO
          CFI CFA_XSP16 add(XSP16, 33)
        MOV       A,#0x21
        LCALL     ?XSTACK_DISP0_8
        LCALL     ?PUSH_XSTACK8_X_TWO
          CFI CFA_XSP16 add(XSP16, 35)
        MOV       DPTR,#ZDP_TxOptions
        MOVX      A,@DPTR
        MOV       R1,A
        MOV       R4,#ZDApp_epDesc & 0xff
        MOV       R5,#(ZDApp_epDesc >> 8) & 0xff
        MOV       A,#0x9
        LCALL     ?XSTACK_DISP101_8
        LCALL     `??AF_DataRequest::?relay`; Banked call to: AF_DataRequest
        MOV       A,#0x9
        LCALL     ?DEALLOC_XSTACK8
          CFI CFA_XSP16 add(XSP16, 26)
        MOV       A,#0xc
        LJMP      ?Subroutine0 & 0xFFFF
//  248 
//  249 }
          CFI EndBlock cfiBlock0
//  250 
//  251 /*********************************************************************
//  252  * @fn          ZDP_SendData
//  253  *
//  254  * @brief       This builds and send a request message that has
//  255  *              NWKAddrOfInterest as its only parameter.
//  256  *
//  257  * @param       dstAddr - destination address
//  258  * @param       cmd - clusterID
//  259  * @param       dataLen - number of bytes of data
//  260  * @param       data - pointer to the data
//  261  * @param       SecurityEnable - Security Options
//  262  *
//  263  * @return      afStatus_t
//  264  */

        RSEG BANKED_CODE:HUGECODE:NOROOT(0)
//  265 afStatus_t ZDP_SendData( uint8 *TransSeq, zAddrType_t *dstAddr, uint16 cmd,
ZDP_SendData:
          CFI Block cfiBlock1 Using cfiCommon0
          CFI Function ZDP_SendData
        CODE
//  266                         byte len, uint8 *buf, byte SecurityEnable )
//  267 {
        FUNCALL ZDP_SendData, fillAndSend
        LOCFRAME ISTACK, 0, STACK
        LOCFRAME PSTACK, 0, STACK
        LOCFRAME XSTACK, 14, STACK
        LOCFRAME IOVERLAY, 0, STATIC
        LOCFRAME DOVERLAY, 0, STATIC
        ARGFRAME ISTACK, 0, STACK
        ARGFRAME PSTACK, 0, STACK
        ARGFRAME XSTACK, 14, STACK
        ARGFRAME IOVERLAY, 0, STATIC
        ARGFRAME DOVERLAY, 0, STATIC
        REQUIRE ?V0
        REQUIRE ?V2
        REQUIRE ?V3
        MOV       A,#-0xc
        LCALL     ?BANKED_ENTER_XDATA
          CFI DPH0 load(1, XDATA, add(CFA_XSP16, literal(-1)))
          CFI DPL0 load(1, XDATA, add(CFA_XSP16, literal(-2)))
          CFI ?BRET_EXT load(1, XDATA, add(CFA_XSP16, literal(-3)))
          CFI ?RET_HIGH load(1, XDATA, add(CFA_XSP16, literal(-4)))
          CFI ?RET_LOW load(1, XDATA, add(CFA_XSP16, literal(-5)))
          CFI R7 load(1, XDATA, add(CFA_XSP16, literal(-6)))
          CFI V3 load(1, XDATA, add(CFA_XSP16, literal(-7)))
          CFI V2 load(1, XDATA, add(CFA_XSP16, literal(-8)))
          CFI V1 load(1, XDATA, add(CFA_XSP16, literal(-9)))
          CFI V0 load(1, XDATA, add(CFA_XSP16, literal(-10)))
          CFI VB load(1, XDATA, add(CFA_XSP16, literal(-11)))
          CFI R6 load(1, XDATA, add(CFA_XSP16, literal(-12)))
          CFI CFA_SP SP+0
          CFI CFA_XSP16 add(XSP16, 12)
        ; Saved register size: 12
        ; Auto size: 0
        MOV       A,R1
        MOV       R7,A
//  268   uint8 *pBuf = ZDP_TmpBuf;
        MOV       DPTR,#ZDP_TmpBuf
        LCALL     ?Subroutine49 & 0xFFFF
//  269   byte cnt = len;
??CrossCallReturnLabel_72:
        MOV       A,R7
        MOV       R6,A
        MOV       A,#0xe
        LCALL     ?XSTACK_DISP0_8
        LCALL     ??Subroutine118_0 & 0xFFFF
??CrossCallReturnLabel_230:
        SJMP      ??ZDP_SendData_0
//  270 
//  271   while ( cnt-- )
//  272   {
//  273     *pBuf++ = *buf++;
??ZDP_SendData_1:
        MOV       DPL,R0
        MOV       DPH,R1
        MOVX      A,@DPTR
        MOV       DPL,?V2
        MOV       DPH,?V3
        LCALL     ??Subroutine115_0 & 0xFFFF
//  274   }
??CrossCallReturnLabel_219:
        MOV       R0,DPL
        MOV       R1,DPH
        MOV       DPL,?V2
        MOV       DPH,?V3
        INC       DPTR
        MOV       ?V2,DPL
        MOV       ?V3,DPH
??ZDP_SendData_0:
        MOV       A,#-0x1
        ADD       A,R6
        MOV       R6,A
        INC       A
        JNZ       ??ZDP_SendData_1
//  275 
//  276   FillAndSendTxOptions( TransSeq, dstAddr, cmd, len, ((SecurityEnable) ? AF_EN_SECURITY : 0) );
        MOV       A,#0x10
        LCALL     ?XSTACK_DISP0_8
        MOVX      A,@DPTR
        MOV       DPTR,#ZDP_TxOptions
        JZ        ??ZDP_SendData_2
        MOV       A,#0x40
        SJMP      ??ZDP_SendData_3
??ZDP_SendData_2:
        CLR       A
??ZDP_SendData_3:
        MOVX      @DPTR,A
        ; Setup parameters for call to function fillAndSend
        MOV       A,#0xc
        LCALL     ?XSTACK_DISP0_8
        LCALL     ?PUSH_XSTACK8_X_TWO
          CFI CFA_XSP16 add(XSP16, 14)
        MOV       A,R7
        MOV       R1,A
        LCALL     `??fillAndSend::?relay`; Banked call to: fillAndSend
        MOV       A,#0x2
        LCALL     ?DEALLOC_XSTACK8
          CFI CFA_XSP16 add(XSP16, 12)
        MOV       A,R1
        MOV       R1,A
        MOV       DPTR,#ZDP_TxOptions
        CLR       A
        MOVX      @DPTR,A
        LJMP      ??Subroutine92_0 & 0xFFFF
//  277 }
          CFI EndBlock cfiBlock1
//  278 
//  279 /*********************************************************************
//  280  * @fn          ZDP_NWKAddrOfInterestReq
//  281  *
//  282  * @brief       This builds and send a request message that has
//  283  *              NWKAddrOfInterest as its only parameter.
//  284  *
//  285  * @param       dstAddr - destination address
//  286  * @param       nwkAddr - 16 bit address
//  287  * @param       SecurityEnable - Security Options
//  288  *
//  289  * @return      afStatus_t
//  290  */

        RSEG BANKED_CODE:HUGECODE:NOROOT(0)
//  291 afStatus_t ZDP_NWKAddrOfInterestReq( zAddrType_t *dstAddr, uint16 nwkAddr,
ZDP_NWKAddrOfInterestReq:
          CFI Block cfiBlock2 Using cfiCommon0
          CFI Function ZDP_NWKAddrOfInterestReq
        CODE
//  292                                      byte cmd, byte SecurityEnable )
//  293 {
        FUNCALL ZDP_NWKAddrOfInterestReq, fillAndSend
        LOCFRAME ISTACK, 0, STACK
        LOCFRAME PSTACK, 0, STACK
        LOCFRAME XSTACK, 12, STACK
        LOCFRAME IOVERLAY, 0, STATIC
        LOCFRAME DOVERLAY, 0, STATIC
        ARGFRAME ISTACK, 0, STACK
        ARGFRAME PSTACK, 0, STACK
        ARGFRAME XSTACK, 12, STACK
        ARGFRAME IOVERLAY, 0, STATIC
        ARGFRAME DOVERLAY, 0, STATIC
        REQUIRE ?V0
        REQUIRE ?V1
        MOV       A,#-0xa
        LCALL     ?BANKED_ENTER_XDATA
          CFI DPH0 load(1, XDATA, add(CFA_XSP16, literal(-1)))
          CFI DPL0 load(1, XDATA, add(CFA_XSP16, literal(-2)))
          CFI ?BRET_EXT load(1, XDATA, add(CFA_XSP16, literal(-3)))
          CFI ?RET_HIGH load(1, XDATA, add(CFA_XSP16, literal(-4)))
          CFI ?RET_LOW load(1, XDATA, add(CFA_XSP16, literal(-5)))
          CFI R7 load(1, XDATA, add(CFA_XSP16, literal(-6)))
          CFI V1 load(1, XDATA, add(CFA_XSP16, literal(-7)))
          CFI V0 load(1, XDATA, add(CFA_XSP16, literal(-8)))
          CFI VB load(1, XDATA, add(CFA_XSP16, literal(-9)))
          CFI R6 load(1, XDATA, add(CFA_XSP16, literal(-10)))
          CFI CFA_SP SP+0
          CFI CFA_XSP16 add(XSP16, 10)
        ; Saved register size: 10
        ; Auto size: 0
        MOV       A,R1
        MOV       R6,A
//  294   (void)SecurityEnable;  // Intentionally unreferenced parameter
//  295 
//  296   ZDP_TmpBuf[0] = LO_UINT16( nwkAddr );
        LCALL     ?Subroutine17 & 0xFFFF
//  297   ZDP_TmpBuf[1] = HI_UINT16( nwkAddr );
??CrossCallReturnLabel_16:
        MOVX      @DPTR,A
//  298 
//  299   return fillAndSend( &ZDP_TransID, dstAddr, cmd, 2 );
        ; Setup parameters for call to function fillAndSend
        MOV       A,R6
        MOV       ?V0,A
        MOV       ?V1,#0x0
        MOV       R0,#?V0
        LCALL     ?PUSH_XSTACK_I_TWO
          CFI CFA_XSP16 add(XSP16, 12)
        MOV       R1,#0x2
        LJMP      ?Subroutine8 & 0xFFFF
//  300 }
          CFI EndBlock cfiBlock2
//  301 
//  302 /*********************************************************************
//  303  * Address Requests
//  304  */
//  305 
//  306 /*********************************************************************
//  307  * @fn          ZDP_NwkAddrReq
//  308  *
//  309  * @brief       This builds and send a NWK_addr_req message.  This
//  310  *              function sends a broadcast message looking for a 16
//  311  *              bit address with a 64 bit address as bait.
//  312  *
//  313  * @param       IEEEAddress - looking for this device
//  314  * @param       SecurityEnable - Security Options
//  315  *
//  316  * @return      afStatus_t
//  317  */

        RSEG BANKED_CODE:HUGECODE:NOROOT(0)
//  318 afStatus_t ZDP_NwkAddrReq( uint8 *IEEEAddress, byte ReqType,
ZDP_NwkAddrReq:
          CFI Block cfiBlock3 Using cfiCommon0
          CFI Function ZDP_NwkAddrReq
        CODE
//  319                            byte StartIndex, byte SecurityEnable )
//  320 {
        FUNCALL ZDP_NwkAddrReq, sAddrExtCmp
        LOCFRAME ISTACK, 0, STACK
        LOCFRAME PSTACK, 0, STACK
        LOCFRAME XSTACK, 21, STACK
        LOCFRAME IOVERLAY, 0, STATIC
        LOCFRAME DOVERLAY, 0, STATIC
        ARGFRAME ISTACK, 0, STACK
        ARGFRAME PSTACK, 0, STACK
        ARGFRAME XSTACK, 21, STACK
        ARGFRAME IOVERLAY, 0, STATIC
        ARGFRAME DOVERLAY, 0, STATIC
        FUNCALL ZDP_NwkAddrReq, sAddrExtCpy
        LOCFRAME ISTACK, 0, STACK
        LOCFRAME PSTACK, 0, STACK
        LOCFRAME XSTACK, 21, STACK
        LOCFRAME IOVERLAY, 0, STATIC
        LOCFRAME DOVERLAY, 0, STATIC
        ARGFRAME ISTACK, 0, STACK
        ARGFRAME PSTACK, 0, STACK
        ARGFRAME XSTACK, 21, STACK
        ARGFRAME IOVERLAY, 0, STATIC
        ARGFRAME DOVERLAY, 0, STATIC
        FUNCALL ZDP_NwkAddrReq, fillAndSend
        LOCFRAME ISTACK, 0, STACK
        LOCFRAME PSTACK, 0, STACK
        LOCFRAME XSTACK, 23, STACK
        LOCFRAME IOVERLAY, 0, STATIC
        LOCFRAME DOVERLAY, 0, STATIC
        ARGFRAME ISTACK, 0, STACK
        ARGFRAME PSTACK, 0, STACK
        ARGFRAME XSTACK, 23, STACK
        ARGFRAME IOVERLAY, 0, STATIC
        ARGFRAME DOVERLAY, 0, STATIC
        REQUIRE ?V0
        REQUIRE ?V1
        REQUIRE ?V2
        REQUIRE ?V3
        MOV       A,#-0xc
        LCALL     ?BANKED_ENTER_XDATA
          CFI DPH0 load(1, XDATA, add(CFA_XSP16, literal(-1)))
          CFI DPL0 load(1, XDATA, add(CFA_XSP16, literal(-2)))
          CFI ?BRET_EXT load(1, XDATA, add(CFA_XSP16, literal(-3)))
          CFI ?RET_HIGH load(1, XDATA, add(CFA_XSP16, literal(-4)))
          CFI ?RET_LOW load(1, XDATA, add(CFA_XSP16, literal(-5)))
          CFI R7 load(1, XDATA, add(CFA_XSP16, literal(-6)))
          CFI V3 load(1, XDATA, add(CFA_XSP16, literal(-7)))
          CFI V2 load(1, XDATA, add(CFA_XSP16, literal(-8)))
          CFI V1 load(1, XDATA, add(CFA_XSP16, literal(-9)))
          CFI V0 load(1, XDATA, add(CFA_XSP16, literal(-10)))
          CFI VB load(1, XDATA, add(CFA_XSP16, literal(-11)))
          CFI R6 load(1, XDATA, add(CFA_XSP16, literal(-12)))
          CFI CFA_SP SP+0
          CFI CFA_XSP16 add(XSP16, 12)
        ; Saved register size: 12
        ; Auto size: 9
        MOV       A,#-0x9
        LCALL     ?ALLOC_XSTACK8
          CFI CFA_XSP16 add(XSP16, 21)
        MOV       A,R2
        MOV       R6,A
        MOV       A,R3
        MOV       R7,A
        MOV       ?V2,R1
        MOV       ?V3,R4
//  321   uint8 *pBuf = ZDP_TmpBuf;
        LCALL     ?Subroutine39 & 0xFFFF
//  322   byte len = Z_EXTADDR_LEN + 1 + 1;  // IEEEAddress + ReqType + StartIndex.
//  323   zAddrType_t dstAddr;
//  324 
//  325   (void)SecurityEnable;  // Intentionally unreferenced parameter
//  326 
//  327   if ( osal_ExtAddrEqual( saveExtAddr, IEEEAddress ) == FALSE )
??CrossCallReturnLabel_140:
        ; Setup parameters for call to function sAddrExtCmp
        MOV       A,R6
        MOV       R4,A
        MOV       A,R7
        MOV       R5,A
        MOV       R2,#saveExtAddr & 0xff
        MOV       R3,#(saveExtAddr >> 8) & 0xff
        LCALL     `??sAddrExtCmp::?relay`; Banked call to: sAddrExtCmp
        MOV       A,R1
        JNZ       ??ZDP_NwkAddrReq_0
//  328   {
//  329     dstAddr.addrMode = AddrBroadcast;
        MOV       A,#0x8
        LCALL     ?XSTACK_DISP0_8
        LCALL     ?Subroutine80 & 0xFFFF
//  330     dstAddr.addr.shortAddr = NWK_BROADCAST_SHORTADDR_DEVRXON;
//  331   }
??CrossCallReturnLabel_123:
        SJMP      ??ZDP_NwkAddrReq_1
//  332   else
//  333   {
//  334     dstAddr.addrMode = Addr16Bit;
??ZDP_NwkAddrReq_0:
        MOV       A,#0x8
        LCALL     ?XSTACK_DISP0_8
        MOV       A,#0x2
        MOVX      @DPTR,A
//  335     dstAddr.addr.shortAddr = ZDAppNwkAddr.addr.shortAddr;
        MOV       DPTR,#ZDAppNwkAddr
        LCALL     ?Subroutine48 & 0xFFFF
//  336   }
??CrossCallReturnLabel_71:
        MOV       A,R0
        MOVX      @DPTR,A
        INC       DPTR
        MOV       A,R1
??ZDP_NwkAddrReq_1:
        MOVX      @DPTR,A
//  337 
//  338   pBuf = osal_cpyExtAddr( pBuf, IEEEAddress );
        ; Setup parameters for call to function sAddrExtCpy
        MOV       A,R6
        MOV       R4,A
        MOV       A,R7
        MOV       R5,A
        MOV       R2,?V0
        MOV       R3,?V1
        LCALL     `??sAddrExtCpy::?relay`; Banked call to: sAddrExtCpy
        MOV       DPL,R2
        MOV       DPH,R3
//  339 
//  340   *pBuf++ = ReqType;
        MOV       A,?V2
        MOVX      @DPTR,A
//  341   *pBuf++ = StartIndex;
        INC       DPTR
        MOV       A,?V3
        MOVX      @DPTR,A
//  342 
//  343   return fillAndSend( &ZDP_TransID, &dstAddr, NWK_addr_req, len );
        ; Setup parameters for call to function fillAndSend
        CLR       A
        MOV       ?V0,A
        MOV       ?V1,A
        MOV       R0,#?V0
        LCALL     ?PUSH_XSTACK_I_TWO
          CFI CFA_XSP16 add(XSP16, 23)
        MOV       R1,#0xa
        MOV       A,#0x2
        LCALL     ?XSTACK_DISP102_8
          CFI EndBlock cfiBlock3
        REQUIRE ?Subroutine9
        ; // Fall through to label ?Subroutine9
//  344 }

        RSEG BANKED_CODE:HUGECODE:NOROOT(0)
?Subroutine9:
          CFI Block cfiBlock4 Using cfiCommon0
          CFI NoFunction
          CFI CFA_SP SP+0
          CFI CFA_XSP16 add(XSP16, 23)
          CFI VB load(1, XDATA, add(CFA_XSP16, literal(-11)))
          CFI DPL0 load(1, XDATA, add(CFA_XSP16, literal(-2)))
          CFI DPH0 load(1, XDATA, add(CFA_XSP16, literal(-1)))
          CFI R6 load(1, XDATA, add(CFA_XSP16, literal(-12)))
          CFI R7 load(1, XDATA, add(CFA_XSP16, literal(-6)))
          CFI V0 load(1, XDATA, add(CFA_XSP16, literal(-10)))
          CFI V1 load(1, XDATA, add(CFA_XSP16, literal(-9)))
          CFI V2 load(1, XDATA, add(CFA_XSP16, literal(-8)))
          CFI V3 load(1, XDATA, add(CFA_XSP16, literal(-7)))
          CFI ?BRET_EXT load(1, XDATA, add(CFA_XSP16, literal(-3)))
          CFI ?RET_HIGH load(1, XDATA, add(CFA_XSP16, literal(-4)))
          CFI ?RET_LOW load(1, XDATA, add(CFA_XSP16, literal(-5)))
        MOV       R2,#ZDP_TransID & 0xff
        MOV       R3,#(ZDP_TransID >> 8) & 0xff
        LCALL     `??fillAndSend::?relay`; Banked call to: fillAndSend
        MOV       A,#0x2
        LCALL     ?DEALLOC_XSTACK8
          CFI CFA_XSP16 add(XSP16, 21)
        MOV       A,#0x9
        SJMP      ??Subroutine91_0
          CFI EndBlock cfiBlock4

        RSEG BANKED_CODE:HUGECODE:NOROOT(0)
?Subroutine48:
          CFI Block cfiCond5 Using cfiCommon0
          CFI Function fillAndSend
          CFI Conditional ??CrossCallReturnLabel_70
          CFI R6 load(1, XDATA, add(CFA_XSP16, literal(-14)))
          CFI VB load(1, XDATA, add(CFA_XSP16, literal(-13)))
          CFI V0 load(1, XDATA, add(CFA_XSP16, literal(-12)))
          CFI V1 load(1, XDATA, add(CFA_XSP16, literal(-11)))
          CFI V2 load(1, XDATA, add(CFA_XSP16, literal(-10)))
          CFI V3 load(1, XDATA, add(CFA_XSP16, literal(-9)))
          CFI V4 load(1, XDATA, add(CFA_XSP16, literal(-8)))
          CFI V5 load(1, XDATA, add(CFA_XSP16, literal(-7)))
          CFI R7 load(1, XDATA, add(CFA_XSP16, literal(-6)))
          CFI ?RET_LOW load(1, XDATA, add(CFA_XSP16, literal(-5)))
          CFI ?RET_HIGH load(1, XDATA, add(CFA_XSP16, literal(-4)))
          CFI ?BRET_EXT load(1, XDATA, add(CFA_XSP16, literal(-3)))
          CFI DPL0 load(1, XDATA, add(CFA_XSP16, literal(-2)))
          CFI DPH0 load(1, XDATA, add(CFA_XSP16, literal(-1)))
          CFI CFA_SP SP+-2
          CFI CFA_XSP16 add(XSP16, 26)
          CFI Block cfiCond6 Using cfiCommon0
          CFI (cfiCond6) Function ZDP_NwkAddrReq
          CFI (cfiCond6) Conditional ??CrossCallReturnLabel_71
          CFI (cfiCond6) R6 load(1, XDATA, add(CFA_XSP16, literal(-12)))
          CFI (cfiCond6) VB load(1, XDATA, add(CFA_XSP16, literal(-11)))
          CFI (cfiCond6) V0 load(1, XDATA, add(CFA_XSP16, literal(-10)))
          CFI (cfiCond6) V1 load(1, XDATA, add(CFA_XSP16, literal(-9)))
          CFI (cfiCond6) V2 load(1, XDATA, add(CFA_XSP16, literal(-8)))
          CFI (cfiCond6) V3 load(1, XDATA, add(CFA_XSP16, literal(-7)))
          CFI (cfiCond6) R7 load(1, XDATA, add(CFA_XSP16, literal(-6)))
          CFI (cfiCond6) ?RET_LOW load(1, XDATA, add(CFA_XSP16, literal(-5)))
          CFI (cfiCond6) ?RET_HIGH load(1, XDATA, add(CFA_XSP16, literal(-4)))
          CFI (cfiCond6) ?BRET_EXT load(1, XDATA, add(CFA_XSP16, literal(-3)))
          CFI (cfiCond6) DPL0 load(1, XDATA, add(CFA_XSP16, literal(-2)))
          CFI (cfiCond6) DPH0 load(1, XDATA, add(CFA_XSP16, literal(-1)))
          CFI (cfiCond6) CFA_SP SP+-2
          CFI (cfiCond6) CFA_XSP16 add(XSP16, 21)
          CFI Block cfiPicker7 Using cfiCommon1
          CFI (cfiPicker7) NoFunction
          CFI (cfiPicker7) Picker
        LCALL     ??Subroutine119_0 & 0xFFFF
??CrossCallReturnLabel_245:
        MOV       R1,A
        MOV       DPL,?XSP + 0
        MOV       DPH,?XSP + 1
        RET
          CFI EndBlock cfiCond5
          CFI EndBlock cfiCond6
          CFI EndBlock cfiPicker7

        RSEG BANKED_CODE:HUGECODE:NOROOT(0)
?Subroutine39:
          CFI Block cfiCond8 Using cfiCommon0
          CFI Function ZDP_NwkAddrReq
          CFI Conditional ??CrossCallReturnLabel_140
          CFI R6 load(1, XDATA, add(CFA_XSP16, literal(-12)))
          CFI VB load(1, XDATA, add(CFA_XSP16, literal(-11)))
          CFI V0 load(1, XDATA, add(CFA_XSP16, literal(-10)))
          CFI V1 load(1, XDATA, add(CFA_XSP16, literal(-9)))
          CFI V2 load(1, XDATA, add(CFA_XSP16, literal(-8)))
          CFI V3 load(1, XDATA, add(CFA_XSP16, literal(-7)))
          CFI R7 load(1, XDATA, add(CFA_XSP16, literal(-6)))
          CFI ?RET_LOW load(1, XDATA, add(CFA_XSP16, literal(-5)))
          CFI ?RET_HIGH load(1, XDATA, add(CFA_XSP16, literal(-4)))
          CFI ?BRET_EXT load(1, XDATA, add(CFA_XSP16, literal(-3)))
          CFI DPL0 load(1, XDATA, add(CFA_XSP16, literal(-2)))
          CFI DPH0 load(1, XDATA, add(CFA_XSP16, literal(-1)))
          CFI CFA_SP SP+-2
          CFI CFA_XSP16 add(XSP16, 21)
          CFI Block cfiCond9 Using cfiCommon0
          CFI (cfiCond9) Function ZDP_EndDeviceBindReq
          CFI (cfiCond9) Conditional ??CrossCallReturnLabel_141
          CFI (cfiCond9) R6 load(1, XDATA, add(CFA_XSP16, literal(-18)))
          CFI (cfiCond9) VB load(1, XDATA, add(CFA_XSP16, literal(-17)))
          CFI (cfiCond9) V0 load(1, XDATA, add(CFA_XSP16, literal(-16)))
          CFI (cfiCond9) V1 load(1, XDATA, add(CFA_XSP16, literal(-15)))
          CFI (cfiCond9) V2 load(1, XDATA, add(CFA_XSP16, literal(-14)))
          CFI (cfiCond9) V3 load(1, XDATA, add(CFA_XSP16, literal(-13)))
          CFI (cfiCond9) V4 load(1, XDATA, add(CFA_XSP16, literal(-12)))
          CFI (cfiCond9) V5 load(1, XDATA, add(CFA_XSP16, literal(-11)))
          CFI (cfiCond9) V6 load(1, XDATA, add(CFA_XSP16, literal(-10)))
          CFI (cfiCond9) V7 load(1, XDATA, add(CFA_XSP16, literal(-9)))
          CFI (cfiCond9) V8 load(1, XDATA, add(CFA_XSP16, literal(-8)))
          CFI (cfiCond9) V9 load(1, XDATA, add(CFA_XSP16, literal(-7)))
          CFI (cfiCond9) R7 load(1, XDATA, add(CFA_XSP16, literal(-6)))
          CFI (cfiCond9) ?RET_LOW load(1, XDATA, add(CFA_XSP16, literal(-5)))
          CFI (cfiCond9) ?RET_HIGH load(1, XDATA, add(CFA_XSP16, literal(-4)))
          CFI (cfiCond9) ?BRET_EXT load(1, XDATA, add(CFA_XSP16, literal(-3)))
          CFI (cfiCond9) DPL0 load(1, XDATA, add(CFA_XSP16, literal(-2)))
          CFI (cfiCond9) DPH0 load(1, XDATA, add(CFA_XSP16, literal(-1)))
          CFI (cfiCond9) CFA_SP SP+-2
          CFI (cfiCond9) CFA_XSP16 add(XSP16, 18)
          CFI Block cfiPicker10 Using cfiCommon1
          CFI (cfiPicker10) NoFunction
          CFI (cfiPicker10) Picker
        MOV       DPTR,#ZDP_TmpBuf
          CFI EndBlock cfiCond8
          CFI EndBlock cfiCond9
          CFI EndBlock cfiPicker10
        REQUIRE ??Subroutine89_0
        ; // Fall through to label ??Subroutine89_0

        RSEG BANKED_CODE:HUGECODE:NOROOT(0)
??Subroutine89_0:
          CFI Block cfiCond11 Using cfiCommon0
          CFI Function ZDP_ParentAnnce
          CFI Conditional ??CrossCallReturnLabel_137
          CFI R6 load(1, XDATA, add(CFA_XSP16, literal(-20)))
          CFI VB load(1, XDATA, add(CFA_XSP16, literal(-19)))
          CFI V0 load(1, XDATA, add(CFA_XSP16, literal(-18)))
          CFI V1 load(1, XDATA, add(CFA_XSP16, literal(-17)))
          CFI V2 load(1, XDATA, add(CFA_XSP16, literal(-16)))
          CFI V3 load(1, XDATA, add(CFA_XSP16, literal(-15)))
          CFI V4 load(1, XDATA, add(CFA_XSP16, literal(-14)))
          CFI V5 load(1, XDATA, add(CFA_XSP16, literal(-13)))
          CFI V6 load(1, XDATA, add(CFA_XSP16, literal(-12)))
          CFI V7 load(1, XDATA, add(CFA_XSP16, literal(-11)))
          CFI V8 load(1, XDATA, add(CFA_XSP16, literal(-10)))
          CFI V9 load(1, XDATA, add(CFA_XSP16, literal(-9)))
          CFI V10 load(1, XDATA, add(CFA_XSP16, literal(-8)))
          CFI V11 load(1, XDATA, add(CFA_XSP16, literal(-7)))
          CFI R7 load(1, XDATA, add(CFA_XSP16, literal(-6)))
          CFI ?RET_LOW load(1, XDATA, add(CFA_XSP16, literal(-5)))
          CFI ?RET_HIGH load(1, XDATA, add(CFA_XSP16, literal(-4)))
          CFI ?BRET_EXT load(1, XDATA, add(CFA_XSP16, literal(-3)))
          CFI DPL0 load(1, XDATA, add(CFA_XSP16, literal(-2)))
          CFI DPH0 load(1, XDATA, add(CFA_XSP16, literal(-1)))
          CFI CFA_SP SP+-2
          CFI CFA_XSP16 add(XSP16, 20)
          CFI Block cfiCond12 Using cfiCommon0
          CFI (cfiCond12) Function ZDO_SendMsgCBs
          CFI (cfiCond12) Conditional ??CrossCallReturnLabel_138
          CFI (cfiCond12) R6 load(1, XDATA, add(CFA_XSP16, literal(-18)))
          CFI (cfiCond12) VB load(1, XDATA, add(CFA_XSP16, literal(-17)))
          CFI (cfiCond12) V0 load(1, XDATA, add(CFA_XSP16, literal(-16)))
          CFI (cfiCond12) V1 load(1, XDATA, add(CFA_XSP16, literal(-15)))
          CFI (cfiCond12) V2 load(1, XDATA, add(CFA_XSP16, literal(-14)))
          CFI (cfiCond12) V3 load(1, XDATA, add(CFA_XSP16, literal(-13)))
          CFI (cfiCond12) V4 load(1, XDATA, add(CFA_XSP16, literal(-12)))
          CFI (cfiCond12) V5 load(1, XDATA, add(CFA_XSP16, literal(-11)))
          CFI (cfiCond12) V6 load(1, XDATA, add(CFA_XSP16, literal(-10)))
          CFI (cfiCond12) V7 load(1, XDATA, add(CFA_XSP16, literal(-9)))
          CFI (cfiCond12) V8 load(1, XDATA, add(CFA_XSP16, literal(-8)))
          CFI (cfiCond12) V9 load(1, XDATA, add(CFA_XSP16, literal(-7)))
          CFI (cfiCond12) R7 load(1, XDATA, add(CFA_XSP16, literal(-6)))
          CFI (cfiCond12) ?RET_LOW load(1, XDATA, add(CFA_XSP16, literal(-5)))
          CFI (cfiCond12) ?RET_HIGH load(1, XDATA, add(CFA_XSP16, literal(-4)))
          CFI (cfiCond12) ?BRET_EXT load(1, XDATA, add(CFA_XSP16, literal(-3)))
          CFI (cfiCond12) DPL0 load(1, XDATA, add(CFA_XSP16, literal(-2)))
          CFI (cfiCond12) DPH0 load(1, XDATA, add(CFA_XSP16, literal(-1)))
          CFI (cfiCond12) CFA_SP SP+-2
          CFI (cfiCond12) CFA_XSP16 add(XSP16, 18)
          CFI Block cfiCond13 Using cfiCommon0
          CFI (cfiCond13) Function ZDO_SendMsgCBs
          CFI (cfiCond13) Conditional ??CrossCallReturnLabel_139
          CFI (cfiCond13) R6 load(1, XDATA, add(CFA_XSP16, literal(-18)))
          CFI (cfiCond13) VB load(1, XDATA, add(CFA_XSP16, literal(-17)))
          CFI (cfiCond13) V0 load(1, XDATA, add(CFA_XSP16, literal(-16)))
          CFI (cfiCond13) V1 load(1, XDATA, add(CFA_XSP16, literal(-15)))
          CFI (cfiCond13) V2 load(1, XDATA, add(CFA_XSP16, literal(-14)))
          CFI (cfiCond13) V3 load(1, XDATA, add(CFA_XSP16, literal(-13)))
          CFI (cfiCond13) V4 load(1, XDATA, add(CFA_XSP16, literal(-12)))
          CFI (cfiCond13) V5 load(1, XDATA, add(CFA_XSP16, literal(-11)))
          CFI (cfiCond13) V6 load(1, XDATA, add(CFA_XSP16, literal(-10)))
          CFI (cfiCond13) V7 load(1, XDATA, add(CFA_XSP16, literal(-9)))
          CFI (cfiCond13) V8 load(1, XDATA, add(CFA_XSP16, literal(-8)))
          CFI (cfiCond13) V9 load(1, XDATA, add(CFA_XSP16, literal(-7)))
          CFI (cfiCond13) R7 load(1, XDATA, add(CFA_XSP16, literal(-6)))
          CFI (cfiCond13) ?RET_LOW load(1, XDATA, add(CFA_XSP16, literal(-5)))
          CFI (cfiCond13) ?RET_HIGH load(1, XDATA, add(CFA_XSP16, literal(-4)))
          CFI (cfiCond13) ?BRET_EXT load(1, XDATA, add(CFA_XSP16, literal(-3)))
          CFI (cfiCond13) DPL0 load(1, XDATA, add(CFA_XSP16, literal(-2)))
          CFI (cfiCond13) DPH0 load(1, XDATA, add(CFA_XSP16, literal(-1)))
          CFI (cfiCond13) CFA_SP SP+-2
          CFI (cfiCond13) CFA_XSP16 add(XSP16, 18)
          CFI Block cfiCond14 Using cfiCommon0
          CFI (cfiCond14) Function ZDP_NwkAddrReq
          CFI (cfiCond14) Conditional ??CrossCallReturnLabel_140
          CFI (cfiCond14) R6 load(1, XDATA, add(CFA_XSP16, literal(-12)))
          CFI (cfiCond14) VB load(1, XDATA, add(CFA_XSP16, literal(-11)))
          CFI (cfiCond14) V0 load(1, XDATA, add(CFA_XSP16, literal(-10)))
          CFI (cfiCond14) V1 load(1, XDATA, add(CFA_XSP16, literal(-9)))
          CFI (cfiCond14) V2 load(1, XDATA, add(CFA_XSP16, literal(-8)))
          CFI (cfiCond14) V3 load(1, XDATA, add(CFA_XSP16, literal(-7)))
          CFI (cfiCond14) R7 load(1, XDATA, add(CFA_XSP16, literal(-6)))
          CFI (cfiCond14) ?RET_LOW load(1, XDATA, add(CFA_XSP16, literal(-5)))
          CFI (cfiCond14) ?RET_HIGH load(1, XDATA, add(CFA_XSP16, literal(-4)))
          CFI (cfiCond14) ?BRET_EXT load(1, XDATA, add(CFA_XSP16, literal(-3)))
          CFI (cfiCond14) DPL0 load(1, XDATA, add(CFA_XSP16, literal(-2)))
          CFI (cfiCond14) DPH0 load(1, XDATA, add(CFA_XSP16, literal(-1)))
          CFI (cfiCond14) CFA_SP SP+-2
          CFI (cfiCond14) CFA_XSP16 add(XSP16, 21)
          CFI Block cfiCond15 Using cfiCommon0
          CFI (cfiCond15) Function ZDP_EndDeviceBindReq
          CFI (cfiCond15) Conditional ??CrossCallReturnLabel_141
          CFI (cfiCond15) R6 load(1, XDATA, add(CFA_XSP16, literal(-18)))
          CFI (cfiCond15) VB load(1, XDATA, add(CFA_XSP16, literal(-17)))
          CFI (cfiCond15) V0 load(1, XDATA, add(CFA_XSP16, literal(-16)))
          CFI (cfiCond15) V1 load(1, XDATA, add(CFA_XSP16, literal(-15)))
          CFI (cfiCond15) V2 load(1, XDATA, add(CFA_XSP16, literal(-14)))
          CFI (cfiCond15) V3 load(1, XDATA, add(CFA_XSP16, literal(-13)))
          CFI (cfiCond15) V4 load(1, XDATA, add(CFA_XSP16, literal(-12)))
          CFI (cfiCond15) V5 load(1, XDATA, add(CFA_XSP16, literal(-11)))
          CFI (cfiCond15) V6 load(1, XDATA, add(CFA_XSP16, literal(-10)))
          CFI (cfiCond15) V7 load(1, XDATA, add(CFA_XSP16, literal(-9)))
          CFI (cfiCond15) V8 load(1, XDATA, add(CFA_XSP16, literal(-8)))
          CFI (cfiCond15) V9 load(1, XDATA, add(CFA_XSP16, literal(-7)))
          CFI (cfiCond15) R7 load(1, XDATA, add(CFA_XSP16, literal(-6)))
          CFI (cfiCond15) ?RET_LOW load(1, XDATA, add(CFA_XSP16, literal(-5)))
          CFI (cfiCond15) ?RET_HIGH load(1, XDATA, add(CFA_XSP16, literal(-4)))
          CFI (cfiCond15) ?BRET_EXT load(1, XDATA, add(CFA_XSP16, literal(-3)))
          CFI (cfiCond15) DPL0 load(1, XDATA, add(CFA_XSP16, literal(-2)))
          CFI (cfiCond15) DPH0 load(1, XDATA, add(CFA_XSP16, literal(-1)))
          CFI (cfiCond15) CFA_SP SP+-2
          CFI (cfiCond15) CFA_XSP16 add(XSP16, 18)
          CFI Block cfiPicker16 Using cfiCommon1
          CFI (cfiPicker16) NoFunction
          CFI (cfiPicker16) Picker
        MOVX      A,@DPTR
        MOV       ?V0,A
        INC       DPTR
        MOVX      A,@DPTR
        MOV       ?V1,A
        RET
          CFI EndBlock cfiCond11
          CFI EndBlock cfiCond12
          CFI EndBlock cfiCond13
          CFI EndBlock cfiCond14
          CFI EndBlock cfiCond15
          CFI EndBlock cfiPicker16

        RSEG BANKED_CODE:HUGECODE:NOROOT(0)
?Subroutine1:
          CFI Block cfiBlock17 Using cfiCommon0
          CFI NoFunction
          CFI CFA_SP SP+0
          CFI CFA_XSP16 add(XSP16, 12)
          CFI VB load(1, XDATA, add(CFA_XSP16, literal(-11)))
          CFI DPL0 load(1, XDATA, add(CFA_XSP16, literal(-2)))
          CFI DPH0 load(1, XDATA, add(CFA_XSP16, literal(-1)))
          CFI R6 load(1, XDATA, add(CFA_XSP16, literal(-12)))
          CFI R7 load(1, XDATA, add(CFA_XSP16, literal(-6)))
          CFI V0 load(1, XDATA, add(CFA_XSP16, literal(-10)))
          CFI V1 load(1, XDATA, add(CFA_XSP16, literal(-9)))
          CFI V2 load(1, XDATA, add(CFA_XSP16, literal(-8)))
          CFI V3 load(1, XDATA, add(CFA_XSP16, literal(-7)))
          CFI ?BRET_EXT load(1, XDATA, add(CFA_XSP16, literal(-3)))
          CFI ?RET_HIGH load(1, XDATA, add(CFA_XSP16, literal(-4)))
          CFI ?RET_LOW load(1, XDATA, add(CFA_XSP16, literal(-5)))
        MOV       ?V3,#0x0
        MOV       R0,#?V2
        LCALL     ?PUSH_XSTACK_I_TWO
          CFI CFA_XSP16 add(XSP16, 14)
        MOV       R1,#0x9
          CFI EndBlock cfiBlock17
        REQUIRE ??Subroutine90_0
        ; // Fall through to label ??Subroutine90_0

        RSEG BANKED_CODE:HUGECODE:NOROOT(0)
??Subroutine90_0:
          CFI Block cfiBlock18 Using cfiCommon0
          CFI NoFunction
          CFI CFA_SP SP+0
          CFI CFA_XSP16 add(XSP16, 14)
          CFI VB load(1, XDATA, add(CFA_XSP16, literal(-11)))
          CFI DPL0 load(1, XDATA, add(CFA_XSP16, literal(-2)))
          CFI DPH0 load(1, XDATA, add(CFA_XSP16, literal(-1)))
          CFI R6 load(1, XDATA, add(CFA_XSP16, literal(-12)))
          CFI R7 load(1, XDATA, add(CFA_XSP16, literal(-6)))
          CFI V0 load(1, XDATA, add(CFA_XSP16, literal(-10)))
          CFI V1 load(1, XDATA, add(CFA_XSP16, literal(-9)))
          CFI V2 load(1, XDATA, add(CFA_XSP16, literal(-8)))
          CFI V3 load(1, XDATA, add(CFA_XSP16, literal(-7)))
          CFI ?BRET_EXT load(1, XDATA, add(CFA_XSP16, literal(-3)))
          CFI ?RET_HIGH load(1, XDATA, add(CFA_XSP16, literal(-4)))
          CFI ?RET_LOW load(1, XDATA, add(CFA_XSP16, literal(-5)))
        MOV       A,R6
        MOV       R4,A
        MOV       A,R7
        MOV       R5,A
        MOV       R2,#ZDP_TransID & 0xff
        MOV       R3,#(ZDP_TransID >> 8) & 0xff
        LCALL     `??fillAndSend::?relay`; Banked call to: fillAndSend
        MOV       A,#0x2
          CFI EndBlock cfiBlock18
        REQUIRE ??Subroutine91_0
        ; // Fall through to label ??Subroutine91_0

        RSEG BANKED_CODE:HUGECODE:NOROOT(0)
??Subroutine91_0:
          CFI Block cfiBlock19 Using cfiCommon0
          CFI NoFunction
          CFI CFA_SP SP+0
          CFI CFA_XSP16 add(XSP16, 21)
          CFI VB load(1, XDATA, add(CFA_XSP16, literal(-11)))
          CFI DPL0 load(1, XDATA, add(CFA_XSP16, literal(-2)))
          CFI DPH0 load(1, XDATA, add(CFA_XSP16, literal(-1)))
          CFI R6 load(1, XDATA, add(CFA_XSP16, literal(-12)))
          CFI R7 load(1, XDATA, add(CFA_XSP16, literal(-6)))
          CFI V0 load(1, XDATA, add(CFA_XSP16, literal(-10)))
          CFI V1 load(1, XDATA, add(CFA_XSP16, literal(-9)))
          CFI V2 load(1, XDATA, add(CFA_XSP16, literal(-8)))
          CFI V3 load(1, XDATA, add(CFA_XSP16, literal(-7)))
          CFI ?BRET_EXT load(1, XDATA, add(CFA_XSP16, literal(-3)))
          CFI ?RET_HIGH load(1, XDATA, add(CFA_XSP16, literal(-4)))
          CFI ?RET_LOW load(1, XDATA, add(CFA_XSP16, literal(-5)))
          CFI Invalid
        LCALL     ?DEALLOC_XSTACK8
          CFI EndBlock cfiBlock19
        REQUIRE ??Subroutine92_0
        ; // Fall through to label ??Subroutine92_0

        RSEG BANKED_CODE:HUGECODE:NOROOT(0)
??Subroutine92_0:
          CFI Block cfiBlock20 Using cfiCommon0
          CFI NoFunction
          CFI CFA_SP SP+0
          CFI CFA_XSP16 add(XSP16, 12)
          CFI VB load(1, XDATA, add(CFA_XSP16, literal(-11)))
          CFI DPL0 load(1, XDATA, add(CFA_XSP16, literal(-2)))
          CFI DPH0 load(1, XDATA, add(CFA_XSP16, literal(-1)))
          CFI R6 load(1, XDATA, add(CFA_XSP16, literal(-12)))
          CFI R7 load(1, XDATA, add(CFA_XSP16, literal(-6)))
          CFI V0 load(1, XDATA, add(CFA_XSP16, literal(-10)))
          CFI V1 load(1, XDATA, add(CFA_XSP16, literal(-9)))
          CFI V2 load(1, XDATA, add(CFA_XSP16, literal(-8)))
          CFI V3 load(1, XDATA, add(CFA_XSP16, literal(-7)))
          CFI ?BRET_EXT load(1, XDATA, add(CFA_XSP16, literal(-3)))
          CFI ?RET_HIGH load(1, XDATA, add(CFA_XSP16, literal(-4)))
          CFI ?RET_LOW load(1, XDATA, add(CFA_XSP16, literal(-5)))
        MOV       R7,#0x4
        LJMP      ?BANKED_LEAVE_XDATA
          CFI EndBlock cfiBlock20
//  345 
//  346 /*********************************************************************
//  347  * @fn          ZDP_IEEEAddrReq
//  348  *
//  349  * @brief       This builds and send a IEEE_addr_req message.  This
//  350  *              function sends a unicast message looking for a 64
//  351  *              bit IEEE address with a 16 bit address as bait.
//  352  *
//  353  * @param       ReqType - ZDP_IEEEADDR_REQTYPE_SINGLE or
//  354  *                        ZDP_IEEEADDR_REQTYPE_EXTENDED
//  355  * @param       SecurityEnable - Security Options
//  356  *
//  357  * @return      afStatus_t
//  358  */

        RSEG BANKED_CODE:HUGECODE:NOROOT(0)
//  359 afStatus_t ZDP_IEEEAddrReq( uint16 shortAddr, byte ReqType,
ZDP_IEEEAddrReq:
          CFI Block cfiBlock21 Using cfiCommon0
          CFI Function ZDP_IEEEAddrReq
        CODE
//  360                             byte StartIndex, byte SecurityEnable )
//  361 {
        FUNCALL ZDP_IEEEAddrReq, fillAndSend
        LOCFRAME ISTACK, 0, STACK
        LOCFRAME PSTACK, 0, STACK
        LOCFRAME XSTACK, 21, STACK
        LOCFRAME IOVERLAY, 0, STATIC
        LOCFRAME DOVERLAY, 0, STATIC
        ARGFRAME ISTACK, 0, STACK
        ARGFRAME PSTACK, 0, STACK
        ARGFRAME XSTACK, 21, STACK
        ARGFRAME IOVERLAY, 0, STATIC
        ARGFRAME DOVERLAY, 0, STATIC
        REQUIRE ?V0
        REQUIRE ?V1
        MOV       A,#-0xa
        LCALL     ?BANKED_ENTER_XDATA
          CFI DPH0 load(1, XDATA, add(CFA_XSP16, literal(-1)))
          CFI DPL0 load(1, XDATA, add(CFA_XSP16, literal(-2)))
          CFI ?BRET_EXT load(1, XDATA, add(CFA_XSP16, literal(-3)))
          CFI ?RET_HIGH load(1, XDATA, add(CFA_XSP16, literal(-4)))
          CFI ?RET_LOW load(1, XDATA, add(CFA_XSP16, literal(-5)))
          CFI R7 load(1, XDATA, add(CFA_XSP16, literal(-6)))
          CFI V1 load(1, XDATA, add(CFA_XSP16, literal(-7)))
          CFI V0 load(1, XDATA, add(CFA_XSP16, literal(-8)))
          CFI VB load(1, XDATA, add(CFA_XSP16, literal(-9)))
          CFI R6 load(1, XDATA, add(CFA_XSP16, literal(-10)))
          CFI CFA_SP SP+0
          CFI CFA_XSP16 add(XSP16, 10)
        ; Saved register size: 10
        ; Auto size: 9
        MOV       A,#-0x9
        LCALL     ?ALLOC_XSTACK8
          CFI CFA_XSP16 add(XSP16, 19)
        MOV       A,R1
        MOV       R6,A
        MOV       A,R4
        LCALL     ??Subroutine116_0 & 0xFFFF
//  362   uint8 *pBuf = ZDP_TmpBuf;
//  363   byte len = 2 + 1 + 1;  // shortAddr + ReqType + StartIndex.
//  364   zAddrType_t dstAddr;
//  365 
//  366   (void)SecurityEnable;  // Intentionally unreferenced parameter
//  367 
//  368   dstAddr.addrMode = (afAddrMode_t)Addr16Bit;
??CrossCallReturnLabel_229:
        MOV       A,#0x8
        LCALL     ?XSTACK_DISP0_8
        MOV       A,#0x2
        MOVX      @DPTR,A
//  369   dstAddr.addr.shortAddr = shortAddr;
        MOV       DPL,?XSP + 0
        MOV       DPH,?XSP + 1
        MOV       A,R2
        MOVX      @DPTR,A
        INC       DPTR
        MOV       A,R3
        MOVX      @DPTR,A
//  370 
//  371   *pBuf++ = LO_UINT16( shortAddr );
        MOV       A,R2
        MOV       DPL,R0
        MOV       DPH,R1
        MOVX      @DPTR,A
//  372   *pBuf++ = HI_UINT16( shortAddr );
        MOV       A,R3
        LCALL     ?Subroutine35 & 0xFFFF
//  373 
//  374   *pBuf++ = ReqType;
??CrossCallReturnLabel_46:
        MOVX      @DPTR,A
//  375   *pBuf++ = StartIndex;
        MOV       A,R7
        MOV       DPL,R0
        MOV       DPH,R1
        INC       DPTR
        INC       DPTR
        INC       DPTR
        MOVX      @DPTR,A
//  376 
//  377   return fillAndSend( &ZDP_TransID, &dstAddr, IEEE_addr_req, len );
        ; Setup parameters for call to function fillAndSend
        MOV       ?V0,#0x1
        MOV       ?V1,#0x0
        MOV       R0,#?V0
        LCALL     ?PUSH_XSTACK_I_TWO
          CFI CFA_XSP16 add(XSP16, 21)
        MOV       R1,#0x4
        LJMP      ?Subroutine2 & 0xFFFF
//  378 }
          CFI EndBlock cfiBlock21
//  379 
//  380 /*********************************************************************
//  381  * @fn          ZDP_MatchDescReq
//  382  *
//  383  * @brief       This builds and send a Match_Desc_req message.  This
//  384  *              function sends a broadcast or unicast message
//  385  *              requesting the list of endpoint/interfaces that
//  386  *              match profile ID and cluster IDs.
//  387  *
//  388  * @param       dstAddr - destination address
//  389  * @param       nwkAddr - network address of interest
//  390  * @param       ProfileID - Profile ID
//  391  * @param       NumInClusters - number of input clusters
//  392  * @param       InClusterList - input cluster ID list
//  393  * @param       NumOutClusters - number of output clusters
//  394  * @param       OutClusterList - output cluster ID list
//  395  * @param       SecurityEnable - Security Options
//  396  *
//  397  * @return      afStatus_t
//  398  */

        RSEG BANKED_CODE:HUGECODE:NOROOT(0)
//  399 afStatus_t ZDP_MatchDescReq( zAddrType_t *dstAddr, uint16 nwkAddr,
ZDP_MatchDescReq:
          CFI Block cfiBlock22 Using cfiCommon0
          CFI Function ZDP_MatchDescReq
        CODE
//  400                                 uint16 ProfileID,
//  401                                 byte NumInClusters, cId_t *InClusterList,
//  402                                 byte NumOutClusters, cId_t *OutClusterList,
//  403                                 byte SecurityEnable )
//  404 {
        FUNCALL ZDP_MatchDescReq, fillAndSend
        LOCFRAME ISTACK, 0, STACK
        LOCFRAME PSTACK, 0, STACK
        LOCFRAME XSTACK, 16, STACK
        LOCFRAME IOVERLAY, 0, STATIC
        LOCFRAME DOVERLAY, 0, STATIC
        ARGFRAME ISTACK, 0, STACK
        ARGFRAME PSTACK, 0, STACK
        ARGFRAME XSTACK, 16, STACK
        ARGFRAME IOVERLAY, 0, STATIC
        ARGFRAME DOVERLAY, 0, STATIC
        REQUIRE ?V0
        REQUIRE ?V1
        REQUIRE ?V2
        REQUIRE ?V3
        REQUIRE ?V4
        REQUIRE ?V5
        MOV       A,#-0xe
        LCALL     ?BANKED_ENTER_XDATA
          CFI DPH0 load(1, XDATA, add(CFA_XSP16, literal(-1)))
          CFI DPL0 load(1, XDATA, add(CFA_XSP16, literal(-2)))
          CFI ?BRET_EXT load(1, XDATA, add(CFA_XSP16, literal(-3)))
          CFI ?RET_HIGH load(1, XDATA, add(CFA_XSP16, literal(-4)))
          CFI ?RET_LOW load(1, XDATA, add(CFA_XSP16, literal(-5)))
          CFI R7 load(1, XDATA, add(CFA_XSP16, literal(-6)))
          CFI V5 load(1, XDATA, add(CFA_XSP16, literal(-7)))
          CFI V4 load(1, XDATA, add(CFA_XSP16, literal(-8)))
          CFI V3 load(1, XDATA, add(CFA_XSP16, literal(-9)))
          CFI V2 load(1, XDATA, add(CFA_XSP16, literal(-10)))
          CFI V1 load(1, XDATA, add(CFA_XSP16, literal(-11)))
          CFI V0 load(1, XDATA, add(CFA_XSP16, literal(-12)))
          CFI VB load(1, XDATA, add(CFA_XSP16, literal(-13)))
          CFI R6 load(1, XDATA, add(CFA_XSP16, literal(-14)))
          CFI CFA_SP SP+0
          CFI CFA_XSP16 add(XSP16, 14)
        ; Saved register size: 14
        ; Auto size: 0
        MOV       A,R1
        MOV       R6,A
//  405   uint8 *pBuf = ZDP_TmpBuf;
        LCALL     ??Subroutine117_0 & 0xFFFF
??CrossCallReturnLabel_240:
        MOV       A,#0x12
        LCALL     ?XSTACK_DISP0_8
        MOVX      A,@DPTR
        MOV       ?V0,A
//  406   // nwkAddr+ProfileID+NumInClusters+NumOutClusters.
//  407   byte i, len = 2 + 2 + 1 + 1;  // nwkAddr+ProfileID+NumInClusters+NumOutClusters.
//  408 
//  409   (void)SecurityEnable;  // Intentionally unreferenced parameter
//  410 
//  411   len += (NumInClusters + NumOutClusters) * sizeof(uint16);
        MOV       A,R6
        ADD       A,?V0
        CLR       C
        RLC       A
        ADD       A,#0x6
        MOV       R7,A
//  412 
//  413   if ( len >= ZDP_BUF_SZ-1 )
        CLR       C
        SUBB      A,#0x4f
        JC        ??ZDP_MatchDescReq_0
//  414   {
//  415     return afStatus_MEM_FAIL;
        MOV       R1,#0x10
        LJMP      ??ZDP_MatchDescReq_1 & 0xFFFF
//  416   }
//  417 
//  418   // The spec changed in Zigbee 2007 (2.4.3.1.7.1) to not allow sending
//  419   // this command to 0xFFFF.  So, here we will filter this and replace
//  420   // with 0xFFFD to only send to devices with RX ON.  This includes the
//  421   // network address of interest.
//  422   if ( ((dstAddr->addrMode == AddrBroadcast) || (dstAddr->addrMode == Addr16Bit))
//  423       && (dstAddr->addr.shortAddr == NWK_BROADCAST_SHORTADDR_DEVALL) )
??ZDP_MatchDescReq_0:
        MOV       DPL,R2
        MOV       DPH,R3
        INC       DPTR
        INC       DPTR
        INC       DPTR
        INC       DPTR
        INC       DPTR
        INC       DPTR
        INC       DPTR
        INC       DPTR
        MOVX      A,@DPTR
        MOV       ?V1,A
        MOV       A,#0xf
        XRL       A,?V1
        JZ        ??ZDP_MatchDescReq_2
        MOV       A,#0x2
        XRL       A,?V1
        JNZ       ??ZDP_MatchDescReq_3
??ZDP_MatchDescReq_2:
        MOV       DPL,R2
        MOV       DPH,R3
        MOVX      A,@DPTR
        CPL       A
        JNZ       ??ZDP_MatchDescReq_4
        INC       DPTR
        MOVX      A,@DPTR
        CPL       A
??ZDP_MatchDescReq_4:
        JNZ       ??ZDP_MatchDescReq_3
//  424   {
//  425     dstAddr->addr.shortAddr = NWK_BROADCAST_SHORTADDR_DEVRXON;
        MOV       DPL,R2
        MOV       DPH,R3
        MOV       A,#-0x3
        MOVX      @DPTR,A
        INC       DPTR
        MOV       A,#-0x1
        MOVX      @DPTR,A
//  426   }
//  427   if ( nwkAddr == NWK_BROADCAST_SHORTADDR_DEVALL )
??ZDP_MatchDescReq_3:
        MOV       A,#-0x1
        XRL       A,R4
        JNZ       ??ZDP_MatchDescReq_5
        MOV       A,#-0x1
        XRL       A,R5
??ZDP_MatchDescReq_5:
        JNZ       ??ZDP_MatchDescReq_6
//  428   {
//  429     nwkAddr = NWK_BROADCAST_SHORTADDR_DEVRXON;
        MOV       R4,#-0x3
        MOV       R5,#-0x1
//  430   }
//  431 
//  432   *pBuf++ = LO_UINT16( nwkAddr );   // NWKAddrOfInterest
??ZDP_MatchDescReq_6:
        MOV       A,R4
        MOV       DPL,R0
        MOV       DPH,R1
        MOVX      @DPTR,A
//  433   *pBuf++ = HI_UINT16( nwkAddr );
        MOV       A,R5
        INC       DPTR
        MOVX      @DPTR,A
        MOV       A,#0xe
        LCALL     ?XSTACK_DISP0_8
        LCALL     ?Subroutine44 & 0xFFFF
//  434 
//  435   *pBuf++ = LO_UINT16( ProfileID );   // Profile ID
??CrossCallReturnLabel_62:
        MOV       A,R4
        MOV       DPL,R0
        MOV       DPH,R1
        INC       DPTR
        INC       DPTR
        MOVX      @DPTR,A
//  436   *pBuf++ = HI_UINT16( ProfileID );
        MOV       A,R5
        MOV       DPL,R0
        MOV       DPH,R1
        INC       DPTR
        INC       DPTR
        LCALL     ?Subroutine35 & 0xFFFF
//  437 
//  438   *pBuf++ = NumInClusters; // Input cluster list
??CrossCallReturnLabel_47:
        INC       DPTR
        INC       DPTR
        MOVX      @DPTR,A
        MOV       A,R0
        ADD       A,#0x5
        MOV       R0,A
        JNC       ??ZDP_MatchDescReq_7
        INC       R1
//  439   if ( NumInClusters )
??ZDP_MatchDescReq_7:
        MOV       A,R6
        JZ        ??ZDP_MatchDescReq_8
//  440   {
//  441     for (i=0; i<NumInClusters; ++i)  {
        MOV       ?V1,#0x0
        MOV       A,#0x10
        LCALL     ?XSTACK_DISP0_8
        LCALL     ?Subroutine44 & 0xFFFF
//  442       *pBuf++ = LO_UINT16( InClusterList[i] );
??CrossCallReturnLabel_63:
        LCALL     ?Subroutine11 & 0xFFFF
//  443       *pBuf++ = HI_UINT16( InClusterList[i] );
//  444     }
??CrossCallReturnLabel_2:
        JNC       ??ZDP_MatchDescReq_9
        INC       R1
??ZDP_MatchDescReq_9:
        INC       ?V1
        MOV       A,?V1
        CLR       C
        SUBB      A,R6
        JC        ??CrossCallReturnLabel_63
//  445   }
//  446 
//  447   *pBuf++ = NumOutClusters; // Output cluster list
??ZDP_MatchDescReq_8:
        MOV       DPL,R0
        MOV       DPH,R1
        MOV       A,?V0
        MOVX      @DPTR,A
        INC       DPTR
        MOV       R0,DPL
        MOV       R1,DPH
//  448   if ( NumOutClusters )
        JZ        ??ZDP_MatchDescReq_10
//  449   {
//  450     for (i=0; i<NumOutClusters; ++i)  {
        MOV       ?V1,#0x0
        MOV       A,#0x13
        LCALL     ?XSTACK_DISP0_8
        LCALL     ?Subroutine44 & 0xFFFF
//  451       *pBuf++ = LO_UINT16( OutClusterList[i] );
??CrossCallReturnLabel_64:
        LCALL     ?Subroutine11 & 0xFFFF
//  452       *pBuf++ = HI_UINT16( OutClusterList[i] );
//  453     }
??CrossCallReturnLabel_3:
        JNC       ??ZDP_MatchDescReq_11
        INC       R1
??ZDP_MatchDescReq_11:
        INC       ?V1
        MOV       A,?V1
        CLR       C
        SUBB      A,?V0
        JC        ??CrossCallReturnLabel_64
//  454   }
//  455 
//  456   return fillAndSend( &ZDP_TransID, dstAddr, Match_Desc_req, len );
??ZDP_MatchDescReq_10:
        ; Setup parameters for call to function fillAndSend
        MOV       ?V0,#0x6
        MOV       ?V1,#0x0
        MOV       R0,#?V0
        LCALL     ?PUSH_XSTACK_I_TWO
          CFI CFA_XSP16 add(XSP16, 16)
        MOV       A,R7
        MOV       R1,A
        MOV       A,R2
        MOV       R4,A
        MOV       A,R3
        MOV       R5,A
        MOV       R2,#ZDP_TransID & 0xff
        MOV       R3,#(ZDP_TransID >> 8) & 0xff
        LCALL     `??fillAndSend::?relay`; Banked call to: fillAndSend
        MOV       A,#0x2
        LCALL     ?DEALLOC_XSTACK8
          CFI CFA_XSP16 add(XSP16, 14)
??ZDP_MatchDescReq_1:
        SJMP      ??Subroutine93_0
//  457 }
          CFI EndBlock cfiBlock22

        RSEG BANKED_CODE:HUGECODE:NOROOT(0)
?Subroutine35:
          CFI Block cfiCond23 Using cfiCommon0
          CFI Function ZDP_IEEEAddrReq
          CFI Conditional ??CrossCallReturnLabel_46
          CFI R6 load(1, XDATA, add(CFA_XSP16, literal(-10)))
          CFI VB load(1, XDATA, add(CFA_XSP16, literal(-9)))
          CFI V0 load(1, XDATA, add(CFA_XSP16, literal(-8)))
          CFI V1 load(1, XDATA, add(CFA_XSP16, literal(-7)))
          CFI R7 load(1, XDATA, add(CFA_XSP16, literal(-6)))
          CFI ?RET_LOW load(1, XDATA, add(CFA_XSP16, literal(-5)))
          CFI ?RET_HIGH load(1, XDATA, add(CFA_XSP16, literal(-4)))
          CFI ?BRET_EXT load(1, XDATA, add(CFA_XSP16, literal(-3)))
          CFI DPL0 load(1, XDATA, add(CFA_XSP16, literal(-2)))
          CFI DPH0 load(1, XDATA, add(CFA_XSP16, literal(-1)))
          CFI CFA_SP SP+-2
          CFI CFA_XSP16 add(XSP16, 19)
          CFI Block cfiCond24 Using cfiCommon0
          CFI (cfiCond24) Function ZDP_MatchDescReq
          CFI (cfiCond24) Conditional ??CrossCallReturnLabel_47
          CFI (cfiCond24) R6 load(1, XDATA, add(CFA_XSP16, literal(-14)))
          CFI (cfiCond24) VB load(1, XDATA, add(CFA_XSP16, literal(-13)))
          CFI (cfiCond24) V0 load(1, XDATA, add(CFA_XSP16, literal(-12)))
          CFI (cfiCond24) V1 load(1, XDATA, add(CFA_XSP16, literal(-11)))
          CFI (cfiCond24) V2 load(1, XDATA, add(CFA_XSP16, literal(-10)))
          CFI (cfiCond24) V3 load(1, XDATA, add(CFA_XSP16, literal(-9)))
          CFI (cfiCond24) V4 load(1, XDATA, add(CFA_XSP16, literal(-8)))
          CFI (cfiCond24) V5 load(1, XDATA, add(CFA_XSP16, literal(-7)))
          CFI (cfiCond24) R7 load(1, XDATA, add(CFA_XSP16, literal(-6)))
          CFI (cfiCond24) ?RET_LOW load(1, XDATA, add(CFA_XSP16, literal(-5)))
          CFI (cfiCond24) ?RET_HIGH load(1, XDATA, add(CFA_XSP16, literal(-4)))
          CFI (cfiCond24) ?BRET_EXT load(1, XDATA, add(CFA_XSP16, literal(-3)))
          CFI (cfiCond24) DPL0 load(1, XDATA, add(CFA_XSP16, literal(-2)))
          CFI (cfiCond24) DPH0 load(1, XDATA, add(CFA_XSP16, literal(-1)))
          CFI (cfiCond24) CFA_SP SP+-2
          CFI (cfiCond24) CFA_XSP16 add(XSP16, 14)
          CFI Block cfiPicker25 Using cfiCommon1
          CFI (cfiPicker25) NoFunction
          CFI (cfiPicker25) Picker
        INC       DPTR
        MOVX      @DPTR,A
        MOV       A,R6
        MOV       DPL,R0
        MOV       DPH,R1
        INC       DPTR
        INC       DPTR
        RET
          CFI EndBlock cfiCond23
          CFI EndBlock cfiCond24
          CFI EndBlock cfiPicker25

        RSEG BANKED_CODE:HUGECODE:NOROOT(0)
?Subroutine11:
          CFI Block cfiCond26 Using cfiCommon0
          CFI Function ZDP_MatchDescReq
          CFI Conditional ??CrossCallReturnLabel_2
          CFI R6 load(1, XDATA, add(CFA_XSP16, literal(-14)))
          CFI VB load(1, XDATA, add(CFA_XSP16, literal(-13)))
          CFI V0 load(1, XDATA, add(CFA_XSP16, literal(-12)))
          CFI V1 load(1, XDATA, add(CFA_XSP16, literal(-11)))
          CFI V2 load(1, XDATA, add(CFA_XSP16, literal(-10)))
          CFI V3 load(1, XDATA, add(CFA_XSP16, literal(-9)))
          CFI V4 load(1, XDATA, add(CFA_XSP16, literal(-8)))
          CFI V5 load(1, XDATA, add(CFA_XSP16, literal(-7)))
          CFI R7 load(1, XDATA, add(CFA_XSP16, literal(-6)))
          CFI ?RET_LOW load(1, XDATA, add(CFA_XSP16, literal(-5)))
          CFI ?RET_HIGH load(1, XDATA, add(CFA_XSP16, literal(-4)))
          CFI ?BRET_EXT load(1, XDATA, add(CFA_XSP16, literal(-3)))
          CFI DPL0 load(1, XDATA, add(CFA_XSP16, literal(-2)))
          CFI DPH0 load(1, XDATA, add(CFA_XSP16, literal(-1)))
          CFI CFA_SP SP+-2
          CFI CFA_XSP16 add(XSP16, 14)
          CFI Block cfiCond27 Using cfiCommon0
          CFI (cfiCond27) Function ZDP_MatchDescReq
          CFI (cfiCond27) Conditional ??CrossCallReturnLabel_3
          CFI (cfiCond27) R6 load(1, XDATA, add(CFA_XSP16, literal(-14)))
          CFI (cfiCond27) VB load(1, XDATA, add(CFA_XSP16, literal(-13)))
          CFI (cfiCond27) V0 load(1, XDATA, add(CFA_XSP16, literal(-12)))
          CFI (cfiCond27) V1 load(1, XDATA, add(CFA_XSP16, literal(-11)))
          CFI (cfiCond27) V2 load(1, XDATA, add(CFA_XSP16, literal(-10)))
          CFI (cfiCond27) V3 load(1, XDATA, add(CFA_XSP16, literal(-9)))
          CFI (cfiCond27) V4 load(1, XDATA, add(CFA_XSP16, literal(-8)))
          CFI (cfiCond27) V5 load(1, XDATA, add(CFA_XSP16, literal(-7)))
          CFI (cfiCond27) R7 load(1, XDATA, add(CFA_XSP16, literal(-6)))
          CFI (cfiCond27) ?RET_LOW load(1, XDATA, add(CFA_XSP16, literal(-5)))
          CFI (cfiCond27) ?RET_HIGH load(1, XDATA, add(CFA_XSP16, literal(-4)))
          CFI (cfiCond27) ?BRET_EXT load(1, XDATA, add(CFA_XSP16, literal(-3)))
          CFI (cfiCond27) DPL0 load(1, XDATA, add(CFA_XSP16, literal(-2)))
          CFI (cfiCond27) DPH0 load(1, XDATA, add(CFA_XSP16, literal(-1)))
          CFI (cfiCond27) CFA_SP SP+-2
          CFI (cfiCond27) CFA_XSP16 add(XSP16, 14)
          CFI Block cfiPicker28 Using cfiCommon1
          CFI (cfiPicker28) NoFunction
          CFI (cfiPicker28) Picker
        MOV       A,?V1
        LCALL     ?Subroutine87 & 0xFFFF
??CrossCallReturnLabel_136:
        MOV       A,R4
        ADD       A,?V2
        MOV       ?V2,A
        MOV       A,R5
        ADDC      A,?V3
        MOV       ?V3,A
        MOV       DPL,?V2
        LCALL     ?Subroutine74 & 0xFFFF
??CrossCallReturnLabel_198:
        MOVX      @DPTR,A
        MOV       DPL,?V2
        MOV       DPH,?V3
        LCALL     ?Subroutine71 & 0xFFFF
??CrossCallReturnLabel_115:
        RET
          CFI EndBlock cfiCond26
          CFI EndBlock cfiCond27
          CFI EndBlock cfiPicker28

        RSEG BANKED_CODE:HUGECODE:NOROOT(0)
?Subroutine0:
          CFI Block cfiBlock29 Using cfiCommon0
          CFI NoFunction
          CFI CFA_SP SP+0
          CFI CFA_XSP16 add(XSP16, 26)
          CFI VB load(1, XDATA, add(CFA_XSP16, literal(-13)))
          CFI DPL0 load(1, XDATA, add(CFA_XSP16, literal(-2)))
          CFI DPH0 load(1, XDATA, add(CFA_XSP16, literal(-1)))
          CFI R6 load(1, XDATA, add(CFA_XSP16, literal(-14)))
          CFI R7 load(1, XDATA, add(CFA_XSP16, literal(-6)))
          CFI V0 load(1, XDATA, add(CFA_XSP16, literal(-12)))
          CFI V1 load(1, XDATA, add(CFA_XSP16, literal(-11)))
          CFI V2 load(1, XDATA, add(CFA_XSP16, literal(-10)))
          CFI V3 load(1, XDATA, add(CFA_XSP16, literal(-9)))
          CFI V4 load(1, XDATA, add(CFA_XSP16, literal(-8)))
          CFI V5 load(1, XDATA, add(CFA_XSP16, literal(-7)))
          CFI ?BRET_EXT load(1, XDATA, add(CFA_XSP16, literal(-3)))
          CFI ?RET_HIGH load(1, XDATA, add(CFA_XSP16, literal(-4)))
          CFI ?RET_LOW load(1, XDATA, add(CFA_XSP16, literal(-5)))
          CFI Invalid
        LCALL     ?DEALLOC_XSTACK8
          CFI EndBlock cfiBlock29
        REQUIRE ??Subroutine93_0
        ; // Fall through to label ??Subroutine93_0

        RSEG BANKED_CODE:HUGECODE:NOROOT(0)
??Subroutine93_0:
          CFI Block cfiBlock30 Using cfiCommon0
          CFI NoFunction
          CFI CFA_SP SP+0
          CFI CFA_XSP16 add(XSP16, 14)
          CFI VB load(1, XDATA, add(CFA_XSP16, literal(-13)))
          CFI DPL0 load(1, XDATA, add(CFA_XSP16, literal(-2)))
          CFI DPH0 load(1, XDATA, add(CFA_XSP16, literal(-1)))
          CFI R6 load(1, XDATA, add(CFA_XSP16, literal(-14)))
          CFI R7 load(1, XDATA, add(CFA_XSP16, literal(-6)))
          CFI V0 load(1, XDATA, add(CFA_XSP16, literal(-12)))
          CFI V1 load(1, XDATA, add(CFA_XSP16, literal(-11)))
          CFI V2 load(1, XDATA, add(CFA_XSP16, literal(-10)))
          CFI V3 load(1, XDATA, add(CFA_XSP16, literal(-9)))
          CFI V4 load(1, XDATA, add(CFA_XSP16, literal(-8)))
          CFI V5 load(1, XDATA, add(CFA_XSP16, literal(-7)))
          CFI ?BRET_EXT load(1, XDATA, add(CFA_XSP16, literal(-3)))
          CFI ?RET_HIGH load(1, XDATA, add(CFA_XSP16, literal(-4)))
          CFI ?RET_LOW load(1, XDATA, add(CFA_XSP16, literal(-5)))
        MOV       R7,#0x6
        LJMP      ?BANKED_LEAVE_XDATA
          CFI EndBlock cfiBlock30
//  458 
//  459 /*********************************************************************
//  460  * @fn          ZDP_SimpleDescReq
//  461  *
//  462  * @brief       This builds and send a NWK_Simple_Desc_req
//  463  *              message.  This function sends unicast message to the
//  464  *              destination device.
//  465  *
//  466  * @param       dstAddr - destination address
//  467  * @param       nwkAddr - 16 bit address
//  468  * @param       epIntf - endpoint/interface
//  469  * @param       SecurityEnable - Security Options
//  470  *
//  471  * @return      afStatus_t
//  472  */

        RSEG BANKED_CODE:HUGECODE:NOROOT(0)
//  473 afStatus_t ZDP_SimpleDescReq( zAddrType_t *dstAddr, uint16 nwkAddr,
ZDP_SimpleDescReq:
          CFI Block cfiBlock31 Using cfiCommon0
          CFI Function ZDP_SimpleDescReq
        CODE
//  474                                     byte endPoint, byte SecurityEnable )
//  475 
//  476 {
        FUNCALL ZDP_SimpleDescReq, fillAndSend
        LOCFRAME ISTACK, 0, STACK
        LOCFRAME PSTACK, 0, STACK
        LOCFRAME XSTACK, 12, STACK
        LOCFRAME IOVERLAY, 0, STATIC
        LOCFRAME DOVERLAY, 0, STATIC
        ARGFRAME ISTACK, 0, STACK
        ARGFRAME PSTACK, 0, STACK
        ARGFRAME XSTACK, 12, STACK
        ARGFRAME IOVERLAY, 0, STATIC
        ARGFRAME DOVERLAY, 0, STATIC
        REQUIRE ?V0
        REQUIRE ?V1
        MOV       A,#-0xa
        LCALL     ?BANKED_ENTER_XDATA
          CFI DPH0 load(1, XDATA, add(CFA_XSP16, literal(-1)))
          CFI DPL0 load(1, XDATA, add(CFA_XSP16, literal(-2)))
          CFI ?BRET_EXT load(1, XDATA, add(CFA_XSP16, literal(-3)))
          CFI ?RET_HIGH load(1, XDATA, add(CFA_XSP16, literal(-4)))
          CFI ?RET_LOW load(1, XDATA, add(CFA_XSP16, literal(-5)))
          CFI R7 load(1, XDATA, add(CFA_XSP16, literal(-6)))
          CFI V1 load(1, XDATA, add(CFA_XSP16, literal(-7)))
          CFI V0 load(1, XDATA, add(CFA_XSP16, literal(-8)))
          CFI VB load(1, XDATA, add(CFA_XSP16, literal(-9)))
          CFI R6 load(1, XDATA, add(CFA_XSP16, literal(-10)))
          CFI CFA_SP SP+0
          CFI CFA_XSP16 add(XSP16, 10)
        ; Saved register size: 10
        ; Auto size: 0
//  477   (void)SecurityEnable;  // Intentionally unreferenced parameter
//  478 
//  479   ZDP_TmpBuf[0] = LO_UINT16( nwkAddr );
        LCALL     ?Subroutine17 & 0xFFFF
//  480   ZDP_TmpBuf[1] = HI_UINT16( nwkAddr );
??CrossCallReturnLabel_17:
        LCALL     ?Subroutine13 & 0xFFFF
//  481   ZDP_TmpBuf[2] = endPoint;
//  482 
//  483   return fillAndSend( &ZDP_TransID, dstAddr, Simple_Desc_req, 3 );
??CrossCallReturnLabel_6:
        ; Setup parameters for call to function fillAndSend
        MOV       ?V0,#0x4
        MOV       ?V1,#0x0
        MOV       R0,#?V0
        LCALL     ?PUSH_XSTACK_I_TWO
          CFI CFA_XSP16 add(XSP16, 12)
        MOV       R1,#0x3
        LJMP      ?Subroutine8 & 0xFFFF
//  484 }
          CFI EndBlock cfiBlock31

        RSEG BANKED_CODE:HUGECODE:NOROOT(0)
?Subroutine17:
          CFI Block cfiCond32 Using cfiCommon0
          CFI Function ZDP_NWKAddrOfInterestReq
          CFI Conditional ??CrossCallReturnLabel_16
          CFI R6 load(1, XDATA, add(CFA_XSP16, literal(-10)))
          CFI VB load(1, XDATA, add(CFA_XSP16, literal(-9)))
          CFI V0 load(1, XDATA, add(CFA_XSP16, literal(-8)))
          CFI V1 load(1, XDATA, add(CFA_XSP16, literal(-7)))
          CFI R7 load(1, XDATA, add(CFA_XSP16, literal(-6)))
          CFI ?RET_LOW load(1, XDATA, add(CFA_XSP16, literal(-5)))
          CFI ?RET_HIGH load(1, XDATA, add(CFA_XSP16, literal(-4)))
          CFI ?BRET_EXT load(1, XDATA, add(CFA_XSP16, literal(-3)))
          CFI DPL0 load(1, XDATA, add(CFA_XSP16, literal(-2)))
          CFI DPH0 load(1, XDATA, add(CFA_XSP16, literal(-1)))
          CFI CFA_SP SP+-2
          CFI CFA_XSP16 add(XSP16, 10)
          CFI Block cfiCond33 Using cfiCommon0
          CFI (cfiCond33) Function ZDP_SimpleDescReq
          CFI (cfiCond33) Conditional ??CrossCallReturnLabel_17
          CFI (cfiCond33) R6 load(1, XDATA, add(CFA_XSP16, literal(-10)))
          CFI (cfiCond33) VB load(1, XDATA, add(CFA_XSP16, literal(-9)))
          CFI (cfiCond33) V0 load(1, XDATA, add(CFA_XSP16, literal(-8)))
          CFI (cfiCond33) V1 load(1, XDATA, add(CFA_XSP16, literal(-7)))
          CFI (cfiCond33) R7 load(1, XDATA, add(CFA_XSP16, literal(-6)))
          CFI (cfiCond33) ?RET_LOW load(1, XDATA, add(CFA_XSP16, literal(-5)))
          CFI (cfiCond33) ?RET_HIGH load(1, XDATA, add(CFA_XSP16, literal(-4)))
          CFI (cfiCond33) ?BRET_EXT load(1, XDATA, add(CFA_XSP16, literal(-3)))
          CFI (cfiCond33) DPL0 load(1, XDATA, add(CFA_XSP16, literal(-2)))
          CFI (cfiCond33) DPH0 load(1, XDATA, add(CFA_XSP16, literal(-1)))
          CFI (cfiCond33) CFA_SP SP+-2
          CFI (cfiCond33) CFA_XSP16 add(XSP16, 10)
          CFI Block cfiPicker34 Using cfiCommon1
          CFI (cfiPicker34) NoFunction
          CFI (cfiPicker34) Picker
        LCALL     ?Subroutine76 & 0xFFFF
??CrossCallReturnLabel_248:
        MOV       DPH,A
        MOV       DPL,R0
        MOV       A,R4
        LCALL     ?Subroutine70 & 0xFFFF
??CrossCallReturnLabel_112:
        MOV       A,R5
        RET
          CFI EndBlock cfiCond32
          CFI EndBlock cfiCond33
          CFI EndBlock cfiPicker34

        RSEG BANKED_CODE:HUGECODE:NOROOT(0)
?Subroutine2:
          CFI Block cfiBlock35 Using cfiCommon0
          CFI NoFunction
          CFI CFA_SP SP+0
          CFI CFA_XSP16 add(XSP16, 21)
          CFI VB load(1, XDATA, add(CFA_XSP16, literal(-9)))
          CFI DPL0 load(1, XDATA, add(CFA_XSP16, literal(-2)))
          CFI DPH0 load(1, XDATA, add(CFA_XSP16, literal(-1)))
          CFI R6 load(1, XDATA, add(CFA_XSP16, literal(-10)))
          CFI R7 load(1, XDATA, add(CFA_XSP16, literal(-6)))
          CFI V0 load(1, XDATA, add(CFA_XSP16, literal(-8)))
          CFI V1 load(1, XDATA, add(CFA_XSP16, literal(-7)))
          CFI ?BRET_EXT load(1, XDATA, add(CFA_XSP16, literal(-3)))
          CFI ?RET_HIGH load(1, XDATA, add(CFA_XSP16, literal(-4)))
          CFI ?RET_LOW load(1, XDATA, add(CFA_XSP16, literal(-5)))
        MOV       A,#0x2
        LCALL     ?XSTACK_DISP102_8
        MOV       R2,#ZDP_TransID & 0xff
        MOV       R3,#(ZDP_TransID >> 8) & 0xff
        LCALL     `??fillAndSend::?relay`; Banked call to: fillAndSend
        MOV       A,#0x2
        LCALL     ?DEALLOC_XSTACK8
          CFI EndBlock cfiBlock35
        REQUIRE ??Subroutine94_0
        ; // Fall through to label ??Subroutine94_0

        RSEG BANKED_CODE:HUGECODE:NOROOT(0)
??Subroutine94_0:
          CFI Block cfiBlock36 Using cfiCommon0
          CFI NoFunction
          CFI CFA_SP SP+0
          CFI CFA_XSP16 add(XSP16, 19)
          CFI VB load(1, XDATA, add(CFA_XSP16, literal(-9)))
          CFI DPL0 load(1, XDATA, add(CFA_XSP16, literal(-2)))
          CFI DPH0 load(1, XDATA, add(CFA_XSP16, literal(-1)))
          CFI R6 load(1, XDATA, add(CFA_XSP16, literal(-10)))
          CFI R7 load(1, XDATA, add(CFA_XSP16, literal(-6)))
          CFI V0 load(1, XDATA, add(CFA_XSP16, literal(-8)))
          CFI V1 load(1, XDATA, add(CFA_XSP16, literal(-7)))
          CFI ?BRET_EXT load(1, XDATA, add(CFA_XSP16, literal(-3)))
          CFI ?RET_HIGH load(1, XDATA, add(CFA_XSP16, literal(-4)))
          CFI ?RET_LOW load(1, XDATA, add(CFA_XSP16, literal(-5)))
        MOV       A,#0x9
          CFI EndBlock cfiBlock36
        REQUIRE ??Subroutine95_0
        ; // Fall through to label ??Subroutine95_0

        RSEG BANKED_CODE:HUGECODE:NOROOT(0)
??Subroutine95_0:
          CFI Block cfiBlock37 Using cfiCommon0
          CFI NoFunction
          CFI CFA_SP SP+0
          CFI CFA_XSP16 add(XSP16, 12)
          CFI VB load(1, XDATA, add(CFA_XSP16, literal(-9)))
          CFI DPL0 load(1, XDATA, add(CFA_XSP16, literal(-2)))
          CFI DPH0 load(1, XDATA, add(CFA_XSP16, literal(-1)))
          CFI R6 load(1, XDATA, add(CFA_XSP16, literal(-10)))
          CFI R7 load(1, XDATA, add(CFA_XSP16, literal(-6)))
          CFI V0 load(1, XDATA, add(CFA_XSP16, literal(-8)))
          CFI V1 load(1, XDATA, add(CFA_XSP16, literal(-7)))
          CFI ?BRET_EXT load(1, XDATA, add(CFA_XSP16, literal(-3)))
          CFI ?RET_HIGH load(1, XDATA, add(CFA_XSP16, literal(-4)))
          CFI ?RET_LOW load(1, XDATA, add(CFA_XSP16, literal(-5)))
          CFI Invalid
        LCALL     ?DEALLOC_XSTACK8
          CFI CFA_XSP16 add(XSP16, 10)
          CFI Valid
        MOV       R7,#0x2
        LJMP      ?BANKED_LEAVE_XDATA
          CFI EndBlock cfiBlock37
//  485 
//  486 /*********************************************************************
//  487  * @fn          ZDP_UserDescSet
//  488  *
//  489  * @brief       This builds and send a User_Desc_set message to set
//  490  *              the user descriptor.  This function sends unicast
//  491  *              message to the destination device.
//  492  *
//  493  * @param       dstAddr - destination address
//  494  * @param       nwkAddr - 16 bit address
//  495  * @param       UserDescriptor - user descriptor
//  496  * @param       SecurityEnable - Security Options
//  497  *
//  498  * @return      afStatus_t
//  499  */

        RSEG BANKED_CODE:HUGECODE:NOROOT(0)
//  500 afStatus_t ZDP_UserDescSet( zAddrType_t *dstAddr, uint16 nwkAddr,
ZDP_UserDescSet:
          CFI Block cfiBlock38 Using cfiCommon0
          CFI Function ZDP_UserDescSet
        CODE
//  501                           UserDescriptorFormat_t *UserDescriptor,
//  502                           byte SecurityEnable )
//  503 {
        FUNCALL ZDP_UserDescSet, osal_memcpy
        LOCFRAME ISTACK, 0, STACK
        LOCFRAME PSTACK, 0, STACK
        LOCFRAME XSTACK, 18, STACK
        LOCFRAME IOVERLAY, 0, STATIC
        LOCFRAME DOVERLAY, 0, STATIC
        ARGFRAME ISTACK, 0, STACK
        ARGFRAME PSTACK, 0, STACK
        ARGFRAME XSTACK, 18, STACK
        ARGFRAME IOVERLAY, 0, STATIC
        ARGFRAME DOVERLAY, 0, STATIC
        FUNCALL ZDP_UserDescSet, osal_memset
        LOCFRAME ISTACK, 0, STACK
        LOCFRAME PSTACK, 0, STACK
        LOCFRAME XSTACK, 15, STACK
        LOCFRAME IOVERLAY, 0, STATIC
        LOCFRAME DOVERLAY, 0, STATIC
        ARGFRAME ISTACK, 0, STACK
        ARGFRAME PSTACK, 0, STACK
        ARGFRAME XSTACK, 15, STACK
        ARGFRAME IOVERLAY, 0, STATIC
        ARGFRAME DOVERLAY, 0, STATIC
        FUNCALL ZDP_UserDescSet, fillAndSend
        LOCFRAME ISTACK, 0, STACK
        LOCFRAME PSTACK, 0, STACK
        LOCFRAME XSTACK, 17, STACK
        LOCFRAME IOVERLAY, 0, STATIC
        LOCFRAME DOVERLAY, 0, STATIC
        ARGFRAME ISTACK, 0, STACK
        ARGFRAME PSTACK, 0, STACK
        ARGFRAME XSTACK, 17, STACK
        ARGFRAME IOVERLAY, 0, STATIC
        ARGFRAME DOVERLAY, 0, STATIC
        REQUIRE ?V0
        REQUIRE ?V2
        REQUIRE ?V3
        REQUIRE ?V4
        REQUIRE ?V5
        REQUIRE ?V6
        MOV       A,#-0xf
        LCALL     ?BANKED_ENTER_XDATA
          CFI DPH0 load(1, XDATA, add(CFA_XSP16, literal(-1)))
          CFI DPL0 load(1, XDATA, add(CFA_XSP16, literal(-2)))
          CFI ?BRET_EXT load(1, XDATA, add(CFA_XSP16, literal(-3)))
          CFI ?RET_HIGH load(1, XDATA, add(CFA_XSP16, literal(-4)))
          CFI ?RET_LOW load(1, XDATA, add(CFA_XSP16, literal(-5)))
          CFI R7 load(1, XDATA, add(CFA_XSP16, literal(-6)))
          CFI V6 load(1, XDATA, add(CFA_XSP16, literal(-7)))
          CFI V5 load(1, XDATA, add(CFA_XSP16, literal(-8)))
          CFI V4 load(1, XDATA, add(CFA_XSP16, literal(-9)))
          CFI V3 load(1, XDATA, add(CFA_XSP16, literal(-10)))
          CFI V2 load(1, XDATA, add(CFA_XSP16, literal(-11)))
          CFI V1 load(1, XDATA, add(CFA_XSP16, literal(-12)))
          CFI V0 load(1, XDATA, add(CFA_XSP16, literal(-13)))
          CFI VB load(1, XDATA, add(CFA_XSP16, literal(-14)))
          CFI R6 load(1, XDATA, add(CFA_XSP16, literal(-15)))
          CFI CFA_SP SP+0
          CFI CFA_XSP16 add(XSP16, 15)
        ; Saved register size: 15
        ; Auto size: 0
        LCALL     ?Subroutine56 & 0xFFFF
//  504   uint8 *pBuf = ZDP_TmpBuf;
??CrossCallReturnLabel_227:
        MOV       ?V2,R0
        MOV       ?V3,R1
        MOV       A,#0xf
        LCALL     ?XSTACK_DISP0_8
        LCALL     ?Subroutine40 & 0xFFFF
//  505   byte len = (UserDescriptor->len < AF_MAX_USER_DESCRIPTOR_LEN) ?
//  506               UserDescriptor->len : AF_MAX_USER_DESCRIPTOR_LEN;
??CrossCallReturnLabel_52:
        MOV       R2,A
        CLR       C
        SUBB      A,#0x10
        JNC       ??ZDP_UserDescSet_0
        MOV       ?V0,R2
        SJMP      ??ZDP_UserDescSet_1
??ZDP_UserDescSet_0:
        MOV       ?V0,#0x10
//  507   byte addrLen = 2;
//  508 
//  509   (void)SecurityEnable;  // Intentionally unreferenced parameter
//  510 
//  511   *pBuf++ = LO_UINT16( nwkAddr );
??ZDP_UserDescSet_1:
        MOV       A,R4
        MOV       DPL,?V2
        MOV       DPH,?V3
        MOVX      @DPTR,A
//  512   *pBuf++ = HI_UINT16( nwkAddr );
        MOV       A,R5
        INC       DPTR
        LCALL     ?Subroutine30 & 0xFFFF
//  513 
//  514   *pBuf++ = len;
??CrossCallReturnLabel_40:
        MOV       A,?V0
        LCALL     ?Subroutine10 & 0xFFFF
//  515   addrLen = 3;
//  516 
//  517   pBuf = osal_memcpy( pBuf, UserDescriptor->desc, len );
??CrossCallReturnLabel_0:
        LCALL     ?PUSH_XSTACK_I_THREE
          CFI CFA_XSP16 add(XSP16, 18)
        MOV       R4,?V0
        MOV       R5,#0x0
        MOV       A,?V2
        ADD       A,#0x3
        MOV       R2,A
        CLR       A
        ADDC      A,?V3
        MOV       R3,A
        LCALL     `??osal_memcpy::?relay`; Banked call to: osal_memcpy
        MOV       A,#0x3
        LCALL     ?DEALLOC_XSTACK8
          CFI CFA_XSP16 add(XSP16, 15)
//  518   osal_memset( pBuf, AF_USER_DESCRIPTOR_FILL, AF_MAX_USER_DESCRIPTOR_LEN-len );
        ; Setup parameters for call to function osal_memset
        MOV       R0,?V0
        MOV       A,#0x10
        CLR       C
        SUBB      A,R0
        MOV       R4,A
        SUBB      A,0xE0 /* A   */
        MOV       R5,A
        MOV       R1,#0x20
        LCALL     `??osal_memset::?relay`; Banked call to: osal_memset
//  519 
//  520   return fillAndSend( &ZDP_TransID, dstAddr, User_Desc_set, (AF_MAX_USER_DESCRIPTOR_LEN + addrLen) );
        ; Setup parameters for call to function fillAndSend
        MOV       ?V2,#0x14
        MOV       ?V3,#0x0
        MOV       R0,#?V2
        LCALL     ?PUSH_XSTACK_I_TWO
          CFI CFA_XSP16 add(XSP16, 17)
        MOV       R1,#0x13
        MOV       A,R6
        MOV       R4,A
        MOV       A,R7
        MOV       R5,A
        MOV       R2,#ZDP_TransID & 0xff
        MOV       R3,#(ZDP_TransID >> 8) & 0xff
        LCALL     `??fillAndSend::?relay`; Banked call to: fillAndSend
        MOV       A,#0x2
          CFI EndBlock cfiBlock38
        REQUIRE ?Subroutine3
        ; // Fall through to label ?Subroutine3
//  521 }

        RSEG BANKED_CODE:HUGECODE:NOROOT(0)
?Subroutine3:
          CFI Block cfiBlock39 Using cfiCommon0
          CFI NoFunction
          CFI CFA_SP SP+0
          CFI CFA_XSP16 add(XSP16, 17)
          CFI VB load(1, XDATA, add(CFA_XSP16, literal(-14)))
          CFI DPL0 load(1, XDATA, add(CFA_XSP16, literal(-2)))
          CFI DPH0 load(1, XDATA, add(CFA_XSP16, literal(-1)))
          CFI R6 load(1, XDATA, add(CFA_XSP16, literal(-15)))
          CFI R7 load(1, XDATA, add(CFA_XSP16, literal(-6)))
          CFI V0 load(1, XDATA, add(CFA_XSP16, literal(-13)))
          CFI V1 load(1, XDATA, add(CFA_XSP16, literal(-12)))
          CFI V2 load(1, XDATA, add(CFA_XSP16, literal(-11)))
          CFI V3 load(1, XDATA, add(CFA_XSP16, literal(-10)))
          CFI V4 load(1, XDATA, add(CFA_XSP16, literal(-9)))
          CFI V5 load(1, XDATA, add(CFA_XSP16, literal(-8)))
          CFI V6 load(1, XDATA, add(CFA_XSP16, literal(-7)))
          CFI ?BRET_EXT load(1, XDATA, add(CFA_XSP16, literal(-3)))
          CFI ?RET_HIGH load(1, XDATA, add(CFA_XSP16, literal(-4)))
          CFI ?RET_LOW load(1, XDATA, add(CFA_XSP16, literal(-5)))
          CFI Invalid
        LCALL     ?DEALLOC_XSTACK8
          CFI EndBlock cfiBlock39
        REQUIRE ??Subroutine96_0
        ; // Fall through to label ??Subroutine96_0

        RSEG BANKED_CODE:HUGECODE:NOROOT(0)
??Subroutine96_0:
          CFI Block cfiBlock40 Using cfiCommon0
          CFI NoFunction
          CFI CFA_SP SP+0
          CFI CFA_XSP16 add(XSP16, 15)
          CFI VB load(1, XDATA, add(CFA_XSP16, literal(-14)))
          CFI DPL0 load(1, XDATA, add(CFA_XSP16, literal(-2)))
          CFI DPH0 load(1, XDATA, add(CFA_XSP16, literal(-1)))
          CFI R6 load(1, XDATA, add(CFA_XSP16, literal(-15)))
          CFI R7 load(1, XDATA, add(CFA_XSP16, literal(-6)))
          CFI V0 load(1, XDATA, add(CFA_XSP16, literal(-13)))
          CFI V1 load(1, XDATA, add(CFA_XSP16, literal(-12)))
          CFI V2 load(1, XDATA, add(CFA_XSP16, literal(-11)))
          CFI V3 load(1, XDATA, add(CFA_XSP16, literal(-10)))
          CFI V4 load(1, XDATA, add(CFA_XSP16, literal(-9)))
          CFI V5 load(1, XDATA, add(CFA_XSP16, literal(-8)))
          CFI V6 load(1, XDATA, add(CFA_XSP16, literal(-7)))
          CFI ?BRET_EXT load(1, XDATA, add(CFA_XSP16, literal(-3)))
          CFI ?RET_HIGH load(1, XDATA, add(CFA_XSP16, literal(-4)))
          CFI ?RET_LOW load(1, XDATA, add(CFA_XSP16, literal(-5)))
        MOV       R7,#0x7
        LJMP      ?BANKED_LEAVE_XDATA
          CFI EndBlock cfiBlock40
//  522 
//  523 /*********************************************************************
//  524  * @fn          ZDP_ServerDiscReq
//  525  *
//  526  * @brief       Build and send a Server_Discovery_req request message.
//  527  *
//  528  * @param       serverMask - 16-bit bit-mask of server services being sought.
//  529  * @param       SecurityEnable - Security Options
//  530  *
//  531  * @return      afStatus_t
//  532  */

        RSEG BANKED_CODE:HUGECODE:NOROOT(0)
//  533 afStatus_t ZDP_ServerDiscReq( uint16 serverMask, byte SecurityEnable )
ZDP_ServerDiscReq:
          CFI Block cfiBlock41 Using cfiCommon0
          CFI Function ZDP_ServerDiscReq
        CODE
//  534 {
        FUNCALL ZDP_ServerDiscReq, fillAndSend
        LOCFRAME ISTACK, 0, STACK
        LOCFRAME PSTACK, 0, STACK
        LOCFRAME XSTACK, 21, STACK
        LOCFRAME IOVERLAY, 0, STATIC
        LOCFRAME DOVERLAY, 0, STATIC
        ARGFRAME ISTACK, 0, STACK
        ARGFRAME PSTACK, 0, STACK
        ARGFRAME XSTACK, 21, STACK
        ARGFRAME IOVERLAY, 0, STATIC
        ARGFRAME DOVERLAY, 0, STATIC
        REQUIRE ?V0
        REQUIRE ?V1
        MOV       A,#-0xa
        LCALL     ?BANKED_ENTER_XDATA
          CFI DPH0 load(1, XDATA, add(CFA_XSP16, literal(-1)))
          CFI DPL0 load(1, XDATA, add(CFA_XSP16, literal(-2)))
          CFI ?BRET_EXT load(1, XDATA, add(CFA_XSP16, literal(-3)))
          CFI ?RET_HIGH load(1, XDATA, add(CFA_XSP16, literal(-4)))
          CFI ?RET_LOW load(1, XDATA, add(CFA_XSP16, literal(-5)))
          CFI R7 load(1, XDATA, add(CFA_XSP16, literal(-6)))
          CFI V1 load(1, XDATA, add(CFA_XSP16, literal(-7)))
          CFI V0 load(1, XDATA, add(CFA_XSP16, literal(-8)))
          CFI VB load(1, XDATA, add(CFA_XSP16, literal(-9)))
          CFI R6 load(1, XDATA, add(CFA_XSP16, literal(-10)))
          CFI CFA_SP SP+0
          CFI CFA_XSP16 add(XSP16, 10)
        ; Saved register size: 10
        ; Auto size: 9
        MOV       A,#-0x9
        LCALL     ?ALLOC_XSTACK8
          CFI CFA_XSP16 add(XSP16, 19)
        MOV       A,R1
        MOV       R6,A
//  535   uint8 *pBuf = ZDP_TmpBuf;
        LCALL     ??Subroutine117_0 & 0xFFFF
//  536   zAddrType_t dstAddr;
//  537 
//  538   dstAddr.addrMode = AddrBroadcast;
??CrossCallReturnLabel_241:
        MOV       A,#0x8
        LCALL     ?XSTACK_DISP0_8
        LCALL     ?Subroutine18 & 0xFFFF
//  539   dstAddr.addr.shortAddr = NWK_BROADCAST_SHORTADDR_DEVRXON;
//  540 
//  541   *pBuf++ = LO_UINT16( serverMask );
??CrossCallReturnLabel_18:
        MOV       A,R2
        MOV       DPL,R0
        MOV       DPH,R1
        MOVX      @DPTR,A
//  542   *pBuf = HI_UINT16( serverMask );
        MOV       A,R3
        INC       DPTR
        MOVX      @DPTR,A
//  543 
//  544   FillAndSendTxOptions( &ZDP_TransID, &dstAddr, Server_Discovery_req, 2,
//  545              ((SecurityEnable) ? AF_EN_SECURITY : AF_TX_OPTIONS_NONE) );
        MOV       A,R6
        MOV       DPTR,#ZDP_TxOptions
        JZ        ??ZDP_ServerDiscReq_0
        MOV       A,#0x40
        SJMP      ??ZDP_ServerDiscReq_1
??ZDP_ServerDiscReq_0:
        CLR       A
??ZDP_ServerDiscReq_1:
        MOVX      @DPTR,A
        ; Setup parameters for call to function fillAndSend
        MOV       ?V0,#0x15
        MOV       ?V1,#0x0
        MOV       R0,#?V0
        LCALL     ?PUSH_XSTACK_I_TWO
          CFI CFA_XSP16 add(XSP16, 21)
        MOV       R1,#0x2
        MOV       A,R1
        LCALL     ?XSTACK_DISP102_8
        MOV       R2,#ZDP_TransID & 0xff
        MOV       R3,#(ZDP_TransID >> 8) & 0xff
        LCALL     `??fillAndSend::?relay`; Banked call to: fillAndSend
        MOV       A,#0x2
        LCALL     ?DEALLOC_XSTACK8
          CFI CFA_XSP16 add(XSP16, 19)
        MOV       A,R1
        MOV       R1,A
        MOV       DPTR,#ZDP_TxOptions
        CLR       A
        MOVX      @DPTR,A
        LJMP      ??Subroutine94_0 & 0xFFFF
//  546 }
          CFI EndBlock cfiBlock41
//  547 
//  548 /*********************************************************************
//  549  * @fn          ZDP_DeviceAnnce
//  550  *
//  551  * @brief       This builds and send a Device_Annce message.  This
//  552  *              function sends a broadcast message.
//  553  *
//  554  * @param       nwkAddr - 16 bit address of the device
//  555  * @param       IEEEAddr - 64 bit address of the device
//  556  * @param       capabilities - device capabilities.  This field is only
//  557  *                 sent for v1.1 networks.
//  558  * @param       SecurityEnable - Security Options
//  559  *
//  560  * @return      afStatus_t
//  561  */

        RSEG BANKED_CODE:HUGECODE:NOROOT(0)
//  562 afStatus_t ZDP_DeviceAnnce( uint16 nwkAddr, uint8 *IEEEAddr,
ZDP_DeviceAnnce:
          CFI Block cfiBlock42 Using cfiCommon0
          CFI Function ZDP_DeviceAnnce
        CODE
//  563                               byte capabilities, byte SecurityEnable )
//  564 {
        FUNCALL ZDP_DeviceAnnce, sAddrExtCpy
        LOCFRAME ISTACK, 0, STACK
        LOCFRAME PSTACK, 0, STACK
        LOCFRAME XSTACK, 19, STACK
        LOCFRAME IOVERLAY, 0, STATIC
        LOCFRAME DOVERLAY, 0, STATIC
        ARGFRAME ISTACK, 0, STACK
        ARGFRAME PSTACK, 0, STACK
        ARGFRAME XSTACK, 19, STACK
        ARGFRAME IOVERLAY, 0, STATIC
        ARGFRAME DOVERLAY, 0, STATIC
        FUNCALL ZDP_DeviceAnnce, fillAndSend
        LOCFRAME ISTACK, 0, STACK
        LOCFRAME PSTACK, 0, STACK
        LOCFRAME XSTACK, 21, STACK
        LOCFRAME IOVERLAY, 0, STATIC
        LOCFRAME DOVERLAY, 0, STATIC
        ARGFRAME ISTACK, 0, STACK
        ARGFRAME PSTACK, 0, STACK
        ARGFRAME XSTACK, 21, STACK
        ARGFRAME IOVERLAY, 0, STATIC
        ARGFRAME DOVERLAY, 0, STATIC
        REQUIRE ?V0
        REQUIRE ?V1
        MOV       A,#-0xa
        LCALL     ?BANKED_ENTER_XDATA
          CFI DPH0 load(1, XDATA, add(CFA_XSP16, literal(-1)))
          CFI DPL0 load(1, XDATA, add(CFA_XSP16, literal(-2)))
          CFI ?BRET_EXT load(1, XDATA, add(CFA_XSP16, literal(-3)))
          CFI ?RET_HIGH load(1, XDATA, add(CFA_XSP16, literal(-4)))
          CFI ?RET_LOW load(1, XDATA, add(CFA_XSP16, literal(-5)))
          CFI R7 load(1, XDATA, add(CFA_XSP16, literal(-6)))
          CFI V1 load(1, XDATA, add(CFA_XSP16, literal(-7)))
          CFI V0 load(1, XDATA, add(CFA_XSP16, literal(-8)))
          CFI VB load(1, XDATA, add(CFA_XSP16, literal(-9)))
          CFI R6 load(1, XDATA, add(CFA_XSP16, literal(-10)))
          CFI CFA_SP SP+0
          CFI CFA_XSP16 add(XSP16, 10)
        ; Saved register size: 10
        ; Auto size: 9
        MOV       A,#-0x9
        LCALL     ?ALLOC_XSTACK8
          CFI CFA_XSP16 add(XSP16, 19)
        MOV       A,R1
        MOV       R6,A
//  565   zAddrType_t dstAddr;
//  566   uint8 len;
//  567 
//  568   (void)SecurityEnable;  // Intentionally unreferenced parameter
//  569 
//  570   dstAddr.addrMode = (afAddrMode_t)AddrBroadcast;
        MOV       A,#0x8
        LCALL     ?XSTACK_DISP0_8
        LCALL     ?Subroutine18 & 0xFFFF
//  571   dstAddr.addr.shortAddr = NWK_BROADCAST_SHORTADDR_DEVRXON;
//  572 
//  573   ZDP_TmpBuf[0] = LO_UINT16( nwkAddr );
??CrossCallReturnLabel_19:
        LCALL     ?Subroutine45 & 0xFFFF
??CrossCallReturnLabel_163:
        MOV       A,R2
        LCALL     ?Subroutine21 & 0xFFFF
//  574   ZDP_TmpBuf[1] = HI_UINT16( nwkAddr );
??CrossCallReturnLabel_24:
        MOV       A,R3
        MOVX      @DPTR,A
//  575   osal_cpyExtAddr( &ZDP_TmpBuf[2], IEEEAddr );
        ; Setup parameters for call to function sAddrExtCpy
        MOV       DPTR,#ZDP_TmpBuf
        MOVX      A,@DPTR
        ADD       A,#0x2
        MOV       R2,A
        INC       DPTR
        MOVX      A,@DPTR
        ADDC      A,#0x0
        MOV       R3,A
        LCALL     `??sAddrExtCpy::?relay`; Banked call to: sAddrExtCpy
//  576   len = 2 + Z_EXTADDR_LEN;
//  577 
//  578   ZDP_TmpBuf[10] = capabilities;
        LCALL     ?Subroutine76 & 0xFFFF
??CrossCallReturnLabel_246:
        XCH       A,R0
        ADD       A,#0xa
        MOV       DPL,A
        CLR       A
        ADDC      A,R0
        MOV       DPH,A
        MOV       A,R6
        MOVX      @DPTR,A
//  579   len++;
//  580 
//  581   return fillAndSend( &ZDP_TransID, &dstAddr, Device_annce, len );
        ; Setup parameters for call to function fillAndSend
        MOV       ?V0,#0x13
        MOV       ?V1,#0x0
        MOV       R0,#?V0
        LCALL     ?PUSH_XSTACK_I_TWO
          CFI CFA_XSP16 add(XSP16, 21)
        MOV       R1,#0xb
        LJMP      ?Subroutine2 & 0xFFFF
//  582 }
          CFI EndBlock cfiBlock42

        RSEG BANKED_CODE:HUGECODE:NOROOT(0)
?Subroutine18:
          CFI Block cfiCond43 Using cfiCommon0
          CFI Function ZDP_ServerDiscReq
          CFI Conditional ??CrossCallReturnLabel_18
          CFI R6 load(1, XDATA, add(CFA_XSP16, literal(-10)))
          CFI VB load(1, XDATA, add(CFA_XSP16, literal(-9)))
          CFI V0 load(1, XDATA, add(CFA_XSP16, literal(-8)))
          CFI V1 load(1, XDATA, add(CFA_XSP16, literal(-7)))
          CFI R7 load(1, XDATA, add(CFA_XSP16, literal(-6)))
          CFI ?RET_LOW load(1, XDATA, add(CFA_XSP16, literal(-5)))
          CFI ?RET_HIGH load(1, XDATA, add(CFA_XSP16, literal(-4)))
          CFI ?BRET_EXT load(1, XDATA, add(CFA_XSP16, literal(-3)))
          CFI DPL0 load(1, XDATA, add(CFA_XSP16, literal(-2)))
          CFI DPH0 load(1, XDATA, add(CFA_XSP16, literal(-1)))
          CFI CFA_SP SP+-2
          CFI CFA_XSP16 add(XSP16, 19)
          CFI Block cfiCond44 Using cfiCommon0
          CFI (cfiCond44) Function ZDP_DeviceAnnce
          CFI (cfiCond44) Conditional ??CrossCallReturnLabel_19
          CFI (cfiCond44) R6 load(1, XDATA, add(CFA_XSP16, literal(-10)))
          CFI (cfiCond44) VB load(1, XDATA, add(CFA_XSP16, literal(-9)))
          CFI (cfiCond44) V0 load(1, XDATA, add(CFA_XSP16, literal(-8)))
          CFI (cfiCond44) V1 load(1, XDATA, add(CFA_XSP16, literal(-7)))
          CFI (cfiCond44) R7 load(1, XDATA, add(CFA_XSP16, literal(-6)))
          CFI (cfiCond44) ?RET_LOW load(1, XDATA, add(CFA_XSP16, literal(-5)))
          CFI (cfiCond44) ?RET_HIGH load(1, XDATA, add(CFA_XSP16, literal(-4)))
          CFI (cfiCond44) ?BRET_EXT load(1, XDATA, add(CFA_XSP16, literal(-3)))
          CFI (cfiCond44) DPL0 load(1, XDATA, add(CFA_XSP16, literal(-2)))
          CFI (cfiCond44) DPH0 load(1, XDATA, add(CFA_XSP16, literal(-1)))
          CFI (cfiCond44) CFA_SP SP+-2
          CFI (cfiCond44) CFA_XSP16 add(XSP16, 19)
          CFI Block cfiPicker45 Using cfiCommon1
          CFI (cfiPicker45) NoFunction
          CFI (cfiPicker45) Picker
        LCALL     ?Subroutine80 & 0xFFFF
??CrossCallReturnLabel_124:
        MOVX      @DPTR,A
        RET
          CFI EndBlock cfiCond43
          CFI EndBlock cfiCond44
          CFI EndBlock cfiPicker45

        RSEG BANKED_CODE:HUGECODE:NOROOT(0)
?Subroutine80:
          CFI Block cfiCond46 Using cfiCommon0
          CFI Function ZDP_NwkAddrReq
          CFI Conditional ??CrossCallReturnLabel_123
          CFI R6 load(1, XDATA, add(CFA_XSP16, literal(-12)))
          CFI VB load(1, XDATA, add(CFA_XSP16, literal(-11)))
          CFI V0 load(1, XDATA, add(CFA_XSP16, literal(-10)))
          CFI V1 load(1, XDATA, add(CFA_XSP16, literal(-9)))
          CFI V2 load(1, XDATA, add(CFA_XSP16, literal(-8)))
          CFI V3 load(1, XDATA, add(CFA_XSP16, literal(-7)))
          CFI R7 load(1, XDATA, add(CFA_XSP16, literal(-6)))
          CFI ?RET_LOW load(1, XDATA, add(CFA_XSP16, literal(-5)))
          CFI ?RET_HIGH load(1, XDATA, add(CFA_XSP16, literal(-4)))
          CFI ?BRET_EXT load(1, XDATA, add(CFA_XSP16, literal(-3)))
          CFI DPL0 load(1, XDATA, add(CFA_XSP16, literal(-2)))
          CFI DPH0 load(1, XDATA, add(CFA_XSP16, literal(-1)))
          CFI CFA_SP SP+-2
          CFI CFA_XSP16 add(XSP16, 21)
          CFI Block cfiCond47 Using cfiCommon0
          CFI (cfiCond47) Function ZDP_ServerDiscReq
          CFI (cfiCond47) Conditional ??CrossCallReturnLabel_124, ??CrossCallReturnLabel_18
          CFI (cfiCond47) R6 load(1, XDATA, add(CFA_XSP16, literal(-10)))
          CFI (cfiCond47) VB load(1, XDATA, add(CFA_XSP16, literal(-9)))
          CFI (cfiCond47) V0 load(1, XDATA, add(CFA_XSP16, literal(-8)))
          CFI (cfiCond47) V1 load(1, XDATA, add(CFA_XSP16, literal(-7)))
          CFI (cfiCond47) R7 load(1, XDATA, add(CFA_XSP16, literal(-6)))
          CFI (cfiCond47) ?RET_LOW load(1, XDATA, add(CFA_XSP16, literal(-5)))
          CFI (cfiCond47) ?RET_HIGH load(1, XDATA, add(CFA_XSP16, literal(-4)))
          CFI (cfiCond47) ?BRET_EXT load(1, XDATA, add(CFA_XSP16, literal(-3)))
          CFI (cfiCond47) DPL0 load(1, XDATA, add(CFA_XSP16, literal(-2)))
          CFI (cfiCond47) DPH0 load(1, XDATA, add(CFA_XSP16, literal(-1)))
          CFI (cfiCond47) CFA_SP SP+-4
          CFI (cfiCond47) CFA_XSP16 add(XSP16, 19)
          CFI Block cfiCond48 Using cfiCommon0
          CFI (cfiCond48) Function ZDP_DeviceAnnce
          CFI (cfiCond48) Conditional ??CrossCallReturnLabel_124, ??CrossCallReturnLabel_19
          CFI (cfiCond48) R6 load(1, XDATA, add(CFA_XSP16, literal(-10)))
          CFI (cfiCond48) VB load(1, XDATA, add(CFA_XSP16, literal(-9)))
          CFI (cfiCond48) V0 load(1, XDATA, add(CFA_XSP16, literal(-8)))
          CFI (cfiCond48) V1 load(1, XDATA, add(CFA_XSP16, literal(-7)))
          CFI (cfiCond48) R7 load(1, XDATA, add(CFA_XSP16, literal(-6)))
          CFI (cfiCond48) ?RET_LOW load(1, XDATA, add(CFA_XSP16, literal(-5)))
          CFI (cfiCond48) ?RET_HIGH load(1, XDATA, add(CFA_XSP16, literal(-4)))
          CFI (cfiCond48) ?BRET_EXT load(1, XDATA, add(CFA_XSP16, literal(-3)))
          CFI (cfiCond48) DPL0 load(1, XDATA, add(CFA_XSP16, literal(-2)))
          CFI (cfiCond48) DPH0 load(1, XDATA, add(CFA_XSP16, literal(-1)))
          CFI (cfiCond48) CFA_SP SP+-4
          CFI (cfiCond48) CFA_XSP16 add(XSP16, 19)
          CFI Block cfiPicker49 Using cfiCommon1
          CFI (cfiPicker49) NoFunction
          CFI (cfiPicker49) Picker
        MOV       A,#0xf
        MOVX      @DPTR,A
        MOV       DPL,?XSP + 0
        MOV       DPH,?XSP + 1
        MOV       A,#-0x3
        MOVX      @DPTR,A
        INC       DPTR
        MOV       A,#-0x1
        RET
          CFI EndBlock cfiCond46
          CFI EndBlock cfiCond47
          CFI EndBlock cfiCond48
          CFI EndBlock cfiPicker49
//  583 
//  584 /*********************************************************************
//  585  * @fn          ZDP_ParentAnnce
//  586  *
//  587  * @brief       This builds and send a Parent_Annce and Parent_Annce_Rsp
//  588  *              messages, it will depend on the clusterID parameter.
//  589  *
//  590  * @param       TransSeq - ZDP Transaction Sequence Number
//  591  * @param       dstAddr - destination address
//  592  * @param       numberOfChildren - 8 bit number of children
//  593  * @param       childInfo - list of children information (ExtAddr and Age)
//  594  * @param       clusterID - Parent_annce or Parent_annce_rsp
//  595  * @param       SecurityEnable - Security Options
//  596  *
//  597  * @return      afStatus_t
//  598  */

        RSEG BANKED_CODE:HUGECODE:NOROOT(0)
//  599 afStatus_t ZDP_ParentAnnce( uint8 *TransSeq,
ZDP_ParentAnnce:
          CFI Block cfiBlock50 Using cfiCommon0
          CFI Function ZDP_ParentAnnce
        CODE
//  600                             zAddrType_t *dstAddr,
//  601                             uint8 numberOfChildren,
//  602                             uint8 *childInfo,
//  603                             cId_t clusterID,
//  604                             uint8 SecurityEnable )
//  605 {
        FUNCALL ZDP_ParentAnnce, sAddrExtCpy
        LOCFRAME ISTACK, 0, STACK
        LOCFRAME PSTACK, 0, STACK
        LOCFRAME XSTACK, 20, STACK
        LOCFRAME IOVERLAY, 0, STATIC
        LOCFRAME DOVERLAY, 0, STATIC
        ARGFRAME ISTACK, 0, STACK
        ARGFRAME PSTACK, 0, STACK
        ARGFRAME XSTACK, 20, STACK
        ARGFRAME IOVERLAY, 0, STATIC
        ARGFRAME DOVERLAY, 0, STATIC
        FUNCALL ZDP_ParentAnnce, osal_buffer_uint32
        LOCFRAME ISTACK, 0, STACK
        LOCFRAME PSTACK, 0, STACK
        LOCFRAME XSTACK, 24, STACK
        LOCFRAME IOVERLAY, 0, STATIC
        LOCFRAME DOVERLAY, 0, STATIC
        ARGFRAME ISTACK, 0, STACK
        ARGFRAME PSTACK, 0, STACK
        ARGFRAME XSTACK, 24, STACK
        ARGFRAME IOVERLAY, 0, STATIC
        ARGFRAME DOVERLAY, 0, STATIC
        FUNCALL ZDP_ParentAnnce, fillAndSend
        LOCFRAME ISTACK, 0, STACK
        LOCFRAME PSTACK, 0, STACK
        LOCFRAME XSTACK, 22, STACK
        LOCFRAME IOVERLAY, 0, STATIC
        LOCFRAME DOVERLAY, 0, STATIC
        ARGFRAME ISTACK, 0, STACK
        ARGFRAME PSTACK, 0, STACK
        ARGFRAME XSTACK, 22, STACK
        ARGFRAME IOVERLAY, 0, STATIC
        ARGFRAME DOVERLAY, 0, STATIC
        REQUIRE ?V0
        REQUIRE ?V1
        REQUIRE ?V2
        REQUIRE ?V3
        REQUIRE ?V4
        REQUIRE ?V5
        REQUIRE ?V6
        REQUIRE ?V7
        REQUIRE ?V8
        REQUIRE ?V10
        REQUIRE ?V11
        MOV       A,#-0x14
        LCALL     ?BANKED_ENTER_XDATA
          CFI DPH0 load(1, XDATA, add(CFA_XSP16, literal(-1)))
          CFI DPL0 load(1, XDATA, add(CFA_XSP16, literal(-2)))
          CFI ?BRET_EXT load(1, XDATA, add(CFA_XSP16, literal(-3)))
          CFI ?RET_HIGH load(1, XDATA, add(CFA_XSP16, literal(-4)))
          CFI ?RET_LOW load(1, XDATA, add(CFA_XSP16, literal(-5)))
          CFI R7 load(1, XDATA, add(CFA_XSP16, literal(-6)))
          CFI V11 load(1, XDATA, add(CFA_XSP16, literal(-7)))
          CFI V10 load(1, XDATA, add(CFA_XSP16, literal(-8)))
          CFI V9 load(1, XDATA, add(CFA_XSP16, literal(-9)))
          CFI V8 load(1, XDATA, add(CFA_XSP16, literal(-10)))
          CFI V7 load(1, XDATA, add(CFA_XSP16, literal(-11)))
          CFI V6 load(1, XDATA, add(CFA_XSP16, literal(-12)))
          CFI V5 load(1, XDATA, add(CFA_XSP16, literal(-13)))
          CFI V4 load(1, XDATA, add(CFA_XSP16, literal(-14)))
          CFI V3 load(1, XDATA, add(CFA_XSP16, literal(-15)))
          CFI V2 load(1, XDATA, add(CFA_XSP16, literal(-16)))
          CFI V1 load(1, XDATA, add(CFA_XSP16, literal(-17)))
          CFI V0 load(1, XDATA, add(CFA_XSP16, literal(-18)))
          CFI VB load(1, XDATA, add(CFA_XSP16, literal(-19)))
          CFI R6 load(1, XDATA, add(CFA_XSP16, literal(-20)))
          CFI CFA_SP SP+0
          CFI CFA_XSP16 add(XSP16, 20)
        ; Saved register size: 20
        ; Auto size: 0
        MOV       ?V2,R2
        MOV       ?V3,R3
        MOV       A,R4
        MOV       R6,A
        MOV       A,R5
        MOV       R7,A
        MOV       ?V8,R1
//  606   uint8 *pBuf = ZDP_TmpBuf;
        LCALL     ??Subroutine107_0 & 0xFFFF
//  607   ZDO_ChildInfo_t *pChildInfo;
//  608   uint8 i, len;
//  609 
//  610   (void)SecurityEnable;  // Intentionally unreferenced parameter
//  611 
//  612   // NumberOfChildren + ( numberOfChildren * ChildInfo).
//  613   len = 1 + ( numberOfChildren * sizeof(ZDO_ChildInfo_t) );
??CrossCallReturnLabel_188:
        MOV       B,#0xc
        MOV       A,R1
        MUL       AB
        INC       A
        MOV       ?V6,A
//  614 
//  615   if ( len >= ZDP_BUF_SZ-1 )
        SUBB      A,#0x4f
        JC        ??ZDP_ParentAnnce_0
//  616   {
//  617     return afStatus_MEM_FAIL;
        MOV       R1,#0x10
        LJMP      ??ZDP_ParentAnnce_1 & 0xFFFF
//  618   }
//  619 
//  620   pChildInfo = (ZDO_ChildInfo_t *)childInfo;
//  621 
//  622   if ( dstAddr->addrMode == AddrBroadcast )
??ZDP_ParentAnnce_0:
        MOV       DPL,R6
        MOV       DPH,R7
        INC       DPTR
        INC       DPTR
        INC       DPTR
        INC       DPTR
        INC       DPTR
        INC       DPTR
        INC       DPTR
        INC       DPTR
        MOVX      A,@DPTR
        XRL       A,#0xf
        JNZ       ??ZDP_ParentAnnce_2
//  623   {
//  624     // Make sure is sent to 0xFFFC
//  625     dstAddr->addr.shortAddr = NWK_BROADCAST_SHORTADDR_DEVZCZR;
        MOV       DPL,R6
        MOV       DPH,R7
        MOV       A,#-0x4
        MOVX      @DPTR,A
        INC       DPTR
        MOV       A,#-0x1
        MOVX      @DPTR,A
//  626   }
//  627 
//  628   *pBuf++ = numberOfChildren;
??ZDP_ParentAnnce_2:
        MOV       DPL,R2
        MOV       DPH,R3
        MOV       A,R1
        LCALL     ??Subroutine97_0 & 0xFFFF
//  629 
//  630   for ( i = 0; i < numberOfChildren; i++ )
??CrossCallReturnLabel_142:
        MOV       ?V7,#0x0
        MOV       A,#0x14
        LCALL     ?XSTACK_DISP0_8
        LCALL     ??Subroutine89_0 & 0xFFFF
??CrossCallReturnLabel_137:
        SJMP      ??ZDP_ParentAnnce_3
//  631   {
//  632     pBuf = osal_cpyExtAddr( pBuf, pChildInfo[i].extAddr );
??ZDP_ParentAnnce_4:
        MOV       A,?V7
        MOV       B,#0xc
        MUL       AB
        MOV       R0,A
        MOV       R1,B
        MOV       A,?V0
        ADD       A,R0
        MOV       ?V4,A
        MOV       A,?V1
        ADDC      A,R1
        MOV       ?V5,A
        ; Setup parameters for call to function sAddrExtCpy
        MOV       R4,?V4
        MOV       R5,A
        LCALL     `??sAddrExtCpy::?relay`; Banked call to: sAddrExtCpy
//  633 
//  634     pBuf = osal_buffer_uint32( pBuf, pChildInfo[i].age );
        ; Setup parameters for call to function osal_buffer_uint32
        MOV       DPL,?V4
        MOV       DPH,?V5
        INC       DPTR
        INC       DPTR
        INC       DPTR
        INC       DPTR
        INC       DPTR
        INC       DPTR
        INC       DPTR
        INC       DPTR
        LCALL     ?PUSH_XSTACK8_X_FOUR
          CFI CFA_XSP16 add(XSP16, 24)
        LCALL     `??osal_buffer_uint32::?relay`; Banked call to: osal_buffer_uint32
        MOV       A,#0x4
        LCALL     ?DEALLOC_XSTACK8
          CFI CFA_XSP16 add(XSP16, 20)
//  635   }
        INC       ?V7
??ZDP_ParentAnnce_3:
        MOV       A,?V7
        CLR       C
        SUBB      A,?V8
        JC        ??ZDP_ParentAnnce_4
//  636 
//  637   return fillAndSend( TransSeq, dstAddr, clusterID, len );
        ; Setup parameters for call to function fillAndSend
        MOV       A,#0x16
        LCALL     ?XSTACK_DISP0_8
        LCALL     ?PUSH_XSTACK8_X_TWO
          CFI CFA_XSP16 add(XSP16, 22)
        MOV       R1,?V6
        MOV       A,R6
        MOV       R4,A
        MOV       A,R7
        MOV       R5,A
        MOV       R2,?V2
        MOV       R3,?V3
        LCALL     `??fillAndSend::?relay`; Banked call to: fillAndSend
        MOV       A,#0x2
        LCALL     ?DEALLOC_XSTACK8
          CFI CFA_XSP16 add(XSP16, 20)
??ZDP_ParentAnnce_1:
          CFI EndBlock cfiBlock50
        REQUIRE ?Subroutine4
        ; // Fall through to label ?Subroutine4
//  638 }

        RSEG BANKED_CODE:HUGECODE:NOROOT(0)
?Subroutine4:
          CFI Block cfiBlock51 Using cfiCommon0
          CFI NoFunction
          CFI CFA_SP SP+0
          CFI CFA_XSP16 add(XSP16, 20)
          CFI VB load(1, XDATA, add(CFA_XSP16, literal(-19)))
          CFI DPL0 load(1, XDATA, add(CFA_XSP16, literal(-2)))
          CFI DPH0 load(1, XDATA, add(CFA_XSP16, literal(-1)))
          CFI R6 load(1, XDATA, add(CFA_XSP16, literal(-20)))
          CFI R7 load(1, XDATA, add(CFA_XSP16, literal(-6)))
          CFI V0 load(1, XDATA, add(CFA_XSP16, literal(-18)))
          CFI V1 load(1, XDATA, add(CFA_XSP16, literal(-17)))
          CFI V2 load(1, XDATA, add(CFA_XSP16, literal(-16)))
          CFI V3 load(1, XDATA, add(CFA_XSP16, literal(-15)))
          CFI V4 load(1, XDATA, add(CFA_XSP16, literal(-14)))
          CFI V5 load(1, XDATA, add(CFA_XSP16, literal(-13)))
          CFI V6 load(1, XDATA, add(CFA_XSP16, literal(-12)))
          CFI V7 load(1, XDATA, add(CFA_XSP16, literal(-11)))
          CFI V8 load(1, XDATA, add(CFA_XSP16, literal(-10)))
          CFI V9 load(1, XDATA, add(CFA_XSP16, literal(-9)))
          CFI V10 load(1, XDATA, add(CFA_XSP16, literal(-8)))
          CFI V11 load(1, XDATA, add(CFA_XSP16, literal(-7)))
          CFI ?BRET_EXT load(1, XDATA, add(CFA_XSP16, literal(-3)))
          CFI ?RET_HIGH load(1, XDATA, add(CFA_XSP16, literal(-4)))
          CFI ?RET_LOW load(1, XDATA, add(CFA_XSP16, literal(-5)))
        MOV       R7,#0xc
        LJMP      ?BANKED_LEAVE_XDATA
          CFI EndBlock cfiBlock51
//  639 
//  640 /*********************************************************************
//  641  * Address Responses
//  642  */
//  643 
//  644 /*********************************************************************
//  645  * @fn      zdpProcessAddrReq
//  646  *
//  647  * @brief   Process an incoming NWK_addr_req or IEEE_addr_req message and then
//  648  *          build and send a corresponding NWK_addr_rsp or IEEE_addr_rsp msg.
//  649  *
//  650  * @param   inMsg - incoming message
//  651  *
//  652  * @return  none
//  653  */

        RSEG BANKED_CODE:HUGECODE:NOROOT(0)
//  654 void zdpProcessAddrReq( zdoIncomingMsg_t *inMsg )
zdpProcessAddrReq:
          CFI Block cfiBlock52 Using cfiCommon0
          CFI Function zdpProcessAddrReq
        CODE
//  655 {
        FUNCALL zdpProcessAddrReq, sAddrExtCmp
        LOCFRAME ISTACK, 0, STACK
        LOCFRAME PSTACK, 0, STACK
        LOCFRAME XSTACK, 15, STACK
        LOCFRAME IOVERLAY, 0, STATIC
        LOCFRAME DOVERLAY, 0, STATIC
        ARGFRAME ISTACK, 0, STACK
        ARGFRAME PSTACK, 0, STACK
        ARGFRAME XSTACK, 15, STACK
        ARGFRAME IOVERLAY, 0, STATIC
        ARGFRAME DOVERLAY, 0, STATIC
        FUNCALL zdpProcessAddrReq, sAddrExtCpy
        LOCFRAME ISTACK, 0, STACK
        LOCFRAME PSTACK, 0, STACK
        LOCFRAME XSTACK, 15, STACK
        LOCFRAME IOVERLAY, 0, STATIC
        LOCFRAME DOVERLAY, 0, STATIC
        ARGFRAME ISTACK, 0, STACK
        ARGFRAME PSTACK, 0, STACK
        ARGFRAME XSTACK, 15, STACK
        ARGFRAME IOVERLAY, 0, STATIC
        ARGFRAME DOVERLAY, 0, STATIC
        FUNCALL zdpProcessAddrReq, fillAndSend
        LOCFRAME ISTACK, 0, STACK
        LOCFRAME PSTACK, 0, STACK
        LOCFRAME XSTACK, 17, STACK
        LOCFRAME IOVERLAY, 0, STATIC
        LOCFRAME DOVERLAY, 0, STATIC
        ARGFRAME ISTACK, 0, STACK
        ARGFRAME PSTACK, 0, STACK
        ARGFRAME XSTACK, 17, STACK
        ARGFRAME IOVERLAY, 0, STATIC
        ARGFRAME DOVERLAY, 0, STATIC
        REQUIRE ?V0
        REQUIRE ?V1
        REQUIRE ?V2
        REQUIRE ?V3
        REQUIRE ?V4
        REQUIRE ?V5
        REQUIRE ?V6
        MOV       A,#-0xf
        LCALL     ?BANKED_ENTER_XDATA
          CFI DPH0 load(1, XDATA, add(CFA_XSP16, literal(-1)))
          CFI DPL0 load(1, XDATA, add(CFA_XSP16, literal(-2)))
          CFI ?BRET_EXT load(1, XDATA, add(CFA_XSP16, literal(-3)))
          CFI ?RET_HIGH load(1, XDATA, add(CFA_XSP16, literal(-4)))
          CFI ?RET_LOW load(1, XDATA, add(CFA_XSP16, literal(-5)))
          CFI R7 load(1, XDATA, add(CFA_XSP16, literal(-6)))
          CFI V6 load(1, XDATA, add(CFA_XSP16, literal(-7)))
          CFI V5 load(1, XDATA, add(CFA_XSP16, literal(-8)))
          CFI V4 load(1, XDATA, add(CFA_XSP16, literal(-9)))
          CFI V3 load(1, XDATA, add(CFA_XSP16, literal(-10)))
          CFI V2 load(1, XDATA, add(CFA_XSP16, literal(-11)))
          CFI V1 load(1, XDATA, add(CFA_XSP16, literal(-12)))
          CFI V0 load(1, XDATA, add(CFA_XSP16, literal(-13)))
          CFI VB load(1, XDATA, add(CFA_XSP16, literal(-14)))
          CFI R6 load(1, XDATA, add(CFA_XSP16, literal(-15)))
          CFI CFA_SP SP+0
          CFI CFA_XSP16 add(XSP16, 15)
        ; Saved register size: 15
        ; Auto size: 0
        MOV       ?V0,R2
        MOV       ?V1,R3
//  656   associated_devices_t *pAssoc;
//  657   uint8 reqType;
//  658   uint16 aoi = INVALID_NODE_ADDR;
        MOV       R6,#-0x2
        MOV       R7,#-0x1
//  659   uint8 *ieee = NULL;
        MOV       ?V2,#0x0
        MOV       ?V3,#0x0
//  660 
//  661   reqType = inMsg->asdu[(inMsg->clusterID == NWK_addr_req) ? Z_EXTADDR_LEN : sizeof( uint16 ) ];
        MOV       A,R2
        ADD       A,#0xc
        MOV       ?V4,A
        CLR       A
        ADDC      A,?V1
        MOV       ?V5,A
        MOV       DPL,?V4
        MOV       DPH,A
        LCALL     ??Subroutine108_0 & 0xFFFF
??CrossCallReturnLabel_184:
        MOV       A,R2
        ORL       A,R3
        JNZ       ??zdpProcessAddrReq_0
        MOV       R4,#0x8
        SJMP      ??zdpProcessAddrReq_1
??zdpProcessAddrReq_0:
        MOV       R4,#0x2
??zdpProcessAddrReq_1:
        MOV       A,?V0
        ADD       A,#0x13
        MOV       DPL,A
        CLR       A
        ADDC      A,?V1
        MOV       DPH,A
        LCALL     ??Subroutine100_0 & 0xFFFF
??CrossCallReturnLabel_150:
        ADD       A,R4
        MOV       DPL,A
        CLR       A
        ADDC      A,R1
        MOV       DPH,A
        MOVX      A,@DPTR
        MOV       ?V6,A
//  662 
//  663   if ( inMsg->clusterID == NWK_addr_req )
        MOV       A,R2
        ORL       A,R3
        JNZ       ??zdpProcessAddrReq_2
//  664 
//  665   {
//  666     ieee = inMsg->asdu;
        MOV       ?V2,R0
        MOV       ?V3,R1
//  667 
//  668     if ( osal_ExtAddrEqual( saveExtAddr, ieee ) )
        ; Setup parameters for call to function sAddrExtCmp
        MOV       R4,?V2
        MOV       R5,?V3
        MOV       R2,#saveExtAddr & 0xff
        MOV       R3,#(saveExtAddr >> 8) & 0xff
        LCALL     `??sAddrExtCmp::?relay`; Banked call to: sAddrExtCmp
        MOV       A,R1
        JZ        ??zdpProcessAddrReq_3
//  669     {
//  670       aoi = ZDAppNwkAddr.addr.shortAddr;
        LCALL     ?Subroutine46 & 0xFFFF
//  671     }
//  672     // Handle response for sleeping end devices
//  673     else if ( (ZSTACK_ROUTER_BUILD)
//  674       && (((pAssoc = AssocGetWithExt( ieee )) != NULL)
//  675              && (pAssoc->nodeRelation == CHILD_RFD)) )
//  676     {
//  677       aoi = pAssoc->shortAddr;
//  678       if ( reqType != ZDP_ADDR_REQTYPE_SINGLE )
//  679         reqType = 0xFF; // Force Invalid
//  680     }
//  681   }
??CrossCallReturnLabel_210:
        SJMP      ??zdpProcessAddrReq_4
//  682   else  // if ( inMsg->clusterID == IEEE_addr_req )
//  683   {
//  684     aoi = BUILD_UINT16( inMsg->asdu[0], inMsg->asdu[1] );
??zdpProcessAddrReq_2:
        MOV       DPL,R0
        MOV       DPH,R1
        MOVX      A,@DPTR
        MOV       R2,A
        INC       DPTR
        MOVX      A,@DPTR
        MOV       R0,A
        CLR       A
        XCH       A,R0
        MOV       R1,A
        MOV       A,R2
        ADD       A,R0
        MOV       R6,A
        CLR       A
        ADDC      A,R1
        MOV       R7,A
//  685 
//  686     if ( aoi == ZDAppNwkAddr.addr.shortAddr )
        MOV       DPTR,#ZDAppNwkAddr
        MOVX      A,@DPTR
        XRL       A,R6
        JNZ       ??zdpProcessAddrReq_5
        INC       DPTR
        MOVX      A,@DPTR
        XRL       A,R7
??zdpProcessAddrReq_5:
        JNZ       ??zdpProcessAddrReq_3
//  687     {
//  688       ieee = saveExtAddr;
        MOV       ?V2,#saveExtAddr & 0xff
        MOV       ?V3,#(saveExtAddr >> 8) & 0xff
//  689     }
//  690     else if ( (ZSTACK_ROUTER_BUILD)
//  691       && (((pAssoc = AssocGetWithShort( aoi )) != NULL)
//  692              && (pAssoc->nodeRelation == CHILD_RFD)) )
//  693     {
//  694       AddrMgrEntry_t addrEntry;
//  695       addrEntry.user = ADDRMGR_USER_DEFAULT;
//  696       addrEntry.index = pAssoc->addrIdx;
//  697       if ( AddrMgrEntryGet( &addrEntry ) )
//  698       {
//  699         ieee = addrEntry.extAddr;
//  700       }
//  701 
//  702       if ( reqType != ZDP_ADDR_REQTYPE_SINGLE )
//  703         reqType = 0xFF; // Force Invalid
//  704     }
//  705   }
//  706 
//  707   if ( ((aoi != INVALID_NODE_ADDR) && (ieee != NULL)) || (inMsg->wasBroadcast == FALSE) )
??zdpProcessAddrReq_4:
        MOV       A,#-0x2
        XRL       A,R6
        JNZ       ??zdpProcessAddrReq_6
        MOV       A,#-0x1
        XRL       A,R7
??zdpProcessAddrReq_6:
        JZ        ??zdpProcessAddrReq_3
        MOV       A,?V2
        ORL       A,?V3
        JNZ       ??zdpProcessAddrReq_7
??zdpProcessAddrReq_3:
        MOV       A,?V0
        ADD       A,#0xb
        MOV       DPL,A
        CLR       A
        ADDC      A,?V1
        MOV       DPH,A
        MOVX      A,@DPTR
        JNZ       ??zdpProcessAddrReq_8
//  708   {
//  709     uint8 stat;
//  710     uint8 *pBuf = ZDP_TmpBuf;
??zdpProcessAddrReq_7:
        LCALL     ??Subroutine107_0 & 0xFFFF
//  711     // Status + IEEE-Addr + Nwk-Addr.
//  712     uint8 len = 1 + Z_EXTADDR_LEN + 2;
//  713 
//  714     // If aoi and iee are both setup, we found results
//  715     if ( (aoi != INVALID_NODE_ADDR) && (ieee != NULL) )
??CrossCallReturnLabel_189:
        MOV       A,#-0x2
        XRL       A,R6
        JNZ       ??zdpProcessAddrReq_9
        MOV       A,#-0x1
        XRL       A,R7
??zdpProcessAddrReq_9:
        JZ        ??zdpProcessAddrReq_10
        MOV       A,?V2
        ORL       A,?V3
        JZ        ??zdpProcessAddrReq_10
//  716     {
//  717       stat = ((reqType == ZDP_ADDR_REQTYPE_SINGLE) || (reqType == ZDP_ADDR_REQTYPE_EXTENDED))
//  718                     ? ZDP_SUCCESS : ZDP_INVALID_REQTYPE;
        MOV       A,?V6
        JZ        ??zdpProcessAddrReq_11
        MOV       A,#0x1
        XRL       A,?V6
        JNZ       ??zdpProcessAddrReq_12
??zdpProcessAddrReq_11:
        MOV       R0,#0x0
        SJMP      ??zdpProcessAddrReq_13
??zdpProcessAddrReq_12:
        MOV       R0,#-0x80
        SJMP      ??zdpProcessAddrReq_13
//  719     }
//  720     else
//  721     {
//  722       // not found and the req was unicast to this device
//  723       stat = ZDP_DEVICE_NOT_FOUND;
??zdpProcessAddrReq_10:
        MOV       R0,#-0x7f
//  724 
//  725       // Fill in the missing field with this device's address
//  726       if ( inMsg->clusterID == NWK_addr_req )
        MOV       DPL,?V4
        MOV       DPH,?V5
        LCALL     ?Subroutine44 & 0xFFFF
??CrossCallReturnLabel_65:
        MOV       A,R4
        ORL       A,R5
        JNZ       ??zdpProcessAddrReq_14
//  727       {
//  728         aoi = ZDAppNwkAddr.addr.shortAddr;
        LCALL     ?Subroutine46 & 0xFFFF
//  729       }
??CrossCallReturnLabel_211:
        SJMP      ??zdpProcessAddrReq_13
//  730       else
//  731       {
//  732         ieee = saveExtAddr;
??zdpProcessAddrReq_14:
        MOV       ?V2,#saveExtAddr & 0xff
        MOV       ?V3,#(saveExtAddr >> 8) & 0xff
//  733       }
//  734     }
//  735 
//  736     *pBuf++ = stat;
??zdpProcessAddrReq_13:
        MOV       A,R0
        LCALL     ?Subroutine22 & 0xFFFF
//  737 
//  738     pBuf = osal_cpyExtAddr( pBuf, ieee );
??CrossCallReturnLabel_144:
        ; Setup parameters for call to function sAddrExtCpy
        MOV       R4,?V2
        MOV       R5,?V3
        LCALL     `??sAddrExtCpy::?relay`; Banked call to: sAddrExtCpy
        MOV       DPL,R2
        MOV       DPH,R3
//  739 
//  740     *pBuf++ = LO_UINT16( aoi );
        MOV       A,R6
        MOVX      @DPTR,A
//  741     *pBuf++ = HI_UINT16( aoi );
        MOV       A,R7
        INC       DPTR
        MOVX      @DPTR,A
//  742 
//  743     if ( ZSTACK_ROUTER_BUILD )
//  744     {
//  745       if ( (reqType == ZDP_ADDR_REQTYPE_EXTENDED) && (aoi == ZDAppNwkAddr.addr.shortAddr)
//  746            && (stat == ZDP_SUCCESS) )
//  747       {
//  748         uint8  cnt = 0;
//  749         uint16 *list = AssocMakeList( &cnt );
//  750 
//  751         if ( list != NULL )
//  752         {
//  753           byte idx = inMsg->asdu[(((inMsg->clusterID == NWK_addr_req) ? Z_EXTADDR_LEN : sizeof( uint16 )) + 1)];
//  754           uint16 *pList = list + idx;
//  755 
//  756           // NumAssocDev field is only present on success.
//  757           if ( cnt > idx )
//  758           {
//  759             cnt -= idx;
//  760             len += (cnt * sizeof( uint16 ));
//  761           }
//  762           else
//  763           {
//  764             cnt = 0;
//  765           }
//  766           *pBuf++ = cnt;
//  767           len++;
//  768 
//  769           // StartIndex field is only present if NumAssocDev field is non-zero.
//  770           *pBuf++ = idx;
//  771           len++;
//  772 
//  773           while ( cnt != 0 )
//  774           {
//  775             *pBuf++ = LO_UINT16( *pList );
//  776             *pBuf++ = HI_UINT16( *pList );
//  777             pList++;
//  778             cnt--;
//  779           }
//  780 
//  781           osal_mem_free( (uint8 *)list );
//  782         }
//  783         else
//  784         {
//  785           // NumAssocDev field is only present on success.
//  786           *pBuf++ = 0;
//  787           len++;
//  788         }
//  789       }
//  790     }
//  791 
//  792     ZDP_TxOptions = AF_MSG_ACK_REQUEST;
        MOV       DPTR,#ZDP_TxOptions
        MOV       A,#0x10
        MOVX      @DPTR,A
//  793     fillAndSend( &(inMsg->TransSeq), &(inMsg->srcAddr), (cId_t)(inMsg->clusterID | ZDO_RESPONSE_BIT), len );
        ; Setup parameters for call to function fillAndSend
        MOV       DPL,?V4
        MOV       DPH,?V5
        MOVX      A,@DPTR
        MOV       ?V2,A
        INC       DPTR
        MOVX      A,@DPTR
        ORL       A,#0x80
        MOV       ?V3,A
        MOV       R0,#?V2
        LCALL     ?PUSH_XSTACK_I_TWO
          CFI CFA_XSP16 add(XSP16, 17)
        MOV       R1,#0xb
        LCALL     ?Subroutine67 & 0xFFFF
??CrossCallReturnLabel_106:
        LCALL     `??fillAndSend::?relay`; Banked call to: fillAndSend
        MOV       A,#0x2
        LCALL     ?DEALLOC_XSTACK8
          CFI CFA_XSP16 add(XSP16, 15)
//  794     ZDP_TxOptions = AF_TX_OPTIONS_NONE;
        MOV       DPTR,#ZDP_TxOptions
        CLR       A
        MOVX      @DPTR,A
//  795   }
//  796 }
??zdpProcessAddrReq_8:
        LJMP      ??Subroutine96_0 & 0xFFFF
          CFI EndBlock cfiBlock52

        RSEG BANKED_CODE:HUGECODE:NOROOT(0)
?Subroutine22:
          CFI Block cfiCond53 Using cfiCommon0
          CFI Function zdpProcessAddrReq
          CFI Conditional ??CrossCallReturnLabel_144
          CFI R6 load(1, XDATA, add(CFA_XSP16, literal(-15)))
          CFI VB load(1, XDATA, add(CFA_XSP16, literal(-14)))
          CFI V0 load(1, XDATA, add(CFA_XSP16, literal(-13)))
          CFI V1 load(1, XDATA, add(CFA_XSP16, literal(-12)))
          CFI V2 load(1, XDATA, add(CFA_XSP16, literal(-11)))
          CFI V3 load(1, XDATA, add(CFA_XSP16, literal(-10)))
          CFI V4 load(1, XDATA, add(CFA_XSP16, literal(-9)))
          CFI V5 load(1, XDATA, add(CFA_XSP16, literal(-8)))
          CFI V6 load(1, XDATA, add(CFA_XSP16, literal(-7)))
          CFI R7 load(1, XDATA, add(CFA_XSP16, literal(-6)))
          CFI ?RET_LOW load(1, XDATA, add(CFA_XSP16, literal(-5)))
          CFI ?RET_HIGH load(1, XDATA, add(CFA_XSP16, literal(-4)))
          CFI ?BRET_EXT load(1, XDATA, add(CFA_XSP16, literal(-3)))
          CFI DPL0 load(1, XDATA, add(CFA_XSP16, literal(-2)))
          CFI DPH0 load(1, XDATA, add(CFA_XSP16, literal(-1)))
          CFI CFA_SP SP+-2
          CFI CFA_XSP16 add(XSP16, 15)
          CFI Block cfiCond54 Using cfiCommon0
          CFI (cfiCond54) Function ZDP_MgmtBindRsp
          CFI (cfiCond54) Conditional ??CrossCallReturnLabel_145
          CFI (cfiCond54) R6 load(1, XDATA, add(CFA_XSP16, literal(-22)))
          CFI (cfiCond54) VB load(1, XDATA, add(CFA_XSP16, literal(-21)))
          CFI (cfiCond54) V0 load(1, XDATA, add(CFA_XSP16, literal(-20)))
          CFI (cfiCond54) V1 load(1, XDATA, add(CFA_XSP16, literal(-19)))
          CFI (cfiCond54) V2 load(1, XDATA, add(CFA_XSP16, literal(-18)))
          CFI (cfiCond54) V3 load(1, XDATA, add(CFA_XSP16, literal(-17)))
          CFI (cfiCond54) V4 load(1, XDATA, add(CFA_XSP16, literal(-16)))
          CFI (cfiCond54) V5 load(1, XDATA, add(CFA_XSP16, literal(-15)))
          CFI (cfiCond54) V6 load(1, XDATA, add(CFA_XSP16, literal(-14)))
          CFI (cfiCond54) V7 load(1, XDATA, add(CFA_XSP16, literal(-13)))
          CFI (cfiCond54) V8 load(1, XDATA, add(CFA_XSP16, literal(-12)))
          CFI (cfiCond54) V9 load(1, XDATA, add(CFA_XSP16, literal(-11)))
          CFI (cfiCond54) V10 load(1, XDATA, add(CFA_XSP16, literal(-10)))
          CFI (cfiCond54) V11 load(1, XDATA, add(CFA_XSP16, literal(-9)))
          CFI (cfiCond54) V12 load(1, XDATA, add(CFA_XSP16, literal(-8)))
          CFI (cfiCond54) V13 load(1, XDATA, add(CFA_XSP16, literal(-7)))
          CFI (cfiCond54) R7 load(1, XDATA, add(CFA_XSP16, literal(-6)))
          CFI (cfiCond54) ?RET_LOW load(1, XDATA, add(CFA_XSP16, literal(-5)))
          CFI (cfiCond54) ?RET_HIGH load(1, XDATA, add(CFA_XSP16, literal(-4)))
          CFI (cfiCond54) ?BRET_EXT load(1, XDATA, add(CFA_XSP16, literal(-3)))
          CFI (cfiCond54) DPL0 load(1, XDATA, add(CFA_XSP16, literal(-2)))
          CFI (cfiCond54) DPH0 load(1, XDATA, add(CFA_XSP16, literal(-1)))
          CFI (cfiCond54) CFA_SP SP+-2
          CFI (cfiCond54) CFA_XSP16 add(XSP16, 23)
          CFI Block cfiPicker55 Using cfiCommon1
          CFI (cfiPicker55) NoFunction
          CFI (cfiPicker55) Picker
        MOV       DPL,R2
        MOV       DPH,R3
          CFI EndBlock cfiCond53
          CFI EndBlock cfiCond54
          CFI EndBlock cfiPicker55
        REQUIRE ??Subroutine97_0
        ; // Fall through to label ??Subroutine97_0

        RSEG BANKED_CODE:HUGECODE:NOROOT(0)
??Subroutine97_0:
          CFI Block cfiCond56 Using cfiCommon0
          CFI Function ZDP_ParentAnnce
          CFI Conditional ??CrossCallReturnLabel_142
          CFI R6 load(1, XDATA, add(CFA_XSP16, literal(-20)))
          CFI VB load(1, XDATA, add(CFA_XSP16, literal(-19)))
          CFI V0 load(1, XDATA, add(CFA_XSP16, literal(-18)))
          CFI V1 load(1, XDATA, add(CFA_XSP16, literal(-17)))
          CFI V2 load(1, XDATA, add(CFA_XSP16, literal(-16)))
          CFI V3 load(1, XDATA, add(CFA_XSP16, literal(-15)))
          CFI V4 load(1, XDATA, add(CFA_XSP16, literal(-14)))
          CFI V5 load(1, XDATA, add(CFA_XSP16, literal(-13)))
          CFI V6 load(1, XDATA, add(CFA_XSP16, literal(-12)))
          CFI V7 load(1, XDATA, add(CFA_XSP16, literal(-11)))
          CFI V8 load(1, XDATA, add(CFA_XSP16, literal(-10)))
          CFI V9 load(1, XDATA, add(CFA_XSP16, literal(-9)))
          CFI V10 load(1, XDATA, add(CFA_XSP16, literal(-8)))
          CFI V11 load(1, XDATA, add(CFA_XSP16, literal(-7)))
          CFI R7 load(1, XDATA, add(CFA_XSP16, literal(-6)))
          CFI ?RET_LOW load(1, XDATA, add(CFA_XSP16, literal(-5)))
          CFI ?RET_HIGH load(1, XDATA, add(CFA_XSP16, literal(-4)))
          CFI ?BRET_EXT load(1, XDATA, add(CFA_XSP16, literal(-3)))
          CFI DPL0 load(1, XDATA, add(CFA_XSP16, literal(-2)))
          CFI DPH0 load(1, XDATA, add(CFA_XSP16, literal(-1)))
          CFI CFA_SP SP+-2
          CFI CFA_XSP16 add(XSP16, 20)
          CFI Block cfiCond57 Using cfiCommon0
          CFI (cfiCond57) Function ZDP_MgmtNwkUpdateNotify
          CFI (cfiCond57) Conditional ??CrossCallReturnLabel_143
          CFI (cfiCond57) R6 load(1, XDATA, add(CFA_XSP16, literal(-18)))
          CFI (cfiCond57) VB load(1, XDATA, add(CFA_XSP16, literal(-17)))
          CFI (cfiCond57) V0 load(1, XDATA, add(CFA_XSP16, literal(-16)))
          CFI (cfiCond57) V1 load(1, XDATA, add(CFA_XSP16, literal(-15)))
          CFI (cfiCond57) V2 load(1, XDATA, add(CFA_XSP16, literal(-14)))
          CFI (cfiCond57) V3 load(1, XDATA, add(CFA_XSP16, literal(-13)))
          CFI (cfiCond57) V4 load(1, XDATA, add(CFA_XSP16, literal(-12)))
          CFI (cfiCond57) V5 load(1, XDATA, add(CFA_XSP16, literal(-11)))
          CFI (cfiCond57) V6 load(1, XDATA, add(CFA_XSP16, literal(-10)))
          CFI (cfiCond57) V7 load(1, XDATA, add(CFA_XSP16, literal(-9)))
          CFI (cfiCond57) V8 load(1, XDATA, add(CFA_XSP16, literal(-8)))
          CFI (cfiCond57) V9 load(1, XDATA, add(CFA_XSP16, literal(-7)))
          CFI (cfiCond57) R7 load(1, XDATA, add(CFA_XSP16, literal(-6)))
          CFI (cfiCond57) ?RET_LOW load(1, XDATA, add(CFA_XSP16, literal(-5)))
          CFI (cfiCond57) ?RET_HIGH load(1, XDATA, add(CFA_XSP16, literal(-4)))
          CFI (cfiCond57) ?BRET_EXT load(1, XDATA, add(CFA_XSP16, literal(-3)))
          CFI (cfiCond57) DPL0 load(1, XDATA, add(CFA_XSP16, literal(-2)))
          CFI (cfiCond57) DPH0 load(1, XDATA, add(CFA_XSP16, literal(-1)))
          CFI (cfiCond57) CFA_SP SP+-2
          CFI (cfiCond57) CFA_XSP16 add(XSP16, 19)
          CFI Block cfiCond58 Using cfiCommon0
          CFI (cfiCond58) Function zdpProcessAddrReq
          CFI (cfiCond58) Conditional ??CrossCallReturnLabel_144
          CFI (cfiCond58) R6 load(1, XDATA, add(CFA_XSP16, literal(-15)))
          CFI (cfiCond58) VB load(1, XDATA, add(CFA_XSP16, literal(-14)))
          CFI (cfiCond58) V0 load(1, XDATA, add(CFA_XSP16, literal(-13)))
          CFI (cfiCond58) V1 load(1, XDATA, add(CFA_XSP16, literal(-12)))
          CFI (cfiCond58) V2 load(1, XDATA, add(CFA_XSP16, literal(-11)))
          CFI (cfiCond58) V3 load(1, XDATA, add(CFA_XSP16, literal(-10)))
          CFI (cfiCond58) V4 load(1, XDATA, add(CFA_XSP16, literal(-9)))
          CFI (cfiCond58) V5 load(1, XDATA, add(CFA_XSP16, literal(-8)))
          CFI (cfiCond58) V6 load(1, XDATA, add(CFA_XSP16, literal(-7)))
          CFI (cfiCond58) R7 load(1, XDATA, add(CFA_XSP16, literal(-6)))
          CFI (cfiCond58) ?RET_LOW load(1, XDATA, add(CFA_XSP16, literal(-5)))
          CFI (cfiCond58) ?RET_HIGH load(1, XDATA, add(CFA_XSP16, literal(-4)))
          CFI (cfiCond58) ?BRET_EXT load(1, XDATA, add(CFA_XSP16, literal(-3)))
          CFI (cfiCond58) DPL0 load(1, XDATA, add(CFA_XSP16, literal(-2)))
          CFI (cfiCond58) DPH0 load(1, XDATA, add(CFA_XSP16, literal(-1)))
          CFI (cfiCond58) CFA_SP SP+-2
          CFI (cfiCond58) CFA_XSP16 add(XSP16, 15)
          CFI Block cfiCond59 Using cfiCommon0
          CFI (cfiCond59) Function ZDP_MgmtBindRsp
          CFI (cfiCond59) Conditional ??CrossCallReturnLabel_145
          CFI (cfiCond59) R6 load(1, XDATA, add(CFA_XSP16, literal(-22)))
          CFI (cfiCond59) VB load(1, XDATA, add(CFA_XSP16, literal(-21)))
          CFI (cfiCond59) V0 load(1, XDATA, add(CFA_XSP16, literal(-20)))
          CFI (cfiCond59) V1 load(1, XDATA, add(CFA_XSP16, literal(-19)))
          CFI (cfiCond59) V2 load(1, XDATA, add(CFA_XSP16, literal(-18)))
          CFI (cfiCond59) V3 load(1, XDATA, add(CFA_XSP16, literal(-17)))
          CFI (cfiCond59) V4 load(1, XDATA, add(CFA_XSP16, literal(-16)))
          CFI (cfiCond59) V5 load(1, XDATA, add(CFA_XSP16, literal(-15)))
          CFI (cfiCond59) V6 load(1, XDATA, add(CFA_XSP16, literal(-14)))
          CFI (cfiCond59) V7 load(1, XDATA, add(CFA_XSP16, literal(-13)))
          CFI (cfiCond59) V8 load(1, XDATA, add(CFA_XSP16, literal(-12)))
          CFI (cfiCond59) V9 load(1, XDATA, add(CFA_XSP16, literal(-11)))
          CFI (cfiCond59) V10 load(1, XDATA, add(CFA_XSP16, literal(-10)))
          CFI (cfiCond59) V11 load(1, XDATA, add(CFA_XSP16, literal(-9)))
          CFI (cfiCond59) V12 load(1, XDATA, add(CFA_XSP16, literal(-8)))
          CFI (cfiCond59) V13 load(1, XDATA, add(CFA_XSP16, literal(-7)))
          CFI (cfiCond59) R7 load(1, XDATA, add(CFA_XSP16, literal(-6)))
          CFI (cfiCond59) ?RET_LOW load(1, XDATA, add(CFA_XSP16, literal(-5)))
          CFI (cfiCond59) ?RET_HIGH load(1, XDATA, add(CFA_XSP16, literal(-4)))
          CFI (cfiCond59) ?BRET_EXT load(1, XDATA, add(CFA_XSP16, literal(-3)))
          CFI (cfiCond59) DPL0 load(1, XDATA, add(CFA_XSP16, literal(-2)))
          CFI (cfiCond59) DPH0 load(1, XDATA, add(CFA_XSP16, literal(-1)))
          CFI (cfiCond59) CFA_SP SP+-2
          CFI (cfiCond59) CFA_XSP16 add(XSP16, 23)
          CFI Block cfiPicker60 Using cfiCommon1
          CFI (cfiPicker60) NoFunction
          CFI (cfiPicker60) Picker
        MOVX      @DPTR,A
        INC       DPTR
        MOV       R2,DPL
        MOV       R3,DPH
        RET
          CFI EndBlock cfiCond56
          CFI EndBlock cfiCond57
          CFI EndBlock cfiCond58
          CFI EndBlock cfiCond59
          CFI EndBlock cfiPicker60
//  797 
//  798 /*********************************************************************
//  799  * @fn          ZDP_NodeDescMsg
//  800  *
//  801  * @brief       Builds and sends a Node Descriptor message, unicast to the
//  802  *              specified device.
//  803  *
//  804  * @param       inMsg - incoming message
//  805  * @param       nwkAddr - 16 bit network address for device
//  806  * @param       pNodeDesc - pointer to the node descriptor
//  807  *
//  808  * @return      afStatus_t
//  809  */

        RSEG BANKED_CODE:HUGECODE:NOROOT(0)
//  810 afStatus_t ZDP_NodeDescMsg( zdoIncomingMsg_t *inMsg,
ZDP_NodeDescMsg:
          CFI Block cfiBlock61 Using cfiCommon0
          CFI Function ZDP_NodeDescMsg
        CODE
//  811                            uint16 nwkAddr, NodeDescriptorFormat_t *pNodeDesc )
//  812 {
        FUNCALL ZDP_NodeDescMsg, fillAndSend
        LOCFRAME ISTACK, 0, STACK
        LOCFRAME PSTACK, 0, STACK
        LOCFRAME XSTACK, 12, STACK
        LOCFRAME IOVERLAY, 0, STATIC
        LOCFRAME DOVERLAY, 0, STATIC
        ARGFRAME ISTACK, 0, STACK
        ARGFRAME PSTACK, 0, STACK
        ARGFRAME XSTACK, 12, STACK
        ARGFRAME IOVERLAY, 0, STATIC
        ARGFRAME DOVERLAY, 0, STATIC
        REQUIRE ?V0
        REQUIRE ?V1
        MOV       A,#-0xa
        LCALL     ?BANKED_ENTER_XDATA
          CFI DPH0 load(1, XDATA, add(CFA_XSP16, literal(-1)))
          CFI DPL0 load(1, XDATA, add(CFA_XSP16, literal(-2)))
          CFI ?BRET_EXT load(1, XDATA, add(CFA_XSP16, literal(-3)))
          CFI ?RET_HIGH load(1, XDATA, add(CFA_XSP16, literal(-4)))
          CFI ?RET_LOW load(1, XDATA, add(CFA_XSP16, literal(-5)))
          CFI R7 load(1, XDATA, add(CFA_XSP16, literal(-6)))
          CFI V1 load(1, XDATA, add(CFA_XSP16, literal(-7)))
          CFI V0 load(1, XDATA, add(CFA_XSP16, literal(-8)))
          CFI VB load(1, XDATA, add(CFA_XSP16, literal(-9)))
          CFI R6 load(1, XDATA, add(CFA_XSP16, literal(-10)))
          CFI CFA_SP SP+0
          CFI CFA_XSP16 add(XSP16, 10)
        ; Saved register size: 10
        ; Auto size: 0
//  813   uint8 *pBuf = ZDP_TmpBuf;
        MOV       DPTR,#ZDP_TmpBuf
        MOVX      A,@DPTR
        MOV       R6,A
        INC       DPTR
        MOVX      A,@DPTR
        LCALL     ?Subroutine19 & 0xFFFF
//  814   byte len;
//  815 
//  816   len = 1 + 2 + 13;  // Status + nwkAddr + Node descriptor
//  817 
//  818   *pBuf++ = ZDP_SUCCESS;
//  819 
//  820   *pBuf++ = LO_UINT16( nwkAddr );
//  821   *pBuf++ = HI_UINT16( nwkAddr );
??CrossCallReturnLabel_20:
        LCALL     ?XSTACK_DISP0_8
        LCALL     ?Subroutine40 & 0xFFFF
//  822 
//  823   *pBuf++ = (byte)((pNodeDesc->ComplexDescAvail << 3) |
//  824                      (pNodeDesc->UserDescAvail << 4) |
//  825                      (pNodeDesc->LogicalType & 0x07));
??CrossCallReturnLabel_53:
        ANL       A,#0x1f
        MOV       DPL,R6
        MOV       DPH,R7
        LCALL     ?Subroutine27 & 0xFFFF
//  826 
//  827   *pBuf++ = (byte)((pNodeDesc->FrequencyBand << 3) | (pNodeDesc->APSFlags & 0x07));
??CrossCallReturnLabel_216:
        LCALL     ?Subroutine43 & 0xFFFF
??CrossCallReturnLabel_57:
        LCALL     ?Subroutine27 & 0xFFFF
//  828   *pBuf++ = pNodeDesc->CapabilityFlags;
??CrossCallReturnLabel_217:
        LCALL     ?Subroutine77 & 0xFFFF
??CrossCallReturnLabel_204:
        LCALL     ?Subroutine26 & 0xFFFF
//  829   *pBuf++ = pNodeDesc->ManufacturerCode[0];
??CrossCallReturnLabel_146:
        LCALL     ?Subroutine43 & 0xFFFF
??CrossCallReturnLabel_58:
        LCALL     ?Subroutine26 & 0xFFFF
//  830   *pBuf++ = pNodeDesc->ManufacturerCode[1];
??CrossCallReturnLabel_147:
        LCALL     ?Subroutine77 & 0xFFFF
??CrossCallReturnLabel_205:
        LCALL     ?Subroutine25 & 0xFFFF
//  831   *pBuf++ = pNodeDesc->MaxBufferSize;
??CrossCallReturnLabel_31:
        LCALL     ?Subroutine43 & 0xFFFF
??CrossCallReturnLabel_59:
        LCALL     ?Subroutine25 & 0xFFFF
//  832   *pBuf++ = pNodeDesc->MaxInTransferSize[0];
??CrossCallReturnLabel_32:
        INC       DPTR
        LCALL     ?Subroutine42 & 0xFFFF
??CrossCallReturnLabel_55:
        LCALL     ?Subroutine23 & 0xFFFF
//  833   *pBuf++ = pNodeDesc->MaxInTransferSize[1];
??CrossCallReturnLabel_26:
        LCALL     ?Subroutine42 & 0xFFFF
??CrossCallReturnLabel_56:
        INC       DPTR
        MOVX      @DPTR,A
//  834 
//  835   *pBuf++ = LO_UINT16( pNodeDesc->ServerMask );
        MOV       A,R0
        ADD       A,#0x8
        MOV       R4,A
        CLR       A
        ADDC      A,R1
        MOV       R5,A
        MOV       DPL,R4
        MOV       DPH,R5
        MOVX      A,@DPTR
        MOV       ?V0,A
        MOV       A,R6
        ADD       A,#0xb
        MOV       DPL,A
        CLR       A
        ADDC      A,R7
        MOV       DPH,A
        MOV       A,?V0
        LCALL     ??Subroutine102_0 & 0xFFFF
//  836   *pBuf++ = HI_UINT16( pNodeDesc->ServerMask );
??CrossCallReturnLabel_161:
        MOVX      A,@DPTR
        PUSH      A
          CFI CFA_SP SP+-1
        MOV       A,R6
        ADD       A,#0xc
        MOV       DPL,A
        CLR       A
        ADDC      A,R7
        MOV       DPH,A
        POP       A
          CFI CFA_SP SP+0
        LCALL     ?Subroutine23 & 0xFFFF
//  837   *pBuf++ = pNodeDesc->MaxOutTransferSize[0];
??CrossCallReturnLabel_27:
        INC       DPTR
        INC       DPTR
        INC       DPTR
        MOVX      A,@DPTR
        PUSH      A
          CFI CFA_SP SP+-1
        MOV       A,R6
        ADD       A,#0xd
        MOV       DPL,A
        CLR       A
        ADDC      A,R7
        MOV       DPH,A
        POP       A
          CFI CFA_SP SP+0
        MOVX      @DPTR,A
//  838   *pBuf++ = pNodeDesc->MaxOutTransferSize[1];
        MOV       A,R0
        ADD       A,#0xb
        MOV       DPL,A
        CLR       A
        ADDC      A,R1
        MOV       DPH,A
        MOVX      A,@DPTR
        PUSH      A
          CFI CFA_SP SP+-1
        MOV       A,R6
        ADD       A,#0xe
        MOV       DPL,A
        CLR       A
        ADDC      A,R7
        MOV       DPH,A
        POP       A
          CFI CFA_SP SP+0
        MOVX      @DPTR,A
//  839   *pBuf = pNodeDesc->DescriptorCapability;
        MOV       A,R0
        ADD       A,#0xc
        MOV       DPL,A
        CLR       A
        ADDC      A,R1
        MOV       DPH,A
        MOVX      A,@DPTR
        PUSH      A
          CFI CFA_SP SP+-1
        MOV       A,R6
        ADD       A,#0xf
        MOV       DPL,A
        CLR       A
        ADDC      A,R7
        MOV       DPH,A
        POP       A
          CFI CFA_SP SP+0
        MOVX      @DPTR,A
//  840 
//  841   return fillAndSend( &(inMsg->TransSeq), &(inMsg->srcAddr), Node_Desc_rsp, len );
        ; Setup parameters for call to function fillAndSend
        MOV       ?V0,#0x2
        MOV       ?V1,#-0x80
        MOV       R0,#?V0
        LCALL     ?PUSH_XSTACK_I_TWO
          CFI CFA_XSP16 add(XSP16, 12)
        MOV       R1,#0x10
        LCALL     ?Subroutine68 & 0xFFFF
??CrossCallReturnLabel_108:
        JNC       ??ZDP_NodeDescMsg_0
        INC       R3
??ZDP_NodeDescMsg_0:
        SJMP      ??Subroutine99_0
//  842 }
          CFI EndBlock cfiBlock61

        RSEG BANKED_CODE:HUGECODE:NOROOT(0)
?Subroutine42:
          CFI Block cfiCond62 Using cfiCommon0
          CFI Function ZDP_NodeDescMsg
          CFI Conditional ??CrossCallReturnLabel_55
          CFI R6 load(1, XDATA, add(CFA_XSP16, literal(-10)))
          CFI VB load(1, XDATA, add(CFA_XSP16, literal(-9)))
          CFI V0 load(1, XDATA, add(CFA_XSP16, literal(-8)))
          CFI V1 load(1, XDATA, add(CFA_XSP16, literal(-7)))
          CFI R7 load(1, XDATA, add(CFA_XSP16, literal(-6)))
          CFI ?RET_LOW load(1, XDATA, add(CFA_XSP16, literal(-5)))
          CFI ?RET_HIGH load(1, XDATA, add(CFA_XSP16, literal(-4)))
          CFI ?BRET_EXT load(1, XDATA, add(CFA_XSP16, literal(-3)))
          CFI DPL0 load(1, XDATA, add(CFA_XSP16, literal(-2)))
          CFI DPH0 load(1, XDATA, add(CFA_XSP16, literal(-1)))
          CFI CFA_SP SP+-2
          CFI CFA_XSP16 add(XSP16, 10)
          CFI Block cfiCond63 Using cfiCommon0
          CFI (cfiCond63) Function ZDP_NodeDescMsg
          CFI (cfiCond63) Conditional ??CrossCallReturnLabel_56
          CFI (cfiCond63) R6 load(1, XDATA, add(CFA_XSP16, literal(-10)))
          CFI (cfiCond63) VB load(1, XDATA, add(CFA_XSP16, literal(-9)))
          CFI (cfiCond63) V0 load(1, XDATA, add(CFA_XSP16, literal(-8)))
          CFI (cfiCond63) V1 load(1, XDATA, add(CFA_XSP16, literal(-7)))
          CFI (cfiCond63) R7 load(1, XDATA, add(CFA_XSP16, literal(-6)))
          CFI (cfiCond63) ?RET_LOW load(1, XDATA, add(CFA_XSP16, literal(-5)))
          CFI (cfiCond63) ?RET_HIGH load(1, XDATA, add(CFA_XSP16, literal(-4)))
          CFI (cfiCond63) ?BRET_EXT load(1, XDATA, add(CFA_XSP16, literal(-3)))
          CFI (cfiCond63) DPL0 load(1, XDATA, add(CFA_XSP16, literal(-2)))
          CFI (cfiCond63) DPH0 load(1, XDATA, add(CFA_XSP16, literal(-1)))
          CFI (cfiCond63) CFA_SP SP+-2
          CFI (cfiCond63) CFA_XSP16 add(XSP16, 10)
          CFI Block cfiPicker64 Using cfiCommon1
          CFI (cfiPicker64) NoFunction
          CFI (cfiPicker64) Picker
        LCALL     ??Subroutine111_0 & 0xFFFF
??CrossCallReturnLabel_202:
        INC       DPTR
        INC       DPTR
        INC       DPTR
        INC       DPTR
        INC       DPTR
        INC       DPTR
        INC       DPTR
        INC       DPTR
        INC       DPTR
        RET
          CFI EndBlock cfiCond62
          CFI EndBlock cfiCond63
          CFI EndBlock cfiPicker64

        RSEG BANKED_CODE:HUGECODE:NOROOT(0)
?Subroutine40:
          CFI Block cfiCond65 Using cfiCommon0
          CFI Function ZDP_UserDescSet
          CFI Conditional ??CrossCallReturnLabel_52
          CFI R6 load(1, XDATA, add(CFA_XSP16, literal(-15)))
          CFI VB load(1, XDATA, add(CFA_XSP16, literal(-14)))
          CFI V0 load(1, XDATA, add(CFA_XSP16, literal(-13)))
          CFI V1 load(1, XDATA, add(CFA_XSP16, literal(-12)))
          CFI V2 load(1, XDATA, add(CFA_XSP16, literal(-11)))
          CFI V3 load(1, XDATA, add(CFA_XSP16, literal(-10)))
          CFI V4 load(1, XDATA, add(CFA_XSP16, literal(-9)))
          CFI V5 load(1, XDATA, add(CFA_XSP16, literal(-8)))
          CFI V6 load(1, XDATA, add(CFA_XSP16, literal(-7)))
          CFI R7 load(1, XDATA, add(CFA_XSP16, literal(-6)))
          CFI ?RET_LOW load(1, XDATA, add(CFA_XSP16, literal(-5)))
          CFI ?RET_HIGH load(1, XDATA, add(CFA_XSP16, literal(-4)))
          CFI ?BRET_EXT load(1, XDATA, add(CFA_XSP16, literal(-3)))
          CFI DPL0 load(1, XDATA, add(CFA_XSP16, literal(-2)))
          CFI DPH0 load(1, XDATA, add(CFA_XSP16, literal(-1)))
          CFI CFA_SP SP+-2
          CFI CFA_XSP16 add(XSP16, 15)
          CFI Block cfiCond66 Using cfiCommon0
          CFI (cfiCond66) Function ZDP_NodeDescMsg
          CFI (cfiCond66) Conditional ??CrossCallReturnLabel_53
          CFI (cfiCond66) R6 load(1, XDATA, add(CFA_XSP16, literal(-10)))
          CFI (cfiCond66) VB load(1, XDATA, add(CFA_XSP16, literal(-9)))
          CFI (cfiCond66) V0 load(1, XDATA, add(CFA_XSP16, literal(-8)))
          CFI (cfiCond66) V1 load(1, XDATA, add(CFA_XSP16, literal(-7)))
          CFI (cfiCond66) R7 load(1, XDATA, add(CFA_XSP16, literal(-6)))
          CFI (cfiCond66) ?RET_LOW load(1, XDATA, add(CFA_XSP16, literal(-5)))
          CFI (cfiCond66) ?RET_HIGH load(1, XDATA, add(CFA_XSP16, literal(-4)))
          CFI (cfiCond66) ?BRET_EXT load(1, XDATA, add(CFA_XSP16, literal(-3)))
          CFI (cfiCond66) DPL0 load(1, XDATA, add(CFA_XSP16, literal(-2)))
          CFI (cfiCond66) DPH0 load(1, XDATA, add(CFA_XSP16, literal(-1)))
          CFI (cfiCond66) CFA_SP SP+-2
          CFI (cfiCond66) CFA_XSP16 add(XSP16, 10)
          CFI Block cfiCond67 Using cfiCommon0
          CFI (cfiCond67) Function ZDP_PowerDescMsg
          CFI (cfiCond67) Conditional ??CrossCallReturnLabel_54
          CFI (cfiCond67) R6 load(1, XDATA, add(CFA_XSP16, literal(-10)))
          CFI (cfiCond67) VB load(1, XDATA, add(CFA_XSP16, literal(-9)))
          CFI (cfiCond67) V0 load(1, XDATA, add(CFA_XSP16, literal(-8)))
          CFI (cfiCond67) V1 load(1, XDATA, add(CFA_XSP16, literal(-7)))
          CFI (cfiCond67) R7 load(1, XDATA, add(CFA_XSP16, literal(-6)))
          CFI (cfiCond67) ?RET_LOW load(1, XDATA, add(CFA_XSP16, literal(-5)))
          CFI (cfiCond67) ?RET_HIGH load(1, XDATA, add(CFA_XSP16, literal(-4)))
          CFI (cfiCond67) ?BRET_EXT load(1, XDATA, add(CFA_XSP16, literal(-3)))
          CFI (cfiCond67) DPL0 load(1, XDATA, add(CFA_XSP16, literal(-2)))
          CFI (cfiCond67) DPH0 load(1, XDATA, add(CFA_XSP16, literal(-1)))
          CFI (cfiCond67) CFA_SP SP+-2
          CFI (cfiCond67) CFA_XSP16 add(XSP16, 10)
          CFI Block cfiPicker68 Using cfiCommon1
          CFI (cfiPicker68) NoFunction
          CFI (cfiPicker68) Picker
        LCALL     ??Subroutine119_0 & 0xFFFF
??CrossCallReturnLabel_244:
        MOV       R1,A
        MOV       DPL,R0
        MOV       DPH,R1
        MOVX      A,@DPTR
        RET
          CFI EndBlock cfiCond65
          CFI EndBlock cfiCond66
          CFI EndBlock cfiCond67
          CFI EndBlock cfiPicker68

        RSEG BANKED_CODE:HUGECODE:NOROOT(0)
?Subroutine26:
          CFI Block cfiCond69 Using cfiCommon0
          CFI Function ZDP_NodeDescMsg
          CFI Conditional ??CrossCallReturnLabel_146
          CFI R6 load(1, XDATA, add(CFA_XSP16, literal(-10)))
          CFI VB load(1, XDATA, add(CFA_XSP16, literal(-9)))
          CFI V0 load(1, XDATA, add(CFA_XSP16, literal(-8)))
          CFI V1 load(1, XDATA, add(CFA_XSP16, literal(-7)))
          CFI R7 load(1, XDATA, add(CFA_XSP16, literal(-6)))
          CFI ?RET_LOW load(1, XDATA, add(CFA_XSP16, literal(-5)))
          CFI ?RET_HIGH load(1, XDATA, add(CFA_XSP16, literal(-4)))
          CFI ?BRET_EXT load(1, XDATA, add(CFA_XSP16, literal(-3)))
          CFI DPL0 load(1, XDATA, add(CFA_XSP16, literal(-2)))
          CFI DPH0 load(1, XDATA, add(CFA_XSP16, literal(-1)))
          CFI CFA_SP SP+-2
          CFI CFA_XSP16 add(XSP16, 10)
          CFI Block cfiCond70 Using cfiCommon0
          CFI (cfiCond70) Function ZDP_NodeDescMsg
          CFI (cfiCond70) Conditional ??CrossCallReturnLabel_147
          CFI (cfiCond70) R6 load(1, XDATA, add(CFA_XSP16, literal(-10)))
          CFI (cfiCond70) VB load(1, XDATA, add(CFA_XSP16, literal(-9)))
          CFI (cfiCond70) V0 load(1, XDATA, add(CFA_XSP16, literal(-8)))
          CFI (cfiCond70) V1 load(1, XDATA, add(CFA_XSP16, literal(-7)))
          CFI (cfiCond70) R7 load(1, XDATA, add(CFA_XSP16, literal(-6)))
          CFI (cfiCond70) ?RET_LOW load(1, XDATA, add(CFA_XSP16, literal(-5)))
          CFI (cfiCond70) ?RET_HIGH load(1, XDATA, add(CFA_XSP16, literal(-4)))
          CFI (cfiCond70) ?BRET_EXT load(1, XDATA, add(CFA_XSP16, literal(-3)))
          CFI (cfiCond70) DPL0 load(1, XDATA, add(CFA_XSP16, literal(-2)))
          CFI (cfiCond70) DPH0 load(1, XDATA, add(CFA_XSP16, literal(-1)))
          CFI (cfiCond70) CFA_SP SP+-2
          CFI (cfiCond70) CFA_XSP16 add(XSP16, 10)
          CFI Block cfiPicker71 Using cfiCommon1
          CFI (cfiPicker71) NoFunction
          CFI (cfiPicker71) Picker
        INC       DPTR
        INC       DPTR
        INC       DPTR
        INC       DPTR
        INC       DPTR
          CFI EndBlock cfiCond69
          CFI EndBlock cfiCond70
          CFI EndBlock cfiPicker71
        REQUIRE ??Subroutine98_0
        ; // Fall through to label ??Subroutine98_0

        RSEG BANKED_CODE:HUGECODE:NOROOT(0)
??Subroutine98_0:
          CFI Block cfiCond72 Using cfiCommon0
          CFI Function ZDO_RegisterForZDOMsg
          CFI Conditional ??CrossCallReturnLabel_148
          CFI R6 load(1, XDATA, add(CFA_XSP16, literal(-14)))
          CFI VB load(1, XDATA, add(CFA_XSP16, literal(-13)))
          CFI V0 load(1, XDATA, add(CFA_XSP16, literal(-12)))
          CFI V1 load(1, XDATA, add(CFA_XSP16, literal(-11)))
          CFI V2 load(1, XDATA, add(CFA_XSP16, literal(-10)))
          CFI V3 load(1, XDATA, add(CFA_XSP16, literal(-9)))
          CFI V4 load(1, XDATA, add(CFA_XSP16, literal(-8)))
          CFI V5 load(1, XDATA, add(CFA_XSP16, literal(-7)))
          CFI R7 load(1, XDATA, add(CFA_XSP16, literal(-6)))
          CFI ?RET_LOW load(1, XDATA, add(CFA_XSP16, literal(-5)))
          CFI ?RET_HIGH load(1, XDATA, add(CFA_XSP16, literal(-4)))
          CFI ?BRET_EXT load(1, XDATA, add(CFA_XSP16, literal(-3)))
          CFI DPL0 load(1, XDATA, add(CFA_XSP16, literal(-2)))
          CFI DPH0 load(1, XDATA, add(CFA_XSP16, literal(-1)))
          CFI CFA_SP SP+-2
          CFI CFA_XSP16 add(XSP16, 14)
          CFI Block cfiCond73 Using cfiCommon0
          CFI (cfiCond73) Function ZDP_NodeDescMsg
          CFI (cfiCond73) Conditional ??CrossCallReturnLabel_146
          CFI (cfiCond73) R6 load(1, XDATA, add(CFA_XSP16, literal(-10)))
          CFI (cfiCond73) VB load(1, XDATA, add(CFA_XSP16, literal(-9)))
          CFI (cfiCond73) V0 load(1, XDATA, add(CFA_XSP16, literal(-8)))
          CFI (cfiCond73) V1 load(1, XDATA, add(CFA_XSP16, literal(-7)))
          CFI (cfiCond73) R7 load(1, XDATA, add(CFA_XSP16, literal(-6)))
          CFI (cfiCond73) ?RET_LOW load(1, XDATA, add(CFA_XSP16, literal(-5)))
          CFI (cfiCond73) ?RET_HIGH load(1, XDATA, add(CFA_XSP16, literal(-4)))
          CFI (cfiCond73) ?BRET_EXT load(1, XDATA, add(CFA_XSP16, literal(-3)))
          CFI (cfiCond73) DPL0 load(1, XDATA, add(CFA_XSP16, literal(-2)))
          CFI (cfiCond73) DPH0 load(1, XDATA, add(CFA_XSP16, literal(-1)))
          CFI (cfiCond73) CFA_SP SP+-2
          CFI (cfiCond73) CFA_XSP16 add(XSP16, 10)
          CFI Block cfiCond74 Using cfiCommon0
          CFI (cfiCond74) Function ZDP_NodeDescMsg
          CFI (cfiCond74) Conditional ??CrossCallReturnLabel_147
          CFI (cfiCond74) R6 load(1, XDATA, add(CFA_XSP16, literal(-10)))
          CFI (cfiCond74) VB load(1, XDATA, add(CFA_XSP16, literal(-9)))
          CFI (cfiCond74) V0 load(1, XDATA, add(CFA_XSP16, literal(-8)))
          CFI (cfiCond74) V1 load(1, XDATA, add(CFA_XSP16, literal(-7)))
          CFI (cfiCond74) R7 load(1, XDATA, add(CFA_XSP16, literal(-6)))
          CFI (cfiCond74) ?RET_LOW load(1, XDATA, add(CFA_XSP16, literal(-5)))
          CFI (cfiCond74) ?RET_HIGH load(1, XDATA, add(CFA_XSP16, literal(-4)))
          CFI (cfiCond74) ?BRET_EXT load(1, XDATA, add(CFA_XSP16, literal(-3)))
          CFI (cfiCond74) DPL0 load(1, XDATA, add(CFA_XSP16, literal(-2)))
          CFI (cfiCond74) DPH0 load(1, XDATA, add(CFA_XSP16, literal(-1)))
          CFI (cfiCond74) CFA_SP SP+-2
          CFI (cfiCond74) CFA_XSP16 add(XSP16, 10)
          CFI Block cfiPicker75 Using cfiCommon1
          CFI (cfiPicker75) NoFunction
          CFI (cfiPicker75) Picker
        LCALL     ?Subroutine82 & 0xFFFF
??CrossCallReturnLabel_220:
        INC       DPTR
        INC       DPTR
        RET
          CFI EndBlock cfiCond72
          CFI EndBlock cfiCond73
          CFI EndBlock cfiCond74
          CFI EndBlock cfiPicker75

        RSEG BANKED_CODE:HUGECODE:NOROOT(0)
?Subroutine25:
          CFI Block cfiCond76 Using cfiCommon0
          CFI Function ZDP_NodeDescMsg
          CFI Conditional ??CrossCallReturnLabel_31
          CFI R6 load(1, XDATA, add(CFA_XSP16, literal(-10)))
          CFI VB load(1, XDATA, add(CFA_XSP16, literal(-9)))
          CFI V0 load(1, XDATA, add(CFA_XSP16, literal(-8)))
          CFI V1 load(1, XDATA, add(CFA_XSP16, literal(-7)))
          CFI R7 load(1, XDATA, add(CFA_XSP16, literal(-6)))
          CFI ?RET_LOW load(1, XDATA, add(CFA_XSP16, literal(-5)))
          CFI ?RET_HIGH load(1, XDATA, add(CFA_XSP16, literal(-4)))
          CFI ?BRET_EXT load(1, XDATA, add(CFA_XSP16, literal(-3)))
          CFI DPL0 load(1, XDATA, add(CFA_XSP16, literal(-2)))
          CFI DPH0 load(1, XDATA, add(CFA_XSP16, literal(-1)))
          CFI CFA_SP SP+-2
          CFI CFA_XSP16 add(XSP16, 10)
          CFI Block cfiCond77 Using cfiCommon0
          CFI (cfiCond77) Function ZDP_NodeDescMsg
          CFI (cfiCond77) Conditional ??CrossCallReturnLabel_32
          CFI (cfiCond77) R6 load(1, XDATA, add(CFA_XSP16, literal(-10)))
          CFI (cfiCond77) VB load(1, XDATA, add(CFA_XSP16, literal(-9)))
          CFI (cfiCond77) V0 load(1, XDATA, add(CFA_XSP16, literal(-8)))
          CFI (cfiCond77) V1 load(1, XDATA, add(CFA_XSP16, literal(-7)))
          CFI (cfiCond77) R7 load(1, XDATA, add(CFA_XSP16, literal(-6)))
          CFI (cfiCond77) ?RET_LOW load(1, XDATA, add(CFA_XSP16, literal(-5)))
          CFI (cfiCond77) ?RET_HIGH load(1, XDATA, add(CFA_XSP16, literal(-4)))
          CFI (cfiCond77) ?BRET_EXT load(1, XDATA, add(CFA_XSP16, literal(-3)))
          CFI (cfiCond77) DPL0 load(1, XDATA, add(CFA_XSP16, literal(-2)))
          CFI (cfiCond77) DPH0 load(1, XDATA, add(CFA_XSP16, literal(-1)))
          CFI (cfiCond77) CFA_SP SP+-2
          CFI (cfiCond77) CFA_XSP16 add(XSP16, 10)
          CFI Block cfiPicker78 Using cfiCommon1
          CFI (cfiPicker78) NoFunction
          CFI (cfiPicker78) Picker
        INC       DPTR
        INC       DPTR
        INC       DPTR
        INC       DPTR
        INC       DPTR
        INC       DPTR
        INC       DPTR
        LCALL     ?Subroutine81 & 0xFFFF
??CrossCallReturnLabel_125:
        RET
          CFI EndBlock cfiCond76
          CFI EndBlock cfiCond77
          CFI EndBlock cfiPicker78

        RSEG BANKED_CODE:HUGECODE:NOROOT(0)
?Subroutine81:
          CFI Block cfiCond79 Using cfiCommon0
          CFI Function ZDP_NodeDescMsg
          CFI Conditional ??CrossCallReturnLabel_125, ??CrossCallReturnLabel_31
          CFI R6 load(1, XDATA, add(CFA_XSP16, literal(-10)))
          CFI VB load(1, XDATA, add(CFA_XSP16, literal(-9)))
          CFI V0 load(1, XDATA, add(CFA_XSP16, literal(-8)))
          CFI V1 load(1, XDATA, add(CFA_XSP16, literal(-7)))
          CFI R7 load(1, XDATA, add(CFA_XSP16, literal(-6)))
          CFI ?RET_LOW load(1, XDATA, add(CFA_XSP16, literal(-5)))
          CFI ?RET_HIGH load(1, XDATA, add(CFA_XSP16, literal(-4)))
          CFI ?BRET_EXT load(1, XDATA, add(CFA_XSP16, literal(-3)))
          CFI DPL0 load(1, XDATA, add(CFA_XSP16, literal(-2)))
          CFI DPH0 load(1, XDATA, add(CFA_XSP16, literal(-1)))
          CFI CFA_SP SP+-4
          CFI CFA_XSP16 add(XSP16, 10)
          CFI Block cfiCond80 Using cfiCommon0
          CFI (cfiCond80) Function ZDP_NodeDescMsg
          CFI (cfiCond80) Conditional ??CrossCallReturnLabel_125, ??CrossCallReturnLabel_32
          CFI (cfiCond80) R6 load(1, XDATA, add(CFA_XSP16, literal(-10)))
          CFI (cfiCond80) VB load(1, XDATA, add(CFA_XSP16, literal(-9)))
          CFI (cfiCond80) V0 load(1, XDATA, add(CFA_XSP16, literal(-8)))
          CFI (cfiCond80) V1 load(1, XDATA, add(CFA_XSP16, literal(-7)))
          CFI (cfiCond80) R7 load(1, XDATA, add(CFA_XSP16, literal(-6)))
          CFI (cfiCond80) ?RET_LOW load(1, XDATA, add(CFA_XSP16, literal(-5)))
          CFI (cfiCond80) ?RET_HIGH load(1, XDATA, add(CFA_XSP16, literal(-4)))
          CFI (cfiCond80) ?BRET_EXT load(1, XDATA, add(CFA_XSP16, literal(-3)))
          CFI (cfiCond80) DPL0 load(1, XDATA, add(CFA_XSP16, literal(-2)))
          CFI (cfiCond80) DPH0 load(1, XDATA, add(CFA_XSP16, literal(-1)))
          CFI (cfiCond80) CFA_SP SP+-4
          CFI (cfiCond80) CFA_XSP16 add(XSP16, 10)
          CFI Block cfiCond81 Using cfiCommon0
          CFI (cfiCond81) Function ZDP_NodeDescMsg
          CFI (cfiCond81) Conditional ??CrossCallReturnLabel_126, ??CrossCallReturnLabel_26
          CFI (cfiCond81) R6 load(1, XDATA, add(CFA_XSP16, literal(-10)))
          CFI (cfiCond81) VB load(1, XDATA, add(CFA_XSP16, literal(-9)))
          CFI (cfiCond81) V0 load(1, XDATA, add(CFA_XSP16, literal(-8)))
          CFI (cfiCond81) V1 load(1, XDATA, add(CFA_XSP16, literal(-7)))
          CFI (cfiCond81) R7 load(1, XDATA, add(CFA_XSP16, literal(-6)))
          CFI (cfiCond81) ?RET_LOW load(1, XDATA, add(CFA_XSP16, literal(-5)))
          CFI (cfiCond81) ?RET_HIGH load(1, XDATA, add(CFA_XSP16, literal(-4)))
          CFI (cfiCond81) ?BRET_EXT load(1, XDATA, add(CFA_XSP16, literal(-3)))
          CFI (cfiCond81) DPL0 load(1, XDATA, add(CFA_XSP16, literal(-2)))
          CFI (cfiCond81) DPH0 load(1, XDATA, add(CFA_XSP16, literal(-1)))
          CFI (cfiCond81) CFA_SP SP+-4
          CFI (cfiCond81) CFA_XSP16 add(XSP16, 10)
          CFI Block cfiCond82 Using cfiCommon0
          CFI (cfiCond82) Function ZDP_NodeDescMsg
          CFI (cfiCond82) Conditional ??CrossCallReturnLabel_126, ??CrossCallReturnLabel_27
          CFI (cfiCond82) R6 load(1, XDATA, add(CFA_XSP16, literal(-10)))
          CFI (cfiCond82) VB load(1, XDATA, add(CFA_XSP16, literal(-9)))
          CFI (cfiCond82) V0 load(1, XDATA, add(CFA_XSP16, literal(-8)))
          CFI (cfiCond82) V1 load(1, XDATA, add(CFA_XSP16, literal(-7)))
          CFI (cfiCond82) R7 load(1, XDATA, add(CFA_XSP16, literal(-6)))
          CFI (cfiCond82) ?RET_LOW load(1, XDATA, add(CFA_XSP16, literal(-5)))
          CFI (cfiCond82) ?RET_HIGH load(1, XDATA, add(CFA_XSP16, literal(-4)))
          CFI (cfiCond82) ?BRET_EXT load(1, XDATA, add(CFA_XSP16, literal(-3)))
          CFI (cfiCond82) DPL0 load(1, XDATA, add(CFA_XSP16, literal(-2)))
          CFI (cfiCond82) DPH0 load(1, XDATA, add(CFA_XSP16, literal(-1)))
          CFI (cfiCond82) CFA_SP SP+-4
          CFI (cfiCond82) CFA_XSP16 add(XSP16, 10)
          CFI Block cfiPicker83 Using cfiCommon1
          CFI (cfiPicker83) NoFunction
          CFI (cfiPicker83) Picker
        LCALL     ?Subroutine88 & 0xFFFF
??CrossCallReturnLabel_223:
        INC       DPTR
        INC       DPTR
        INC       DPTR
        INC       DPTR
        INC       DPTR
        RET
          CFI EndBlock cfiCond79
          CFI EndBlock cfiCond80
          CFI EndBlock cfiCond81
          CFI EndBlock cfiCond82
          CFI EndBlock cfiPicker83

        RSEG BANKED_CODE:HUGECODE:NOROOT(0)
?Subroutine23:
          CFI Block cfiCond84 Using cfiCommon0
          CFI Function ZDP_NodeDescMsg
          CFI Conditional ??CrossCallReturnLabel_26
          CFI R6 load(1, XDATA, add(CFA_XSP16, literal(-10)))
          CFI VB load(1, XDATA, add(CFA_XSP16, literal(-9)))
          CFI V0 load(1, XDATA, add(CFA_XSP16, literal(-8)))
          CFI V1 load(1, XDATA, add(CFA_XSP16, literal(-7)))
          CFI R7 load(1, XDATA, add(CFA_XSP16, literal(-6)))
          CFI ?RET_LOW load(1, XDATA, add(CFA_XSP16, literal(-5)))
          CFI ?RET_HIGH load(1, XDATA, add(CFA_XSP16, literal(-4)))
          CFI ?BRET_EXT load(1, XDATA, add(CFA_XSP16, literal(-3)))
          CFI DPL0 load(1, XDATA, add(CFA_XSP16, literal(-2)))
          CFI DPH0 load(1, XDATA, add(CFA_XSP16, literal(-1)))
          CFI CFA_SP SP+-2
          CFI CFA_XSP16 add(XSP16, 10)
          CFI Block cfiCond85 Using cfiCommon0
          CFI (cfiCond85) Function ZDP_NodeDescMsg
          CFI (cfiCond85) Conditional ??CrossCallReturnLabel_27
          CFI (cfiCond85) R6 load(1, XDATA, add(CFA_XSP16, literal(-10)))
          CFI (cfiCond85) VB load(1, XDATA, add(CFA_XSP16, literal(-9)))
          CFI (cfiCond85) V0 load(1, XDATA, add(CFA_XSP16, literal(-8)))
          CFI (cfiCond85) V1 load(1, XDATA, add(CFA_XSP16, literal(-7)))
          CFI (cfiCond85) R7 load(1, XDATA, add(CFA_XSP16, literal(-6)))
          CFI (cfiCond85) ?RET_LOW load(1, XDATA, add(CFA_XSP16, literal(-5)))
          CFI (cfiCond85) ?RET_HIGH load(1, XDATA, add(CFA_XSP16, literal(-4)))
          CFI (cfiCond85) ?BRET_EXT load(1, XDATA, add(CFA_XSP16, literal(-3)))
          CFI (cfiCond85) DPL0 load(1, XDATA, add(CFA_XSP16, literal(-2)))
          CFI (cfiCond85) DPH0 load(1, XDATA, add(CFA_XSP16, literal(-1)))
          CFI (cfiCond85) CFA_SP SP+-2
          CFI (cfiCond85) CFA_XSP16 add(XSP16, 10)
          CFI Block cfiPicker86 Using cfiCommon1
          CFI (cfiPicker86) NoFunction
          CFI (cfiPicker86) Picker
        LCALL     ?Subroutine81 & 0xFFFF
??CrossCallReturnLabel_126:
        INC       DPTR
        INC       DPTR
        RET
          CFI EndBlock cfiCond84
          CFI EndBlock cfiCond85
          CFI EndBlock cfiPicker86

        RSEG BANKED_CODE:HUGECODE:NOROOT(0)
?Subroutine8:
          CFI Block cfiBlock87 Using cfiCommon0
          CFI NoFunction
          CFI CFA_SP SP+0
          CFI CFA_XSP16 add(XSP16, 12)
          CFI VB load(1, XDATA, add(CFA_XSP16, literal(-9)))
          CFI DPL0 load(1, XDATA, add(CFA_XSP16, literal(-2)))
          CFI DPH0 load(1, XDATA, add(CFA_XSP16, literal(-1)))
          CFI R6 load(1, XDATA, add(CFA_XSP16, literal(-10)))
          CFI R7 load(1, XDATA, add(CFA_XSP16, literal(-6)))
          CFI V0 load(1, XDATA, add(CFA_XSP16, literal(-8)))
          CFI V1 load(1, XDATA, add(CFA_XSP16, literal(-7)))
          CFI ?BRET_EXT load(1, XDATA, add(CFA_XSP16, literal(-3)))
          CFI ?RET_HIGH load(1, XDATA, add(CFA_XSP16, literal(-4)))
          CFI ?RET_LOW load(1, XDATA, add(CFA_XSP16, literal(-5)))
        MOV       A,R2
        MOV       R4,A
        MOV       A,R3
        MOV       R5,A
        MOV       R2,#ZDP_TransID & 0xff
        MOV       R3,#(ZDP_TransID >> 8) & 0xff
          CFI EndBlock cfiBlock87
        REQUIRE ??Subroutine99_0
        ; // Fall through to label ??Subroutine99_0

        RSEG BANKED_CODE:HUGECODE:NOROOT(0)
??Subroutine99_0:
          CFI Block cfiBlock88 Using cfiCommon0
          CFI NoFunction
          CFI CFA_SP SP+0
          CFI CFA_XSP16 add(XSP16, 12)
          CFI VB load(1, XDATA, add(CFA_XSP16, literal(-9)))
          CFI DPL0 load(1, XDATA, add(CFA_XSP16, literal(-2)))
          CFI DPH0 load(1, XDATA, add(CFA_XSP16, literal(-1)))
          CFI R6 load(1, XDATA, add(CFA_XSP16, literal(-10)))
          CFI R7 load(1, XDATA, add(CFA_XSP16, literal(-6)))
          CFI V0 load(1, XDATA, add(CFA_XSP16, literal(-8)))
          CFI V1 load(1, XDATA, add(CFA_XSP16, literal(-7)))
          CFI ?BRET_EXT load(1, XDATA, add(CFA_XSP16, literal(-3)))
          CFI ?RET_HIGH load(1, XDATA, add(CFA_XSP16, literal(-4)))
          CFI ?RET_LOW load(1, XDATA, add(CFA_XSP16, literal(-5)))
        LCALL     `??fillAndSend::?relay`; Banked call to: fillAndSend
        MOV       A,#0x2
        LJMP      ??Subroutine95_0 & 0xFFFF
          CFI EndBlock cfiBlock88
//  843 
//  844 /*********************************************************************
//  845  * @fn          ZDP_PowerDescMsg
//  846  *
//  847  * @brief       Builds and sends a Power Descriptor message, unicast to the
//  848  *              specified device.
//  849  *
//  850  * @param       inMsg - incoming message (request)
//  851  * @param       nwkAddr - 16 bit network address for device
//  852  * @param       pPowerDesc - pointer to the node descriptor
//  853  *
//  854  * @return      afStatus_t
//  855  */

        RSEG BANKED_CODE:HUGECODE:NOROOT(0)
//  856 afStatus_t ZDP_PowerDescMsg( zdoIncomingMsg_t *inMsg,
ZDP_PowerDescMsg:
          CFI Block cfiBlock89 Using cfiCommon0
          CFI Function ZDP_PowerDescMsg
        CODE
//  857                      uint16 nwkAddr, NodePowerDescriptorFormat_t *pPowerDesc )
//  858 {
        FUNCALL ZDP_PowerDescMsg, fillAndSend
        LOCFRAME ISTACK, 0, STACK
        LOCFRAME PSTACK, 0, STACK
        LOCFRAME XSTACK, 12, STACK
        LOCFRAME IOVERLAY, 0, STATIC
        LOCFRAME DOVERLAY, 0, STATIC
        ARGFRAME ISTACK, 0, STACK
        ARGFRAME PSTACK, 0, STACK
        ARGFRAME XSTACK, 12, STACK
        ARGFRAME IOVERLAY, 0, STATIC
        ARGFRAME DOVERLAY, 0, STATIC
        REQUIRE ?V0
        REQUIRE ?V1
        MOV       A,#-0xa
        LCALL     ?BANKED_ENTER_XDATA
          CFI DPH0 load(1, XDATA, add(CFA_XSP16, literal(-1)))
          CFI DPL0 load(1, XDATA, add(CFA_XSP16, literal(-2)))
          CFI ?BRET_EXT load(1, XDATA, add(CFA_XSP16, literal(-3)))
          CFI ?RET_HIGH load(1, XDATA, add(CFA_XSP16, literal(-4)))
          CFI ?RET_LOW load(1, XDATA, add(CFA_XSP16, literal(-5)))
          CFI R7 load(1, XDATA, add(CFA_XSP16, literal(-6)))
          CFI V1 load(1, XDATA, add(CFA_XSP16, literal(-7)))
          CFI V0 load(1, XDATA, add(CFA_XSP16, literal(-8)))
          CFI VB load(1, XDATA, add(CFA_XSP16, literal(-9)))
          CFI R6 load(1, XDATA, add(CFA_XSP16, literal(-10)))
          CFI CFA_SP SP+0
          CFI CFA_XSP16 add(XSP16, 10)
        ; Saved register size: 10
        ; Auto size: 0
//  859   uint8 *pBuf = ZDP_TmpBuf;
        LCALL     ?Subroutine55 & 0xFFFF
??CrossCallReturnLabel_151:
        MOV       R6,A
        MOV       A,R1
        LCALL     ?Subroutine19 & 0xFFFF
//  860   byte len = 1 + 2 + 2;  // Status + nwkAddr + Node Power descriptor.
//  861 
//  862   *pBuf++ = ZDP_SUCCESS;
//  863 
//  864   *pBuf++ = LO_UINT16( nwkAddr );
//  865   *pBuf++ = HI_UINT16( nwkAddr );
??CrossCallReturnLabel_21:
        LCALL     ?XSTACK_DISP0_8
        LCALL     ?Subroutine40 & 0xFFFF
//  866 
//  867   *pBuf++ = (byte)((pPowerDesc->AvailablePowerSources << 4)
//  868                     | (pPowerDesc->PowerMode & 0x0F));
??CrossCallReturnLabel_54:
        MOV       DPL,R6
        MOV       DPH,R7
        INC       DPTR
        LCALL     ?Subroutine32 & 0xFFFF
//  869   *pBuf++ = (byte)((pPowerDesc->CurrentPowerSourceLevel << 4)
//  870                     | (pPowerDesc->CurrentPowerSource & 0x0F));
??CrossCallReturnLabel_156:
        MOV       ?V0,A
        INC       DPTR
        MOVX      A,@DPTR
        MOV       ?V1,A
        ANL       A,#0xf
        MOV       R1,A
        MOV       A,#0xc
        MOV       R0,#?V0
        LCALL     ?US_SHR
        MOV       A,?V0
        SWAP      A
        ORL       A,R1
        MOV       DPL,R6
        MOV       DPH,R7
        INC       DPTR
        INC       DPTR
        INC       DPTR
        INC       DPTR
        MOVX      @DPTR,A
//  871 
//  872   return fillAndSend( &(inMsg->TransSeq), &(inMsg->srcAddr), Power_Desc_rsp, len );
        ; Setup parameters for call to function fillAndSend
        MOV       ?V0,#0x3
        MOV       ?V1,#-0x80
        MOV       R0,#?V0
        LCALL     ?PUSH_XSTACK_I_TWO
          CFI CFA_XSP16 add(XSP16, 12)
        MOV       R1,#0x5
        LCALL     ?Subroutine68 & 0xFFFF
??CrossCallReturnLabel_109:
        JNC       ??ZDP_PowerDescMsg_0
        INC       R3
??ZDP_PowerDescMsg_0:
        SJMP      ??Subroutine99_0
//  873 }
          CFI EndBlock cfiBlock89

        RSEG BANKED_CODE:HUGECODE:NOROOT(0)
?Subroutine68:
          CFI Block cfiCond90 Using cfiCommon0
          CFI Function ZDP_NodeDescMsg
          CFI Conditional ??CrossCallReturnLabel_108
          CFI R6 load(1, XDATA, add(CFA_XSP16, literal(-10)))
          CFI VB load(1, XDATA, add(CFA_XSP16, literal(-9)))
          CFI V0 load(1, XDATA, add(CFA_XSP16, literal(-8)))
          CFI V1 load(1, XDATA, add(CFA_XSP16, literal(-7)))
          CFI R7 load(1, XDATA, add(CFA_XSP16, literal(-6)))
          CFI ?RET_LOW load(1, XDATA, add(CFA_XSP16, literal(-5)))
          CFI ?RET_HIGH load(1, XDATA, add(CFA_XSP16, literal(-4)))
          CFI ?BRET_EXT load(1, XDATA, add(CFA_XSP16, literal(-3)))
          CFI DPL0 load(1, XDATA, add(CFA_XSP16, literal(-2)))
          CFI DPH0 load(1, XDATA, add(CFA_XSP16, literal(-1)))
          CFI CFA_SP SP+-2
          CFI CFA_XSP16 add(XSP16, 12)
          CFI Block cfiCond91 Using cfiCommon0
          CFI (cfiCond91) Function ZDP_PowerDescMsg
          CFI (cfiCond91) Conditional ??CrossCallReturnLabel_109
          CFI (cfiCond91) R6 load(1, XDATA, add(CFA_XSP16, literal(-10)))
          CFI (cfiCond91) VB load(1, XDATA, add(CFA_XSP16, literal(-9)))
          CFI (cfiCond91) V0 load(1, XDATA, add(CFA_XSP16, literal(-8)))
          CFI (cfiCond91) V1 load(1, XDATA, add(CFA_XSP16, literal(-7)))
          CFI (cfiCond91) R7 load(1, XDATA, add(CFA_XSP16, literal(-6)))
          CFI (cfiCond91) ?RET_LOW load(1, XDATA, add(CFA_XSP16, literal(-5)))
          CFI (cfiCond91) ?RET_HIGH load(1, XDATA, add(CFA_XSP16, literal(-4)))
          CFI (cfiCond91) ?BRET_EXT load(1, XDATA, add(CFA_XSP16, literal(-3)))
          CFI (cfiCond91) DPL0 load(1, XDATA, add(CFA_XSP16, literal(-2)))
          CFI (cfiCond91) DPH0 load(1, XDATA, add(CFA_XSP16, literal(-1)))
          CFI (cfiCond91) CFA_SP SP+-2
          CFI (cfiCond91) CFA_XSP16 add(XSP16, 12)
          CFI Block cfiPicker92 Using cfiCommon1
          CFI (cfiPicker92) NoFunction
          CFI (cfiPicker92) Picker
        MOV       A,R2
        ADD       A,#0x2
        MOV       R4,A
        CLR       A
        ADDC      A,R3
        MOV       R5,A
        MOV       A,R2
        ADD       A,#0xf
        MOV       R2,A
        RET
          CFI EndBlock cfiCond90
          CFI EndBlock cfiCond91
          CFI EndBlock cfiPicker92

        RSEG BANKED_CODE:HUGECODE:NOROOT(0)
?Subroutine55:
          CFI Block cfiCond93 Using cfiCommon0
          CFI Function ZDP_PowerDescMsg
          CFI Conditional ??CrossCallReturnLabel_151
          CFI R6 load(1, XDATA, add(CFA_XSP16, literal(-10)))
          CFI VB load(1, XDATA, add(CFA_XSP16, literal(-9)))
          CFI V0 load(1, XDATA, add(CFA_XSP16, literal(-8)))
          CFI V1 load(1, XDATA, add(CFA_XSP16, literal(-7)))
          CFI R7 load(1, XDATA, add(CFA_XSP16, literal(-6)))
          CFI ?RET_LOW load(1, XDATA, add(CFA_XSP16, literal(-5)))
          CFI ?RET_HIGH load(1, XDATA, add(CFA_XSP16, literal(-4)))
          CFI ?BRET_EXT load(1, XDATA, add(CFA_XSP16, literal(-3)))
          CFI DPL0 load(1, XDATA, add(CFA_XSP16, literal(-2)))
          CFI DPH0 load(1, XDATA, add(CFA_XSP16, literal(-1)))
          CFI CFA_SP SP+-2
          CFI CFA_XSP16 add(XSP16, 10)
          CFI Block cfiCond94 Using cfiCommon0
          CFI (cfiCond94) Function ZDP_ServerDiscRsp
          CFI (cfiCond94) Conditional ??CrossCallReturnLabel_152
          CFI (cfiCond94) R6 load(1, XDATA, add(CFA_XSP16, literal(-10)))
          CFI (cfiCond94) VB load(1, XDATA, add(CFA_XSP16, literal(-9)))
          CFI (cfiCond94) V0 load(1, XDATA, add(CFA_XSP16, literal(-8)))
          CFI (cfiCond94) V1 load(1, XDATA, add(CFA_XSP16, literal(-7)))
          CFI (cfiCond94) R7 load(1, XDATA, add(CFA_XSP16, literal(-6)))
          CFI (cfiCond94) ?RET_LOW load(1, XDATA, add(CFA_XSP16, literal(-5)))
          CFI (cfiCond94) ?RET_HIGH load(1, XDATA, add(CFA_XSP16, literal(-4)))
          CFI (cfiCond94) ?BRET_EXT load(1, XDATA, add(CFA_XSP16, literal(-3)))
          CFI (cfiCond94) DPL0 load(1, XDATA, add(CFA_XSP16, literal(-2)))
          CFI (cfiCond94) DPH0 load(1, XDATA, add(CFA_XSP16, literal(-1)))
          CFI (cfiCond94) CFA_SP SP+-2
          CFI (cfiCond94) CFA_XSP16 add(XSP16, 11)
          CFI Block cfiPicker95 Using cfiCommon1
          CFI (cfiPicker95) NoFunction
          CFI (cfiPicker95) Picker
        MOV       DPTR,#ZDP_TmpBuf
          CFI EndBlock cfiCond93
          CFI EndBlock cfiCond94
          CFI EndBlock cfiPicker95
        REQUIRE ??Subroutine100_0
        ; // Fall through to label ??Subroutine100_0

        RSEG BANKED_CODE:HUGECODE:NOROOT(0)
??Subroutine100_0:
          CFI Block cfiCond96 Using cfiCommon0
          CFI Function zdpProcessAddrReq
          CFI Conditional ??CrossCallReturnLabel_150
          CFI R6 load(1, XDATA, add(CFA_XSP16, literal(-15)))
          CFI VB load(1, XDATA, add(CFA_XSP16, literal(-14)))
          CFI V0 load(1, XDATA, add(CFA_XSP16, literal(-13)))
          CFI V1 load(1, XDATA, add(CFA_XSP16, literal(-12)))
          CFI V2 load(1, XDATA, add(CFA_XSP16, literal(-11)))
          CFI V3 load(1, XDATA, add(CFA_XSP16, literal(-10)))
          CFI V4 load(1, XDATA, add(CFA_XSP16, literal(-9)))
          CFI V5 load(1, XDATA, add(CFA_XSP16, literal(-8)))
          CFI V6 load(1, XDATA, add(CFA_XSP16, literal(-7)))
          CFI R7 load(1, XDATA, add(CFA_XSP16, literal(-6)))
          CFI ?RET_LOW load(1, XDATA, add(CFA_XSP16, literal(-5)))
          CFI ?RET_HIGH load(1, XDATA, add(CFA_XSP16, literal(-4)))
          CFI ?BRET_EXT load(1, XDATA, add(CFA_XSP16, literal(-3)))
          CFI DPL0 load(1, XDATA, add(CFA_XSP16, literal(-2)))
          CFI DPH0 load(1, XDATA, add(CFA_XSP16, literal(-1)))
          CFI CFA_SP SP+-2
          CFI CFA_XSP16 add(XSP16, 15)
          CFI Block cfiCond97 Using cfiCommon0
          CFI (cfiCond97) Function ZDO_RemoveRegisteredCB
          CFI (cfiCond97) Conditional ??CrossCallReturnLabel_149
          CFI (cfiCond97) R6 load(1, XDATA, add(CFA_XSP16, literal(-9)))
          CFI (cfiCond97) VB load(1, XDATA, add(CFA_XSP16, literal(-8)))
          CFI (cfiCond97) V0 load(1, XDATA, add(CFA_XSP16, literal(-7)))
          CFI (cfiCond97) R7 load(1, XDATA, add(CFA_XSP16, literal(-6)))
          CFI (cfiCond97) ?RET_LOW load(1, XDATA, add(CFA_XSP16, literal(-5)))
          CFI (cfiCond97) ?RET_HIGH load(1, XDATA, add(CFA_XSP16, literal(-4)))
          CFI (cfiCond97) ?BRET_EXT load(1, XDATA, add(CFA_XSP16, literal(-3)))
          CFI (cfiCond97) DPL0 load(1, XDATA, add(CFA_XSP16, literal(-2)))
          CFI (cfiCond97) DPH0 load(1, XDATA, add(CFA_XSP16, literal(-1)))
          CFI (cfiCond97) CFA_SP SP+-2
          CFI (cfiCond97) CFA_XSP16 add(XSP16, 9)
          CFI Block cfiCond98 Using cfiCommon0
          CFI (cfiCond98) Function ZDP_PowerDescMsg
          CFI (cfiCond98) Conditional ??CrossCallReturnLabel_151
          CFI (cfiCond98) R6 load(1, XDATA, add(CFA_XSP16, literal(-10)))
          CFI (cfiCond98) VB load(1, XDATA, add(CFA_XSP16, literal(-9)))
          CFI (cfiCond98) V0 load(1, XDATA, add(CFA_XSP16, literal(-8)))
          CFI (cfiCond98) V1 load(1, XDATA, add(CFA_XSP16, literal(-7)))
          CFI (cfiCond98) R7 load(1, XDATA, add(CFA_XSP16, literal(-6)))
          CFI (cfiCond98) ?RET_LOW load(1, XDATA, add(CFA_XSP16, literal(-5)))
          CFI (cfiCond98) ?RET_HIGH load(1, XDATA, add(CFA_XSP16, literal(-4)))
          CFI (cfiCond98) ?BRET_EXT load(1, XDATA, add(CFA_XSP16, literal(-3)))
          CFI (cfiCond98) DPL0 load(1, XDATA, add(CFA_XSP16, literal(-2)))
          CFI (cfiCond98) DPH0 load(1, XDATA, add(CFA_XSP16, literal(-1)))
          CFI (cfiCond98) CFA_SP SP+-2
          CFI (cfiCond98) CFA_XSP16 add(XSP16, 10)
          CFI Block cfiCond99 Using cfiCommon0
          CFI (cfiCond99) Function ZDP_ServerDiscRsp
          CFI (cfiCond99) Conditional ??CrossCallReturnLabel_152
          CFI (cfiCond99) R6 load(1, XDATA, add(CFA_XSP16, literal(-10)))
          CFI (cfiCond99) VB load(1, XDATA, add(CFA_XSP16, literal(-9)))
          CFI (cfiCond99) V0 load(1, XDATA, add(CFA_XSP16, literal(-8)))
          CFI (cfiCond99) V1 load(1, XDATA, add(CFA_XSP16, literal(-7)))
          CFI (cfiCond99) R7 load(1, XDATA, add(CFA_XSP16, literal(-6)))
          CFI (cfiCond99) ?RET_LOW load(1, XDATA, add(CFA_XSP16, literal(-5)))
          CFI (cfiCond99) ?RET_HIGH load(1, XDATA, add(CFA_XSP16, literal(-4)))
          CFI (cfiCond99) ?BRET_EXT load(1, XDATA, add(CFA_XSP16, literal(-3)))
          CFI (cfiCond99) DPL0 load(1, XDATA, add(CFA_XSP16, literal(-2)))
          CFI (cfiCond99) DPH0 load(1, XDATA, add(CFA_XSP16, literal(-1)))
          CFI (cfiCond99) CFA_SP SP+-2
          CFI (cfiCond99) CFA_XSP16 add(XSP16, 11)
          CFI Block cfiPicker100 Using cfiCommon1
          CFI (cfiPicker100) NoFunction
          CFI (cfiPicker100) Picker
        LCALL     ?Subroutine75 & 0xFFFF
??CrossCallReturnLabel_153:
        RET
          CFI EndBlock cfiCond96
          CFI EndBlock cfiCond97
          CFI EndBlock cfiCond98
          CFI EndBlock cfiCond99
          CFI EndBlock cfiPicker100

        RSEG BANKED_CODE:HUGECODE:NOROOT(0)
?Subroutine75:
          CFI Block cfiCond101 Using cfiCommon0
          CFI Function ZDP_PowerDescMsg
          CFI Conditional ??CrossCallReturnLabel_153, ??CrossCallReturnLabel_151
          CFI R6 load(1, XDATA, add(CFA_XSP16, literal(-10)))
          CFI VB load(1, XDATA, add(CFA_XSP16, literal(-9)))
          CFI V0 load(1, XDATA, add(CFA_XSP16, literal(-8)))
          CFI V1 load(1, XDATA, add(CFA_XSP16, literal(-7)))
          CFI R7 load(1, XDATA, add(CFA_XSP16, literal(-6)))
          CFI ?RET_LOW load(1, XDATA, add(CFA_XSP16, literal(-5)))
          CFI ?RET_HIGH load(1, XDATA, add(CFA_XSP16, literal(-4)))
          CFI ?BRET_EXT load(1, XDATA, add(CFA_XSP16, literal(-3)))
          CFI DPL0 load(1, XDATA, add(CFA_XSP16, literal(-2)))
          CFI DPH0 load(1, XDATA, add(CFA_XSP16, literal(-1)))
          CFI CFA_SP SP+-4
          CFI CFA_XSP16 add(XSP16, 10)
          CFI Block cfiCond102 Using cfiCommon0
          CFI (cfiCond102) Function ZDP_ServerDiscRsp
          CFI (cfiCond102) Conditional ??CrossCallReturnLabel_153, ??CrossCallReturnLabel_152
          CFI (cfiCond102) R6 load(1, XDATA, add(CFA_XSP16, literal(-10)))
          CFI (cfiCond102) VB load(1, XDATA, add(CFA_XSP16, literal(-9)))
          CFI (cfiCond102) V0 load(1, XDATA, add(CFA_XSP16, literal(-8)))
          CFI (cfiCond102) V1 load(1, XDATA, add(CFA_XSP16, literal(-7)))
          CFI (cfiCond102) R7 load(1, XDATA, add(CFA_XSP16, literal(-6)))
          CFI (cfiCond102) ?RET_LOW load(1, XDATA, add(CFA_XSP16, literal(-5)))
          CFI (cfiCond102) ?RET_HIGH load(1, XDATA, add(CFA_XSP16, literal(-4)))
          CFI (cfiCond102) ?BRET_EXT load(1, XDATA, add(CFA_XSP16, literal(-3)))
          CFI (cfiCond102) DPL0 load(1, XDATA, add(CFA_XSP16, literal(-2)))
          CFI (cfiCond102) DPH0 load(1, XDATA, add(CFA_XSP16, literal(-1)))
          CFI (cfiCond102) CFA_SP SP+-4
          CFI (cfiCond102) CFA_XSP16 add(XSP16, 11)
          CFI Block cfiCond103 Using cfiCommon0
          CFI (cfiCond103) Function zdpProcessAddrReq
          CFI (cfiCond103) Conditional ??CrossCallReturnLabel_153, ??CrossCallReturnLabel_150
          CFI (cfiCond103) R6 load(1, XDATA, add(CFA_XSP16, literal(-15)))
          CFI (cfiCond103) VB load(1, XDATA, add(CFA_XSP16, literal(-14)))
          CFI (cfiCond103) V0 load(1, XDATA, add(CFA_XSP16, literal(-13)))
          CFI (cfiCond103) V1 load(1, XDATA, add(CFA_XSP16, literal(-12)))
          CFI (cfiCond103) V2 load(1, XDATA, add(CFA_XSP16, literal(-11)))
          CFI (cfiCond103) V3 load(1, XDATA, add(CFA_XSP16, literal(-10)))
          CFI (cfiCond103) V4 load(1, XDATA, add(CFA_XSP16, literal(-9)))
          CFI (cfiCond103) V5 load(1, XDATA, add(CFA_XSP16, literal(-8)))
          CFI (cfiCond103) V6 load(1, XDATA, add(CFA_XSP16, literal(-7)))
          CFI (cfiCond103) R7 load(1, XDATA, add(CFA_XSP16, literal(-6)))
          CFI (cfiCond103) ?RET_LOW load(1, XDATA, add(CFA_XSP16, literal(-5)))
          CFI (cfiCond103) ?RET_HIGH load(1, XDATA, add(CFA_XSP16, literal(-4)))
          CFI (cfiCond103) ?BRET_EXT load(1, XDATA, add(CFA_XSP16, literal(-3)))
          CFI (cfiCond103) DPL0 load(1, XDATA, add(CFA_XSP16, literal(-2)))
          CFI (cfiCond103) DPH0 load(1, XDATA, add(CFA_XSP16, literal(-1)))
          CFI (cfiCond103) CFA_SP SP+-4
          CFI (cfiCond103) CFA_XSP16 add(XSP16, 15)
          CFI Block cfiCond104 Using cfiCommon0
          CFI (cfiCond104) Function ZDO_RemoveRegisteredCB
          CFI (cfiCond104) Conditional ??CrossCallReturnLabel_153, ??CrossCallReturnLabel_149
          CFI (cfiCond104) R6 load(1, XDATA, add(CFA_XSP16, literal(-9)))
          CFI (cfiCond104) VB load(1, XDATA, add(CFA_XSP16, literal(-8)))
          CFI (cfiCond104) V0 load(1, XDATA, add(CFA_XSP16, literal(-7)))
          CFI (cfiCond104) R7 load(1, XDATA, add(CFA_XSP16, literal(-6)))
          CFI (cfiCond104) ?RET_LOW load(1, XDATA, add(CFA_XSP16, literal(-5)))
          CFI (cfiCond104) ?RET_HIGH load(1, XDATA, add(CFA_XSP16, literal(-4)))
          CFI (cfiCond104) ?BRET_EXT load(1, XDATA, add(CFA_XSP16, literal(-3)))
          CFI (cfiCond104) DPL0 load(1, XDATA, add(CFA_XSP16, literal(-2)))
          CFI (cfiCond104) DPH0 load(1, XDATA, add(CFA_XSP16, literal(-1)))
          CFI (cfiCond104) CFA_SP SP+-4
          CFI (cfiCond104) CFA_XSP16 add(XSP16, 9)
          CFI Block cfiCond105 Using cfiCommon0
          CFI (cfiCond105) Function ZDP_EPRsp
          CFI (cfiCond105) Conditional ??CrossCallReturnLabel_155, ??CrossCallReturnLabel_83
          CFI (cfiCond105) R6 load(1, XDATA, add(CFA_XSP16, literal(-15)))
          CFI (cfiCond105) VB load(1, XDATA, add(CFA_XSP16, literal(-14)))
          CFI (cfiCond105) V0 load(1, XDATA, add(CFA_XSP16, literal(-13)))
          CFI (cfiCond105) V1 load(1, XDATA, add(CFA_XSP16, literal(-12)))
          CFI (cfiCond105) V2 load(1, XDATA, add(CFA_XSP16, literal(-11)))
          CFI (cfiCond105) V3 load(1, XDATA, add(CFA_XSP16, literal(-10)))
          CFI (cfiCond105) V4 load(1, XDATA, add(CFA_XSP16, literal(-9)))
          CFI (cfiCond105) V5 load(1, XDATA, add(CFA_XSP16, literal(-8)))
          CFI (cfiCond105) V6 load(1, XDATA, add(CFA_XSP16, literal(-7)))
          CFI (cfiCond105) R7 load(1, XDATA, add(CFA_XSP16, literal(-6)))
          CFI (cfiCond105) ?RET_LOW load(1, XDATA, add(CFA_XSP16, literal(-5)))
          CFI (cfiCond105) ?RET_HIGH load(1, XDATA, add(CFA_XSP16, literal(-4)))
          CFI (cfiCond105) ?BRET_EXT load(1, XDATA, add(CFA_XSP16, literal(-3)))
          CFI (cfiCond105) DPL0 load(1, XDATA, add(CFA_XSP16, literal(-2)))
          CFI (cfiCond105) DPH0 load(1, XDATA, add(CFA_XSP16, literal(-1)))
          CFI (cfiCond105) CFA_SP SP+-4
          CFI (cfiCond105) CFA_XSP16 add(XSP16, 16)
          CFI Block cfiCond106 Using cfiCommon0
          CFI (cfiCond106) Function ZDP_EndDeviceBindReq
          CFI (cfiCond106) Conditional ??CrossCallReturnLabel_155, ??CrossCallReturnLabel_84
          CFI (cfiCond106) R6 load(1, XDATA, add(CFA_XSP16, literal(-18)))
          CFI (cfiCond106) VB load(1, XDATA, add(CFA_XSP16, literal(-17)))
          CFI (cfiCond106) V0 load(1, XDATA, add(CFA_XSP16, literal(-16)))
          CFI (cfiCond106) V1 load(1, XDATA, add(CFA_XSP16, literal(-15)))
          CFI (cfiCond106) V2 load(1, XDATA, add(CFA_XSP16, literal(-14)))
          CFI (cfiCond106) V3 load(1, XDATA, add(CFA_XSP16, literal(-13)))
          CFI (cfiCond106) V4 load(1, XDATA, add(CFA_XSP16, literal(-12)))
          CFI (cfiCond106) V5 load(1, XDATA, add(CFA_XSP16, literal(-11)))
          CFI (cfiCond106) V6 load(1, XDATA, add(CFA_XSP16, literal(-10)))
          CFI (cfiCond106) V7 load(1, XDATA, add(CFA_XSP16, literal(-9)))
          CFI (cfiCond106) V8 load(1, XDATA, add(CFA_XSP16, literal(-8)))
          CFI (cfiCond106) V9 load(1, XDATA, add(CFA_XSP16, literal(-7)))
          CFI (cfiCond106) R7 load(1, XDATA, add(CFA_XSP16, literal(-6)))
          CFI (cfiCond106) ?RET_LOW load(1, XDATA, add(CFA_XSP16, literal(-5)))
          CFI (cfiCond106) ?RET_HIGH load(1, XDATA, add(CFA_XSP16, literal(-4)))
          CFI (cfiCond106) ?BRET_EXT load(1, XDATA, add(CFA_XSP16, literal(-3)))
          CFI (cfiCond106) DPL0 load(1, XDATA, add(CFA_XSP16, literal(-2)))
          CFI (cfiCond106) DPH0 load(1, XDATA, add(CFA_XSP16, literal(-1)))
          CFI (cfiCond106) CFA_SP SP+-4
          CFI (cfiCond106) CFA_XSP16 add(XSP16, 18)
          CFI Block cfiCond107 Using cfiCommon0
          CFI (cfiCond107) Function ZDP_ServerDiscRsp
          CFI (cfiCond107) Conditional ??CrossCallReturnLabel_154, ??CrossCallReturnLabel_77
          CFI (cfiCond107) R6 load(1, XDATA, add(CFA_XSP16, literal(-10)))
          CFI (cfiCond107) VB load(1, XDATA, add(CFA_XSP16, literal(-9)))
          CFI (cfiCond107) V0 load(1, XDATA, add(CFA_XSP16, literal(-8)))
          CFI (cfiCond107) V1 load(1, XDATA, add(CFA_XSP16, literal(-7)))
          CFI (cfiCond107) R7 load(1, XDATA, add(CFA_XSP16, literal(-6)))
          CFI (cfiCond107) ?RET_LOW load(1, XDATA, add(CFA_XSP16, literal(-5)))
          CFI (cfiCond107) ?RET_HIGH load(1, XDATA, add(CFA_XSP16, literal(-4)))
          CFI (cfiCond107) ?BRET_EXT load(1, XDATA, add(CFA_XSP16, literal(-3)))
          CFI (cfiCond107) DPL0 load(1, XDATA, add(CFA_XSP16, literal(-2)))
          CFI (cfiCond107) DPH0 load(1, XDATA, add(CFA_XSP16, literal(-1)))
          CFI (cfiCond107) CFA_SP SP+-4
          CFI (cfiCond107) CFA_XSP16 add(XSP16, 11)
          CFI Block cfiCond108 Using cfiCommon0
          CFI (cfiCond108) Function ZDP_MgmtNwkUpdateReq
          CFI (cfiCond108) Conditional ??CrossCallReturnLabel_154, ??CrossCallReturnLabel_78
          CFI (cfiCond108) R6 load(1, XDATA, add(CFA_XSP16, literal(-14)))
          CFI (cfiCond108) VB load(1, XDATA, add(CFA_XSP16, literal(-13)))
          CFI (cfiCond108) V0 load(1, XDATA, add(CFA_XSP16, literal(-12)))
          CFI (cfiCond108) V1 load(1, XDATA, add(CFA_XSP16, literal(-11)))
          CFI (cfiCond108) V2 load(1, XDATA, add(CFA_XSP16, literal(-10)))
          CFI (cfiCond108) V3 load(1, XDATA, add(CFA_XSP16, literal(-9)))
          CFI (cfiCond108) V4 load(1, XDATA, add(CFA_XSP16, literal(-8)))
          CFI (cfiCond108) V5 load(1, XDATA, add(CFA_XSP16, literal(-7)))
          CFI (cfiCond108) R7 load(1, XDATA, add(CFA_XSP16, literal(-6)))
          CFI (cfiCond108) ?RET_LOW load(1, XDATA, add(CFA_XSP16, literal(-5)))
          CFI (cfiCond108) ?RET_HIGH load(1, XDATA, add(CFA_XSP16, literal(-4)))
          CFI (cfiCond108) ?BRET_EXT load(1, XDATA, add(CFA_XSP16, literal(-3)))
          CFI (cfiCond108) DPL0 load(1, XDATA, add(CFA_XSP16, literal(-2)))
          CFI (cfiCond108) DPH0 load(1, XDATA, add(CFA_XSP16, literal(-1)))
          CFI (cfiCond108) CFA_SP SP+-4
          CFI (cfiCond108) CFA_XSP16 add(XSP16, 14)
          CFI Block cfiPicker109 Using cfiCommon1
          CFI (cfiPicker109) NoFunction
          CFI (cfiPicker109) Picker
        MOVX      A,@DPTR
        MOV       R0,A
        INC       DPTR
        MOVX      A,@DPTR
        MOV       R1,A
        MOV       A,R0
        RET
          CFI EndBlock cfiCond101
          CFI EndBlock cfiCond102
          CFI EndBlock cfiCond103
          CFI EndBlock cfiCond104
          CFI EndBlock cfiCond105
          CFI EndBlock cfiCond106
          CFI EndBlock cfiCond107
          CFI EndBlock cfiCond108
          CFI EndBlock cfiPicker109

        RSEG BANKED_CODE:HUGECODE:NOROOT(0)
?Subroutine32:
          CFI Block cfiCond110 Using cfiCommon0
          CFI Function ZDP_PowerDescMsg
          CFI Conditional ??CrossCallReturnLabel_156
          CFI R6 load(1, XDATA, add(CFA_XSP16, literal(-10)))
          CFI VB load(1, XDATA, add(CFA_XSP16, literal(-9)))
          CFI V0 load(1, XDATA, add(CFA_XSP16, literal(-8)))
          CFI V1 load(1, XDATA, add(CFA_XSP16, literal(-7)))
          CFI R7 load(1, XDATA, add(CFA_XSP16, literal(-6)))
          CFI ?RET_LOW load(1, XDATA, add(CFA_XSP16, literal(-5)))
          CFI ?RET_HIGH load(1, XDATA, add(CFA_XSP16, literal(-4)))
          CFI ?BRET_EXT load(1, XDATA, add(CFA_XSP16, literal(-3)))
          CFI DPL0 load(1, XDATA, add(CFA_XSP16, literal(-2)))
          CFI DPH0 load(1, XDATA, add(CFA_XSP16, literal(-1)))
          CFI CFA_SP SP+-2
          CFI CFA_XSP16 add(XSP16, 10)
          CFI Block cfiCond111 Using cfiCommon0
          CFI (cfiCond111) Function ZDP_UserDescRsp
          CFI (cfiCond111) Conditional ??CrossCallReturnLabel_157
          CFI (cfiCond111) R6 load(1, XDATA, add(CFA_XSP16, literal(-18)))
          CFI (cfiCond111) VB load(1, XDATA, add(CFA_XSP16, literal(-17)))
          CFI (cfiCond111) V0 load(1, XDATA, add(CFA_XSP16, literal(-16)))
          CFI (cfiCond111) V1 load(1, XDATA, add(CFA_XSP16, literal(-15)))
          CFI (cfiCond111) V2 load(1, XDATA, add(CFA_XSP16, literal(-14)))
          CFI (cfiCond111) V3 load(1, XDATA, add(CFA_XSP16, literal(-13)))
          CFI (cfiCond111) V4 load(1, XDATA, add(CFA_XSP16, literal(-12)))
          CFI (cfiCond111) V5 load(1, XDATA, add(CFA_XSP16, literal(-11)))
          CFI (cfiCond111) V6 load(1, XDATA, add(CFA_XSP16, literal(-10)))
          CFI (cfiCond111) V7 load(1, XDATA, add(CFA_XSP16, literal(-9)))
          CFI (cfiCond111) V8 load(1, XDATA, add(CFA_XSP16, literal(-8)))
          CFI (cfiCond111) V9 load(1, XDATA, add(CFA_XSP16, literal(-7)))
          CFI (cfiCond111) R7 load(1, XDATA, add(CFA_XSP16, literal(-6)))
          CFI (cfiCond111) ?RET_LOW load(1, XDATA, add(CFA_XSP16, literal(-5)))
          CFI (cfiCond111) ?RET_HIGH load(1, XDATA, add(CFA_XSP16, literal(-4)))
          CFI (cfiCond111) ?BRET_EXT load(1, XDATA, add(CFA_XSP16, literal(-3)))
          CFI (cfiCond111) DPL0 load(1, XDATA, add(CFA_XSP16, literal(-2)))
          CFI (cfiCond111) DPH0 load(1, XDATA, add(CFA_XSP16, literal(-1)))
          CFI (cfiCond111) CFA_SP SP+-2
          CFI (cfiCond111) CFA_XSP16 add(XSP16, 19)
          CFI Block cfiPicker112 Using cfiCommon1
          CFI (cfiPicker112) NoFunction
          CFI (cfiPicker112) Picker
        INC       DPTR
        INC       DPTR
          CFI EndBlock cfiCond110
          CFI EndBlock cfiCond111
          CFI EndBlock cfiPicker112
        REQUIRE ??Subroutine101_0
        ; // Fall through to label ??Subroutine101_0

        RSEG BANKED_CODE:HUGECODE:NOROOT(0)
??Subroutine101_0:
          CFI Block cfiCond113 Using cfiCommon0
          CFI Function ZDP_IncomingData
          CFI Conditional ??CrossCallReturnLabel_158
          CFI R6 load(1, XDATA, add(CFA_XSP16, literal(-10)))
          CFI VB load(1, XDATA, add(CFA_XSP16, literal(-9)))
          CFI V0 load(1, XDATA, add(CFA_XSP16, literal(-8)))
          CFI V1 load(1, XDATA, add(CFA_XSP16, literal(-7)))
          CFI R7 load(1, XDATA, add(CFA_XSP16, literal(-6)))
          CFI ?RET_LOW load(1, XDATA, add(CFA_XSP16, literal(-5)))
          CFI ?RET_HIGH load(1, XDATA, add(CFA_XSP16, literal(-4)))
          CFI ?BRET_EXT load(1, XDATA, add(CFA_XSP16, literal(-3)))
          CFI DPL0 load(1, XDATA, add(CFA_XSP16, literal(-2)))
          CFI DPH0 load(1, XDATA, add(CFA_XSP16, literal(-1)))
          CFI CFA_SP SP+-2
          CFI CFA_XSP16 add(XSP16, 33)
          CFI Block cfiCond114 Using cfiCommon0
          CFI (cfiCond114) Function ZDP_PowerDescMsg
          CFI (cfiCond114) Conditional ??CrossCallReturnLabel_156
          CFI (cfiCond114) R6 load(1, XDATA, add(CFA_XSP16, literal(-10)))
          CFI (cfiCond114) VB load(1, XDATA, add(CFA_XSP16, literal(-9)))
          CFI (cfiCond114) V0 load(1, XDATA, add(CFA_XSP16, literal(-8)))
          CFI (cfiCond114) V1 load(1, XDATA, add(CFA_XSP16, literal(-7)))
          CFI (cfiCond114) R7 load(1, XDATA, add(CFA_XSP16, literal(-6)))
          CFI (cfiCond114) ?RET_LOW load(1, XDATA, add(CFA_XSP16, literal(-5)))
          CFI (cfiCond114) ?RET_HIGH load(1, XDATA, add(CFA_XSP16, literal(-4)))
          CFI (cfiCond114) ?BRET_EXT load(1, XDATA, add(CFA_XSP16, literal(-3)))
          CFI (cfiCond114) DPL0 load(1, XDATA, add(CFA_XSP16, literal(-2)))
          CFI (cfiCond114) DPH0 load(1, XDATA, add(CFA_XSP16, literal(-1)))
          CFI (cfiCond114) CFA_SP SP+-2
          CFI (cfiCond114) CFA_XSP16 add(XSP16, 10)
          CFI Block cfiCond115 Using cfiCommon0
          CFI (cfiCond115) Function ZDP_UserDescRsp
          CFI (cfiCond115) Conditional ??CrossCallReturnLabel_157
          CFI (cfiCond115) R6 load(1, XDATA, add(CFA_XSP16, literal(-18)))
          CFI (cfiCond115) VB load(1, XDATA, add(CFA_XSP16, literal(-17)))
          CFI (cfiCond115) V0 load(1, XDATA, add(CFA_XSP16, literal(-16)))
          CFI (cfiCond115) V1 load(1, XDATA, add(CFA_XSP16, literal(-15)))
          CFI (cfiCond115) V2 load(1, XDATA, add(CFA_XSP16, literal(-14)))
          CFI (cfiCond115) V3 load(1, XDATA, add(CFA_XSP16, literal(-13)))
          CFI (cfiCond115) V4 load(1, XDATA, add(CFA_XSP16, literal(-12)))
          CFI (cfiCond115) V5 load(1, XDATA, add(CFA_XSP16, literal(-11)))
          CFI (cfiCond115) V6 load(1, XDATA, add(CFA_XSP16, literal(-10)))
          CFI (cfiCond115) V7 load(1, XDATA, add(CFA_XSP16, literal(-9)))
          CFI (cfiCond115) V8 load(1, XDATA, add(CFA_XSP16, literal(-8)))
          CFI (cfiCond115) V9 load(1, XDATA, add(CFA_XSP16, literal(-7)))
          CFI (cfiCond115) R7 load(1, XDATA, add(CFA_XSP16, literal(-6)))
          CFI (cfiCond115) ?RET_LOW load(1, XDATA, add(CFA_XSP16, literal(-5)))
          CFI (cfiCond115) ?RET_HIGH load(1, XDATA, add(CFA_XSP16, literal(-4)))
          CFI (cfiCond115) ?BRET_EXT load(1, XDATA, add(CFA_XSP16, literal(-3)))
          CFI (cfiCond115) DPL0 load(1, XDATA, add(CFA_XSP16, literal(-2)))
          CFI (cfiCond115) DPH0 load(1, XDATA, add(CFA_XSP16, literal(-1)))
          CFI (cfiCond115) CFA_SP SP+-2
          CFI (cfiCond115) CFA_XSP16 add(XSP16, 19)
          CFI Block cfiPicker116 Using cfiCommon1
          CFI (cfiPicker116) NoFunction
          CFI (cfiPicker116) Picker
        LCALL     ?Subroutine88 & 0xFFFF
??CrossCallReturnLabel_224:
        MOVX      A,@DPTR
        RET
          CFI EndBlock cfiCond113
          CFI EndBlock cfiCond114
          CFI EndBlock cfiCond115
          CFI EndBlock cfiPicker116

        RSEG BANKED_CODE:HUGECODE:NOROOT(0)
?Subroutine19:
          CFI Block cfiCond117 Using cfiCommon0
          CFI Function ZDP_NodeDescMsg
          CFI Conditional ??CrossCallReturnLabel_20
          CFI R6 load(1, XDATA, add(CFA_XSP16, literal(-10)))
          CFI VB load(1, XDATA, add(CFA_XSP16, literal(-9)))
          CFI V0 load(1, XDATA, add(CFA_XSP16, literal(-8)))
          CFI V1 load(1, XDATA, add(CFA_XSP16, literal(-7)))
          CFI R7 load(1, XDATA, add(CFA_XSP16, literal(-6)))
          CFI ?RET_LOW load(1, XDATA, add(CFA_XSP16, literal(-5)))
          CFI ?RET_HIGH load(1, XDATA, add(CFA_XSP16, literal(-4)))
          CFI ?BRET_EXT load(1, XDATA, add(CFA_XSP16, literal(-3)))
          CFI DPL0 load(1, XDATA, add(CFA_XSP16, literal(-2)))
          CFI DPH0 load(1, XDATA, add(CFA_XSP16, literal(-1)))
          CFI CFA_SP SP+-2
          CFI CFA_XSP16 add(XSP16, 10)
          CFI Block cfiCond118 Using cfiCommon0
          CFI (cfiCond118) Function ZDP_PowerDescMsg
          CFI (cfiCond118) Conditional ??CrossCallReturnLabel_21
          CFI (cfiCond118) R6 load(1, XDATA, add(CFA_XSP16, literal(-10)))
          CFI (cfiCond118) VB load(1, XDATA, add(CFA_XSP16, literal(-9)))
          CFI (cfiCond118) V0 load(1, XDATA, add(CFA_XSP16, literal(-8)))
          CFI (cfiCond118) V1 load(1, XDATA, add(CFA_XSP16, literal(-7)))
          CFI (cfiCond118) R7 load(1, XDATA, add(CFA_XSP16, literal(-6)))
          CFI (cfiCond118) ?RET_LOW load(1, XDATA, add(CFA_XSP16, literal(-5)))
          CFI (cfiCond118) ?RET_HIGH load(1, XDATA, add(CFA_XSP16, literal(-4)))
          CFI (cfiCond118) ?BRET_EXT load(1, XDATA, add(CFA_XSP16, literal(-3)))
          CFI (cfiCond118) DPL0 load(1, XDATA, add(CFA_XSP16, literal(-2)))
          CFI (cfiCond118) DPH0 load(1, XDATA, add(CFA_XSP16, literal(-1)))
          CFI (cfiCond118) CFA_SP SP+-2
          CFI (cfiCond118) CFA_XSP16 add(XSP16, 10)
          CFI Block cfiPicker119 Using cfiCommon1
          CFI (cfiPicker119) NoFunction
          CFI (cfiPicker119) Picker
        MOV       R7,A
        MOV       DPL,R6
        MOV       DPH,R7
        CLR       A
        MOVX      @DPTR,A
        MOV       A,R4
        INC       DPTR
        MOVX      @DPTR,A
        MOV       A,R5
        MOV       DPL,R6
        MOV       DPH,R7
        INC       DPTR
        INC       DPTR
        MOVX      @DPTR,A
        MOV       A,#0xa
        RET
          CFI EndBlock cfiCond117
          CFI EndBlock cfiCond118
          CFI EndBlock cfiPicker119
//  874 
//  875 /*********************************************************************
//  876  * @fn          ZDP_SimpleDescMsg
//  877  *
//  878  * @brief       Builds and sends a Simple Descriptor message, unicast to the
//  879  *              specified device.
//  880  *
//  881  * @param       inMsg - incoming message (request)
//  882  * @param       Status - message status (ZDP_SUCCESS or other)
//  883  * @param       pSimpleDesc - pointer to the node descriptor
//  884  *
//  885  * @return      afStatus_t
//  886  */

        RSEG BANKED_CODE:HUGECODE:NOROOT(0)
//  887 afStatus_t ZDP_SimpleDescMsg( zdoIncomingMsg_t *inMsg, byte Status,
ZDP_SimpleDescMsg:
          CFI Block cfiBlock120 Using cfiCommon0
          CFI Function ZDP_SimpleDescMsg
        CODE
//  888                               SimpleDescriptionFormat_t *pSimpleDesc )
//  889 {
        FUNCALL ZDP_SimpleDescMsg, fillAndSend
        LOCFRAME ISTACK, 0, STACK
        LOCFRAME PSTACK, 0, STACK
        LOCFRAME XSTACK, 22, STACK
        LOCFRAME IOVERLAY, 0, STATIC
        LOCFRAME DOVERLAY, 0, STATIC
        ARGFRAME ISTACK, 0, STACK
        ARGFRAME PSTACK, 0, STACK
        ARGFRAME XSTACK, 22, STACK
        ARGFRAME IOVERLAY, 0, STATIC
        ARGFRAME DOVERLAY, 0, STATIC
        REQUIRE ?V0
        REQUIRE ?V1
        REQUIRE ?V2
        REQUIRE ?V3
        REQUIRE ?V4
        REQUIRE ?V5
        REQUIRE ?V6
        REQUIRE ?V7
        REQUIRE ?V8
        REQUIRE ?V9
        REQUIRE ?V10
        REQUIRE ?V11
        MOV       A,#-0x14
        LCALL     ?BANKED_ENTER_XDATA
          CFI DPH0 load(1, XDATA, add(CFA_XSP16, literal(-1)))
          CFI DPL0 load(1, XDATA, add(CFA_XSP16, literal(-2)))
          CFI ?BRET_EXT load(1, XDATA, add(CFA_XSP16, literal(-3)))
          CFI ?RET_HIGH load(1, XDATA, add(CFA_XSP16, literal(-4)))
          CFI ?RET_LOW load(1, XDATA, add(CFA_XSP16, literal(-5)))
          CFI R7 load(1, XDATA, add(CFA_XSP16, literal(-6)))
          CFI V11 load(1, XDATA, add(CFA_XSP16, literal(-7)))
          CFI V10 load(1, XDATA, add(CFA_XSP16, literal(-8)))
          CFI V9 load(1, XDATA, add(CFA_XSP16, literal(-9)))
          CFI V8 load(1, XDATA, add(CFA_XSP16, literal(-10)))
          CFI V7 load(1, XDATA, add(CFA_XSP16, literal(-11)))
          CFI V6 load(1, XDATA, add(CFA_XSP16, literal(-12)))
          CFI V5 load(1, XDATA, add(CFA_XSP16, literal(-13)))
          CFI V4 load(1, XDATA, add(CFA_XSP16, literal(-14)))
          CFI V3 load(1, XDATA, add(CFA_XSP16, literal(-15)))
          CFI V2 load(1, XDATA, add(CFA_XSP16, literal(-16)))
          CFI V1 load(1, XDATA, add(CFA_XSP16, literal(-17)))
          CFI V0 load(1, XDATA, add(CFA_XSP16, literal(-18)))
          CFI VB load(1, XDATA, add(CFA_XSP16, literal(-19)))
          CFI R6 load(1, XDATA, add(CFA_XSP16, literal(-20)))
          CFI CFA_SP SP+0
          CFI CFA_XSP16 add(XSP16, 20)
        ; Saved register size: 20
        ; Auto size: 0
        MOV       ?V0,R2
        MOV       ?V1,R3
        MOV       A,R1
        MOV       R6,A
//  890   uint8 *pBuf = ZDP_TmpBuf;
        LCALL     ??Subroutine117_0 & 0xFFFF
//  891   uint8 i, len;
//  892 
//  893   if ( Status == ZDP_SUCCESS && pSimpleDesc )
??CrossCallReturnLabel_242:
        MOV       A,R4
        ADD       A,#0x9
        MOV       R2,A
        CLR       A
        ADDC      A,R5
        MOV       R3,A
        MOV       ?V4,R2
        MOV       ?V5,R3
        MOV       A,R4
        ADD       A,#0x6
        MOV       R2,A
        CLR       A
        ADDC      A,R5
        MOV       R3,A
        MOV       ?V6,R2
        MOV       ?V7,R3
        MOV       A,R6
        JNZ       ??ZDP_SimpleDescMsg_0
        MOV       A,R4
        ORL       A,R5
        JZ        ??ZDP_SimpleDescMsg_0
//  894   {
//  895     // Status + NWKAddrOfInterest + desc length + empty simple descriptor.
//  896     len = 1 + 2 + 1 + 8;
//  897     len += (pSimpleDesc->AppNumInClusters + pSimpleDesc->AppNumOutClusters) * sizeof ( uint16 );
        MOV       DPL,?V4
        MOV       DPH,?V5
        MOVX      A,@DPTR
        MOV       R2,A
        MOV       DPL,?V6
        MOV       DPH,R3
        MOVX      A,@DPTR
        ADD       A,R2
        CLR       C
        RLC       A
        ADD       A,#0xc
        MOV       R2,A
//  898   }
//  899   else
//  900   {
//  901     len = 1 + 2 + 1; // Status + desc length
//  902   }
//  903   if ( len >= ZDP_BUF_SZ-1 )
        CLR       C
        SUBB      A,#0x4f
        JC        ??ZDP_SimpleDescMsg_1
//  904   {
//  905     return afStatus_MEM_FAIL;
        MOV       R1,#0x10
        LJMP      ??ZDP_SimpleDescMsg_2 & 0xFFFF
//  906   }
??ZDP_SimpleDescMsg_0:
        MOV       R2,#0x4
//  907 
//  908   *pBuf++ = Status;
??ZDP_SimpleDescMsg_1:
        MOV       A,R6
        MOV       DPL,R0
        MOV       DPH,R1
        MOVX      @DPTR,A
//  909 
//  910   *pBuf++ = LO_UINT16( ZDAppNwkAddr.addr.shortAddr );
        MOV       DPTR,#ZDAppNwkAddr
        LCALL     ??Subroutine109_0 & 0xFFFF
??CrossCallReturnLabel_193:
        INC       DPTR
        MOVX      @DPTR,A
//  911   *pBuf++ = HI_UINT16( ZDAppNwkAddr.addr.shortAddr );
        MOV       DPTR,#ZDAppNwkAddr + 1
        LCALL     ?Subroutine59 & 0xFFFF
??CrossCallReturnLabel_90:
        MOVX      @DPTR,A
//  912 
//  913   if ( len > 4 )
        MOV       A,R0
        ADD       A,#0x3
        MOV       DPL,A
        CLR       A
        ADDC      A,R1
        MOV       DPH,A
        MOV       A,R2
        CLR       C
        SUBB      A,#0x5
        JNC       $+5
        LJMP      ??ZDP_SimpleDescMsg_3 & 0xFFFF
//  914   {
//  915     *pBuf++ = len - 4;   // Simple descriptor length
        MOV       A,#-0x4
        ADD       A,R2
        MOVX      @DPTR,A
//  916 
//  917     *pBuf++ = pSimpleDesc->EndPoint;
        MOV       DPL,R4
        MOV       DPH,R5
        LCALL     ?Subroutine59 & 0xFFFF
??CrossCallReturnLabel_91:
        LCALL     ?Subroutine31 & 0xFFFF
//  918     *pBuf++ = LO_UINT16( pSimpleDesc->AppProfId );
??CrossCallReturnLabel_159:
        MOV       ?V2,DPL
        MOV       ?V3,DPH
        LCALL     ??Subroutine109_0 & 0xFFFF
??CrossCallReturnLabel_194:
        LCALL     ?Subroutine12 & 0xFFFF
//  919     *pBuf++ = HI_UINT16( pSimpleDesc->AppProfId );
??CrossCallReturnLabel_4:
        MOVX      @DPTR,A
//  920     *pBuf++ = LO_UINT16( pSimpleDesc->AppDeviceId );
        MOV       A,R4
        ADD       A,#0x3
        MOV       ?V2,A
        CLR       A
        ADDC      A,R5
        MOV       ?V3,A
        MOV       DPL,?V2
        MOV       DPH,A
        LCALL     ?Subroutine59 & 0xFFFF
??CrossCallReturnLabel_92:
        LCALL     ?Subroutine12 & 0xFFFF
//  921     *pBuf++ = HI_UINT16( pSimpleDesc->AppDeviceId );
??CrossCallReturnLabel_5:
        LCALL     ?Subroutine31 & 0xFFFF
//  922 
//  923     *pBuf++ = (byte)(pSimpleDesc->AppDevVer & 0x0F);
??CrossCallReturnLabel_160:
        INC       DPTR
        INC       DPTR
        INC       DPTR
        INC       DPTR
        MOVX      A,@DPTR
        ANL       A,#0xf
        MOV       DPL,R0
        MOV       DPH,R1
        INC       DPTR
        INC       DPTR
        INC       DPTR
        INC       DPTR
        INC       DPTR
        INC       DPTR
        INC       DPTR
        INC       DPTR
        INC       DPTR
        MOVX      @DPTR,A
//  924 
//  925     *pBuf++ = pSimpleDesc->AppNumInClusters;
        MOV       DPL,?V6
        MOV       DPH,R3
        LCALL     ?Subroutine53 & 0xFFFF
??CrossCallReturnLabel_81:
        INC       DPTR
        INC       DPTR
        INC       DPTR
        INC       DPTR
        INC       DPTR
        MOVX      @DPTR,A
        MOV       A,R0
        ADD       A,#0xb
        MOV       R0,A
        JNC       ??ZDP_SimpleDescMsg_4
        INC       R1
//  926     if ( pSimpleDesc->AppNumInClusters )
??ZDP_SimpleDescMsg_4:
        MOV       DPL,?V6
        MOV       DPH,R3
        MOVX      A,@DPTR
        JZ        ??ZDP_SimpleDescMsg_5
//  927     {
//  928       for (i=0; i<pSimpleDesc->AppNumInClusters; ++i)
        MOV       R3,#0x0
        MOV       A,R4
        ADD       A,#0x7
        MOV       ?V2,A
        CLR       A
        ADDC      A,R5
        MOV       ?V8,?V2
        MOV       ?V9,A
        SJMP      ??ZDP_SimpleDescMsg_6
//  929       {
//  930         *pBuf++ = LO_UINT16( pSimpleDesc->pAppInClusterList[i] );
??ZDP_SimpleDescMsg_7:
        MOV       A,R3
        LCALL     ?Subroutine87 & 0xFFFF
??CrossCallReturnLabel_135:
        LCALL     ?Subroutine61 & 0xFFFF
??CrossCallReturnLabel_93:
        LCALL     ?Subroutine41 & 0xFFFF
//  931         *pBuf++ = HI_UINT16( pSimpleDesc->pAppInClusterList[i] );
??CrossCallReturnLabel_171:
        LCALL     ?Subroutine61 & 0xFFFF
//  932       }
??CrossCallReturnLabel_94:
        LCALL     ?Subroutine50 & 0xFFFF
??CrossCallReturnLabel_75:
        JNC       ??ZDP_SimpleDescMsg_8
        INC       R1
??ZDP_SimpleDescMsg_8:
        INC       R3
??ZDP_SimpleDescMsg_6:
        MOV       DPL,?V6
        MOV       DPH,?V7
        MOVX      A,@DPTR
        MOV       R7,A
        MOV       A,R3
        CLR       C
        SUBB      A,R7
        JC        ??ZDP_SimpleDescMsg_7
//  933     }
//  934 
//  935     *pBuf++ = pSimpleDesc->AppNumOutClusters;
??ZDP_SimpleDescMsg_5:
        MOV       DPL,?V4
        MOV       DPH,?V5
        LCALL     ??Subroutine104_0 & 0xFFFF
??CrossCallReturnLabel_168:
        INC       DPTR
        MOV       R0,DPL
        MOV       R1,DPH
//  936     if ( pSimpleDesc->AppNumOutClusters )
        MOV       DPL,?V4
        MOV       DPH,?V5
        MOVX      A,@DPTR
        JZ        ??ZDP_SimpleDescMsg_9
//  937     {
//  938       for (i=0; i<pSimpleDesc->AppNumOutClusters; ++i)
        MOV       R3,#0x0
        MOV       A,R4
        ADD       A,#0xa
        MOV       R4,A
        JNC       ??ZDP_SimpleDescMsg_10
        INC       R5
??ZDP_SimpleDescMsg_10:
        MOV       ?V2,R4
        MOV       ?V3,R5
??ZDP_SimpleDescMsg_11:
        MOV       DPL,?V4
        MOV       DPH,?V5
        MOVX      A,@DPTR
        MOV       R4,A
        MOV       A,R3
        CLR       C
        SUBB      A,R4
        JNC       ??ZDP_SimpleDescMsg_9
//  939       {
//  940         *pBuf++ = LO_UINT16( pSimpleDesc->pAppOutClusterList[i] );
        MOV       A,R3
        ADD       A,0xE0 /* A   */
        MOV       R4,A
        CLR       A
        RLC       A
        MOV       R5,A
        MOV       DPL,?V2
        MOV       DPH,?V3
        MOVX      A,@DPTR
        ADD       A,R4
        MOV       R7,A
        INC       DPTR
        MOVX      A,@DPTR
        ADDC      A,R5
        LCALL     ?Subroutine41 & 0xFFFF
//  941         *pBuf++ = HI_UINT16( pSimpleDesc->pAppOutClusterList[i] );
??CrossCallReturnLabel_172:
        MOV       DPL,?V2
        MOV       DPH,?V3
        MOVX      A,@DPTR
        ADD       A,R4
        MOV       R7,A
        INC       DPTR
        MOVX      A,@DPTR
        ADDC      A,R5
        LCALL     ?Subroutine50 & 0xFFFF
//  942       }
??CrossCallReturnLabel_76:
        JNC       ??ZDP_SimpleDescMsg_12
        INC       R1
??ZDP_SimpleDescMsg_12:
        INC       R3
        SJMP      ??ZDP_SimpleDescMsg_11
//  943     }
//  944   }
//  945 
//  946   else
//  947   {
//  948     *pBuf = 0; // Description Length = 0;
??ZDP_SimpleDescMsg_3:
        CLR       A
        MOVX      @DPTR,A
//  949   }
//  950 
//  951   return fillAndSend( &(inMsg->TransSeq), &(inMsg->srcAddr), Simple_Desc_rsp, len );
??ZDP_SimpleDescMsg_9:
        ; Setup parameters for call to function fillAndSend
        MOV       ?V2,#0x4
        MOV       ?V3,#-0x80
        MOV       R0,#?V2
        LCALL     ?PUSH_XSTACK_I_TWO
          CFI CFA_XSP16 add(XSP16, 22)
        MOV       A,R2
        MOV       R1,A
        LCALL     ?Subroutine67 & 0xFFFF
??CrossCallReturnLabel_107:
        LCALL     `??fillAndSend::?relay`; Banked call to: fillAndSend
        MOV       A,#0x2
        LCALL     ?DEALLOC_XSTACK8
          CFI CFA_XSP16 add(XSP16, 20)
??ZDP_SimpleDescMsg_2:
        LJMP      ?Subroutine4 & 0xFFFF
//  952 }
          CFI EndBlock cfiBlock120

        RSEG BANKED_CODE:HUGECODE:NOROOT(0)
?Subroutine87:
          CFI Block cfiCond121 Using cfiCommon0
          CFI Function ZDP_MatchDescReq
          CFI Conditional ??CrossCallReturnLabel_136, ??CrossCallReturnLabel_2
          CFI R6 load(1, XDATA, add(CFA_XSP16, literal(-14)))
          CFI VB load(1, XDATA, add(CFA_XSP16, literal(-13)))
          CFI V0 load(1, XDATA, add(CFA_XSP16, literal(-12)))
          CFI V1 load(1, XDATA, add(CFA_XSP16, literal(-11)))
          CFI V2 load(1, XDATA, add(CFA_XSP16, literal(-10)))
          CFI V3 load(1, XDATA, add(CFA_XSP16, literal(-9)))
          CFI V4 load(1, XDATA, add(CFA_XSP16, literal(-8)))
          CFI V5 load(1, XDATA, add(CFA_XSP16, literal(-7)))
          CFI R7 load(1, XDATA, add(CFA_XSP16, literal(-6)))
          CFI ?RET_LOW load(1, XDATA, add(CFA_XSP16, literal(-5)))
          CFI ?RET_HIGH load(1, XDATA, add(CFA_XSP16, literal(-4)))
          CFI ?BRET_EXT load(1, XDATA, add(CFA_XSP16, literal(-3)))
          CFI DPL0 load(1, XDATA, add(CFA_XSP16, literal(-2)))
          CFI DPH0 load(1, XDATA, add(CFA_XSP16, literal(-1)))
          CFI CFA_SP SP+-4
          CFI CFA_XSP16 add(XSP16, 14)
          CFI Block cfiCond122 Using cfiCommon0
          CFI (cfiCond122) Function ZDP_MatchDescReq
          CFI (cfiCond122) Conditional ??CrossCallReturnLabel_136, ??CrossCallReturnLabel_3
          CFI (cfiCond122) R6 load(1, XDATA, add(CFA_XSP16, literal(-14)))
          CFI (cfiCond122) VB load(1, XDATA, add(CFA_XSP16, literal(-13)))
          CFI (cfiCond122) V0 load(1, XDATA, add(CFA_XSP16, literal(-12)))
          CFI (cfiCond122) V1 load(1, XDATA, add(CFA_XSP16, literal(-11)))
          CFI (cfiCond122) V2 load(1, XDATA, add(CFA_XSP16, literal(-10)))
          CFI (cfiCond122) V3 load(1, XDATA, add(CFA_XSP16, literal(-9)))
          CFI (cfiCond122) V4 load(1, XDATA, add(CFA_XSP16, literal(-8)))
          CFI (cfiCond122) V5 load(1, XDATA, add(CFA_XSP16, literal(-7)))
          CFI (cfiCond122) R7 load(1, XDATA, add(CFA_XSP16, literal(-6)))
          CFI (cfiCond122) ?RET_LOW load(1, XDATA, add(CFA_XSP16, literal(-5)))
          CFI (cfiCond122) ?RET_HIGH load(1, XDATA, add(CFA_XSP16, literal(-4)))
          CFI (cfiCond122) ?BRET_EXT load(1, XDATA, add(CFA_XSP16, literal(-3)))
          CFI (cfiCond122) DPL0 load(1, XDATA, add(CFA_XSP16, literal(-2)))
          CFI (cfiCond122) DPH0 load(1, XDATA, add(CFA_XSP16, literal(-1)))
          CFI (cfiCond122) CFA_SP SP+-4
          CFI (cfiCond122) CFA_XSP16 add(XSP16, 14)
          CFI Block cfiCond123 Using cfiCommon0
          CFI (cfiCond123) Function ZDP_SimpleDescMsg
          CFI (cfiCond123) Conditional ??CrossCallReturnLabel_135
          CFI (cfiCond123) R6 load(1, XDATA, add(CFA_XSP16, literal(-20)))
          CFI (cfiCond123) VB load(1, XDATA, add(CFA_XSP16, literal(-19)))
          CFI (cfiCond123) V0 load(1, XDATA, add(CFA_XSP16, literal(-18)))
          CFI (cfiCond123) V1 load(1, XDATA, add(CFA_XSP16, literal(-17)))
          CFI (cfiCond123) V2 load(1, XDATA, add(CFA_XSP16, literal(-16)))
          CFI (cfiCond123) V3 load(1, XDATA, add(CFA_XSP16, literal(-15)))
          CFI (cfiCond123) V4 load(1, XDATA, add(CFA_XSP16, literal(-14)))
          CFI (cfiCond123) V5 load(1, XDATA, add(CFA_XSP16, literal(-13)))
          CFI (cfiCond123) V6 load(1, XDATA, add(CFA_XSP16, literal(-12)))
          CFI (cfiCond123) V7 load(1, XDATA, add(CFA_XSP16, literal(-11)))
          CFI (cfiCond123) V8 load(1, XDATA, add(CFA_XSP16, literal(-10)))
          CFI (cfiCond123) V9 load(1, XDATA, add(CFA_XSP16, literal(-9)))
          CFI (cfiCond123) V10 load(1, XDATA, add(CFA_XSP16, literal(-8)))
          CFI (cfiCond123) V11 load(1, XDATA, add(CFA_XSP16, literal(-7)))
          CFI (cfiCond123) R7 load(1, XDATA, add(CFA_XSP16, literal(-6)))
          CFI (cfiCond123) ?RET_LOW load(1, XDATA, add(CFA_XSP16, literal(-5)))
          CFI (cfiCond123) ?RET_HIGH load(1, XDATA, add(CFA_XSP16, literal(-4)))
          CFI (cfiCond123) ?BRET_EXT load(1, XDATA, add(CFA_XSP16, literal(-3)))
          CFI (cfiCond123) DPL0 load(1, XDATA, add(CFA_XSP16, literal(-2)))
          CFI (cfiCond123) DPH0 load(1, XDATA, add(CFA_XSP16, literal(-1)))
          CFI (cfiCond123) CFA_SP SP+-2
          CFI (cfiCond123) CFA_XSP16 add(XSP16, 20)
          CFI Block cfiPicker124 Using cfiCommon1
          CFI (cfiPicker124) NoFunction
          CFI (cfiPicker124) Picker
        ADD       A,0xE0 /* A   */
        MOV       ?V2,A
        CLR       A
        RLC       A
        MOV       ?V3,A
        RET
          CFI EndBlock cfiCond121
          CFI EndBlock cfiCond122
          CFI EndBlock cfiCond123
          CFI EndBlock cfiPicker124

        RSEG BANKED_CODE:HUGECODE:NOROOT(0)
?Subroutine67:
          CFI Block cfiCond125 Using cfiCommon0
          CFI Function zdpProcessAddrReq
          CFI Conditional ??CrossCallReturnLabel_106
          CFI R6 load(1, XDATA, add(CFA_XSP16, literal(-15)))
          CFI VB load(1, XDATA, add(CFA_XSP16, literal(-14)))
          CFI V0 load(1, XDATA, add(CFA_XSP16, literal(-13)))
          CFI V1 load(1, XDATA, add(CFA_XSP16, literal(-12)))
          CFI V2 load(1, XDATA, add(CFA_XSP16, literal(-11)))
          CFI V3 load(1, XDATA, add(CFA_XSP16, literal(-10)))
          CFI V4 load(1, XDATA, add(CFA_XSP16, literal(-9)))
          CFI V5 load(1, XDATA, add(CFA_XSP16, literal(-8)))
          CFI V6 load(1, XDATA, add(CFA_XSP16, literal(-7)))
          CFI R7 load(1, XDATA, add(CFA_XSP16, literal(-6)))
          CFI ?RET_LOW load(1, XDATA, add(CFA_XSP16, literal(-5)))
          CFI ?RET_HIGH load(1, XDATA, add(CFA_XSP16, literal(-4)))
          CFI ?BRET_EXT load(1, XDATA, add(CFA_XSP16, literal(-3)))
          CFI DPL0 load(1, XDATA, add(CFA_XSP16, literal(-2)))
          CFI DPH0 load(1, XDATA, add(CFA_XSP16, literal(-1)))
          CFI CFA_SP SP+-2
          CFI CFA_XSP16 add(XSP16, 17)
          CFI Block cfiCond126 Using cfiCommon0
          CFI (cfiCond126) Function ZDP_SimpleDescMsg
          CFI (cfiCond126) Conditional ??CrossCallReturnLabel_107
          CFI (cfiCond126) R6 load(1, XDATA, add(CFA_XSP16, literal(-20)))
          CFI (cfiCond126) VB load(1, XDATA, add(CFA_XSP16, literal(-19)))
          CFI (cfiCond126) V0 load(1, XDATA, add(CFA_XSP16, literal(-18)))
          CFI (cfiCond126) V1 load(1, XDATA, add(CFA_XSP16, literal(-17)))
          CFI (cfiCond126) V2 load(1, XDATA, add(CFA_XSP16, literal(-16)))
          CFI (cfiCond126) V3 load(1, XDATA, add(CFA_XSP16, literal(-15)))
          CFI (cfiCond126) V4 load(1, XDATA, add(CFA_XSP16, literal(-14)))
          CFI (cfiCond126) V5 load(1, XDATA, add(CFA_XSP16, literal(-13)))
          CFI (cfiCond126) V6 load(1, XDATA, add(CFA_XSP16, literal(-12)))
          CFI (cfiCond126) V7 load(1, XDATA, add(CFA_XSP16, literal(-11)))
          CFI (cfiCond126) V8 load(1, XDATA, add(CFA_XSP16, literal(-10)))
          CFI (cfiCond126) V9 load(1, XDATA, add(CFA_XSP16, literal(-9)))
          CFI (cfiCond126) V10 load(1, XDATA, add(CFA_XSP16, literal(-8)))
          CFI (cfiCond126) V11 load(1, XDATA, add(CFA_XSP16, literal(-7)))
          CFI (cfiCond126) R7 load(1, XDATA, add(CFA_XSP16, literal(-6)))
          CFI (cfiCond126) ?RET_LOW load(1, XDATA, add(CFA_XSP16, literal(-5)))
          CFI (cfiCond126) ?RET_HIGH load(1, XDATA, add(CFA_XSP16, literal(-4)))
          CFI (cfiCond126) ?BRET_EXT load(1, XDATA, add(CFA_XSP16, literal(-3)))
          CFI (cfiCond126) DPL0 load(1, XDATA, add(CFA_XSP16, literal(-2)))
          CFI (cfiCond126) DPH0 load(1, XDATA, add(CFA_XSP16, literal(-1)))
          CFI (cfiCond126) CFA_SP SP+-2
          CFI (cfiCond126) CFA_XSP16 add(XSP16, 22)
          CFI Block cfiPicker127 Using cfiCommon1
          CFI (cfiPicker127) NoFunction
          CFI (cfiPicker127) Picker
        MOV       A,?V0
        ADD       A,#0x2
        MOV       R4,A
        CLR       A
        ADDC      A,?V1
        MOV       R5,A
        MOV       A,?V0
        ADD       A,#0xf
        MOV       R2,A
        CLR       A
        ADDC      A,?V1
        MOV       R3,A
        RET
          CFI EndBlock cfiCond125
          CFI EndBlock cfiCond126
          CFI EndBlock cfiPicker127

        RSEG BANKED_CODE:HUGECODE:NOROOT(0)
?Subroutine61:
          CFI Block cfiCond128 Using cfiCommon0
          CFI Function ZDP_SimpleDescMsg
          CFI Conditional ??CrossCallReturnLabel_93
          CFI R6 load(1, XDATA, add(CFA_XSP16, literal(-20)))
          CFI VB load(1, XDATA, add(CFA_XSP16, literal(-19)))
          CFI V0 load(1, XDATA, add(CFA_XSP16, literal(-18)))
          CFI V1 load(1, XDATA, add(CFA_XSP16, literal(-17)))
          CFI V2 load(1, XDATA, add(CFA_XSP16, literal(-16)))
          CFI V3 load(1, XDATA, add(CFA_XSP16, literal(-15)))
          CFI V4 load(1, XDATA, add(CFA_XSP16, literal(-14)))
          CFI V5 load(1, XDATA, add(CFA_XSP16, literal(-13)))
          CFI V6 load(1, XDATA, add(CFA_XSP16, literal(-12)))
          CFI V7 load(1, XDATA, add(CFA_XSP16, literal(-11)))
          CFI V8 load(1, XDATA, add(CFA_XSP16, literal(-10)))
          CFI V9 load(1, XDATA, add(CFA_XSP16, literal(-9)))
          CFI V10 load(1, XDATA, add(CFA_XSP16, literal(-8)))
          CFI V11 load(1, XDATA, add(CFA_XSP16, literal(-7)))
          CFI R7 load(1, XDATA, add(CFA_XSP16, literal(-6)))
          CFI ?RET_LOW load(1, XDATA, add(CFA_XSP16, literal(-5)))
          CFI ?RET_HIGH load(1, XDATA, add(CFA_XSP16, literal(-4)))
          CFI ?BRET_EXT load(1, XDATA, add(CFA_XSP16, literal(-3)))
          CFI DPL0 load(1, XDATA, add(CFA_XSP16, literal(-2)))
          CFI DPH0 load(1, XDATA, add(CFA_XSP16, literal(-1)))
          CFI CFA_SP SP+-2
          CFI CFA_XSP16 add(XSP16, 20)
          CFI Block cfiCond129 Using cfiCommon0
          CFI (cfiCond129) Function ZDP_SimpleDescMsg
          CFI (cfiCond129) Conditional ??CrossCallReturnLabel_94
          CFI (cfiCond129) R6 load(1, XDATA, add(CFA_XSP16, literal(-20)))
          CFI (cfiCond129) VB load(1, XDATA, add(CFA_XSP16, literal(-19)))
          CFI (cfiCond129) V0 load(1, XDATA, add(CFA_XSP16, literal(-18)))
          CFI (cfiCond129) V1 load(1, XDATA, add(CFA_XSP16, literal(-17)))
          CFI (cfiCond129) V2 load(1, XDATA, add(CFA_XSP16, literal(-16)))
          CFI (cfiCond129) V3 load(1, XDATA, add(CFA_XSP16, literal(-15)))
          CFI (cfiCond129) V4 load(1, XDATA, add(CFA_XSP16, literal(-14)))
          CFI (cfiCond129) V5 load(1, XDATA, add(CFA_XSP16, literal(-13)))
          CFI (cfiCond129) V6 load(1, XDATA, add(CFA_XSP16, literal(-12)))
          CFI (cfiCond129) V7 load(1, XDATA, add(CFA_XSP16, literal(-11)))
          CFI (cfiCond129) V8 load(1, XDATA, add(CFA_XSP16, literal(-10)))
          CFI (cfiCond129) V9 load(1, XDATA, add(CFA_XSP16, literal(-9)))
          CFI (cfiCond129) V10 load(1, XDATA, add(CFA_XSP16, literal(-8)))
          CFI (cfiCond129) V11 load(1, XDATA, add(CFA_XSP16, literal(-7)))
          CFI (cfiCond129) R7 load(1, XDATA, add(CFA_XSP16, literal(-6)))
          CFI (cfiCond129) ?RET_LOW load(1, XDATA, add(CFA_XSP16, literal(-5)))
          CFI (cfiCond129) ?RET_HIGH load(1, XDATA, add(CFA_XSP16, literal(-4)))
          CFI (cfiCond129) ?BRET_EXT load(1, XDATA, add(CFA_XSP16, literal(-3)))
          CFI (cfiCond129) DPL0 load(1, XDATA, add(CFA_XSP16, literal(-2)))
          CFI (cfiCond129) DPH0 load(1, XDATA, add(CFA_XSP16, literal(-1)))
          CFI (cfiCond129) CFA_SP SP+-2
          CFI (cfiCond129) CFA_XSP16 add(XSP16, 20)
          CFI Block cfiPicker130 Using cfiCommon1
          CFI (cfiPicker130) NoFunction
          CFI (cfiPicker130) Picker
        MOV       DPL,?V8
        MOV       DPH,?V9
        MOVX      A,@DPTR
        ADD       A,?V2
        MOV       R7,A
        INC       DPTR
        MOVX      A,@DPTR
        ADDC      A,?V3
        RET
          CFI EndBlock cfiCond128
          CFI EndBlock cfiCond129
          CFI EndBlock cfiPicker130

        RSEG BANKED_CODE:HUGECODE:NOROOT(0)
?Subroutine59:
          CFI Block cfiCond131 Using cfiCommon0
          CFI Function ZDP_SimpleDescMsg
          CFI Conditional ??CrossCallReturnLabel_90
          CFI R6 load(1, XDATA, add(CFA_XSP16, literal(-20)))
          CFI VB load(1, XDATA, add(CFA_XSP16, literal(-19)))
          CFI V0 load(1, XDATA, add(CFA_XSP16, literal(-18)))
          CFI V1 load(1, XDATA, add(CFA_XSP16, literal(-17)))
          CFI V2 load(1, XDATA, add(CFA_XSP16, literal(-16)))
          CFI V3 load(1, XDATA, add(CFA_XSP16, literal(-15)))
          CFI V4 load(1, XDATA, add(CFA_XSP16, literal(-14)))
          CFI V5 load(1, XDATA, add(CFA_XSP16, literal(-13)))
          CFI V6 load(1, XDATA, add(CFA_XSP16, literal(-12)))
          CFI V7 load(1, XDATA, add(CFA_XSP16, literal(-11)))
          CFI V8 load(1, XDATA, add(CFA_XSP16, literal(-10)))
          CFI V9 load(1, XDATA, add(CFA_XSP16, literal(-9)))
          CFI V10 load(1, XDATA, add(CFA_XSP16, literal(-8)))
          CFI V11 load(1, XDATA, add(CFA_XSP16, literal(-7)))
          CFI R7 load(1, XDATA, add(CFA_XSP16, literal(-6)))
          CFI ?RET_LOW load(1, XDATA, add(CFA_XSP16, literal(-5)))
          CFI ?RET_HIGH load(1, XDATA, add(CFA_XSP16, literal(-4)))
          CFI ?BRET_EXT load(1, XDATA, add(CFA_XSP16, literal(-3)))
          CFI DPL0 load(1, XDATA, add(CFA_XSP16, literal(-2)))
          CFI DPH0 load(1, XDATA, add(CFA_XSP16, literal(-1)))
          CFI CFA_SP SP+-2
          CFI CFA_XSP16 add(XSP16, 20)
          CFI Block cfiCond132 Using cfiCommon0
          CFI (cfiCond132) Function ZDP_SimpleDescMsg
          CFI (cfiCond132) Conditional ??CrossCallReturnLabel_91
          CFI (cfiCond132) R6 load(1, XDATA, add(CFA_XSP16, literal(-20)))
          CFI (cfiCond132) VB load(1, XDATA, add(CFA_XSP16, literal(-19)))
          CFI (cfiCond132) V0 load(1, XDATA, add(CFA_XSP16, literal(-18)))
          CFI (cfiCond132) V1 load(1, XDATA, add(CFA_XSP16, literal(-17)))
          CFI (cfiCond132) V2 load(1, XDATA, add(CFA_XSP16, literal(-16)))
          CFI (cfiCond132) V3 load(1, XDATA, add(CFA_XSP16, literal(-15)))
          CFI (cfiCond132) V4 load(1, XDATA, add(CFA_XSP16, literal(-14)))
          CFI (cfiCond132) V5 load(1, XDATA, add(CFA_XSP16, literal(-13)))
          CFI (cfiCond132) V6 load(1, XDATA, add(CFA_XSP16, literal(-12)))
          CFI (cfiCond132) V7 load(1, XDATA, add(CFA_XSP16, literal(-11)))
          CFI (cfiCond132) V8 load(1, XDATA, add(CFA_XSP16, literal(-10)))
          CFI (cfiCond132) V9 load(1, XDATA, add(CFA_XSP16, literal(-9)))
          CFI (cfiCond132) V10 load(1, XDATA, add(CFA_XSP16, literal(-8)))
          CFI (cfiCond132) V11 load(1, XDATA, add(CFA_XSP16, literal(-7)))
          CFI (cfiCond132) R7 load(1, XDATA, add(CFA_XSP16, literal(-6)))
          CFI (cfiCond132) ?RET_LOW load(1, XDATA, add(CFA_XSP16, literal(-5)))
          CFI (cfiCond132) ?RET_HIGH load(1, XDATA, add(CFA_XSP16, literal(-4)))
          CFI (cfiCond132) ?BRET_EXT load(1, XDATA, add(CFA_XSP16, literal(-3)))
          CFI (cfiCond132) DPL0 load(1, XDATA, add(CFA_XSP16, literal(-2)))
          CFI (cfiCond132) DPH0 load(1, XDATA, add(CFA_XSP16, literal(-1)))
          CFI (cfiCond132) CFA_SP SP+-2
          CFI (cfiCond132) CFA_XSP16 add(XSP16, 20)
          CFI Block cfiCond133 Using cfiCommon0
          CFI (cfiCond133) Function ZDP_SimpleDescMsg
          CFI (cfiCond133) Conditional ??CrossCallReturnLabel_92
          CFI (cfiCond133) R6 load(1, XDATA, add(CFA_XSP16, literal(-20)))
          CFI (cfiCond133) VB load(1, XDATA, add(CFA_XSP16, literal(-19)))
          CFI (cfiCond133) V0 load(1, XDATA, add(CFA_XSP16, literal(-18)))
          CFI (cfiCond133) V1 load(1, XDATA, add(CFA_XSP16, literal(-17)))
          CFI (cfiCond133) V2 load(1, XDATA, add(CFA_XSP16, literal(-16)))
          CFI (cfiCond133) V3 load(1, XDATA, add(CFA_XSP16, literal(-15)))
          CFI (cfiCond133) V4 load(1, XDATA, add(CFA_XSP16, literal(-14)))
          CFI (cfiCond133) V5 load(1, XDATA, add(CFA_XSP16, literal(-13)))
          CFI (cfiCond133) V6 load(1, XDATA, add(CFA_XSP16, literal(-12)))
          CFI (cfiCond133) V7 load(1, XDATA, add(CFA_XSP16, literal(-11)))
          CFI (cfiCond133) V8 load(1, XDATA, add(CFA_XSP16, literal(-10)))
          CFI (cfiCond133) V9 load(1, XDATA, add(CFA_XSP16, literal(-9)))
          CFI (cfiCond133) V10 load(1, XDATA, add(CFA_XSP16, literal(-8)))
          CFI (cfiCond133) V11 load(1, XDATA, add(CFA_XSP16, literal(-7)))
          CFI (cfiCond133) R7 load(1, XDATA, add(CFA_XSP16, literal(-6)))
          CFI (cfiCond133) ?RET_LOW load(1, XDATA, add(CFA_XSP16, literal(-5)))
          CFI (cfiCond133) ?RET_HIGH load(1, XDATA, add(CFA_XSP16, literal(-4)))
          CFI (cfiCond133) ?BRET_EXT load(1, XDATA, add(CFA_XSP16, literal(-3)))
          CFI (cfiCond133) DPL0 load(1, XDATA, add(CFA_XSP16, literal(-2)))
          CFI (cfiCond133) DPH0 load(1, XDATA, add(CFA_XSP16, literal(-1)))
          CFI (cfiCond133) CFA_SP SP+-2
          CFI (cfiCond133) CFA_XSP16 add(XSP16, 20)
          CFI Block cfiPicker134 Using cfiCommon1
          CFI (cfiPicker134) NoFunction
          CFI (cfiPicker134) Picker
        LCALL     ??Subroutine110_0 & 0xFFFF
??CrossCallReturnLabel_197:
        INC       DPTR
        INC       DPTR
        RET
          CFI EndBlock cfiCond131
          CFI EndBlock cfiCond132
          CFI EndBlock cfiCond133
          CFI EndBlock cfiPicker134

        RSEG BANKED_CODE:HUGECODE:NOROOT(0)
?Subroutine50:
          CFI Block cfiCond135 Using cfiCommon0
          CFI Function ZDP_SimpleDescMsg
          CFI Conditional ??CrossCallReturnLabel_75
          CFI R6 load(1, XDATA, add(CFA_XSP16, literal(-20)))
          CFI VB load(1, XDATA, add(CFA_XSP16, literal(-19)))
          CFI V0 load(1, XDATA, add(CFA_XSP16, literal(-18)))
          CFI V1 load(1, XDATA, add(CFA_XSP16, literal(-17)))
          CFI V2 load(1, XDATA, add(CFA_XSP16, literal(-16)))
          CFI V3 load(1, XDATA, add(CFA_XSP16, literal(-15)))
          CFI V4 load(1, XDATA, add(CFA_XSP16, literal(-14)))
          CFI V5 load(1, XDATA, add(CFA_XSP16, literal(-13)))
          CFI V6 load(1, XDATA, add(CFA_XSP16, literal(-12)))
          CFI V7 load(1, XDATA, add(CFA_XSP16, literal(-11)))
          CFI V8 load(1, XDATA, add(CFA_XSP16, literal(-10)))
          CFI V9 load(1, XDATA, add(CFA_XSP16, literal(-9)))
          CFI V10 load(1, XDATA, add(CFA_XSP16, literal(-8)))
          CFI V11 load(1, XDATA, add(CFA_XSP16, literal(-7)))
          CFI R7 load(1, XDATA, add(CFA_XSP16, literal(-6)))
          CFI ?RET_LOW load(1, XDATA, add(CFA_XSP16, literal(-5)))
          CFI ?RET_HIGH load(1, XDATA, add(CFA_XSP16, literal(-4)))
          CFI ?BRET_EXT load(1, XDATA, add(CFA_XSP16, literal(-3)))
          CFI DPL0 load(1, XDATA, add(CFA_XSP16, literal(-2)))
          CFI DPH0 load(1, XDATA, add(CFA_XSP16, literal(-1)))
          CFI CFA_SP SP+-2
          CFI CFA_XSP16 add(XSP16, 20)
          CFI Block cfiCond136 Using cfiCommon0
          CFI (cfiCond136) Function ZDP_SimpleDescMsg
          CFI (cfiCond136) Conditional ??CrossCallReturnLabel_76
          CFI (cfiCond136) R6 load(1, XDATA, add(CFA_XSP16, literal(-20)))
          CFI (cfiCond136) VB load(1, XDATA, add(CFA_XSP16, literal(-19)))
          CFI (cfiCond136) V0 load(1, XDATA, add(CFA_XSP16, literal(-18)))
          CFI (cfiCond136) V1 load(1, XDATA, add(CFA_XSP16, literal(-17)))
          CFI (cfiCond136) V2 load(1, XDATA, add(CFA_XSP16, literal(-16)))
          CFI (cfiCond136) V3 load(1, XDATA, add(CFA_XSP16, literal(-15)))
          CFI (cfiCond136) V4 load(1, XDATA, add(CFA_XSP16, literal(-14)))
          CFI (cfiCond136) V5 load(1, XDATA, add(CFA_XSP16, literal(-13)))
          CFI (cfiCond136) V6 load(1, XDATA, add(CFA_XSP16, literal(-12)))
          CFI (cfiCond136) V7 load(1, XDATA, add(CFA_XSP16, literal(-11)))
          CFI (cfiCond136) V8 load(1, XDATA, add(CFA_XSP16, literal(-10)))
          CFI (cfiCond136) V9 load(1, XDATA, add(CFA_XSP16, literal(-9)))
          CFI (cfiCond136) V10 load(1, XDATA, add(CFA_XSP16, literal(-8)))
          CFI (cfiCond136) V11 load(1, XDATA, add(CFA_XSP16, literal(-7)))
          CFI (cfiCond136) R7 load(1, XDATA, add(CFA_XSP16, literal(-6)))
          CFI (cfiCond136) ?RET_LOW load(1, XDATA, add(CFA_XSP16, literal(-5)))
          CFI (cfiCond136) ?RET_HIGH load(1, XDATA, add(CFA_XSP16, literal(-4)))
          CFI (cfiCond136) ?BRET_EXT load(1, XDATA, add(CFA_XSP16, literal(-3)))
          CFI (cfiCond136) DPL0 load(1, XDATA, add(CFA_XSP16, literal(-2)))
          CFI (cfiCond136) DPH0 load(1, XDATA, add(CFA_XSP16, literal(-1)))
          CFI (cfiCond136) CFA_SP SP+-2
          CFI (cfiCond136) CFA_XSP16 add(XSP16, 20)
          CFI Block cfiPicker137 Using cfiCommon1
          CFI (cfiPicker137) NoFunction
          CFI (cfiPicker137) Picker
        MOV       DPL,R7
        MOV       DPH,A
        LCALL     ?Subroutine71 & 0xFFFF
??CrossCallReturnLabel_116:
        RET
          CFI EndBlock cfiCond135
          CFI EndBlock cfiCond136
          CFI EndBlock cfiPicker137

        RSEG BANKED_CODE:HUGECODE:NOROOT(0)
?Subroutine71:
          CFI Block cfiCond138 Using cfiCommon0
          CFI Function ZDP_MatchDescReq
          CFI Conditional ??CrossCallReturnLabel_115, ??CrossCallReturnLabel_2
          CFI R6 load(1, XDATA, add(CFA_XSP16, literal(-14)))
          CFI VB load(1, XDATA, add(CFA_XSP16, literal(-13)))
          CFI V0 load(1, XDATA, add(CFA_XSP16, literal(-12)))
          CFI V1 load(1, XDATA, add(CFA_XSP16, literal(-11)))
          CFI V2 load(1, XDATA, add(CFA_XSP16, literal(-10)))
          CFI V3 load(1, XDATA, add(CFA_XSP16, literal(-9)))
          CFI V4 load(1, XDATA, add(CFA_XSP16, literal(-8)))
          CFI V5 load(1, XDATA, add(CFA_XSP16, literal(-7)))
          CFI R7 load(1, XDATA, add(CFA_XSP16, literal(-6)))
          CFI ?RET_LOW load(1, XDATA, add(CFA_XSP16, literal(-5)))
          CFI ?RET_HIGH load(1, XDATA, add(CFA_XSP16, literal(-4)))
          CFI ?BRET_EXT load(1, XDATA, add(CFA_XSP16, literal(-3)))
          CFI DPL0 load(1, XDATA, add(CFA_XSP16, literal(-2)))
          CFI DPH0 load(1, XDATA, add(CFA_XSP16, literal(-1)))
          CFI CFA_SP SP+-4
          CFI CFA_XSP16 add(XSP16, 14)
          CFI Block cfiCond139 Using cfiCommon0
          CFI (cfiCond139) Function ZDP_MatchDescReq
          CFI (cfiCond139) Conditional ??CrossCallReturnLabel_115, ??CrossCallReturnLabel_3
          CFI (cfiCond139) R6 load(1, XDATA, add(CFA_XSP16, literal(-14)))
          CFI (cfiCond139) VB load(1, XDATA, add(CFA_XSP16, literal(-13)))
          CFI (cfiCond139) V0 load(1, XDATA, add(CFA_XSP16, literal(-12)))
          CFI (cfiCond139) V1 load(1, XDATA, add(CFA_XSP16, literal(-11)))
          CFI (cfiCond139) V2 load(1, XDATA, add(CFA_XSP16, literal(-10)))
          CFI (cfiCond139) V3 load(1, XDATA, add(CFA_XSP16, literal(-9)))
          CFI (cfiCond139) V4 load(1, XDATA, add(CFA_XSP16, literal(-8)))
          CFI (cfiCond139) V5 load(1, XDATA, add(CFA_XSP16, literal(-7)))
          CFI (cfiCond139) R7 load(1, XDATA, add(CFA_XSP16, literal(-6)))
          CFI (cfiCond139) ?RET_LOW load(1, XDATA, add(CFA_XSP16, literal(-5)))
          CFI (cfiCond139) ?RET_HIGH load(1, XDATA, add(CFA_XSP16, literal(-4)))
          CFI (cfiCond139) ?BRET_EXT load(1, XDATA, add(CFA_XSP16, literal(-3)))
          CFI (cfiCond139) DPL0 load(1, XDATA, add(CFA_XSP16, literal(-2)))
          CFI (cfiCond139) DPH0 load(1, XDATA, add(CFA_XSP16, literal(-1)))
          CFI (cfiCond139) CFA_SP SP+-4
          CFI (cfiCond139) CFA_XSP16 add(XSP16, 14)
          CFI Block cfiCond140 Using cfiCommon0
          CFI (cfiCond140) Function ZDP_SimpleDescMsg
          CFI (cfiCond140) Conditional ??CrossCallReturnLabel_116, ??CrossCallReturnLabel_75
          CFI (cfiCond140) R6 load(1, XDATA, add(CFA_XSP16, literal(-20)))
          CFI (cfiCond140) VB load(1, XDATA, add(CFA_XSP16, literal(-19)))
          CFI (cfiCond140) V0 load(1, XDATA, add(CFA_XSP16, literal(-18)))
          CFI (cfiCond140) V1 load(1, XDATA, add(CFA_XSP16, literal(-17)))
          CFI (cfiCond140) V2 load(1, XDATA, add(CFA_XSP16, literal(-16)))
          CFI (cfiCond140) V3 load(1, XDATA, add(CFA_XSP16, literal(-15)))
          CFI (cfiCond140) V4 load(1, XDATA, add(CFA_XSP16, literal(-14)))
          CFI (cfiCond140) V5 load(1, XDATA, add(CFA_XSP16, literal(-13)))
          CFI (cfiCond140) V6 load(1, XDATA, add(CFA_XSP16, literal(-12)))
          CFI (cfiCond140) V7 load(1, XDATA, add(CFA_XSP16, literal(-11)))
          CFI (cfiCond140) V8 load(1, XDATA, add(CFA_XSP16, literal(-10)))
          CFI (cfiCond140) V9 load(1, XDATA, add(CFA_XSP16, literal(-9)))
          CFI (cfiCond140) V10 load(1, XDATA, add(CFA_XSP16, literal(-8)))
          CFI (cfiCond140) V11 load(1, XDATA, add(CFA_XSP16, literal(-7)))
          CFI (cfiCond140) R7 load(1, XDATA, add(CFA_XSP16, literal(-6)))
          CFI (cfiCond140) ?RET_LOW load(1, XDATA, add(CFA_XSP16, literal(-5)))
          CFI (cfiCond140) ?RET_HIGH load(1, XDATA, add(CFA_XSP16, literal(-4)))
          CFI (cfiCond140) ?BRET_EXT load(1, XDATA, add(CFA_XSP16, literal(-3)))
          CFI (cfiCond140) DPL0 load(1, XDATA, add(CFA_XSP16, literal(-2)))
          CFI (cfiCond140) DPH0 load(1, XDATA, add(CFA_XSP16, literal(-1)))
          CFI (cfiCond140) CFA_SP SP+-4
          CFI (cfiCond140) CFA_XSP16 add(XSP16, 20)
          CFI Block cfiCond141 Using cfiCommon0
          CFI (cfiCond141) Function ZDP_SimpleDescMsg
          CFI (cfiCond141) Conditional ??CrossCallReturnLabel_116, ??CrossCallReturnLabel_76
          CFI (cfiCond141) R6 load(1, XDATA, add(CFA_XSP16, literal(-20)))
          CFI (cfiCond141) VB load(1, XDATA, add(CFA_XSP16, literal(-19)))
          CFI (cfiCond141) V0 load(1, XDATA, add(CFA_XSP16, literal(-18)))
          CFI (cfiCond141) V1 load(1, XDATA, add(CFA_XSP16, literal(-17)))
          CFI (cfiCond141) V2 load(1, XDATA, add(CFA_XSP16, literal(-16)))
          CFI (cfiCond141) V3 load(1, XDATA, add(CFA_XSP16, literal(-15)))
          CFI (cfiCond141) V4 load(1, XDATA, add(CFA_XSP16, literal(-14)))
          CFI (cfiCond141) V5 load(1, XDATA, add(CFA_XSP16, literal(-13)))
          CFI (cfiCond141) V6 load(1, XDATA, add(CFA_XSP16, literal(-12)))
          CFI (cfiCond141) V7 load(1, XDATA, add(CFA_XSP16, literal(-11)))
          CFI (cfiCond141) V8 load(1, XDATA, add(CFA_XSP16, literal(-10)))
          CFI (cfiCond141) V9 load(1, XDATA, add(CFA_XSP16, literal(-9)))
          CFI (cfiCond141) V10 load(1, XDATA, add(CFA_XSP16, literal(-8)))
          CFI (cfiCond141) V11 load(1, XDATA, add(CFA_XSP16, literal(-7)))
          CFI (cfiCond141) R7 load(1, XDATA, add(CFA_XSP16, literal(-6)))
          CFI (cfiCond141) ?RET_LOW load(1, XDATA, add(CFA_XSP16, literal(-5)))
          CFI (cfiCond141) ?RET_HIGH load(1, XDATA, add(CFA_XSP16, literal(-4)))
          CFI (cfiCond141) ?BRET_EXT load(1, XDATA, add(CFA_XSP16, literal(-3)))
          CFI (cfiCond141) DPL0 load(1, XDATA, add(CFA_XSP16, literal(-2)))
          CFI (cfiCond141) DPH0 load(1, XDATA, add(CFA_XSP16, literal(-1)))
          CFI (cfiCond141) CFA_SP SP+-4
          CFI (cfiCond141) CFA_XSP16 add(XSP16, 20)
          CFI Block cfiPicker142 Using cfiCommon1
          CFI (cfiPicker142) NoFunction
          CFI (cfiPicker142) Picker
        INC       DPTR
        MOVX      A,@DPTR
        MOV       DPL,R0
        MOV       DPH,R1
        INC       DPTR
        MOVX      @DPTR,A
        MOV       A,R0
        ADD       A,#0x2
        MOV       R0,A
        RET
          CFI EndBlock cfiCond138
          CFI EndBlock cfiCond139
          CFI EndBlock cfiCond140
          CFI EndBlock cfiCond141
          CFI EndBlock cfiPicker142

        RSEG BANKED_CODE:HUGECODE:NOROOT(0)
?Subroutine31:
          CFI Block cfiCond143 Using cfiCommon0
          CFI Function ZDP_SimpleDescMsg
          CFI Conditional ??CrossCallReturnLabel_159
          CFI R6 load(1, XDATA, add(CFA_XSP16, literal(-20)))
          CFI VB load(1, XDATA, add(CFA_XSP16, literal(-19)))
          CFI V0 load(1, XDATA, add(CFA_XSP16, literal(-18)))
          CFI V1 load(1, XDATA, add(CFA_XSP16, literal(-17)))
          CFI V2 load(1, XDATA, add(CFA_XSP16, literal(-16)))
          CFI V3 load(1, XDATA, add(CFA_XSP16, literal(-15)))
          CFI V4 load(1, XDATA, add(CFA_XSP16, literal(-14)))
          CFI V5 load(1, XDATA, add(CFA_XSP16, literal(-13)))
          CFI V6 load(1, XDATA, add(CFA_XSP16, literal(-12)))
          CFI V7 load(1, XDATA, add(CFA_XSP16, literal(-11)))
          CFI V8 load(1, XDATA, add(CFA_XSP16, literal(-10)))
          CFI V9 load(1, XDATA, add(CFA_XSP16, literal(-9)))
          CFI V10 load(1, XDATA, add(CFA_XSP16, literal(-8)))
          CFI V11 load(1, XDATA, add(CFA_XSP16, literal(-7)))
          CFI R7 load(1, XDATA, add(CFA_XSP16, literal(-6)))
          CFI ?RET_LOW load(1, XDATA, add(CFA_XSP16, literal(-5)))
          CFI ?RET_HIGH load(1, XDATA, add(CFA_XSP16, literal(-4)))
          CFI ?BRET_EXT load(1, XDATA, add(CFA_XSP16, literal(-3)))
          CFI DPL0 load(1, XDATA, add(CFA_XSP16, literal(-2)))
          CFI DPH0 load(1, XDATA, add(CFA_XSP16, literal(-1)))
          CFI CFA_SP SP+-2
          CFI CFA_XSP16 add(XSP16, 20)
          CFI Block cfiCond144 Using cfiCommon0
          CFI (cfiCond144) Function ZDP_SimpleDescMsg
          CFI (cfiCond144) Conditional ??CrossCallReturnLabel_160
          CFI (cfiCond144) R6 load(1, XDATA, add(CFA_XSP16, literal(-20)))
          CFI (cfiCond144) VB load(1, XDATA, add(CFA_XSP16, literal(-19)))
          CFI (cfiCond144) V0 load(1, XDATA, add(CFA_XSP16, literal(-18)))
          CFI (cfiCond144) V1 load(1, XDATA, add(CFA_XSP16, literal(-17)))
          CFI (cfiCond144) V2 load(1, XDATA, add(CFA_XSP16, literal(-16)))
          CFI (cfiCond144) V3 load(1, XDATA, add(CFA_XSP16, literal(-15)))
          CFI (cfiCond144) V4 load(1, XDATA, add(CFA_XSP16, literal(-14)))
          CFI (cfiCond144) V5 load(1, XDATA, add(CFA_XSP16, literal(-13)))
          CFI (cfiCond144) V6 load(1, XDATA, add(CFA_XSP16, literal(-12)))
          CFI (cfiCond144) V7 load(1, XDATA, add(CFA_XSP16, literal(-11)))
          CFI (cfiCond144) V8 load(1, XDATA, add(CFA_XSP16, literal(-10)))
          CFI (cfiCond144) V9 load(1, XDATA, add(CFA_XSP16, literal(-9)))
          CFI (cfiCond144) V10 load(1, XDATA, add(CFA_XSP16, literal(-8)))
          CFI (cfiCond144) V11 load(1, XDATA, add(CFA_XSP16, literal(-7)))
          CFI (cfiCond144) R7 load(1, XDATA, add(CFA_XSP16, literal(-6)))
          CFI (cfiCond144) ?RET_LOW load(1, XDATA, add(CFA_XSP16, literal(-5)))
          CFI (cfiCond144) ?RET_HIGH load(1, XDATA, add(CFA_XSP16, literal(-4)))
          CFI (cfiCond144) ?BRET_EXT load(1, XDATA, add(CFA_XSP16, literal(-3)))
          CFI (cfiCond144) DPL0 load(1, XDATA, add(CFA_XSP16, literal(-2)))
          CFI (cfiCond144) DPH0 load(1, XDATA, add(CFA_XSP16, literal(-1)))
          CFI (cfiCond144) CFA_SP SP+-2
          CFI (cfiCond144) CFA_XSP16 add(XSP16, 20)
          CFI Block cfiPicker145 Using cfiCommon1
          CFI (cfiPicker145) NoFunction
          CFI (cfiPicker145) Picker
        INC       DPTR
        INC       DPTR
          CFI EndBlock cfiCond143
          CFI EndBlock cfiCond144
          CFI EndBlock cfiPicker145
        REQUIRE ??Subroutine102_0
        ; // Fall through to label ??Subroutine102_0

        RSEG BANKED_CODE:HUGECODE:NOROOT(0)
??Subroutine102_0:
          CFI Block cfiCond146 Using cfiCommon0
          CFI Function ZDP_NodeDescMsg
          CFI Conditional ??CrossCallReturnLabel_161
          CFI R6 load(1, XDATA, add(CFA_XSP16, literal(-10)))
          CFI VB load(1, XDATA, add(CFA_XSP16, literal(-9)))
          CFI V0 load(1, XDATA, add(CFA_XSP16, literal(-8)))
          CFI V1 load(1, XDATA, add(CFA_XSP16, literal(-7)))
          CFI R7 load(1, XDATA, add(CFA_XSP16, literal(-6)))
          CFI ?RET_LOW load(1, XDATA, add(CFA_XSP16, literal(-5)))
          CFI ?RET_HIGH load(1, XDATA, add(CFA_XSP16, literal(-4)))
          CFI ?BRET_EXT load(1, XDATA, add(CFA_XSP16, literal(-3)))
          CFI DPL0 load(1, XDATA, add(CFA_XSP16, literal(-2)))
          CFI DPH0 load(1, XDATA, add(CFA_XSP16, literal(-1)))
          CFI CFA_SP SP+-2
          CFI CFA_XSP16 add(XSP16, 10)
          CFI Block cfiCond147 Using cfiCommon0
          CFI (cfiCond147) Function ZDP_SimpleDescMsg
          CFI (cfiCond147) Conditional ??CrossCallReturnLabel_159
          CFI (cfiCond147) R6 load(1, XDATA, add(CFA_XSP16, literal(-20)))
          CFI (cfiCond147) VB load(1, XDATA, add(CFA_XSP16, literal(-19)))
          CFI (cfiCond147) V0 load(1, XDATA, add(CFA_XSP16, literal(-18)))
          CFI (cfiCond147) V1 load(1, XDATA, add(CFA_XSP16, literal(-17)))
          CFI (cfiCond147) V2 load(1, XDATA, add(CFA_XSP16, literal(-16)))
          CFI (cfiCond147) V3 load(1, XDATA, add(CFA_XSP16, literal(-15)))
          CFI (cfiCond147) V4 load(1, XDATA, add(CFA_XSP16, literal(-14)))
          CFI (cfiCond147) V5 load(1, XDATA, add(CFA_XSP16, literal(-13)))
          CFI (cfiCond147) V6 load(1, XDATA, add(CFA_XSP16, literal(-12)))
          CFI (cfiCond147) V7 load(1, XDATA, add(CFA_XSP16, literal(-11)))
          CFI (cfiCond147) V8 load(1, XDATA, add(CFA_XSP16, literal(-10)))
          CFI (cfiCond147) V9 load(1, XDATA, add(CFA_XSP16, literal(-9)))
          CFI (cfiCond147) V10 load(1, XDATA, add(CFA_XSP16, literal(-8)))
          CFI (cfiCond147) V11 load(1, XDATA, add(CFA_XSP16, literal(-7)))
          CFI (cfiCond147) R7 load(1, XDATA, add(CFA_XSP16, literal(-6)))
          CFI (cfiCond147) ?RET_LOW load(1, XDATA, add(CFA_XSP16, literal(-5)))
          CFI (cfiCond147) ?RET_HIGH load(1, XDATA, add(CFA_XSP16, literal(-4)))
          CFI (cfiCond147) ?BRET_EXT load(1, XDATA, add(CFA_XSP16, literal(-3)))
          CFI (cfiCond147) DPL0 load(1, XDATA, add(CFA_XSP16, literal(-2)))
          CFI (cfiCond147) DPH0 load(1, XDATA, add(CFA_XSP16, literal(-1)))
          CFI (cfiCond147) CFA_SP SP+-2
          CFI (cfiCond147) CFA_XSP16 add(XSP16, 20)
          CFI Block cfiCond148 Using cfiCommon0
          CFI (cfiCond148) Function ZDP_SimpleDescMsg
          CFI (cfiCond148) Conditional ??CrossCallReturnLabel_160
          CFI (cfiCond148) R6 load(1, XDATA, add(CFA_XSP16, literal(-20)))
          CFI (cfiCond148) VB load(1, XDATA, add(CFA_XSP16, literal(-19)))
          CFI (cfiCond148) V0 load(1, XDATA, add(CFA_XSP16, literal(-18)))
          CFI (cfiCond148) V1 load(1, XDATA, add(CFA_XSP16, literal(-17)))
          CFI (cfiCond148) V2 load(1, XDATA, add(CFA_XSP16, literal(-16)))
          CFI (cfiCond148) V3 load(1, XDATA, add(CFA_XSP16, literal(-15)))
          CFI (cfiCond148) V4 load(1, XDATA, add(CFA_XSP16, literal(-14)))
          CFI (cfiCond148) V5 load(1, XDATA, add(CFA_XSP16, literal(-13)))
          CFI (cfiCond148) V6 load(1, XDATA, add(CFA_XSP16, literal(-12)))
          CFI (cfiCond148) V7 load(1, XDATA, add(CFA_XSP16, literal(-11)))
          CFI (cfiCond148) V8 load(1, XDATA, add(CFA_XSP16, literal(-10)))
          CFI (cfiCond148) V9 load(1, XDATA, add(CFA_XSP16, literal(-9)))
          CFI (cfiCond148) V10 load(1, XDATA, add(CFA_XSP16, literal(-8)))
          CFI (cfiCond148) V11 load(1, XDATA, add(CFA_XSP16, literal(-7)))
          CFI (cfiCond148) R7 load(1, XDATA, add(CFA_XSP16, literal(-6)))
          CFI (cfiCond148) ?RET_LOW load(1, XDATA, add(CFA_XSP16, literal(-5)))
          CFI (cfiCond148) ?RET_HIGH load(1, XDATA, add(CFA_XSP16, literal(-4)))
          CFI (cfiCond148) ?BRET_EXT load(1, XDATA, add(CFA_XSP16, literal(-3)))
          CFI (cfiCond148) DPL0 load(1, XDATA, add(CFA_XSP16, literal(-2)))
          CFI (cfiCond148) DPH0 load(1, XDATA, add(CFA_XSP16, literal(-1)))
          CFI (cfiCond148) CFA_SP SP+-2
          CFI (cfiCond148) CFA_XSP16 add(XSP16, 20)
          CFI Block cfiPicker149 Using cfiCommon1
          CFI (cfiPicker149) NoFunction
          CFI (cfiPicker149) Picker
        MOVX      @DPTR,A
        MOV       DPL,R4
        MOV       DPH,R5
        INC       DPTR
        RET
          CFI EndBlock cfiCond146
          CFI EndBlock cfiCond147
          CFI EndBlock cfiCond148
          CFI EndBlock cfiPicker149

        RSEG BANKED_CODE:HUGECODE:NOROOT(0)
?Subroutine12:
          CFI Block cfiCond150 Using cfiCommon0
          CFI Function ZDP_SimpleDescMsg
          CFI Conditional ??CrossCallReturnLabel_4
          CFI R6 load(1, XDATA, add(CFA_XSP16, literal(-20)))
          CFI VB load(1, XDATA, add(CFA_XSP16, literal(-19)))
          CFI V0 load(1, XDATA, add(CFA_XSP16, literal(-18)))
          CFI V1 load(1, XDATA, add(CFA_XSP16, literal(-17)))
          CFI V2 load(1, XDATA, add(CFA_XSP16, literal(-16)))
          CFI V3 load(1, XDATA, add(CFA_XSP16, literal(-15)))
          CFI V4 load(1, XDATA, add(CFA_XSP16, literal(-14)))
          CFI V5 load(1, XDATA, add(CFA_XSP16, literal(-13)))
          CFI V6 load(1, XDATA, add(CFA_XSP16, literal(-12)))
          CFI V7 load(1, XDATA, add(CFA_XSP16, literal(-11)))
          CFI V8 load(1, XDATA, add(CFA_XSP16, literal(-10)))
          CFI V9 load(1, XDATA, add(CFA_XSP16, literal(-9)))
          CFI V10 load(1, XDATA, add(CFA_XSP16, literal(-8)))
          CFI V11 load(1, XDATA, add(CFA_XSP16, literal(-7)))
          CFI R7 load(1, XDATA, add(CFA_XSP16, literal(-6)))
          CFI ?RET_LOW load(1, XDATA, add(CFA_XSP16, literal(-5)))
          CFI ?RET_HIGH load(1, XDATA, add(CFA_XSP16, literal(-4)))
          CFI ?BRET_EXT load(1, XDATA, add(CFA_XSP16, literal(-3)))
          CFI DPL0 load(1, XDATA, add(CFA_XSP16, literal(-2)))
          CFI DPH0 load(1, XDATA, add(CFA_XSP16, literal(-1)))
          CFI CFA_SP SP+-2
          CFI CFA_XSP16 add(XSP16, 20)
          CFI Block cfiCond151 Using cfiCommon0
          CFI (cfiCond151) Function ZDP_SimpleDescMsg
          CFI (cfiCond151) Conditional ??CrossCallReturnLabel_5
          CFI (cfiCond151) R6 load(1, XDATA, add(CFA_XSP16, literal(-20)))
          CFI (cfiCond151) VB load(1, XDATA, add(CFA_XSP16, literal(-19)))
          CFI (cfiCond151) V0 load(1, XDATA, add(CFA_XSP16, literal(-18)))
          CFI (cfiCond151) V1 load(1, XDATA, add(CFA_XSP16, literal(-17)))
          CFI (cfiCond151) V2 load(1, XDATA, add(CFA_XSP16, literal(-16)))
          CFI (cfiCond151) V3 load(1, XDATA, add(CFA_XSP16, literal(-15)))
          CFI (cfiCond151) V4 load(1, XDATA, add(CFA_XSP16, literal(-14)))
          CFI (cfiCond151) V5 load(1, XDATA, add(CFA_XSP16, literal(-13)))
          CFI (cfiCond151) V6 load(1, XDATA, add(CFA_XSP16, literal(-12)))
          CFI (cfiCond151) V7 load(1, XDATA, add(CFA_XSP16, literal(-11)))
          CFI (cfiCond151) V8 load(1, XDATA, add(CFA_XSP16, literal(-10)))
          CFI (cfiCond151) V9 load(1, XDATA, add(CFA_XSP16, literal(-9)))
          CFI (cfiCond151) V10 load(1, XDATA, add(CFA_XSP16, literal(-8)))
          CFI (cfiCond151) V11 load(1, XDATA, add(CFA_XSP16, literal(-7)))
          CFI (cfiCond151) R7 load(1, XDATA, add(CFA_XSP16, literal(-6)))
          CFI (cfiCond151) ?RET_LOW load(1, XDATA, add(CFA_XSP16, literal(-5)))
          CFI (cfiCond151) ?RET_HIGH load(1, XDATA, add(CFA_XSP16, literal(-4)))
          CFI (cfiCond151) ?BRET_EXT load(1, XDATA, add(CFA_XSP16, literal(-3)))
          CFI (cfiCond151) DPL0 load(1, XDATA, add(CFA_XSP16, literal(-2)))
          CFI (cfiCond151) DPH0 load(1, XDATA, add(CFA_XSP16, literal(-1)))
          CFI (cfiCond151) CFA_SP SP+-2
          CFI (cfiCond151) CFA_XSP16 add(XSP16, 20)
          CFI Block cfiPicker152 Using cfiCommon1
          CFI (cfiPicker152) NoFunction
          CFI (cfiPicker152) Picker
        INC       DPTR
        INC       DPTR
        INC       DPTR
        INC       DPTR
        INC       DPTR
        LCALL     ?Subroutine84 & 0xFFFF
??CrossCallReturnLabel_129:
        LCALL     ?Subroutine73 & 0xFFFF
??CrossCallReturnLabel_119:
        INC       DPTR
        RET
          CFI EndBlock cfiCond150
          CFI EndBlock cfiCond151
          CFI EndBlock cfiPicker152
//  953 
//  954 /*********************************************************************
//  955  * @fn          ZDP_EPRsp
//  956  *
//  957  * @brief       This builds and send an endpoint list. Used in
//  958  *              Active_EP_rsp and Match_Desc_Rsp
//  959  *              message.  This function sends unicast message to the
//  960  *              requesting device.
//  961  *
//  962  * @param       MsgType - either Active_EP_rsp or Match_Desc_Rsp
//  963  * @param       dstAddr - destination address
//  964  * @param       Status - message status (ZDP_SUCCESS or other)
//  965  * @param       nwkAddr - Device's short address that this response describes
//  966  * @param       Count - number of endpoint/interfaces in list
//  967  * @param       pEPIntfList - Array of Endpoint/Interfaces
//  968  * @param       SecurityEnable - Security Options
//  969  *
//  970  * @return      afStatus_t
//  971  */

        RSEG BANKED_CODE:HUGECODE:NOROOT(0)
//  972 afStatus_t ZDP_EPRsp( uint16 MsgType, byte TransSeq, zAddrType_t *dstAddr,
ZDP_EPRsp:
          CFI Block cfiBlock153 Using cfiCommon0
          CFI Function ZDP_EPRsp
        CODE
//  973                         byte Status, uint16 nwkAddr, byte Count,
//  974                         uint8 *pEPList,
//  975                         byte SecurityEnable )
//  976 {
        FUNCALL ZDP_EPRsp, osal_memcpy
        LOCFRAME ISTACK, 0, STACK
        LOCFRAME PSTACK, 0, STACK
        LOCFRAME XSTACK, 19, STACK
        LOCFRAME IOVERLAY, 0, STATIC
        LOCFRAME DOVERLAY, 0, STATIC
        ARGFRAME ISTACK, 0, STACK
        ARGFRAME PSTACK, 0, STACK
        ARGFRAME XSTACK, 19, STACK
        ARGFRAME IOVERLAY, 0, STATIC
        ARGFRAME DOVERLAY, 0, STATIC
        FUNCALL ZDP_EPRsp, fillAndSend
        LOCFRAME ISTACK, 0, STACK
        LOCFRAME PSTACK, 0, STACK
        LOCFRAME XSTACK, 18, STACK
        LOCFRAME IOVERLAY, 0, STATIC
        LOCFRAME DOVERLAY, 0, STATIC
        ARGFRAME ISTACK, 0, STACK
        ARGFRAME PSTACK, 0, STACK
        ARGFRAME XSTACK, 18, STACK
        ARGFRAME IOVERLAY, 0, STATIC
        ARGFRAME DOVERLAY, 0, STATIC
        REQUIRE ?V0
        REQUIRE ?V1
        REQUIRE ?V2
        REQUIRE ?V3
        REQUIRE ?V4
        REQUIRE ?V5
        REQUIRE ?V6
        MOV       A,#-0xf
        LCALL     ?BANKED_ENTER_XDATA
          CFI DPH0 load(1, XDATA, add(CFA_XSP16, literal(-1)))
          CFI DPL0 load(1, XDATA, add(CFA_XSP16, literal(-2)))
          CFI ?BRET_EXT load(1, XDATA, add(CFA_XSP16, literal(-3)))
          CFI ?RET_HIGH load(1, XDATA, add(CFA_XSP16, literal(-4)))
          CFI ?RET_LOW load(1, XDATA, add(CFA_XSP16, literal(-5)))
          CFI R7 load(1, XDATA, add(CFA_XSP16, literal(-6)))
          CFI V6 load(1, XDATA, add(CFA_XSP16, literal(-7)))
          CFI V5 load(1, XDATA, add(CFA_XSP16, literal(-8)))
          CFI V4 load(1, XDATA, add(CFA_XSP16, literal(-9)))
          CFI V3 load(1, XDATA, add(CFA_XSP16, literal(-10)))
          CFI V2 load(1, XDATA, add(CFA_XSP16, literal(-11)))
          CFI V1 load(1, XDATA, add(CFA_XSP16, literal(-12)))
          CFI V0 load(1, XDATA, add(CFA_XSP16, literal(-13)))
          CFI VB load(1, XDATA, add(CFA_XSP16, literal(-14)))
          CFI R6 load(1, XDATA, add(CFA_XSP16, literal(-15)))
          CFI CFA_SP SP+0
          CFI CFA_XSP16 add(XSP16, 15)
        ; Saved register size: 15
        ; Auto size: 1
        MOV       A,#-0x1
        LCALL     ?ALLOC_XSTACK8
          CFI CFA_XSP16 add(XSP16, 16)
        MOV       A,R1
        MOV       DPL,?XSP + 0
        MOV       DPH,?XSP + 1
        MOVX      @DPTR,A
        MOV       ?V2,R2
        MOV       ?V3,R3
        MOV       A,R4
        MOV       R6,A
        MOV       A,R5
        MOV       R7,A
//  977   uint8 *pBuf = ZDP_TmpBuf;
        MOV       DPTR,#ZDP_TmpBuf
        LCALL     ?Subroutine54 & 0xFFFF
//  978   byte len = 1 + 2 + 1;  // Status + nwkAddr + endpoint/interface count.
??CrossCallReturnLabel_83:
        MOV       ?V0,#0x4
//  979   byte txOptions;
//  980 
//  981   (void)SecurityEnable;  // Intentionally unreferenced parameter
//  982 
//  983   if ( MsgType == Match_Desc_rsp )
        MOV       A,#0x6
        XRL       A,?V2
        JNZ       ??ZDP_EPRsp_0
        MOV       A,#-0x80
        XRL       A,?V3
??ZDP_EPRsp_0:
        JNZ       ??ZDP_EPRsp_1
//  984     txOptions = AF_MSG_ACK_REQUEST;
        MOV       ?V1,#0x10
        SJMP      ??ZDP_EPRsp_2
//  985   else
//  986     txOptions = 0;
??ZDP_EPRsp_1:
        MOV       ?V1,#0x0
//  987 
//  988     *pBuf++ = Status;
??ZDP_EPRsp_2:
        MOV       A,#0x10
        LCALL     ?XSTACK_DISP0_8
        LCALL     ?Subroutine57 & 0xFFFF
??CrossCallReturnLabel_85:
        MOV       A,#0x11
        LCALL     ?XSTACK_DISP0_8
        LCALL     ?Subroutine15 & 0xFFFF
//  989   *pBuf++ = LO_UINT16( nwkAddr );
//  990   *pBuf++ = HI_UINT16( nwkAddr );
??CrossCallReturnLabel_10:
        MOV       A,#0x13
        LCALL     ?XSTACK_DISP0_8
        MOVX      A,@DPTR
        MOV       R1,A
//  991 
//  992   *pBuf++ = Count;   // Endpoint/Interface count
        MOV       DPL,R2
        MOV       DPH,R3
        INC       DPTR
        INC       DPTR
        INC       DPTR
        MOVX      @DPTR,A
//  993 
//  994   if ( Count )
        JZ        ??ZDP_EPRsp_3
//  995   {
//  996     len += Count;
        MOV       A,#0x4
        ADD       A,R1
        MOV       ?V0,A
//  997     osal_memcpy( pBuf, pEPList, Count );
        ; Setup parameters for call to function osal_memcpy
        MOV       A,#0x14
        LCALL     ?XSTACK_DISP0_8
        LCALL     ?Subroutine47 & 0xFFFF
//  998   }
??CrossCallReturnLabel_68:
        LCALL     ?PUSH_XSTACK_I_THREE
          CFI CFA_XSP16 add(XSP16, 19)
        MOV       A,R1
        MOV       R4,A
        MOV       R5,#0x0
        MOV       A,R2
        ADD       A,#0x4
        MOV       R2,A
        JNC       ??ZDP_EPRsp_4
        INC       R3
??ZDP_EPRsp_4:
        LCALL     `??osal_memcpy::?relay`; Banked call to: osal_memcpy
        MOV       A,#0x3
        LCALL     ?DEALLOC_XSTACK8
          CFI CFA_XSP16 add(XSP16, 16)
//  999 
// 1000   FillAndSendTxOptions( &TransSeq, dstAddr, MsgType, len, txOptions );
??ZDP_EPRsp_3:
        MOV       A,?V1
        MOV       DPTR,#ZDP_TxOptions
        MOVX      @DPTR,A
        ; Setup parameters for call to function fillAndSend
        MOV       R0,#?V2
        LCALL     ?PUSH_XSTACK_I_TWO
          CFI CFA_XSP16 add(XSP16, 18)
        MOV       R1,?V0
        MOV       A,R6
        MOV       R4,A
        MOV       A,R7
        MOV       R5,A
        MOV       A,#0x2
        LCALL     ?XSTACK_DISP101_8
        LCALL     `??fillAndSend::?relay`; Banked call to: fillAndSend
        MOV       A,#0x2
        LCALL     ?DEALLOC_XSTACK8
          CFI CFA_XSP16 add(XSP16, 16)
        MOV       A,R1
        MOV       R1,A
        MOV       DPTR,#ZDP_TxOptions
        CLR       A
        MOVX      @DPTR,A
        INC       A
        LJMP      ?Subroutine3 & 0xFFFF
// 1001 }
          CFI EndBlock cfiBlock153
// 1002 
// 1003 /*********************************************************************
// 1004  * @fn          ZDP_UserDescRsp
// 1005  *
// 1006  * @brief       Build and send the User Decriptor Response.
// 1007  *
// 1008  *
// 1009  * @param       dstAddr - destination address
// 1010  * @param       nwkAddrOfInterest -
// 1011  * @param       userDesc -
// 1012  * @param       SecurityEnable - Security Options
// 1013  *
// 1014  * @return      ZStatus_t
// 1015  */

        RSEG BANKED_CODE:HUGECODE:NOROOT(0)
// 1016 ZStatus_t ZDP_UserDescRsp( byte TransSeq, zAddrType_t *dstAddr,
ZDP_UserDescRsp:
          CFI Block cfiBlock154 Using cfiCommon0
          CFI Function ZDP_UserDescRsp
        CODE
// 1017                 uint16 nwkAddrOfInterest, UserDescriptorFormat_t *userDesc,
// 1018                 byte SecurityEnable )
// 1019 {
        FUNCALL ZDP_UserDescRsp, osal_memcpy
        LOCFRAME ISTACK, 0, STACK
        LOCFRAME PSTACK, 0, STACK
        LOCFRAME XSTACK, 22, STACK
        LOCFRAME IOVERLAY, 0, STATIC
        LOCFRAME DOVERLAY, 0, STATIC
        ARGFRAME ISTACK, 0, STACK
        ARGFRAME PSTACK, 0, STACK
        ARGFRAME XSTACK, 22, STACK
        ARGFRAME IOVERLAY, 0, STATIC
        ARGFRAME DOVERLAY, 0, STATIC
        FUNCALL ZDP_UserDescRsp, fillAndSend
        LOCFRAME ISTACK, 0, STACK
        LOCFRAME PSTACK, 0, STACK
        LOCFRAME XSTACK, 21, STACK
        LOCFRAME IOVERLAY, 0, STATIC
        LOCFRAME DOVERLAY, 0, STATIC
        ARGFRAME ISTACK, 0, STACK
        ARGFRAME PSTACK, 0, STACK
        ARGFRAME XSTACK, 21, STACK
        ARGFRAME IOVERLAY, 0, STATIC
        ARGFRAME DOVERLAY, 0, STATIC
        REQUIRE ?V0
        REQUIRE ?V1
        REQUIRE ?V2
        REQUIRE ?V4
        REQUIRE ?V5
        REQUIRE ?V6
        REQUIRE ?V8
        REQUIRE ?V9
        MOV       A,#-0x12
        LCALL     ?BANKED_ENTER_XDATA
          CFI DPH0 load(1, XDATA, add(CFA_XSP16, literal(-1)))
          CFI DPL0 load(1, XDATA, add(CFA_XSP16, literal(-2)))
          CFI ?BRET_EXT load(1, XDATA, add(CFA_XSP16, literal(-3)))
          CFI ?RET_HIGH load(1, XDATA, add(CFA_XSP16, literal(-4)))
          CFI ?RET_LOW load(1, XDATA, add(CFA_XSP16, literal(-5)))
          CFI R7 load(1, XDATA, add(CFA_XSP16, literal(-6)))
          CFI V9 load(1, XDATA, add(CFA_XSP16, literal(-7)))
          CFI V8 load(1, XDATA, add(CFA_XSP16, literal(-8)))
          CFI V7 load(1, XDATA, add(CFA_XSP16, literal(-9)))
          CFI V6 load(1, XDATA, add(CFA_XSP16, literal(-10)))
          CFI V5 load(1, XDATA, add(CFA_XSP16, literal(-11)))
          CFI V4 load(1, XDATA, add(CFA_XSP16, literal(-12)))
          CFI V3 load(1, XDATA, add(CFA_XSP16, literal(-13)))
          CFI V2 load(1, XDATA, add(CFA_XSP16, literal(-14)))
          CFI V1 load(1, XDATA, add(CFA_XSP16, literal(-15)))
          CFI V0 load(1, XDATA, add(CFA_XSP16, literal(-16)))
          CFI VB load(1, XDATA, add(CFA_XSP16, literal(-17)))
          CFI R6 load(1, XDATA, add(CFA_XSP16, literal(-18)))
          CFI CFA_SP SP+0
          CFI CFA_XSP16 add(XSP16, 18)
        ; Saved register size: 18
        ; Auto size: 1
        MOV       A,#-0x1
        LCALL     ?ALLOC_XSTACK8
          CFI CFA_XSP16 add(XSP16, 19)
        MOV       A,R1
        MOV       DPL,?XSP + 0
        MOV       DPH,?XSP + 1
        MOVX      @DPTR,A
        LCALL     ?Subroutine56 & 0xFFFF
// 1020   uint8 *pBuf = ZDP_TmpBuf;
??CrossCallReturnLabel_228:
        MOV       ?V0,R0
        MOV       ?V1,R1
        MOV       A,#0x13
        LCALL     ?XSTACK_DISP0_8
        LCALL     ??Subroutine118_0 & 0xFFFF
??CrossCallReturnLabel_231:
        MOV       ?V8,R0
        MOV       ?V9,R1
// 1021   byte len = 1 + 2 + 1;  // Status + nwkAddr + descriptor length.
// 1022 
// 1023   (void)SecurityEnable;  // Intentionally unreferenced parameter
// 1024 
// 1025   len += userDesc->len;
        MOV       DPL,R0
        MOV       DPH,A
        MOVX      A,@DPTR
        ADD       A,#0x4
        MOV       ?V2,A
// 1026 
// 1027   *pBuf++ = ZSUCCESS;
        MOV       DPL,?V0
        MOV       DPH,?V1
        CLR       A
        MOVX      @DPTR,A
// 1028 
// 1029   *pBuf++ = LO_UINT16( nwkAddrOfInterest );
        MOV       A,R4
        INC       DPTR
        MOVX      @DPTR,A
// 1030   *pBuf++ = HI_UINT16( nwkAddrOfInterest );
        MOV       A,R5
        MOV       DPL,?V0
        MOV       DPH,?V1
        LCALL     ?Subroutine32 & 0xFFFF
// 1031 
// 1032   *pBuf++ = userDesc->len;
??CrossCallReturnLabel_157:
        MOV       DPL,?V0
        MOV       DPH,?V1
        INC       DPTR
        INC       DPTR
        INC       DPTR
        LCALL     ?Subroutine10 & 0xFFFF
// 1033   osal_memcpy( pBuf, userDesc->desc, userDesc->len );
??CrossCallReturnLabel_1:
        LCALL     ?PUSH_XSTACK_I_THREE
          CFI CFA_XSP16 add(XSP16, 22)
        MOV       DPL,?V8
        MOV       DPH,?V9
        MOVX      A,@DPTR
        MOV       R4,A
        MOV       R5,#0x0
        MOV       A,?V0
        ADD       A,#0x4
        MOV       R2,A
        CLR       A
        ADDC      A,?V1
        MOV       R3,A
        LCALL     `??osal_memcpy::?relay`; Banked call to: osal_memcpy
        MOV       A,#0x3
        LCALL     ?DEALLOC_XSTACK8
          CFI CFA_XSP16 add(XSP16, 19)
// 1034 
// 1035   return (ZStatus_t)fillAndSend( &TransSeq, dstAddr, User_Desc_rsp, len );
        ; Setup parameters for call to function fillAndSend
        MOV       ?V0,#0x11
        MOV       ?V1,#-0x80
        MOV       R0,#?V0
        LCALL     ?PUSH_XSTACK_I_TWO
          CFI CFA_XSP16 add(XSP16, 21)
        MOV       R1,?V2
        MOV       A,R6
        MOV       R4,A
        MOV       A,R7
        MOV       R5,A
        MOV       A,#0x2
        LCALL     ?XSTACK_DISP101_8
        LCALL     `??fillAndSend::?relay`; Banked call to: fillAndSend
        MOV       A,#0x2
        LCALL     ?DEALLOC_XSTACK8
          CFI CFA_XSP16 add(XSP16, 19)
        LJMP      ?Subroutine5 & 0xFFFF
// 1036 }
          CFI EndBlock cfiBlock154

        RSEG BANKED_CODE:HUGECODE:NOROOT(0)
?Subroutine10:
          CFI Block cfiCond155 Using cfiCommon0
          CFI Function ZDP_UserDescSet
          CFI Conditional ??CrossCallReturnLabel_0
          CFI R6 load(1, XDATA, add(CFA_XSP16, literal(-15)))
          CFI VB load(1, XDATA, add(CFA_XSP16, literal(-14)))
          CFI V0 load(1, XDATA, add(CFA_XSP16, literal(-13)))
          CFI V1 load(1, XDATA, add(CFA_XSP16, literal(-12)))
          CFI V2 load(1, XDATA, add(CFA_XSP16, literal(-11)))
          CFI V3 load(1, XDATA, add(CFA_XSP16, literal(-10)))
          CFI V4 load(1, XDATA, add(CFA_XSP16, literal(-9)))
          CFI V5 load(1, XDATA, add(CFA_XSP16, literal(-8)))
          CFI V6 load(1, XDATA, add(CFA_XSP16, literal(-7)))
          CFI R7 load(1, XDATA, add(CFA_XSP16, literal(-6)))
          CFI ?RET_LOW load(1, XDATA, add(CFA_XSP16, literal(-5)))
          CFI ?RET_HIGH load(1, XDATA, add(CFA_XSP16, literal(-4)))
          CFI ?BRET_EXT load(1, XDATA, add(CFA_XSP16, literal(-3)))
          CFI DPL0 load(1, XDATA, add(CFA_XSP16, literal(-2)))
          CFI DPH0 load(1, XDATA, add(CFA_XSP16, literal(-1)))
          CFI CFA_SP SP+-2
          CFI CFA_XSP16 add(XSP16, 15)
          CFI Block cfiCond156 Using cfiCommon0
          CFI (cfiCond156) Function ZDP_UserDescRsp
          CFI (cfiCond156) Conditional ??CrossCallReturnLabel_1
          CFI (cfiCond156) R6 load(1, XDATA, add(CFA_XSP16, literal(-18)))
          CFI (cfiCond156) VB load(1, XDATA, add(CFA_XSP16, literal(-17)))
          CFI (cfiCond156) V0 load(1, XDATA, add(CFA_XSP16, literal(-16)))
          CFI (cfiCond156) V1 load(1, XDATA, add(CFA_XSP16, literal(-15)))
          CFI (cfiCond156) V2 load(1, XDATA, add(CFA_XSP16, literal(-14)))
          CFI (cfiCond156) V3 load(1, XDATA, add(CFA_XSP16, literal(-13)))
          CFI (cfiCond156) V4 load(1, XDATA, add(CFA_XSP16, literal(-12)))
          CFI (cfiCond156) V5 load(1, XDATA, add(CFA_XSP16, literal(-11)))
          CFI (cfiCond156) V6 load(1, XDATA, add(CFA_XSP16, literal(-10)))
          CFI (cfiCond156) V7 load(1, XDATA, add(CFA_XSP16, literal(-9)))
          CFI (cfiCond156) V8 load(1, XDATA, add(CFA_XSP16, literal(-8)))
          CFI (cfiCond156) V9 load(1, XDATA, add(CFA_XSP16, literal(-7)))
          CFI (cfiCond156) R7 load(1, XDATA, add(CFA_XSP16, literal(-6)))
          CFI (cfiCond156) ?RET_LOW load(1, XDATA, add(CFA_XSP16, literal(-5)))
          CFI (cfiCond156) ?RET_HIGH load(1, XDATA, add(CFA_XSP16, literal(-4)))
          CFI (cfiCond156) ?BRET_EXT load(1, XDATA, add(CFA_XSP16, literal(-3)))
          CFI (cfiCond156) DPL0 load(1, XDATA, add(CFA_XSP16, literal(-2)))
          CFI (cfiCond156) DPH0 load(1, XDATA, add(CFA_XSP16, literal(-1)))
          CFI (cfiCond156) CFA_SP SP+-2
          CFI (cfiCond156) CFA_XSP16 add(XSP16, 19)
          CFI Block cfiPicker157 Using cfiCommon1
          CFI (cfiPicker157) NoFunction
          CFI (cfiPicker157) Picker
        LCALL     ?Subroutine82 & 0xFFFF
??CrossCallReturnLabel_221:
        MOV       R1,DPL
        MOV       R2,DPH
        MOV       ?V4,R1
        MOV       ?V5,R2
        MOV       ?V6,#0x0
        MOV       R0,#?V4
        RET
          CFI EndBlock cfiCond155
          CFI EndBlock cfiCond156
          CFI EndBlock cfiPicker157
// 1037 
// 1038 /*********************************************************************
// 1039  * @fn          ZDP_ServerDiscRsp
// 1040  *
// 1041  * @brief       Build and send the Server_Discovery_rsp response.
// 1042  *
// 1043  * @param       transID - Transaction sequence number of request.
// 1044  * @param       dstAddr - Network Destination Address.
// 1045  * @param       status - Status of response to request.
// 1046  * @param       aoi - Network Address of Interest of request.
// 1047  * @param       serverMask - Bit map of service(s) being sought.
// 1048  * @param       SecurityEnable - Security Options
// 1049  *
// 1050  * @return      ZStatus_t
// 1051  */

        RSEG BANKED_CODE:HUGECODE:NOROOT(0)
// 1052 ZStatus_t ZDP_ServerDiscRsp( byte transID, zAddrType_t *dstAddr, byte status,
ZDP_ServerDiscRsp:
          CFI Block cfiBlock158 Using cfiCommon0
          CFI Function ZDP_ServerDiscRsp
        CODE
// 1053                            uint16 aoi, uint16 serverMask, byte SecurityEnable )
// 1054 {
        FUNCALL ZDP_ServerDiscRsp, fillAndSend
        LOCFRAME ISTACK, 0, STACK
        LOCFRAME PSTACK, 0, STACK
        LOCFRAME XSTACK, 13, STACK
        LOCFRAME IOVERLAY, 0, STATIC
        LOCFRAME DOVERLAY, 0, STATIC
        ARGFRAME ISTACK, 0, STACK
        ARGFRAME PSTACK, 0, STACK
        ARGFRAME XSTACK, 13, STACK
        ARGFRAME IOVERLAY, 0, STATIC
        ARGFRAME DOVERLAY, 0, STATIC
        REQUIRE ?V0
        REQUIRE ?V1
        MOV       A,#-0xa
        LCALL     ?BANKED_ENTER_XDATA
          CFI DPH0 load(1, XDATA, add(CFA_XSP16, literal(-1)))
          CFI DPL0 load(1, XDATA, add(CFA_XSP16, literal(-2)))
          CFI ?BRET_EXT load(1, XDATA, add(CFA_XSP16, literal(-3)))
          CFI ?RET_HIGH load(1, XDATA, add(CFA_XSP16, literal(-4)))
          CFI ?RET_LOW load(1, XDATA, add(CFA_XSP16, literal(-5)))
          CFI R7 load(1, XDATA, add(CFA_XSP16, literal(-6)))
          CFI V1 load(1, XDATA, add(CFA_XSP16, literal(-7)))
          CFI V0 load(1, XDATA, add(CFA_XSP16, literal(-8)))
          CFI VB load(1, XDATA, add(CFA_XSP16, literal(-9)))
          CFI R6 load(1, XDATA, add(CFA_XSP16, literal(-10)))
          CFI CFA_SP SP+0
          CFI CFA_XSP16 add(XSP16, 10)
        ; Saved register size: 10
        ; Auto size: 1
        MOV       A,#-0x1
        LCALL     ?ALLOC_XSTACK8
          CFI CFA_XSP16 add(XSP16, 11)
        MOV       A,R1
        MOV       DPL,?XSP + 0
        MOV       DPH,?XSP + 1
        MOVX      @DPTR,A
        MOV       A,R4
        MOV       R6,A
// 1055   const byte len = 1  + 2;  // status + aoi + mask.
// 1056   uint8 *pBuf = ZDP_TmpBuf;
        LCALL     ?Subroutine55 & 0xFFFF
??CrossCallReturnLabel_152:
        MOV       R4,A
        MOV       A,R1
        MOV       R5,A
// 1057   ZStatus_t stat;
// 1058 
// 1059   // Intentionally unreferenced parameters
// 1060   (void)aoi;
// 1061   (void)SecurityEnable;
// 1062 
// 1063   *pBuf++ = status;
        MOV       A,R6
        MOV       DPL,R4
        MOV       DPH,R5
        MOVX      @DPTR,A
        MOV       A,#0xd
        LCALL     ?XSTACK_DISP0_8
        LCALL     ?Subroutine51 & 0xFFFF
// 1064 
// 1065   *pBuf++ = LO_UINT16( serverMask );
??CrossCallReturnLabel_77:
        INC       DPTR
        MOVX      @DPTR,A
// 1066   *pBuf++ = HI_UINT16( serverMask );
        MOV       A,R1
        MOV       DPL,R4
        MOV       DPH,R5
        INC       DPTR
        INC       DPTR
        MOVX      @DPTR,A
// 1067 
// 1068   ZDP_TxOptions = AF_MSG_ACK_REQUEST;
        MOV       DPTR,#ZDP_TxOptions
        MOV       A,#0x10
        MOVX      @DPTR,A
// 1069   stat = fillAndSend( &transID, dstAddr, Server_Discovery_rsp, len );
        ; Setup parameters for call to function fillAndSend
        MOV       ?V0,#0x15
        MOV       ?V1,#-0x80
        MOV       R0,#?V0
        LCALL     ?PUSH_XSTACK_I_TWO
          CFI CFA_XSP16 add(XSP16, 13)
        MOV       R1,#0x3
        MOV       A,R2
        MOV       R4,A
        MOV       A,R3
        MOV       R5,A
        MOV       A,#0x2
        LCALL     ?XSTACK_DISP101_8
        LCALL     `??fillAndSend::?relay`; Banked call to: fillAndSend
        MOV       A,#0x2
        LCALL     ?DEALLOC_XSTACK8
          CFI CFA_XSP16 add(XSP16, 11)
        MOV       A,R1
        MOV       R1,A
// 1070   ZDP_TxOptions = AF_TX_OPTIONS_NONE;
        MOV       DPTR,#ZDP_TxOptions
        CLR       A
        MOVX      @DPTR,A
// 1071 
// 1072   return ( stat );
        INC       A
        LJMP      ??Subroutine95_0 & 0xFFFF
// 1073 }
          CFI EndBlock cfiBlock158
// 1074 
// 1075 /*********************************************************************
// 1076  * @fn          ZDP_GenericRsp
// 1077  *
// 1078  * @brief       Sends a response message with only the parameter status
// 1079  *              byte and the addr of interest for data.
// 1080  *              This function sends unicast message to the
// 1081  *              requesting device.
// 1082  *
// 1083  * @param       dstAddr - destination address
// 1084  * @param       status  - generic status for response
// 1085  * @param       aoi     - address of interest
// 1086  * @param       dstAddr - destination address
// 1087  * @param       rspId   - response cluster ID
// 1088  * @param       SecurityEnable - Security Options
// 1089  *
// 1090  * @return      afStatus_t
// 1091  */

        RSEG BANKED_CODE:HUGECODE:NOROOT(0)
// 1092 afStatus_t ZDP_GenericRsp( byte TransSeq, zAddrType_t *dstAddr,
ZDP_GenericRsp:
          CFI Block cfiBlock159 Using cfiCommon0
          CFI Function ZDP_GenericRsp
        CODE
// 1093                      byte status, uint16 aoi, uint16 rspID, byte SecurityEnable )
// 1094 {
        FUNCALL ZDP_GenericRsp, fillAndSend
        LOCFRAME ISTACK, 0, STACK
        LOCFRAME PSTACK, 0, STACK
        LOCFRAME XSTACK, 12, STACK
        LOCFRAME IOVERLAY, 0, STATIC
        LOCFRAME DOVERLAY, 0, STATIC
        ARGFRAME ISTACK, 0, STACK
        ARGFRAME PSTACK, 0, STACK
        ARGFRAME XSTACK, 12, STACK
        ARGFRAME IOVERLAY, 0, STATIC
        ARGFRAME DOVERLAY, 0, STATIC
        MOV       A,#-0x9
        LCALL     ?BANKED_ENTER_XDATA
          CFI DPH0 load(1, XDATA, add(CFA_XSP16, literal(-1)))
          CFI DPL0 load(1, XDATA, add(CFA_XSP16, literal(-2)))
          CFI ?BRET_EXT load(1, XDATA, add(CFA_XSP16, literal(-3)))
          CFI ?RET_HIGH load(1, XDATA, add(CFA_XSP16, literal(-4)))
          CFI ?RET_LOW load(1, XDATA, add(CFA_XSP16, literal(-5)))
          CFI R7 load(1, XDATA, add(CFA_XSP16, literal(-6)))
          CFI V0 load(1, XDATA, add(CFA_XSP16, literal(-7)))
          CFI VB load(1, XDATA, add(CFA_XSP16, literal(-8)))
          CFI R6 load(1, XDATA, add(CFA_XSP16, literal(-9)))
          CFI CFA_SP SP+0
          CFI CFA_XSP16 add(XSP16, 9)
        ; Saved register size: 9
        ; Auto size: 1
        MOV       A,#-0x1
        LCALL     ?ALLOC_XSTACK8
          CFI CFA_XSP16 add(XSP16, 10)
        MOV       A,R1
        MOV       DPL,?XSP + 0
        MOV       DPH,?XSP + 1
        MOVX      @DPTR,A
// 1095   uint8 len;
// 1096 
// 1097   (void)SecurityEnable;  // Intentionally unreferenced parameter
// 1098 
// 1099   ZDP_TmpBuf[0] = status;
        LCALL     ?Subroutine45 & 0xFFFF
??CrossCallReturnLabel_164:
        MOV       A,R4
        MOVX      @DPTR,A
        MOV       A,#0xa
        LCALL     ?XSTACK_DISP0_8
        LCALL     ??Subroutine118_0 & 0xFFFF
// 1100   ZDP_TmpBuf[1] = LO_UINT16( aoi );
??CrossCallReturnLabel_232:
        MOV       DPTR,#ZDP_TmpBuf
        MOVX      A,@DPTR
        MOV       R4,A
        INC       DPTR
        MOVX      A,@DPTR
        MOV       DPH,A
        MOV       DPL,R4
        INC       DPTR
        MOV       A,R0
        LCALL     ?Subroutine13 & 0xFFFF
// 1101   ZDP_TmpBuf[2] = HI_UINT16( aoi );
// 1102 
// 1103   // Length byte
// 1104   ZDP_TmpBuf[3] = 0;
??CrossCallReturnLabel_7:
        LCALL     ?Subroutine45 & 0xFFFF
??CrossCallReturnLabel_165:
        INC       DPTR
        INC       DPTR
        INC       DPTR
        CLR       A
        MOVX      @DPTR,A
// 1105   len = 4;
// 1106 
// 1107   return fillAndSend( &TransSeq, dstAddr, rspID, len );
        ; Setup parameters for call to function fillAndSend
        MOV       A,#0xc
        LCALL     ?XSTACK_DISP0_8
        LCALL     ?PUSH_XSTACK8_X_TWO
          CFI CFA_XSP16 add(XSP16, 12)
        MOV       R1,#0x4
        MOV       A,R2
        MOV       R4,A
        MOV       A,R3
        MOV       R5,A
        MOV       A,#0x2
        LCALL     ?XSTACK_DISP101_8
        LCALL     `??fillAndSend::?relay`; Banked call to: fillAndSend
        MOV       A,#0x2
        LCALL     ?DEALLOC_XSTACK8
          CFI CFA_XSP16 add(XSP16, 10)
        MOV       A,#0x1
        LCALL     ?DEALLOC_XSTACK8
          CFI EndBlock cfiBlock159
        REQUIRE ?Subroutine6
        ; // Fall through to label ?Subroutine6
// 1108 }

        RSEG BANKED_CODE:HUGECODE:NOROOT(0)
?Subroutine6:
          CFI Block cfiBlock160 Using cfiCommon0
          CFI NoFunction
          CFI CFA_SP SP+0
          CFI CFA_XSP16 add(XSP16, 9)
          CFI VB load(1, XDATA, add(CFA_XSP16, literal(-8)))
          CFI DPL0 load(1, XDATA, add(CFA_XSP16, literal(-2)))
          CFI DPH0 load(1, XDATA, add(CFA_XSP16, literal(-1)))
          CFI R6 load(1, XDATA, add(CFA_XSP16, literal(-9)))
          CFI R7 load(1, XDATA, add(CFA_XSP16, literal(-6)))
          CFI V0 load(1, XDATA, add(CFA_XSP16, literal(-7)))
          CFI ?BRET_EXT load(1, XDATA, add(CFA_XSP16, literal(-3)))
          CFI ?RET_HIGH load(1, XDATA, add(CFA_XSP16, literal(-4)))
          CFI ?RET_LOW load(1, XDATA, add(CFA_XSP16, literal(-5)))
        MOV       R7,#0x1
        LJMP      ?BANKED_LEAVE_XDATA
          CFI EndBlock cfiBlock160

        RSEG BANKED_CODE:HUGECODE:NOROOT(0)
?Subroutine45:
          CFI Block cfiCond161 Using cfiCommon0
          CFI Function ZDP_DeviceAnnce
          CFI Conditional ??CrossCallReturnLabel_163
          CFI R6 load(1, XDATA, add(CFA_XSP16, literal(-10)))
          CFI VB load(1, XDATA, add(CFA_XSP16, literal(-9)))
          CFI V0 load(1, XDATA, add(CFA_XSP16, literal(-8)))
          CFI V1 load(1, XDATA, add(CFA_XSP16, literal(-7)))
          CFI R7 load(1, XDATA, add(CFA_XSP16, literal(-6)))
          CFI ?RET_LOW load(1, XDATA, add(CFA_XSP16, literal(-5)))
          CFI ?RET_HIGH load(1, XDATA, add(CFA_XSP16, literal(-4)))
          CFI ?BRET_EXT load(1, XDATA, add(CFA_XSP16, literal(-3)))
          CFI DPL0 load(1, XDATA, add(CFA_XSP16, literal(-2)))
          CFI DPH0 load(1, XDATA, add(CFA_XSP16, literal(-1)))
          CFI CFA_SP SP+-2
          CFI CFA_XSP16 add(XSP16, 19)
          CFI Block cfiCond162 Using cfiCommon0
          CFI (cfiCond162) Function ZDP_GenericRsp
          CFI (cfiCond162) Conditional ??CrossCallReturnLabel_164
          CFI (cfiCond162) R6 load(1, XDATA, add(CFA_XSP16, literal(-9)))
          CFI (cfiCond162) VB load(1, XDATA, add(CFA_XSP16, literal(-8)))
          CFI (cfiCond162) V0 load(1, XDATA, add(CFA_XSP16, literal(-7)))
          CFI (cfiCond162) R7 load(1, XDATA, add(CFA_XSP16, literal(-6)))
          CFI (cfiCond162) ?RET_LOW load(1, XDATA, add(CFA_XSP16, literal(-5)))
          CFI (cfiCond162) ?RET_HIGH load(1, XDATA, add(CFA_XSP16, literal(-4)))
          CFI (cfiCond162) ?BRET_EXT load(1, XDATA, add(CFA_XSP16, literal(-3)))
          CFI (cfiCond162) DPL0 load(1, XDATA, add(CFA_XSP16, literal(-2)))
          CFI (cfiCond162) DPH0 load(1, XDATA, add(CFA_XSP16, literal(-1)))
          CFI (cfiCond162) CFA_SP SP+-2
          CFI (cfiCond162) CFA_XSP16 add(XSP16, 10)
          CFI Block cfiCond163 Using cfiCommon0
          CFI (cfiCond163) Function ZDP_GenericRsp
          CFI (cfiCond163) Conditional ??CrossCallReturnLabel_165
          CFI (cfiCond163) R6 load(1, XDATA, add(CFA_XSP16, literal(-9)))
          CFI (cfiCond163) VB load(1, XDATA, add(CFA_XSP16, literal(-8)))
          CFI (cfiCond163) V0 load(1, XDATA, add(CFA_XSP16, literal(-7)))
          CFI (cfiCond163) R7 load(1, XDATA, add(CFA_XSP16, literal(-6)))
          CFI (cfiCond163) ?RET_LOW load(1, XDATA, add(CFA_XSP16, literal(-5)))
          CFI (cfiCond163) ?RET_HIGH load(1, XDATA, add(CFA_XSP16, literal(-4)))
          CFI (cfiCond163) ?BRET_EXT load(1, XDATA, add(CFA_XSP16, literal(-3)))
          CFI (cfiCond163) DPL0 load(1, XDATA, add(CFA_XSP16, literal(-2)))
          CFI (cfiCond163) DPH0 load(1, XDATA, add(CFA_XSP16, literal(-1)))
          CFI (cfiCond163) CFA_SP SP+-2
          CFI (cfiCond163) CFA_XSP16 add(XSP16, 10)
          CFI Block cfiCond164 Using cfiCommon0
          CFI (cfiCond164) Function ZDP_MgmtPermitJoinReq
          CFI (cfiCond164) Conditional ??CrossCallReturnLabel_166
          CFI (cfiCond164) R6 load(1, XDATA, add(CFA_XSP16, literal(-12)))
          CFI (cfiCond164) VB load(1, XDATA, add(CFA_XSP16, literal(-11)))
          CFI (cfiCond164) V0 load(1, XDATA, add(CFA_XSP16, literal(-10)))
          CFI (cfiCond164) V1 load(1, XDATA, add(CFA_XSP16, literal(-9)))
          CFI (cfiCond164) V2 load(1, XDATA, add(CFA_XSP16, literal(-8)))
          CFI (cfiCond164) V3 load(1, XDATA, add(CFA_XSP16, literal(-7)))
          CFI (cfiCond164) R7 load(1, XDATA, add(CFA_XSP16, literal(-6)))
          CFI (cfiCond164) ?RET_LOW load(1, XDATA, add(CFA_XSP16, literal(-5)))
          CFI (cfiCond164) ?RET_HIGH load(1, XDATA, add(CFA_XSP16, literal(-4)))
          CFI (cfiCond164) ?BRET_EXT load(1, XDATA, add(CFA_XSP16, literal(-3)))
          CFI (cfiCond164) DPL0 load(1, XDATA, add(CFA_XSP16, literal(-2)))
          CFI (cfiCond164) DPH0 load(1, XDATA, add(CFA_XSP16, literal(-1)))
          CFI (cfiCond164) CFA_SP SP+-2
          CFI (cfiCond164) CFA_XSP16 add(XSP16, 21)
          CFI Block cfiCond165 Using cfiCommon0
          CFI (cfiCond165) Function ZDP_MgmtLqiRsp
          CFI (cfiCond165) Conditional ??CrossCallReturnLabel_167
          CFI (cfiCond165) R6 load(1, XDATA, add(CFA_XSP16, literal(-21)))
          CFI (cfiCond165) VB load(1, XDATA, add(CFA_XSP16, literal(-20)))
          CFI (cfiCond165) V0 load(1, XDATA, add(CFA_XSP16, literal(-19)))
          CFI (cfiCond165) V1 load(1, XDATA, add(CFA_XSP16, literal(-18)))
          CFI (cfiCond165) V2 load(1, XDATA, add(CFA_XSP16, literal(-17)))
          CFI (cfiCond165) V3 load(1, XDATA, add(CFA_XSP16, literal(-16)))
          CFI (cfiCond165) V4 load(1, XDATA, add(CFA_XSP16, literal(-15)))
          CFI (cfiCond165) V5 load(1, XDATA, add(CFA_XSP16, literal(-14)))
          CFI (cfiCond165) V6 load(1, XDATA, add(CFA_XSP16, literal(-13)))
          CFI (cfiCond165) V7 load(1, XDATA, add(CFA_XSP16, literal(-12)))
          CFI (cfiCond165) V8 load(1, XDATA, add(CFA_XSP16, literal(-11)))
          CFI (cfiCond165) V9 load(1, XDATA, add(CFA_XSP16, literal(-10)))
          CFI (cfiCond165) V10 load(1, XDATA, add(CFA_XSP16, literal(-9)))
          CFI (cfiCond165) V11 load(1, XDATA, add(CFA_XSP16, literal(-8)))
          CFI (cfiCond165) V12 load(1, XDATA, add(CFA_XSP16, literal(-7)))
          CFI (cfiCond165) R7 load(1, XDATA, add(CFA_XSP16, literal(-6)))
          CFI (cfiCond165) ?RET_LOW load(1, XDATA, add(CFA_XSP16, literal(-5)))
          CFI (cfiCond165) ?RET_HIGH load(1, XDATA, add(CFA_XSP16, literal(-4)))
          CFI (cfiCond165) ?BRET_EXT load(1, XDATA, add(CFA_XSP16, literal(-3)))
          CFI (cfiCond165) DPL0 load(1, XDATA, add(CFA_XSP16, literal(-2)))
          CFI (cfiCond165) DPH0 load(1, XDATA, add(CFA_XSP16, literal(-1)))
          CFI (cfiCond165) CFA_SP SP+-2
          CFI (cfiCond165) CFA_XSP16 add(XSP16, 22)
          CFI Block cfiPicker166 Using cfiCommon1
          CFI (cfiPicker166) NoFunction
          CFI (cfiPicker166) Picker
        MOV       DPTR,#ZDP_TmpBuf
        MOVX      A,@DPTR
          CFI EndBlock cfiCond161
          CFI EndBlock cfiCond162
          CFI EndBlock cfiCond163
          CFI EndBlock cfiCond164
          CFI EndBlock cfiCond165
          CFI EndBlock cfiPicker166
        REQUIRE ??Subroutine103_0
        ; // Fall through to label ??Subroutine103_0

        RSEG BANKED_CODE:HUGECODE:NOROOT(0)
??Subroutine103_0:
          CFI Block cfiCond167 Using cfiCommon0
          CFI Function ZDP_IncomingData
          CFI Conditional ??CrossCallReturnLabel_162
          CFI R6 load(1, XDATA, add(CFA_XSP16, literal(-10)))
          CFI VB load(1, XDATA, add(CFA_XSP16, literal(-9)))
          CFI V0 load(1, XDATA, add(CFA_XSP16, literal(-8)))
          CFI V1 load(1, XDATA, add(CFA_XSP16, literal(-7)))
          CFI R7 load(1, XDATA, add(CFA_XSP16, literal(-6)))
          CFI ?RET_LOW load(1, XDATA, add(CFA_XSP16, literal(-5)))
          CFI ?RET_HIGH load(1, XDATA, add(CFA_XSP16, literal(-4)))
          CFI ?BRET_EXT load(1, XDATA, add(CFA_XSP16, literal(-3)))
          CFI DPL0 load(1, XDATA, add(CFA_XSP16, literal(-2)))
          CFI DPH0 load(1, XDATA, add(CFA_XSP16, literal(-1)))
          CFI CFA_SP SP+-2
          CFI CFA_XSP16 add(XSP16, 33)
          CFI Block cfiCond168 Using cfiCommon0
          CFI (cfiCond168) Function ZDP_DeviceAnnce
          CFI (cfiCond168) Conditional ??CrossCallReturnLabel_163
          CFI (cfiCond168) R6 load(1, XDATA, add(CFA_XSP16, literal(-10)))
          CFI (cfiCond168) VB load(1, XDATA, add(CFA_XSP16, literal(-9)))
          CFI (cfiCond168) V0 load(1, XDATA, add(CFA_XSP16, literal(-8)))
          CFI (cfiCond168) V1 load(1, XDATA, add(CFA_XSP16, literal(-7)))
          CFI (cfiCond168) R7 load(1, XDATA, add(CFA_XSP16, literal(-6)))
          CFI (cfiCond168) ?RET_LOW load(1, XDATA, add(CFA_XSP16, literal(-5)))
          CFI (cfiCond168) ?RET_HIGH load(1, XDATA, add(CFA_XSP16, literal(-4)))
          CFI (cfiCond168) ?BRET_EXT load(1, XDATA, add(CFA_XSP16, literal(-3)))
          CFI (cfiCond168) DPL0 load(1, XDATA, add(CFA_XSP16, literal(-2)))
          CFI (cfiCond168) DPH0 load(1, XDATA, add(CFA_XSP16, literal(-1)))
          CFI (cfiCond168) CFA_SP SP+-2
          CFI (cfiCond168) CFA_XSP16 add(XSP16, 19)
          CFI Block cfiCond169 Using cfiCommon0
          CFI (cfiCond169) Function ZDP_GenericRsp
          CFI (cfiCond169) Conditional ??CrossCallReturnLabel_164
          CFI (cfiCond169) R6 load(1, XDATA, add(CFA_XSP16, literal(-9)))
          CFI (cfiCond169) VB load(1, XDATA, add(CFA_XSP16, literal(-8)))
          CFI (cfiCond169) V0 load(1, XDATA, add(CFA_XSP16, literal(-7)))
          CFI (cfiCond169) R7 load(1, XDATA, add(CFA_XSP16, literal(-6)))
          CFI (cfiCond169) ?RET_LOW load(1, XDATA, add(CFA_XSP16, literal(-5)))
          CFI (cfiCond169) ?RET_HIGH load(1, XDATA, add(CFA_XSP16, literal(-4)))
          CFI (cfiCond169) ?BRET_EXT load(1, XDATA, add(CFA_XSP16, literal(-3)))
          CFI (cfiCond169) DPL0 load(1, XDATA, add(CFA_XSP16, literal(-2)))
          CFI (cfiCond169) DPH0 load(1, XDATA, add(CFA_XSP16, literal(-1)))
          CFI (cfiCond169) CFA_SP SP+-2
          CFI (cfiCond169) CFA_XSP16 add(XSP16, 10)
          CFI Block cfiCond170 Using cfiCommon0
          CFI (cfiCond170) Function ZDP_GenericRsp
          CFI (cfiCond170) Conditional ??CrossCallReturnLabel_165
          CFI (cfiCond170) R6 load(1, XDATA, add(CFA_XSP16, literal(-9)))
          CFI (cfiCond170) VB load(1, XDATA, add(CFA_XSP16, literal(-8)))
          CFI (cfiCond170) V0 load(1, XDATA, add(CFA_XSP16, literal(-7)))
          CFI (cfiCond170) R7 load(1, XDATA, add(CFA_XSP16, literal(-6)))
          CFI (cfiCond170) ?RET_LOW load(1, XDATA, add(CFA_XSP16, literal(-5)))
          CFI (cfiCond170) ?RET_HIGH load(1, XDATA, add(CFA_XSP16, literal(-4)))
          CFI (cfiCond170) ?BRET_EXT load(1, XDATA, add(CFA_XSP16, literal(-3)))
          CFI (cfiCond170) DPL0 load(1, XDATA, add(CFA_XSP16, literal(-2)))
          CFI (cfiCond170) DPH0 load(1, XDATA, add(CFA_XSP16, literal(-1)))
          CFI (cfiCond170) CFA_SP SP+-2
          CFI (cfiCond170) CFA_XSP16 add(XSP16, 10)
          CFI Block cfiCond171 Using cfiCommon0
          CFI (cfiCond171) Function ZDP_MgmtPermitJoinReq
          CFI (cfiCond171) Conditional ??CrossCallReturnLabel_166
          CFI (cfiCond171) R6 load(1, XDATA, add(CFA_XSP16, literal(-12)))
          CFI (cfiCond171) VB load(1, XDATA, add(CFA_XSP16, literal(-11)))
          CFI (cfiCond171) V0 load(1, XDATA, add(CFA_XSP16, literal(-10)))
          CFI (cfiCond171) V1 load(1, XDATA, add(CFA_XSP16, literal(-9)))
          CFI (cfiCond171) V2 load(1, XDATA, add(CFA_XSP16, literal(-8)))
          CFI (cfiCond171) V3 load(1, XDATA, add(CFA_XSP16, literal(-7)))
          CFI (cfiCond171) R7 load(1, XDATA, add(CFA_XSP16, literal(-6)))
          CFI (cfiCond171) ?RET_LOW load(1, XDATA, add(CFA_XSP16, literal(-5)))
          CFI (cfiCond171) ?RET_HIGH load(1, XDATA, add(CFA_XSP16, literal(-4)))
          CFI (cfiCond171) ?BRET_EXT load(1, XDATA, add(CFA_XSP16, literal(-3)))
          CFI (cfiCond171) DPL0 load(1, XDATA, add(CFA_XSP16, literal(-2)))
          CFI (cfiCond171) DPH0 load(1, XDATA, add(CFA_XSP16, literal(-1)))
          CFI (cfiCond171) CFA_SP SP+-2
          CFI (cfiCond171) CFA_XSP16 add(XSP16, 21)
          CFI Block cfiCond172 Using cfiCommon0
          CFI (cfiCond172) Function ZDP_MgmtLqiRsp
          CFI (cfiCond172) Conditional ??CrossCallReturnLabel_167
          CFI (cfiCond172) R6 load(1, XDATA, add(CFA_XSP16, literal(-21)))
          CFI (cfiCond172) VB load(1, XDATA, add(CFA_XSP16, literal(-20)))
          CFI (cfiCond172) V0 load(1, XDATA, add(CFA_XSP16, literal(-19)))
          CFI (cfiCond172) V1 load(1, XDATA, add(CFA_XSP16, literal(-18)))
          CFI (cfiCond172) V2 load(1, XDATA, add(CFA_XSP16, literal(-17)))
          CFI (cfiCond172) V3 load(1, XDATA, add(CFA_XSP16, literal(-16)))
          CFI (cfiCond172) V4 load(1, XDATA, add(CFA_XSP16, literal(-15)))
          CFI (cfiCond172) V5 load(1, XDATA, add(CFA_XSP16, literal(-14)))
          CFI (cfiCond172) V6 load(1, XDATA, add(CFA_XSP16, literal(-13)))
          CFI (cfiCond172) V7 load(1, XDATA, add(CFA_XSP16, literal(-12)))
          CFI (cfiCond172) V8 load(1, XDATA, add(CFA_XSP16, literal(-11)))
          CFI (cfiCond172) V9 load(1, XDATA, add(CFA_XSP16, literal(-10)))
          CFI (cfiCond172) V10 load(1, XDATA, add(CFA_XSP16, literal(-9)))
          CFI (cfiCond172) V11 load(1, XDATA, add(CFA_XSP16, literal(-8)))
          CFI (cfiCond172) V12 load(1, XDATA, add(CFA_XSP16, literal(-7)))
          CFI (cfiCond172) R7 load(1, XDATA, add(CFA_XSP16, literal(-6)))
          CFI (cfiCond172) ?RET_LOW load(1, XDATA, add(CFA_XSP16, literal(-5)))
          CFI (cfiCond172) ?RET_HIGH load(1, XDATA, add(CFA_XSP16, literal(-4)))
          CFI (cfiCond172) ?BRET_EXT load(1, XDATA, add(CFA_XSP16, literal(-3)))
          CFI (cfiCond172) DPL0 load(1, XDATA, add(CFA_XSP16, literal(-2)))
          CFI (cfiCond172) DPH0 load(1, XDATA, add(CFA_XSP16, literal(-1)))
          CFI (cfiCond172) CFA_SP SP+-2
          CFI (cfiCond172) CFA_XSP16 add(XSP16, 22)
          CFI Block cfiPicker173 Using cfiCommon1
          CFI (cfiPicker173) NoFunction
          CFI (cfiPicker173) Picker
        MOV       R0,A
        INC       DPTR
        MOVX      A,@DPTR
        MOV       DPH,A
        MOV       DPL,R0
        RET
          CFI EndBlock cfiCond167
          CFI EndBlock cfiCond168
          CFI EndBlock cfiCond169
          CFI EndBlock cfiCond170
          CFI EndBlock cfiCond171
          CFI EndBlock cfiCond172
          CFI EndBlock cfiPicker173

        RSEG BANKED_CODE:HUGECODE:NOROOT(0)
?Subroutine13:
          CFI Block cfiCond174 Using cfiCommon0
          CFI Function ZDP_SimpleDescReq
          CFI Conditional ??CrossCallReturnLabel_6
          CFI R6 load(1, XDATA, add(CFA_XSP16, literal(-10)))
          CFI VB load(1, XDATA, add(CFA_XSP16, literal(-9)))
          CFI V0 load(1, XDATA, add(CFA_XSP16, literal(-8)))
          CFI V1 load(1, XDATA, add(CFA_XSP16, literal(-7)))
          CFI R7 load(1, XDATA, add(CFA_XSP16, literal(-6)))
          CFI ?RET_LOW load(1, XDATA, add(CFA_XSP16, literal(-5)))
          CFI ?RET_HIGH load(1, XDATA, add(CFA_XSP16, literal(-4)))
          CFI ?BRET_EXT load(1, XDATA, add(CFA_XSP16, literal(-3)))
          CFI DPL0 load(1, XDATA, add(CFA_XSP16, literal(-2)))
          CFI DPH0 load(1, XDATA, add(CFA_XSP16, literal(-1)))
          CFI CFA_SP SP+-2
          CFI CFA_XSP16 add(XSP16, 10)
          CFI Block cfiCond175 Using cfiCommon0
          CFI (cfiCond175) Function ZDP_GenericRsp
          CFI (cfiCond175) Conditional ??CrossCallReturnLabel_7
          CFI (cfiCond175) R6 load(1, XDATA, add(CFA_XSP16, literal(-9)))
          CFI (cfiCond175) VB load(1, XDATA, add(CFA_XSP16, literal(-8)))
          CFI (cfiCond175) V0 load(1, XDATA, add(CFA_XSP16, literal(-7)))
          CFI (cfiCond175) R7 load(1, XDATA, add(CFA_XSP16, literal(-6)))
          CFI (cfiCond175) ?RET_LOW load(1, XDATA, add(CFA_XSP16, literal(-5)))
          CFI (cfiCond175) ?RET_HIGH load(1, XDATA, add(CFA_XSP16, literal(-4)))
          CFI (cfiCond175) ?BRET_EXT load(1, XDATA, add(CFA_XSP16, literal(-3)))
          CFI (cfiCond175) DPL0 load(1, XDATA, add(CFA_XSP16, literal(-2)))
          CFI (cfiCond175) DPH0 load(1, XDATA, add(CFA_XSP16, literal(-1)))
          CFI (cfiCond175) CFA_SP SP+-2
          CFI (cfiCond175) CFA_XSP16 add(XSP16, 10)
          CFI Block cfiPicker176 Using cfiCommon1
          CFI (cfiPicker176) NoFunction
          CFI (cfiPicker176) Picker
        LCALL     ?Subroutine70 & 0xFFFF
??CrossCallReturnLabel_113:
        INC       DPTR
        MOV       A,R1
        MOVX      @DPTR,A
        RET
          CFI EndBlock cfiCond174
          CFI EndBlock cfiCond175
          CFI EndBlock cfiPicker176
// 1109 
// 1110 /*********************************************************************
// 1111  * Binding
// 1112  */
// 1113 /*********************************************************************
// 1114  * @fn          ZDP_EndDeviceBindReq
// 1115  *
// 1116  * @brief       This builds and sends a End_Device_Bind_req message.
// 1117  *              This function sends a unicast message.
// 1118  *
// 1119  * @param       dstAddr - destination address
// 1120  * @param       LocalCoordinator - short address of local coordinator
// 1121  * @param       epIntf - Endpoint/Interface of Simple Desc
// 1122  * @param       ProfileID - Profile ID
// 1123  *
// 1124  *   The Input cluster list is the opposite of what you would think.
// 1125  *   This is the output cluster list of this device
// 1126  * @param       NumInClusters - number of input clusters
// 1127  * @param       InClusterList - input cluster ID list
// 1128  *
// 1129  *   The Output cluster list is the opposite of what you would think.
// 1130  *   This is the input cluster list of this device
// 1131  * @param       NumOutClusters - number of output clusters
// 1132  * @param       OutClusterList - output cluster ID list
// 1133  *
// 1134  * @param       SecurityEnable - Security Options
// 1135  *
// 1136  * @return      afStatus_t
// 1137  */

        RSEG BANKED_CODE:HUGECODE:NOROOT(0)
// 1138 afStatus_t ZDP_EndDeviceBindReq( zAddrType_t *dstAddr,
ZDP_EndDeviceBindReq:
          CFI Block cfiBlock177 Using cfiCommon0
          CFI Function ZDP_EndDeviceBindReq
        CODE
// 1139                                  uint16 LocalCoordinator,
// 1140                                  byte endPoint,
// 1141                                  uint16 ProfileID,
// 1142                                  byte NumInClusters, cId_t *InClusterList,
// 1143                                  byte NumOutClusters, cId_t *OutClusterList,
// 1144                                  byte SecurityEnable )
// 1145 {
        FUNCALL ZDP_EndDeviceBindReq, NLME_GetShortAddr
        LOCFRAME ISTACK, 0, STACK
        LOCFRAME PSTACK, 0, STACK
        LOCFRAME XSTACK, 18, STACK
        LOCFRAME IOVERLAY, 0, STATIC
        LOCFRAME DOVERLAY, 0, STATIC
        ARGFRAME ISTACK, 0, STACK
        ARGFRAME PSTACK, 0, STACK
        ARGFRAME XSTACK, 18, STACK
        ARGFRAME IOVERLAY, 0, STATIC
        ARGFRAME DOVERLAY, 0, STATIC
        FUNCALL ZDP_EndDeviceBindReq, NLME_GetExtAddr
        LOCFRAME ISTACK, 0, STACK
        LOCFRAME PSTACK, 0, STACK
        LOCFRAME XSTACK, 18, STACK
        LOCFRAME IOVERLAY, 0, STATIC
        LOCFRAME DOVERLAY, 0, STATIC
        ARGFRAME ISTACK, 0, STACK
        ARGFRAME PSTACK, 0, STACK
        ARGFRAME XSTACK, 18, STACK
        ARGFRAME IOVERLAY, 0, STATIC
        ARGFRAME DOVERLAY, 0, STATIC
        FUNCALL ZDP_EndDeviceBindReq, sAddrExtCpy
        LOCFRAME ISTACK, 0, STACK
        LOCFRAME PSTACK, 0, STACK
        LOCFRAME XSTACK, 18, STACK
        LOCFRAME IOVERLAY, 0, STATIC
        LOCFRAME DOVERLAY, 0, STATIC
        ARGFRAME ISTACK, 0, STACK
        ARGFRAME PSTACK, 0, STACK
        ARGFRAME XSTACK, 18, STACK
        ARGFRAME IOVERLAY, 0, STATIC
        ARGFRAME DOVERLAY, 0, STATIC
        FUNCALL ZDP_EndDeviceBindReq, fillAndSend
        LOCFRAME ISTACK, 0, STACK
        LOCFRAME PSTACK, 0, STACK
        LOCFRAME XSTACK, 20, STACK
        LOCFRAME IOVERLAY, 0, STATIC
        LOCFRAME DOVERLAY, 0, STATIC
        ARGFRAME ISTACK, 0, STACK
        ARGFRAME PSTACK, 0, STACK
        ARGFRAME XSTACK, 20, STACK
        ARGFRAME IOVERLAY, 0, STATIC
        ARGFRAME DOVERLAY, 0, STATIC
        REQUIRE ?V0
        REQUIRE ?V1
        REQUIRE ?V2
        REQUIRE ?V3
        REQUIRE ?V4
        REQUIRE ?V5
        REQUIRE ?V6
        REQUIRE ?V7
        REQUIRE ?V8
        REQUIRE ?V9
        MOV       A,#-0x12
        LCALL     ?BANKED_ENTER_XDATA
          CFI DPH0 load(1, XDATA, add(CFA_XSP16, literal(-1)))
          CFI DPL0 load(1, XDATA, add(CFA_XSP16, literal(-2)))
          CFI ?BRET_EXT load(1, XDATA, add(CFA_XSP16, literal(-3)))
          CFI ?RET_HIGH load(1, XDATA, add(CFA_XSP16, literal(-4)))
          CFI ?RET_LOW load(1, XDATA, add(CFA_XSP16, literal(-5)))
          CFI R7 load(1, XDATA, add(CFA_XSP16, literal(-6)))
          CFI V9 load(1, XDATA, add(CFA_XSP16, literal(-7)))
          CFI V8 load(1, XDATA, add(CFA_XSP16, literal(-8)))
          CFI V7 load(1, XDATA, add(CFA_XSP16, literal(-9)))
          CFI V6 load(1, XDATA, add(CFA_XSP16, literal(-10)))
          CFI V5 load(1, XDATA, add(CFA_XSP16, literal(-11)))
          CFI V4 load(1, XDATA, add(CFA_XSP16, literal(-12)))
          CFI V3 load(1, XDATA, add(CFA_XSP16, literal(-13)))
          CFI V2 load(1, XDATA, add(CFA_XSP16, literal(-14)))
          CFI V1 load(1, XDATA, add(CFA_XSP16, literal(-15)))
          CFI V0 load(1, XDATA, add(CFA_XSP16, literal(-16)))
          CFI VB load(1, XDATA, add(CFA_XSP16, literal(-17)))
          CFI R6 load(1, XDATA, add(CFA_XSP16, literal(-18)))
          CFI CFA_SP SP+0
          CFI CFA_XSP16 add(XSP16, 18)
        ; Saved register size: 18
        ; Auto size: 0
        MOV       ?V6,R2
        MOV       ?V7,R3
        MOV       ?V4,R4
        MOV       ?V5,R5
        MOV       ?V3,R1
// 1146   uint8 *pBuf = ZDP_TmpBuf;
        LCALL     ?Subroutine39 & 0xFFFF
??CrossCallReturnLabel_141:
        MOV       A,#0x14
        LCALL     ?XSTACK_DISP0_8
        MOVX      A,@DPTR
        MOV       ?V2,A
        MOV       A,#0x17
        LCALL     ?XSTACK_DISP0_8
        MOVX      A,@DPTR
        MOV       R7,A
// 1147   uint8 i, len;
// 1148   uint8 *ieeeAddr;
// 1149 
// 1150   (void)SecurityEnable;  // Intentionally unreferenced parameter
// 1151 
// 1152   // LocalCoordinator + SrcExtAddr + ep + ProfileID +  NumInClusters + NumOutClusters.
// 1153   len = 2 + Z_EXTADDR_LEN + 1 + 2 + 1 + 1;
// 1154   len += (NumInClusters + NumOutClusters) * sizeof ( uint16 );
        MOV       A,?V2
        ADD       A,R7
        CLR       C
        RLC       A
        ADD       A,#0xf
        MOV       R6,A
// 1155 
// 1156   if ( len >= ZDP_BUF_SZ-1 )
        CLR       C
        SUBB      A,#0x4f
        JC        ??ZDP_EndDeviceBindReq_0
// 1157   {
// 1158     return afStatus_MEM_FAIL;
        MOV       R1,#0x10
        LJMP      ??ZDP_EndDeviceBindReq_1 & 0xFFFF
// 1159   }
// 1160 
// 1161   if ( LocalCoordinator != NLME_GetShortAddr() )
??ZDP_EndDeviceBindReq_0:
        ; Setup parameters for call to function NLME_GetShortAddr
        LCALL     `??NLME_GetShortAddr::?relay`; Banked call to: NLME_GetShortAddr
        MOV       A,R2
        XRL       A,?V4
        JNZ       ??ZDP_EndDeviceBindReq_2
        MOV       A,R3
        XRL       A,?V5
??ZDP_EndDeviceBindReq_2:
        JZ        ??ZDP_EndDeviceBindReq_3
// 1162   {
// 1163     return afStatus_INVALID_PARAMETER;
        MOV       R1,#0x2
        LJMP      ??ZDP_EndDeviceBindReq_1 & 0xFFFF
// 1164   }
// 1165 
// 1166   *pBuf++ = LO_UINT16( LocalCoordinator );
??ZDP_EndDeviceBindReq_3:
        MOV       DPL,?V0
        MOV       DPH,?V1
        MOV       A,?V4
        MOVX      @DPTR,A
// 1167   *pBuf++ = HI_UINT16( LocalCoordinator );
        MOV       A,?V5
        INC       DPTR
        MOVX      @DPTR,A
// 1168 
// 1169   ieeeAddr = NLME_GetExtAddr();
        ; Setup parameters for call to function NLME_GetExtAddr
        LCALL     `??NLME_GetExtAddr::?relay`; Banked call to: NLME_GetExtAddr
        MOV       ?V4,R2
        MOV       ?V5,R3
        MOV       R4,?V4
        MOV       R5,?V5
// 1170   pBuf = osal_cpyExtAddr( pBuf, ieeeAddr );
        ; Setup parameters for call to function sAddrExtCpy
        MOV       A,?V0
        ADD       A,#0x2
        MOV       R2,A
        CLR       A
        ADDC      A,?V1
        MOV       R3,A
        LCALL     `??sAddrExtCpy::?relay`; Banked call to: sAddrExtCpy
// 1171 
// 1172   *pBuf++ = endPoint;
        MOV       DPL,R2
        MOV       DPH,R3
        MOV       A,?V3
        MOVX      @DPTR,A
        MOV       A,#0x12
        LCALL     ?XSTACK_DISP0_8
        LCALL     ?Subroutine15 & 0xFFFF
// 1173 
// 1174   *pBuf++ = LO_UINT16( ProfileID );   // Profile ID
// 1175   *pBuf++ = HI_UINT16( ProfileID );
// 1176 
// 1177   *pBuf++ = NumInClusters; // Input cluster list
??CrossCallReturnLabel_11:
        MOV       DPL,R2
        MOV       DPH,R3
        INC       DPTR
        INC       DPTR
        INC       DPTR
        MOV       A,?V2
        MOVX      @DPTR,A
        MOV       A,R2
        ADD       A,#0x4
        MOV       ?V0,A
        CLR       A
        ADDC      A,R3
        MOV       ?V1,A
// 1178   for ( i = 0; i < NumInClusters; ++i )
        MOV       R4,#0x0
        MOV       A,#0x15
        LCALL     ?XSTACK_DISP0_8
        LCALL     ?Subroutine54 & 0xFFFF
??CrossCallReturnLabel_84:
        SJMP      ??ZDP_EndDeviceBindReq_4
// 1179   {
// 1180     *pBuf++ = LO_UINT16(InClusterList[i]);
??ZDP_EndDeviceBindReq_5:
        MOV       A,R4
        ADD       A,0xE0 /* A   */
        MOV       ?V4,A
        CLR       A
        RLC       A
        MOV       ?V5,A
        MOV       A,R2
        ADD       A,?V4
        MOV       ?V4,A
        MOV       A,R3
        ADDC      A,?V5
        MOV       ?V5,A
        MOV       DPL,?V4
        MOV       DPH,A
        LCALL     ?Subroutine62 & 0xFFFF
// 1181     *pBuf++ = HI_UINT16(InClusterList[i]);
??CrossCallReturnLabel_95:
        MOV       DPL,?V4
        MOV       DPH,?V5
        INC       DPTR
        LCALL     ??Subroutine104_0 & 0xFFFF
// 1182   }
??CrossCallReturnLabel_169:
        MOV       A,?V0
        ADD       A,#0x2
        MOV       ?V0,A
        JNC       ??ZDP_EndDeviceBindReq_6
        INC       ?V1
??ZDP_EndDeviceBindReq_6:
        INC       R4
??ZDP_EndDeviceBindReq_4:
        MOV       DPL,?V0
        MOV       DPH,?V1
        INC       DPTR
        MOV       R0,DPL
        MOV       R1,DPH
        MOV       A,R4
        CLR       C
        SUBB      A,?V2
        JC        ??ZDP_EndDeviceBindReq_5
// 1183 
// 1184   *pBuf++ = NumOutClusters; // Output cluster list
        MOV       A,R7
        MOV       DPL,?V0
        MOV       DPH,?V1
        MOVX      @DPTR,A
        MOV       ?V0,R0
        MOV       ?V1,R1
// 1185   for ( i = 0; i < NumOutClusters; ++i )
        MOV       R4,#0x0
        MOV       A,#0x18
        LCALL     ?XSTACK_DISP0_8
        LCALL     ??Subroutine118_0 & 0xFFFF
??CrossCallReturnLabel_233:
        SJMP      ??ZDP_EndDeviceBindReq_7
// 1186   {
// 1187     *pBuf++ = LO_UINT16(OutClusterList[i]);
??ZDP_EndDeviceBindReq_8:
        MOV       A,R4
        ADD       A,0xE0 /* A   */
        MOV       R2,A
        CLR       A
        RLC       A
        MOV       R3,A
        MOV       A,R0
        ADD       A,R2
        MOV       R2,A
        MOV       A,R1
        ADDC      A,R3
        MOV       R3,A
        MOV       DPL,R2
        MOV       DPH,R3
        LCALL     ?Subroutine62 & 0xFFFF
// 1188     *pBuf++ = HI_UINT16(OutClusterList[i]);
??CrossCallReturnLabel_96:
        MOV       DPL,R2
        MOV       DPH,R3
        INC       DPTR
        LCALL     ?Subroutine63 & 0xFFFF
// 1189   }
??CrossCallReturnLabel_97:
        MOVX      @DPTR,A
        MOV       A,?V0
        ADD       A,#0x2
        MOV       ?V0,A
        JNC       ??ZDP_EndDeviceBindReq_9
        INC       ?V1
??ZDP_EndDeviceBindReq_9:
        INC       R4
??ZDP_EndDeviceBindReq_7:
        MOV       A,R4
        CLR       C
        SUBB      A,R7
        JC        ??ZDP_EndDeviceBindReq_8
// 1190 
// 1191   return fillAndSend( &ZDP_TransID, dstAddr, End_Device_Bind_req, len );
        ; Setup parameters for call to function fillAndSend
        MOV       ?V0,#0x20
        MOV       ?V1,#0x0
        MOV       R0,#?V0
        LCALL     ?PUSH_XSTACK_I_TWO
          CFI CFA_XSP16 add(XSP16, 20)
        MOV       A,R6
        MOV       R1,A
        MOV       R4,?V6
        MOV       R5,?V7
        MOV       R2,#ZDP_TransID & 0xff
        MOV       R3,#(ZDP_TransID >> 8) & 0xff
        LCALL     `??fillAndSend::?relay`; Banked call to: fillAndSend
        MOV       A,#0x2
        LCALL     ?DEALLOC_XSTACK8
          CFI CFA_XSP16 add(XSP16, 18)
??ZDP_EndDeviceBindReq_1:
        SJMP      ??Subroutine105_0
// 1192 }
          CFI EndBlock cfiBlock177

        RSEG BANKED_CODE:HUGECODE:NOROOT(0)
?Subroutine62:
          CFI Block cfiCond178 Using cfiCommon0
          CFI Function ZDP_EndDeviceBindReq
          CFI Conditional ??CrossCallReturnLabel_95
          CFI R6 load(1, XDATA, add(CFA_XSP16, literal(-18)))
          CFI VB load(1, XDATA, add(CFA_XSP16, literal(-17)))
          CFI V0 load(1, XDATA, add(CFA_XSP16, literal(-16)))
          CFI V1 load(1, XDATA, add(CFA_XSP16, literal(-15)))
          CFI V2 load(1, XDATA, add(CFA_XSP16, literal(-14)))
          CFI V3 load(1, XDATA, add(CFA_XSP16, literal(-13)))
          CFI V4 load(1, XDATA, add(CFA_XSP16, literal(-12)))
          CFI V5 load(1, XDATA, add(CFA_XSP16, literal(-11)))
          CFI V6 load(1, XDATA, add(CFA_XSP16, literal(-10)))
          CFI V7 load(1, XDATA, add(CFA_XSP16, literal(-9)))
          CFI V8 load(1, XDATA, add(CFA_XSP16, literal(-8)))
          CFI V9 load(1, XDATA, add(CFA_XSP16, literal(-7)))
          CFI R7 load(1, XDATA, add(CFA_XSP16, literal(-6)))
          CFI ?RET_LOW load(1, XDATA, add(CFA_XSP16, literal(-5)))
          CFI ?RET_HIGH load(1, XDATA, add(CFA_XSP16, literal(-4)))
          CFI ?BRET_EXT load(1, XDATA, add(CFA_XSP16, literal(-3)))
          CFI DPL0 load(1, XDATA, add(CFA_XSP16, literal(-2)))
          CFI DPH0 load(1, XDATA, add(CFA_XSP16, literal(-1)))
          CFI CFA_SP SP+-2
          CFI CFA_XSP16 add(XSP16, 18)
          CFI Block cfiCond179 Using cfiCommon0
          CFI (cfiCond179) Function ZDP_EndDeviceBindReq
          CFI (cfiCond179) Conditional ??CrossCallReturnLabel_96
          CFI (cfiCond179) R6 load(1, XDATA, add(CFA_XSP16, literal(-18)))
          CFI (cfiCond179) VB load(1, XDATA, add(CFA_XSP16, literal(-17)))
          CFI (cfiCond179) V0 load(1, XDATA, add(CFA_XSP16, literal(-16)))
          CFI (cfiCond179) V1 load(1, XDATA, add(CFA_XSP16, literal(-15)))
          CFI (cfiCond179) V2 load(1, XDATA, add(CFA_XSP16, literal(-14)))
          CFI (cfiCond179) V3 load(1, XDATA, add(CFA_XSP16, literal(-13)))
          CFI (cfiCond179) V4 load(1, XDATA, add(CFA_XSP16, literal(-12)))
          CFI (cfiCond179) V5 load(1, XDATA, add(CFA_XSP16, literal(-11)))
          CFI (cfiCond179) V6 load(1, XDATA, add(CFA_XSP16, literal(-10)))
          CFI (cfiCond179) V7 load(1, XDATA, add(CFA_XSP16, literal(-9)))
          CFI (cfiCond179) V8 load(1, XDATA, add(CFA_XSP16, literal(-8)))
          CFI (cfiCond179) V9 load(1, XDATA, add(CFA_XSP16, literal(-7)))
          CFI (cfiCond179) R7 load(1, XDATA, add(CFA_XSP16, literal(-6)))
          CFI (cfiCond179) ?RET_LOW load(1, XDATA, add(CFA_XSP16, literal(-5)))
          CFI (cfiCond179) ?RET_HIGH load(1, XDATA, add(CFA_XSP16, literal(-4)))
          CFI (cfiCond179) ?BRET_EXT load(1, XDATA, add(CFA_XSP16, literal(-3)))
          CFI (cfiCond179) DPL0 load(1, XDATA, add(CFA_XSP16, literal(-2)))
          CFI (cfiCond179) DPH0 load(1, XDATA, add(CFA_XSP16, literal(-1)))
          CFI (cfiCond179) CFA_SP SP+-2
          CFI (cfiCond179) CFA_XSP16 add(XSP16, 18)
          CFI Block cfiPicker180 Using cfiCommon1
          CFI (cfiPicker180) NoFunction
          CFI (cfiPicker180) Picker
        MOVX      A,@DPTR
        MOV       DPL,?V0
        MOV       DPH,?V1
        MOVX      @DPTR,A
        RET
          CFI EndBlock cfiCond178
          CFI EndBlock cfiCond179
          CFI EndBlock cfiPicker180

        RSEG BANKED_CODE:HUGECODE:NOROOT(0)
?Subroutine54:
          CFI Block cfiCond181 Using cfiCommon0
          CFI Function ZDP_EPRsp
          CFI Conditional ??CrossCallReturnLabel_83
          CFI R6 load(1, XDATA, add(CFA_XSP16, literal(-15)))
          CFI VB load(1, XDATA, add(CFA_XSP16, literal(-14)))
          CFI V0 load(1, XDATA, add(CFA_XSP16, literal(-13)))
          CFI V1 load(1, XDATA, add(CFA_XSP16, literal(-12)))
          CFI V2 load(1, XDATA, add(CFA_XSP16, literal(-11)))
          CFI V3 load(1, XDATA, add(CFA_XSP16, literal(-10)))
          CFI V4 load(1, XDATA, add(CFA_XSP16, literal(-9)))
          CFI V5 load(1, XDATA, add(CFA_XSP16, literal(-8)))
          CFI V6 load(1, XDATA, add(CFA_XSP16, literal(-7)))
          CFI R7 load(1, XDATA, add(CFA_XSP16, literal(-6)))
          CFI ?RET_LOW load(1, XDATA, add(CFA_XSP16, literal(-5)))
          CFI ?RET_HIGH load(1, XDATA, add(CFA_XSP16, literal(-4)))
          CFI ?BRET_EXT load(1, XDATA, add(CFA_XSP16, literal(-3)))
          CFI DPL0 load(1, XDATA, add(CFA_XSP16, literal(-2)))
          CFI DPH0 load(1, XDATA, add(CFA_XSP16, literal(-1)))
          CFI CFA_SP SP+-2
          CFI CFA_XSP16 add(XSP16, 16)
          CFI Block cfiCond182 Using cfiCommon0
          CFI (cfiCond182) Function ZDP_EndDeviceBindReq
          CFI (cfiCond182) Conditional ??CrossCallReturnLabel_84
          CFI (cfiCond182) R6 load(1, XDATA, add(CFA_XSP16, literal(-18)))
          CFI (cfiCond182) VB load(1, XDATA, add(CFA_XSP16, literal(-17)))
          CFI (cfiCond182) V0 load(1, XDATA, add(CFA_XSP16, literal(-16)))
          CFI (cfiCond182) V1 load(1, XDATA, add(CFA_XSP16, literal(-15)))
          CFI (cfiCond182) V2 load(1, XDATA, add(CFA_XSP16, literal(-14)))
          CFI (cfiCond182) V3 load(1, XDATA, add(CFA_XSP16, literal(-13)))
          CFI (cfiCond182) V4 load(1, XDATA, add(CFA_XSP16, literal(-12)))
          CFI (cfiCond182) V5 load(1, XDATA, add(CFA_XSP16, literal(-11)))
          CFI (cfiCond182) V6 load(1, XDATA, add(CFA_XSP16, literal(-10)))
          CFI (cfiCond182) V7 load(1, XDATA, add(CFA_XSP16, literal(-9)))
          CFI (cfiCond182) V8 load(1, XDATA, add(CFA_XSP16, literal(-8)))
          CFI (cfiCond182) V9 load(1, XDATA, add(CFA_XSP16, literal(-7)))
          CFI (cfiCond182) R7 load(1, XDATA, add(CFA_XSP16, literal(-6)))
          CFI (cfiCond182) ?RET_LOW load(1, XDATA, add(CFA_XSP16, literal(-5)))
          CFI (cfiCond182) ?RET_HIGH load(1, XDATA, add(CFA_XSP16, literal(-4)))
          CFI (cfiCond182) ?BRET_EXT load(1, XDATA, add(CFA_XSP16, literal(-3)))
          CFI (cfiCond182) DPL0 load(1, XDATA, add(CFA_XSP16, literal(-2)))
          CFI (cfiCond182) DPH0 load(1, XDATA, add(CFA_XSP16, literal(-1)))
          CFI (cfiCond182) CFA_SP SP+-2
          CFI (cfiCond182) CFA_XSP16 add(XSP16, 18)
          CFI Block cfiPicker183 Using cfiCommon1
          CFI (cfiPicker183) NoFunction
          CFI (cfiPicker183) Picker
        LCALL     ?Subroutine75 & 0xFFFF
??CrossCallReturnLabel_155:
        MOV       R2,A
        MOV       A,R1
        MOV       R3,A
        RET
          CFI EndBlock cfiCond181
          CFI EndBlock cfiCond182
          CFI EndBlock cfiPicker183

        RSEG BANKED_CODE:HUGECODE:NOROOT(0)
?Subroutine41:
          CFI Block cfiCond184 Using cfiCommon0
          CFI Function ZDP_SimpleDescMsg
          CFI Conditional ??CrossCallReturnLabel_171
          CFI R6 load(1, XDATA, add(CFA_XSP16, literal(-20)))
          CFI VB load(1, XDATA, add(CFA_XSP16, literal(-19)))
          CFI V0 load(1, XDATA, add(CFA_XSP16, literal(-18)))
          CFI V1 load(1, XDATA, add(CFA_XSP16, literal(-17)))
          CFI V2 load(1, XDATA, add(CFA_XSP16, literal(-16)))
          CFI V3 load(1, XDATA, add(CFA_XSP16, literal(-15)))
          CFI V4 load(1, XDATA, add(CFA_XSP16, literal(-14)))
          CFI V5 load(1, XDATA, add(CFA_XSP16, literal(-13)))
          CFI V6 load(1, XDATA, add(CFA_XSP16, literal(-12)))
          CFI V7 load(1, XDATA, add(CFA_XSP16, literal(-11)))
          CFI V8 load(1, XDATA, add(CFA_XSP16, literal(-10)))
          CFI V9 load(1, XDATA, add(CFA_XSP16, literal(-9)))
          CFI V10 load(1, XDATA, add(CFA_XSP16, literal(-8)))
          CFI V11 load(1, XDATA, add(CFA_XSP16, literal(-7)))
          CFI R7 load(1, XDATA, add(CFA_XSP16, literal(-6)))
          CFI ?RET_LOW load(1, XDATA, add(CFA_XSP16, literal(-5)))
          CFI ?RET_HIGH load(1, XDATA, add(CFA_XSP16, literal(-4)))
          CFI ?BRET_EXT load(1, XDATA, add(CFA_XSP16, literal(-3)))
          CFI DPL0 load(1, XDATA, add(CFA_XSP16, literal(-2)))
          CFI DPH0 load(1, XDATA, add(CFA_XSP16, literal(-1)))
          CFI CFA_SP SP+-2
          CFI CFA_XSP16 add(XSP16, 20)
          CFI Block cfiCond185 Using cfiCommon0
          CFI (cfiCond185) Function ZDP_SimpleDescMsg
          CFI (cfiCond185) Conditional ??CrossCallReturnLabel_172
          CFI (cfiCond185) R6 load(1, XDATA, add(CFA_XSP16, literal(-20)))
          CFI (cfiCond185) VB load(1, XDATA, add(CFA_XSP16, literal(-19)))
          CFI (cfiCond185) V0 load(1, XDATA, add(CFA_XSP16, literal(-18)))
          CFI (cfiCond185) V1 load(1, XDATA, add(CFA_XSP16, literal(-17)))
          CFI (cfiCond185) V2 load(1, XDATA, add(CFA_XSP16, literal(-16)))
          CFI (cfiCond185) V3 load(1, XDATA, add(CFA_XSP16, literal(-15)))
          CFI (cfiCond185) V4 load(1, XDATA, add(CFA_XSP16, literal(-14)))
          CFI (cfiCond185) V5 load(1, XDATA, add(CFA_XSP16, literal(-13)))
          CFI (cfiCond185) V6 load(1, XDATA, add(CFA_XSP16, literal(-12)))
          CFI (cfiCond185) V7 load(1, XDATA, add(CFA_XSP16, literal(-11)))
          CFI (cfiCond185) V8 load(1, XDATA, add(CFA_XSP16, literal(-10)))
          CFI (cfiCond185) V9 load(1, XDATA, add(CFA_XSP16, literal(-9)))
          CFI (cfiCond185) V10 load(1, XDATA, add(CFA_XSP16, literal(-8)))
          CFI (cfiCond185) V11 load(1, XDATA, add(CFA_XSP16, literal(-7)))
          CFI (cfiCond185) R7 load(1, XDATA, add(CFA_XSP16, literal(-6)))
          CFI (cfiCond185) ?RET_LOW load(1, XDATA, add(CFA_XSP16, literal(-5)))
          CFI (cfiCond185) ?RET_HIGH load(1, XDATA, add(CFA_XSP16, literal(-4)))
          CFI (cfiCond185) ?BRET_EXT load(1, XDATA, add(CFA_XSP16, literal(-3)))
          CFI (cfiCond185) DPL0 load(1, XDATA, add(CFA_XSP16, literal(-2)))
          CFI (cfiCond185) DPH0 load(1, XDATA, add(CFA_XSP16, literal(-1)))
          CFI (cfiCond185) CFA_SP SP+-2
          CFI (cfiCond185) CFA_XSP16 add(XSP16, 20)
          CFI Block cfiPicker186 Using cfiCommon1
          CFI (cfiPicker186) NoFunction
          CFI (cfiPicker186) Picker
        MOV       DPL,R7
        MOV       DPH,A
          CFI EndBlock cfiCond184
          CFI EndBlock cfiCond185
          CFI EndBlock cfiPicker186
        REQUIRE ??Subroutine104_0
        ; // Fall through to label ??Subroutine104_0

        RSEG BANKED_CODE:HUGECODE:NOROOT(0)
??Subroutine104_0:
          CFI Block cfiCond187 Using cfiCommon0
          CFI Function ZDP_SimpleDescMsg
          CFI Conditional ??CrossCallReturnLabel_168
          CFI R6 load(1, XDATA, add(CFA_XSP16, literal(-20)))
          CFI VB load(1, XDATA, add(CFA_XSP16, literal(-19)))
          CFI V0 load(1, XDATA, add(CFA_XSP16, literal(-18)))
          CFI V1 load(1, XDATA, add(CFA_XSP16, literal(-17)))
          CFI V2 load(1, XDATA, add(CFA_XSP16, literal(-16)))
          CFI V3 load(1, XDATA, add(CFA_XSP16, literal(-15)))
          CFI V4 load(1, XDATA, add(CFA_XSP16, literal(-14)))
          CFI V5 load(1, XDATA, add(CFA_XSP16, literal(-13)))
          CFI V6 load(1, XDATA, add(CFA_XSP16, literal(-12)))
          CFI V7 load(1, XDATA, add(CFA_XSP16, literal(-11)))
          CFI V8 load(1, XDATA, add(CFA_XSP16, literal(-10)))
          CFI V9 load(1, XDATA, add(CFA_XSP16, literal(-9)))
          CFI V10 load(1, XDATA, add(CFA_XSP16, literal(-8)))
          CFI V11 load(1, XDATA, add(CFA_XSP16, literal(-7)))
          CFI R7 load(1, XDATA, add(CFA_XSP16, literal(-6)))
          CFI ?RET_LOW load(1, XDATA, add(CFA_XSP16, literal(-5)))
          CFI ?RET_HIGH load(1, XDATA, add(CFA_XSP16, literal(-4)))
          CFI ?BRET_EXT load(1, XDATA, add(CFA_XSP16, literal(-3)))
          CFI DPL0 load(1, XDATA, add(CFA_XSP16, literal(-2)))
          CFI DPH0 load(1, XDATA, add(CFA_XSP16, literal(-1)))
          CFI CFA_SP SP+-2
          CFI CFA_XSP16 add(XSP16, 20)
          CFI Block cfiCond188 Using cfiCommon0
          CFI (cfiCond188) Function ZDP_EndDeviceBindReq
          CFI (cfiCond188) Conditional ??CrossCallReturnLabel_169
          CFI (cfiCond188) R6 load(1, XDATA, add(CFA_XSP16, literal(-18)))
          CFI (cfiCond188) VB load(1, XDATA, add(CFA_XSP16, literal(-17)))
          CFI (cfiCond188) V0 load(1, XDATA, add(CFA_XSP16, literal(-16)))
          CFI (cfiCond188) V1 load(1, XDATA, add(CFA_XSP16, literal(-15)))
          CFI (cfiCond188) V2 load(1, XDATA, add(CFA_XSP16, literal(-14)))
          CFI (cfiCond188) V3 load(1, XDATA, add(CFA_XSP16, literal(-13)))
          CFI (cfiCond188) V4 load(1, XDATA, add(CFA_XSP16, literal(-12)))
          CFI (cfiCond188) V5 load(1, XDATA, add(CFA_XSP16, literal(-11)))
          CFI (cfiCond188) V6 load(1, XDATA, add(CFA_XSP16, literal(-10)))
          CFI (cfiCond188) V7 load(1, XDATA, add(CFA_XSP16, literal(-9)))
          CFI (cfiCond188) V8 load(1, XDATA, add(CFA_XSP16, literal(-8)))
          CFI (cfiCond188) V9 load(1, XDATA, add(CFA_XSP16, literal(-7)))
          CFI (cfiCond188) R7 load(1, XDATA, add(CFA_XSP16, literal(-6)))
          CFI (cfiCond188) ?RET_LOW load(1, XDATA, add(CFA_XSP16, literal(-5)))
          CFI (cfiCond188) ?RET_HIGH load(1, XDATA, add(CFA_XSP16, literal(-4)))
          CFI (cfiCond188) ?BRET_EXT load(1, XDATA, add(CFA_XSP16, literal(-3)))
          CFI (cfiCond188) DPL0 load(1, XDATA, add(CFA_XSP16, literal(-2)))
          CFI (cfiCond188) DPH0 load(1, XDATA, add(CFA_XSP16, literal(-1)))
          CFI (cfiCond188) CFA_SP SP+-2
          CFI (cfiCond188) CFA_XSP16 add(XSP16, 18)
          CFI Block cfiCond189 Using cfiCommon0
          CFI (cfiCond189) Function ZDP_MgmtLqiRsp
          CFI (cfiCond189) Conditional ??CrossCallReturnLabel_170
          CFI (cfiCond189) R6 load(1, XDATA, add(CFA_XSP16, literal(-21)))
          CFI (cfiCond189) VB load(1, XDATA, add(CFA_XSP16, literal(-20)))
          CFI (cfiCond189) V0 load(1, XDATA, add(CFA_XSP16, literal(-19)))
          CFI (cfiCond189) V1 load(1, XDATA, add(CFA_XSP16, literal(-18)))
          CFI (cfiCond189) V2 load(1, XDATA, add(CFA_XSP16, literal(-17)))
          CFI (cfiCond189) V3 load(1, XDATA, add(CFA_XSP16, literal(-16)))
          CFI (cfiCond189) V4 load(1, XDATA, add(CFA_XSP16, literal(-15)))
          CFI (cfiCond189) V5 load(1, XDATA, add(CFA_XSP16, literal(-14)))
          CFI (cfiCond189) V6 load(1, XDATA, add(CFA_XSP16, literal(-13)))
          CFI (cfiCond189) V7 load(1, XDATA, add(CFA_XSP16, literal(-12)))
          CFI (cfiCond189) V8 load(1, XDATA, add(CFA_XSP16, literal(-11)))
          CFI (cfiCond189) V9 load(1, XDATA, add(CFA_XSP16, literal(-10)))
          CFI (cfiCond189) V10 load(1, XDATA, add(CFA_XSP16, literal(-9)))
          CFI (cfiCond189) V11 load(1, XDATA, add(CFA_XSP16, literal(-8)))
          CFI (cfiCond189) V12 load(1, XDATA, add(CFA_XSP16, literal(-7)))
          CFI (cfiCond189) R7 load(1, XDATA, add(CFA_XSP16, literal(-6)))
          CFI (cfiCond189) ?RET_LOW load(1, XDATA, add(CFA_XSP16, literal(-5)))
          CFI (cfiCond189) ?RET_HIGH load(1, XDATA, add(CFA_XSP16, literal(-4)))
          CFI (cfiCond189) ?BRET_EXT load(1, XDATA, add(CFA_XSP16, literal(-3)))
          CFI (cfiCond189) DPL0 load(1, XDATA, add(CFA_XSP16, literal(-2)))
          CFI (cfiCond189) DPH0 load(1, XDATA, add(CFA_XSP16, literal(-1)))
          CFI (cfiCond189) CFA_SP SP+-2
          CFI (cfiCond189) CFA_XSP16 add(XSP16, 22)
          CFI Block cfiCond190 Using cfiCommon0
          CFI (cfiCond190) Function ZDP_SimpleDescMsg
          CFI (cfiCond190) Conditional ??CrossCallReturnLabel_171
          CFI (cfiCond190) R6 load(1, XDATA, add(CFA_XSP16, literal(-20)))
          CFI (cfiCond190) VB load(1, XDATA, add(CFA_XSP16, literal(-19)))
          CFI (cfiCond190) V0 load(1, XDATA, add(CFA_XSP16, literal(-18)))
          CFI (cfiCond190) V1 load(1, XDATA, add(CFA_XSP16, literal(-17)))
          CFI (cfiCond190) V2 load(1, XDATA, add(CFA_XSP16, literal(-16)))
          CFI (cfiCond190) V3 load(1, XDATA, add(CFA_XSP16, literal(-15)))
          CFI (cfiCond190) V4 load(1, XDATA, add(CFA_XSP16, literal(-14)))
          CFI (cfiCond190) V5 load(1, XDATA, add(CFA_XSP16, literal(-13)))
          CFI (cfiCond190) V6 load(1, XDATA, add(CFA_XSP16, literal(-12)))
          CFI (cfiCond190) V7 load(1, XDATA, add(CFA_XSP16, literal(-11)))
          CFI (cfiCond190) V8 load(1, XDATA, add(CFA_XSP16, literal(-10)))
          CFI (cfiCond190) V9 load(1, XDATA, add(CFA_XSP16, literal(-9)))
          CFI (cfiCond190) V10 load(1, XDATA, add(CFA_XSP16, literal(-8)))
          CFI (cfiCond190) V11 load(1, XDATA, add(CFA_XSP16, literal(-7)))
          CFI (cfiCond190) R7 load(1, XDATA, add(CFA_XSP16, literal(-6)))
          CFI (cfiCond190) ?RET_LOW load(1, XDATA, add(CFA_XSP16, literal(-5)))
          CFI (cfiCond190) ?RET_HIGH load(1, XDATA, add(CFA_XSP16, literal(-4)))
          CFI (cfiCond190) ?BRET_EXT load(1, XDATA, add(CFA_XSP16, literal(-3)))
          CFI (cfiCond190) DPL0 load(1, XDATA, add(CFA_XSP16, literal(-2)))
          CFI (cfiCond190) DPH0 load(1, XDATA, add(CFA_XSP16, literal(-1)))
          CFI (cfiCond190) CFA_SP SP+-2
          CFI (cfiCond190) CFA_XSP16 add(XSP16, 20)
          CFI Block cfiCond191 Using cfiCommon0
          CFI (cfiCond191) Function ZDP_SimpleDescMsg
          CFI (cfiCond191) Conditional ??CrossCallReturnLabel_172
          CFI (cfiCond191) R6 load(1, XDATA, add(CFA_XSP16, literal(-20)))
          CFI (cfiCond191) VB load(1, XDATA, add(CFA_XSP16, literal(-19)))
          CFI (cfiCond191) V0 load(1, XDATA, add(CFA_XSP16, literal(-18)))
          CFI (cfiCond191) V1 load(1, XDATA, add(CFA_XSP16, literal(-17)))
          CFI (cfiCond191) V2 load(1, XDATA, add(CFA_XSP16, literal(-16)))
          CFI (cfiCond191) V3 load(1, XDATA, add(CFA_XSP16, literal(-15)))
          CFI (cfiCond191) V4 load(1, XDATA, add(CFA_XSP16, literal(-14)))
          CFI (cfiCond191) V5 load(1, XDATA, add(CFA_XSP16, literal(-13)))
          CFI (cfiCond191) V6 load(1, XDATA, add(CFA_XSP16, literal(-12)))
          CFI (cfiCond191) V7 load(1, XDATA, add(CFA_XSP16, literal(-11)))
          CFI (cfiCond191) V8 load(1, XDATA, add(CFA_XSP16, literal(-10)))
          CFI (cfiCond191) V9 load(1, XDATA, add(CFA_XSP16, literal(-9)))
          CFI (cfiCond191) V10 load(1, XDATA, add(CFA_XSP16, literal(-8)))
          CFI (cfiCond191) V11 load(1, XDATA, add(CFA_XSP16, literal(-7)))
          CFI (cfiCond191) R7 load(1, XDATA, add(CFA_XSP16, literal(-6)))
          CFI (cfiCond191) ?RET_LOW load(1, XDATA, add(CFA_XSP16, literal(-5)))
          CFI (cfiCond191) ?RET_HIGH load(1, XDATA, add(CFA_XSP16, literal(-4)))
          CFI (cfiCond191) ?BRET_EXT load(1, XDATA, add(CFA_XSP16, literal(-3)))
          CFI (cfiCond191) DPL0 load(1, XDATA, add(CFA_XSP16, literal(-2)))
          CFI (cfiCond191) DPH0 load(1, XDATA, add(CFA_XSP16, literal(-1)))
          CFI (cfiCond191) CFA_SP SP+-2
          CFI (cfiCond191) CFA_XSP16 add(XSP16, 20)
          CFI Block cfiPicker192 Using cfiCommon1
          CFI (cfiPicker192) NoFunction
          CFI (cfiPicker192) Picker
        LCALL     ??Subroutine110_0 & 0xFFFF
??CrossCallReturnLabel_200:
        MOVX      @DPTR,A
        RET
          CFI EndBlock cfiCond187
          CFI EndBlock cfiCond188
          CFI EndBlock cfiCond189
          CFI EndBlock cfiCond190
          CFI EndBlock cfiCond191
          CFI EndBlock cfiPicker192

        RSEG BANKED_CODE:HUGECODE:NOROOT(0)
?Subroutine15:
          CFI Block cfiCond193 Using cfiCommon0
          CFI Function ZDP_EPRsp
          CFI Conditional ??CrossCallReturnLabel_10
          CFI R6 load(1, XDATA, add(CFA_XSP16, literal(-15)))
          CFI VB load(1, XDATA, add(CFA_XSP16, literal(-14)))
          CFI V0 load(1, XDATA, add(CFA_XSP16, literal(-13)))
          CFI V1 load(1, XDATA, add(CFA_XSP16, literal(-12)))
          CFI V2 load(1, XDATA, add(CFA_XSP16, literal(-11)))
          CFI V3 load(1, XDATA, add(CFA_XSP16, literal(-10)))
          CFI V4 load(1, XDATA, add(CFA_XSP16, literal(-9)))
          CFI V5 load(1, XDATA, add(CFA_XSP16, literal(-8)))
          CFI V6 load(1, XDATA, add(CFA_XSP16, literal(-7)))
          CFI R7 load(1, XDATA, add(CFA_XSP16, literal(-6)))
          CFI ?RET_LOW load(1, XDATA, add(CFA_XSP16, literal(-5)))
          CFI ?RET_HIGH load(1, XDATA, add(CFA_XSP16, literal(-4)))
          CFI ?BRET_EXT load(1, XDATA, add(CFA_XSP16, literal(-3)))
          CFI DPL0 load(1, XDATA, add(CFA_XSP16, literal(-2)))
          CFI DPH0 load(1, XDATA, add(CFA_XSP16, literal(-1)))
          CFI CFA_SP SP+-2
          CFI CFA_XSP16 add(XSP16, 16)
          CFI Block cfiCond194 Using cfiCommon0
          CFI (cfiCond194) Function ZDP_EndDeviceBindReq
          CFI (cfiCond194) Conditional ??CrossCallReturnLabel_11
          CFI (cfiCond194) R6 load(1, XDATA, add(CFA_XSP16, literal(-18)))
          CFI (cfiCond194) VB load(1, XDATA, add(CFA_XSP16, literal(-17)))
          CFI (cfiCond194) V0 load(1, XDATA, add(CFA_XSP16, literal(-16)))
          CFI (cfiCond194) V1 load(1, XDATA, add(CFA_XSP16, literal(-15)))
          CFI (cfiCond194) V2 load(1, XDATA, add(CFA_XSP16, literal(-14)))
          CFI (cfiCond194) V3 load(1, XDATA, add(CFA_XSP16, literal(-13)))
          CFI (cfiCond194) V4 load(1, XDATA, add(CFA_XSP16, literal(-12)))
          CFI (cfiCond194) V5 load(1, XDATA, add(CFA_XSP16, literal(-11)))
          CFI (cfiCond194) V6 load(1, XDATA, add(CFA_XSP16, literal(-10)))
          CFI (cfiCond194) V7 load(1, XDATA, add(CFA_XSP16, literal(-9)))
          CFI (cfiCond194) V8 load(1, XDATA, add(CFA_XSP16, literal(-8)))
          CFI (cfiCond194) V9 load(1, XDATA, add(CFA_XSP16, literal(-7)))
          CFI (cfiCond194) R7 load(1, XDATA, add(CFA_XSP16, literal(-6)))
          CFI (cfiCond194) ?RET_LOW load(1, XDATA, add(CFA_XSP16, literal(-5)))
          CFI (cfiCond194) ?RET_HIGH load(1, XDATA, add(CFA_XSP16, literal(-4)))
          CFI (cfiCond194) ?BRET_EXT load(1, XDATA, add(CFA_XSP16, literal(-3)))
          CFI (cfiCond194) DPL0 load(1, XDATA, add(CFA_XSP16, literal(-2)))
          CFI (cfiCond194) DPH0 load(1, XDATA, add(CFA_XSP16, literal(-1)))
          CFI (cfiCond194) CFA_SP SP+-2
          CFI (cfiCond194) CFA_XSP16 add(XSP16, 18)
          CFI Block cfiCond195 Using cfiCommon0
          CFI (cfiCond195) Function ZDP_BindUnbindReq
          CFI (cfiCond195) Conditional ??CrossCallReturnLabel_12
          CFI (cfiCond195) R6 load(1, XDATA, add(CFA_XSP16, literal(-18)))
          CFI (cfiCond195) VB load(1, XDATA, add(CFA_XSP16, literal(-17)))
          CFI (cfiCond195) V0 load(1, XDATA, add(CFA_XSP16, literal(-16)))
          CFI (cfiCond195) V1 load(1, XDATA, add(CFA_XSP16, literal(-15)))
          CFI (cfiCond195) V2 load(1, XDATA, add(CFA_XSP16, literal(-14)))
          CFI (cfiCond195) V3 load(1, XDATA, add(CFA_XSP16, literal(-13)))
          CFI (cfiCond195) V4 load(1, XDATA, add(CFA_XSP16, literal(-12)))
          CFI (cfiCond195) V5 load(1, XDATA, add(CFA_XSP16, literal(-11)))
          CFI (cfiCond195) V6 load(1, XDATA, add(CFA_XSP16, literal(-10)))
          CFI (cfiCond195) V7 load(1, XDATA, add(CFA_XSP16, literal(-9)))
          CFI (cfiCond195) V8 load(1, XDATA, add(CFA_XSP16, literal(-8)))
          CFI (cfiCond195) V9 load(1, XDATA, add(CFA_XSP16, literal(-7)))
          CFI (cfiCond195) R7 load(1, XDATA, add(CFA_XSP16, literal(-6)))
          CFI (cfiCond195) ?RET_LOW load(1, XDATA, add(CFA_XSP16, literal(-5)))
          CFI (cfiCond195) ?RET_HIGH load(1, XDATA, add(CFA_XSP16, literal(-4)))
          CFI (cfiCond195) ?BRET_EXT load(1, XDATA, add(CFA_XSP16, literal(-3)))
          CFI (cfiCond195) DPL0 load(1, XDATA, add(CFA_XSP16, literal(-2)))
          CFI (cfiCond195) DPH0 load(1, XDATA, add(CFA_XSP16, literal(-1)))
          CFI (cfiCond195) CFA_SP SP+-2
          CFI (cfiCond195) CFA_XSP16 add(XSP16, 18)
          CFI Block cfiPicker196 Using cfiCommon1
          CFI (cfiPicker196) NoFunction
          CFI (cfiPicker196) Picker
        LCALL     ?Subroutine72 & 0xFFFF
??CrossCallReturnLabel_117:
        INC       DPTR
        LCALL     ?Subroutine85 & 0xFFFF
??CrossCallReturnLabel_131:
        MOVX      @DPTR,A
        RET
          CFI EndBlock cfiCond193
          CFI EndBlock cfiCond194
          CFI EndBlock cfiCond195
          CFI EndBlock cfiPicker196

        RSEG BANKED_CODE:HUGECODE:NOROOT(0)
?Subroutine5:
          CFI Block cfiBlock197 Using cfiCommon0
          CFI NoFunction
          CFI CFA_SP SP+0
          CFI CFA_XSP16 add(XSP16, 19)
          CFI VB load(1, XDATA, add(CFA_XSP16, literal(-17)))
          CFI DPL0 load(1, XDATA, add(CFA_XSP16, literal(-2)))
          CFI DPH0 load(1, XDATA, add(CFA_XSP16, literal(-1)))
          CFI R6 load(1, XDATA, add(CFA_XSP16, literal(-18)))
          CFI R7 load(1, XDATA, add(CFA_XSP16, literal(-6)))
          CFI V0 load(1, XDATA, add(CFA_XSP16, literal(-16)))
          CFI V1 load(1, XDATA, add(CFA_XSP16, literal(-15)))
          CFI V2 load(1, XDATA, add(CFA_XSP16, literal(-14)))
          CFI V3 load(1, XDATA, add(CFA_XSP16, literal(-13)))
          CFI V4 load(1, XDATA, add(CFA_XSP16, literal(-12)))
          CFI V5 load(1, XDATA, add(CFA_XSP16, literal(-11)))
          CFI V6 load(1, XDATA, add(CFA_XSP16, literal(-10)))
          CFI V7 load(1, XDATA, add(CFA_XSP16, literal(-9)))
          CFI V8 load(1, XDATA, add(CFA_XSP16, literal(-8)))
          CFI V9 load(1, XDATA, add(CFA_XSP16, literal(-7)))
          CFI ?BRET_EXT load(1, XDATA, add(CFA_XSP16, literal(-3)))
          CFI ?RET_HIGH load(1, XDATA, add(CFA_XSP16, literal(-4)))
          CFI ?RET_LOW load(1, XDATA, add(CFA_XSP16, literal(-5)))
        MOV       A,#0x1
        LCALL     ?DEALLOC_XSTACK8
          CFI EndBlock cfiBlock197
        REQUIRE ??Subroutine105_0
        ; // Fall through to label ??Subroutine105_0

        RSEG BANKED_CODE:HUGECODE:NOROOT(0)
??Subroutine105_0:
          CFI Block cfiBlock198 Using cfiCommon0
          CFI NoFunction
          CFI CFA_SP SP+0
          CFI CFA_XSP16 add(XSP16, 18)
          CFI VB load(1, XDATA, add(CFA_XSP16, literal(-17)))
          CFI DPL0 load(1, XDATA, add(CFA_XSP16, literal(-2)))
          CFI DPH0 load(1, XDATA, add(CFA_XSP16, literal(-1)))
          CFI R6 load(1, XDATA, add(CFA_XSP16, literal(-18)))
          CFI R7 load(1, XDATA, add(CFA_XSP16, literal(-6)))
          CFI V0 load(1, XDATA, add(CFA_XSP16, literal(-16)))
          CFI V1 load(1, XDATA, add(CFA_XSP16, literal(-15)))
          CFI V2 load(1, XDATA, add(CFA_XSP16, literal(-14)))
          CFI V3 load(1, XDATA, add(CFA_XSP16, literal(-13)))
          CFI V4 load(1, XDATA, add(CFA_XSP16, literal(-12)))
          CFI V5 load(1, XDATA, add(CFA_XSP16, literal(-11)))
          CFI V6 load(1, XDATA, add(CFA_XSP16, literal(-10)))
          CFI V7 load(1, XDATA, add(CFA_XSP16, literal(-9)))
          CFI V8 load(1, XDATA, add(CFA_XSP16, literal(-8)))
          CFI V9 load(1, XDATA, add(CFA_XSP16, literal(-7)))
          CFI ?BRET_EXT load(1, XDATA, add(CFA_XSP16, literal(-3)))
          CFI ?RET_HIGH load(1, XDATA, add(CFA_XSP16, literal(-4)))
          CFI ?RET_LOW load(1, XDATA, add(CFA_XSP16, literal(-5)))
        MOV       R7,#0xa
        LJMP      ?BANKED_LEAVE_XDATA
          CFI EndBlock cfiBlock198
// 1193 
// 1194 /*********************************************************************
// 1195  * @fn          ZDP_BindUnbindReq
// 1196  *
// 1197  * @brief       This builds and send a Bind_req or Unbind_req message
// 1198  *              Depending on the ClusterID. This function
// 1199  *              sends a unicast message to the local coordinator.
// 1200  *
// 1201  * @param       BindOrUnbind - either Bind_req or Unbind_req
// 1202  * @param       dstAddr - destination address of the message
// 1203  * @param       SourceAddr - source 64 bit address of the binding
// 1204  * @param       SrcEPIntf - Source endpoint/interface
// 1205  * @param       ClusterID - Binding cluster ID
// 1206  * @param       DestinationAddr - destination 64 bit addr of binding
// 1207  * @param       DstEPIntf - destination endpoint/interface
// 1208  * @param       SecurityEnable - Security Options
// 1209  *
// 1210  * @return      afStatus_t
// 1211  */

        RSEG BANKED_CODE:HUGECODE:NOROOT(0)
// 1212 afStatus_t ZDP_BindUnbindReq( uint16 BindOrUnbind, zAddrType_t *dstAddr,
ZDP_BindUnbindReq:
          CFI Block cfiBlock199 Using cfiCommon0
          CFI Function ZDP_BindUnbindReq
        CODE
// 1213                               uint8 *SourceAddr, byte SrcEndPoint,
// 1214                               cId_t ClusterID,
// 1215                               zAddrType_t *destinationAddr, byte DstEndPoint,
// 1216                               byte SecurityEnable )
// 1217 {
        FUNCALL ZDP_BindUnbindReq, sAddrExtCpy
        LOCFRAME ISTACK, 0, STACK
        LOCFRAME PSTACK, 0, STACK
        LOCFRAME XSTACK, 18, STACK
        LOCFRAME IOVERLAY, 0, STATIC
        LOCFRAME DOVERLAY, 0, STATIC
        ARGFRAME ISTACK, 0, STACK
        ARGFRAME PSTACK, 0, STACK
        ARGFRAME XSTACK, 18, STACK
        ARGFRAME IOVERLAY, 0, STATIC
        ARGFRAME DOVERLAY, 0, STATIC
        FUNCALL ZDP_BindUnbindReq, sAddrExtCpy
        LOCFRAME ISTACK, 1, STACK
        LOCFRAME PSTACK, 0, STACK
        LOCFRAME XSTACK, 18, STACK
        LOCFRAME IOVERLAY, 0, STATIC
        LOCFRAME DOVERLAY, 0, STATIC
        ARGFRAME ISTACK, 1, STACK
        ARGFRAME PSTACK, 0, STACK
        ARGFRAME XSTACK, 18, STACK
        ARGFRAME IOVERLAY, 0, STATIC
        ARGFRAME DOVERLAY, 0, STATIC
        FUNCALL ZDP_BindUnbindReq, fillAndSend
        LOCFRAME ISTACK, 0, STACK
        LOCFRAME PSTACK, 0, STACK
        LOCFRAME XSTACK, 20, STACK
        LOCFRAME IOVERLAY, 0, STATIC
        LOCFRAME DOVERLAY, 0, STATIC
        ARGFRAME ISTACK, 0, STACK
        ARGFRAME PSTACK, 0, STACK
        ARGFRAME XSTACK, 20, STACK
        ARGFRAME IOVERLAY, 0, STATIC
        ARGFRAME DOVERLAY, 0, STATIC
        REQUIRE ?V0
        REQUIRE ?V1
        REQUIRE ?V2
        REQUIRE ?V3
        REQUIRE ?V4
        REQUIRE ?V5
        REQUIRE ?V6
        REQUIRE ?V7
        REQUIRE ?V8
        REQUIRE ?V9
        MOV       A,#-0x12
        LCALL     ?BANKED_ENTER_XDATA
          CFI DPH0 load(1, XDATA, add(CFA_XSP16, literal(-1)))
          CFI DPL0 load(1, XDATA, add(CFA_XSP16, literal(-2)))
          CFI ?BRET_EXT load(1, XDATA, add(CFA_XSP16, literal(-3)))
          CFI ?RET_HIGH load(1, XDATA, add(CFA_XSP16, literal(-4)))
          CFI ?RET_LOW load(1, XDATA, add(CFA_XSP16, literal(-5)))
          CFI R7 load(1, XDATA, add(CFA_XSP16, literal(-6)))
          CFI V9 load(1, XDATA, add(CFA_XSP16, literal(-7)))
          CFI V8 load(1, XDATA, add(CFA_XSP16, literal(-8)))
          CFI V7 load(1, XDATA, add(CFA_XSP16, literal(-9)))
          CFI V6 load(1, XDATA, add(CFA_XSP16, literal(-10)))
          CFI V5 load(1, XDATA, add(CFA_XSP16, literal(-11)))
          CFI V4 load(1, XDATA, add(CFA_XSP16, literal(-12)))
          CFI V3 load(1, XDATA, add(CFA_XSP16, literal(-13)))
          CFI V2 load(1, XDATA, add(CFA_XSP16, literal(-14)))
          CFI V1 load(1, XDATA, add(CFA_XSP16, literal(-15)))
          CFI V0 load(1, XDATA, add(CFA_XSP16, literal(-16)))
          CFI VB load(1, XDATA, add(CFA_XSP16, literal(-17)))
          CFI R6 load(1, XDATA, add(CFA_XSP16, literal(-18)))
          CFI CFA_SP SP+0
          CFI CFA_XSP16 add(XSP16, 18)
        ; Saved register size: 18
        ; Auto size: 0
        MOV       ?V6,R2
        MOV       ?V7,R3
        MOV       ?V4,R4
        MOV       ?V5,R5
        MOV       ?V3,R1
// 1218   uint8 *pBuf = ZDP_TmpBuf;
        LCALL     ??Subroutine107_0 & 0xFFFF
// 1219   byte len;
// 1220 
// 1221   (void)SecurityEnable;  // Intentionally unreferenced parameter
// 1222 
// 1223   // SourceAddr + SrcEPIntf + ClusterID +  addrMode.
// 1224   len = Z_EXTADDR_LEN + 1 + sizeof( cId_t ) + sizeof( uint8 );
??CrossCallReturnLabel_190:
        MOV       ?V2,#0xc
        MOV       A,#0x16
        LCALL     ?XSTACK_DISP0_8
        LCALL     ??Subroutine112_0 & 0xFFFF
// 1225   if ( destinationAddr->addrMode == Addr64Bit )
??CrossCallReturnLabel_206:
        MOV       A,R6
        ADD       A,#0x8
        MOV       ?V0,A
        CLR       A
        ADDC      A,R7
        MOV       ?V1,A
        MOV       DPL,?V0
        MOV       DPH,A
        MOVX      A,@DPTR
        MOV       R0,A
        MOV       A,#0x3
        XRL       A,R0
        JNZ       ??ZDP_BindUnbindReq_0
// 1226     len += Z_EXTADDR_LEN + 1;     // +1 for DstEPIntf
        MOV       ?V2,#0x15
        SJMP      ??ZDP_BindUnbindReq_1
// 1227   else if ( destinationAddr->addrMode == AddrGroup )
??ZDP_BindUnbindReq_0:
        MOV       A,#0x1
        XRL       A,R0
        JNZ       ??ZDP_BindUnbindReq_1
// 1228     len += sizeof ( uint16 );
        MOV       ?V2,#0xe
// 1229 
// 1230   pBuf = osal_cpyExtAddr( pBuf, SourceAddr );
??ZDP_BindUnbindReq_1:
        ; Setup parameters for call to function sAddrExtCpy
        MOV       A,#0x12
        LCALL     ?XSTACK_DISP0_8
        LCALL     ?Subroutine44 & 0xFFFF
??CrossCallReturnLabel_66:
        LCALL     `??sAddrExtCpy::?relay`; Banked call to: sAddrExtCpy
// 1231   *pBuf++ = SrcEndPoint;
        MOV       DPL,R2
        MOV       DPH,R3
        MOV       A,?V3
        MOVX      @DPTR,A
        MOV       A,#0x14
        LCALL     ?XSTACK_DISP0_8
        LCALL     ?Subroutine15 & 0xFFFF
// 1232 
// 1233   *pBuf++ = LO_UINT16( ClusterID );
// 1234 
// 1235   *pBuf++ = HI_UINT16( ClusterID );
// 1236   *pBuf++ = destinationAddr->addrMode;
??CrossCallReturnLabel_12:
        MOV       DPL,?V0
        MOV       DPH,?V1
        LCALL     ?Subroutine29 & 0xFFFF
??CrossCallReturnLabel_214:
        JNC       ??ZDP_BindUnbindReq_2
        INC       R3
// 1237   if ( destinationAddr->addrMode == Addr64Bit )
??ZDP_BindUnbindReq_2:
        MOV       DPL,?V0
        MOV       DPH,?V1
        MOVX      A,@DPTR
        MOV       R0,A
        MOV       A,#0x3
        XRL       A,R0
        JNZ       ??ZDP_BindUnbindReq_3
// 1238   {
// 1239     pBuf = osal_cpyExtAddr( pBuf, destinationAddr->addr.extAddr );
// 1240     *pBuf = DstEndPoint;
        MOV       A,#0x18
        LCALL     ?XSTACK_DISP0_8
        MOVX      A,@DPTR
        PUSH      A
          CFI CFA_SP SP+-1
        ; Setup parameters for call to function sAddrExtCpy
        MOV       A,R6
        MOV       R4,A
        MOV       A,R7
        MOV       R5,A
        LCALL     `??sAddrExtCpy::?relay`; Banked call to: sAddrExtCpy
        MOV       DPL,R2
        MOV       DPH,R3
        POP       A
          CFI CFA_SP SP+0
        SJMP      ??ZDP_BindUnbindReq_4
// 1241   }
// 1242   else if ( destinationAddr->addrMode == AddrGroup )
??ZDP_BindUnbindReq_3:
        MOV       A,#0x1
        XRL       A,R0
        JNZ       ??ZDP_BindUnbindReq_5
// 1243   {
// 1244     *pBuf++ = LO_UINT16( destinationAddr->addr.shortAddr );
        MOV       DPL,R6
        MOV       DPH,R7
        LCALL     ?Subroutine57 & 0xFFFF
// 1245     *pBuf++ = HI_UINT16( destinationAddr->addr.shortAddr );
??CrossCallReturnLabel_86:
        MOV       DPL,R6
        MOV       DPH,R7
        LCALL     ?Subroutine65 & 0xFFFF
// 1246   }
??CrossCallReturnLabel_175:
        INC       DPTR
??ZDP_BindUnbindReq_4:
        MOVX      @DPTR,A
// 1247 
// 1248   FillAndSendTxOptions( &ZDP_TransID, dstAddr, BindOrUnbind, len, AF_MSG_ACK_REQUEST );
??ZDP_BindUnbindReq_5:
        MOV       DPTR,#ZDP_TxOptions
        MOV       A,#0x10
        MOVX      @DPTR,A
        ; Setup parameters for call to function fillAndSend
        MOV       R0,#?V6
        LCALL     ?PUSH_XSTACK_I_TWO
          CFI CFA_XSP16 add(XSP16, 20)
        MOV       R1,?V2
        MOV       R4,?V4
        MOV       R5,?V5
        MOV       R2,#ZDP_TransID & 0xff
        MOV       R3,#(ZDP_TransID >> 8) & 0xff
        LCALL     `??fillAndSend::?relay`; Banked call to: fillAndSend
        MOV       A,#0x2
        LCALL     ?DEALLOC_XSTACK8
          CFI CFA_XSP16 add(XSP16, 18)
        MOV       A,R1
        MOV       R1,A
        MOV       DPTR,#ZDP_TxOptions
        CLR       A
        MOVX      @DPTR,A
        LJMP      ??Subroutine105_0 & 0xFFFF
// 1249 }
          CFI EndBlock cfiBlock199

        RSEG BANKED_CODE:HUGECODE:NOROOT(0)
?Subroutine65:
          CFI Block cfiCond200 Using cfiCommon0
          CFI Function ZDP_BindUnbindReq
          CFI Conditional ??CrossCallReturnLabel_175
          CFI R6 load(1, XDATA, add(CFA_XSP16, literal(-18)))
          CFI VB load(1, XDATA, add(CFA_XSP16, literal(-17)))
          CFI V0 load(1, XDATA, add(CFA_XSP16, literal(-16)))
          CFI V1 load(1, XDATA, add(CFA_XSP16, literal(-15)))
          CFI V2 load(1, XDATA, add(CFA_XSP16, literal(-14)))
          CFI V3 load(1, XDATA, add(CFA_XSP16, literal(-13)))
          CFI V4 load(1, XDATA, add(CFA_XSP16, literal(-12)))
          CFI V5 load(1, XDATA, add(CFA_XSP16, literal(-11)))
          CFI V6 load(1, XDATA, add(CFA_XSP16, literal(-10)))
          CFI V7 load(1, XDATA, add(CFA_XSP16, literal(-9)))
          CFI V8 load(1, XDATA, add(CFA_XSP16, literal(-8)))
          CFI V9 load(1, XDATA, add(CFA_XSP16, literal(-7)))
          CFI R7 load(1, XDATA, add(CFA_XSP16, literal(-6)))
          CFI ?RET_LOW load(1, XDATA, add(CFA_XSP16, literal(-5)))
          CFI ?RET_HIGH load(1, XDATA, add(CFA_XSP16, literal(-4)))
          CFI ?BRET_EXT load(1, XDATA, add(CFA_XSP16, literal(-3)))
          CFI DPL0 load(1, XDATA, add(CFA_XSP16, literal(-2)))
          CFI DPH0 load(1, XDATA, add(CFA_XSP16, literal(-1)))
          CFI CFA_SP SP+-2
          CFI CFA_XSP16 add(XSP16, 18)
          CFI Block cfiCond201 Using cfiCommon0
          CFI (cfiCond201) Function ZDP_MgmtBindRsp
          CFI (cfiCond201) Conditional ??CrossCallReturnLabel_176
          CFI (cfiCond201) R6 load(1, XDATA, add(CFA_XSP16, literal(-22)))
          CFI (cfiCond201) VB load(1, XDATA, add(CFA_XSP16, literal(-21)))
          CFI (cfiCond201) V0 load(1, XDATA, add(CFA_XSP16, literal(-20)))
          CFI (cfiCond201) V1 load(1, XDATA, add(CFA_XSP16, literal(-19)))
          CFI (cfiCond201) V2 load(1, XDATA, add(CFA_XSP16, literal(-18)))
          CFI (cfiCond201) V3 load(1, XDATA, add(CFA_XSP16, literal(-17)))
          CFI (cfiCond201) V4 load(1, XDATA, add(CFA_XSP16, literal(-16)))
          CFI (cfiCond201) V5 load(1, XDATA, add(CFA_XSP16, literal(-15)))
          CFI (cfiCond201) V6 load(1, XDATA, add(CFA_XSP16, literal(-14)))
          CFI (cfiCond201) V7 load(1, XDATA, add(CFA_XSP16, literal(-13)))
          CFI (cfiCond201) V8 load(1, XDATA, add(CFA_XSP16, literal(-12)))
          CFI (cfiCond201) V9 load(1, XDATA, add(CFA_XSP16, literal(-11)))
          CFI (cfiCond201) V10 load(1, XDATA, add(CFA_XSP16, literal(-10)))
          CFI (cfiCond201) V11 load(1, XDATA, add(CFA_XSP16, literal(-9)))
          CFI (cfiCond201) V12 load(1, XDATA, add(CFA_XSP16, literal(-8)))
          CFI (cfiCond201) V13 load(1, XDATA, add(CFA_XSP16, literal(-7)))
          CFI (cfiCond201) R7 load(1, XDATA, add(CFA_XSP16, literal(-6)))
          CFI (cfiCond201) ?RET_LOW load(1, XDATA, add(CFA_XSP16, literal(-5)))
          CFI (cfiCond201) ?RET_HIGH load(1, XDATA, add(CFA_XSP16, literal(-4)))
          CFI (cfiCond201) ?BRET_EXT load(1, XDATA, add(CFA_XSP16, literal(-3)))
          CFI (cfiCond201) DPL0 load(1, XDATA, add(CFA_XSP16, literal(-2)))
          CFI (cfiCond201) DPH0 load(1, XDATA, add(CFA_XSP16, literal(-1)))
          CFI (cfiCond201) CFA_SP SP+-2
          CFI (cfiCond201) CFA_XSP16 add(XSP16, 23)
          CFI Block cfiPicker202 Using cfiCommon1
          CFI (cfiPicker202) NoFunction
          CFI (cfiPicker202) Picker
        INC       DPTR
          CFI EndBlock cfiCond200
          CFI EndBlock cfiCond201
          CFI EndBlock cfiPicker202
        REQUIRE ??Subroutine106_0
        ; // Fall through to label ??Subroutine106_0

        RSEG BANKED_CODE:HUGECODE:NOROOT(0)
??Subroutine106_0:
          CFI Block cfiCond203 Using cfiCommon0
          CFI Function ZDP_MgmtBindRsp
          CFI Conditional ??CrossCallReturnLabel_173
          CFI R6 load(1, XDATA, add(CFA_XSP16, literal(-22)))
          CFI VB load(1, XDATA, add(CFA_XSP16, literal(-21)))
          CFI V0 load(1, XDATA, add(CFA_XSP16, literal(-20)))
          CFI V1 load(1, XDATA, add(CFA_XSP16, literal(-19)))
          CFI V2 load(1, XDATA, add(CFA_XSP16, literal(-18)))
          CFI V3 load(1, XDATA, add(CFA_XSP16, literal(-17)))
          CFI V4 load(1, XDATA, add(CFA_XSP16, literal(-16)))
          CFI V5 load(1, XDATA, add(CFA_XSP16, literal(-15)))
          CFI V6 load(1, XDATA, add(CFA_XSP16, literal(-14)))
          CFI V7 load(1, XDATA, add(CFA_XSP16, literal(-13)))
          CFI V8 load(1, XDATA, add(CFA_XSP16, literal(-12)))
          CFI V9 load(1, XDATA, add(CFA_XSP16, literal(-11)))
          CFI V10 load(1, XDATA, add(CFA_XSP16, literal(-10)))
          CFI V11 load(1, XDATA, add(CFA_XSP16, literal(-9)))
          CFI V12 load(1, XDATA, add(CFA_XSP16, literal(-8)))
          CFI V13 load(1, XDATA, add(CFA_XSP16, literal(-7)))
          CFI R7 load(1, XDATA, add(CFA_XSP16, literal(-6)))
          CFI ?RET_LOW load(1, XDATA, add(CFA_XSP16, literal(-5)))
          CFI ?RET_HIGH load(1, XDATA, add(CFA_XSP16, literal(-4)))
          CFI ?BRET_EXT load(1, XDATA, add(CFA_XSP16, literal(-3)))
          CFI DPL0 load(1, XDATA, add(CFA_XSP16, literal(-2)))
          CFI DPH0 load(1, XDATA, add(CFA_XSP16, literal(-1)))
          CFI CFA_SP SP+-2
          CFI CFA_XSP16 add(XSP16, 23)
          CFI Block cfiCond204 Using cfiCommon0
          CFI (cfiCond204) Function ZDP_MgmtBindRsp
          CFI (cfiCond204) Conditional ??CrossCallReturnLabel_174
          CFI (cfiCond204) R6 load(1, XDATA, add(CFA_XSP16, literal(-22)))
          CFI (cfiCond204) VB load(1, XDATA, add(CFA_XSP16, literal(-21)))
          CFI (cfiCond204) V0 load(1, XDATA, add(CFA_XSP16, literal(-20)))
          CFI (cfiCond204) V1 load(1, XDATA, add(CFA_XSP16, literal(-19)))
          CFI (cfiCond204) V2 load(1, XDATA, add(CFA_XSP16, literal(-18)))
          CFI (cfiCond204) V3 load(1, XDATA, add(CFA_XSP16, literal(-17)))
          CFI (cfiCond204) V4 load(1, XDATA, add(CFA_XSP16, literal(-16)))
          CFI (cfiCond204) V5 load(1, XDATA, add(CFA_XSP16, literal(-15)))
          CFI (cfiCond204) V6 load(1, XDATA, add(CFA_XSP16, literal(-14)))
          CFI (cfiCond204) V7 load(1, XDATA, add(CFA_XSP16, literal(-13)))
          CFI (cfiCond204) V8 load(1, XDATA, add(CFA_XSP16, literal(-12)))
          CFI (cfiCond204) V9 load(1, XDATA, add(CFA_XSP16, literal(-11)))
          CFI (cfiCond204) V10 load(1, XDATA, add(CFA_XSP16, literal(-10)))
          CFI (cfiCond204) V11 load(1, XDATA, add(CFA_XSP16, literal(-9)))
          CFI (cfiCond204) V12 load(1, XDATA, add(CFA_XSP16, literal(-8)))
          CFI (cfiCond204) V13 load(1, XDATA, add(CFA_XSP16, literal(-7)))
          CFI (cfiCond204) R7 load(1, XDATA, add(CFA_XSP16, literal(-6)))
          CFI (cfiCond204) ?RET_LOW load(1, XDATA, add(CFA_XSP16, literal(-5)))
          CFI (cfiCond204) ?RET_HIGH load(1, XDATA, add(CFA_XSP16, literal(-4)))
          CFI (cfiCond204) ?BRET_EXT load(1, XDATA, add(CFA_XSP16, literal(-3)))
          CFI (cfiCond204) DPL0 load(1, XDATA, add(CFA_XSP16, literal(-2)))
          CFI (cfiCond204) DPH0 load(1, XDATA, add(CFA_XSP16, literal(-1)))
          CFI (cfiCond204) CFA_SP SP+-2
          CFI (cfiCond204) CFA_XSP16 add(XSP16, 23)
          CFI Block cfiCond205 Using cfiCommon0
          CFI (cfiCond205) Function ZDP_BindUnbindReq
          CFI (cfiCond205) Conditional ??CrossCallReturnLabel_175
          CFI (cfiCond205) R6 load(1, XDATA, add(CFA_XSP16, literal(-18)))
          CFI (cfiCond205) VB load(1, XDATA, add(CFA_XSP16, literal(-17)))
          CFI (cfiCond205) V0 load(1, XDATA, add(CFA_XSP16, literal(-16)))
          CFI (cfiCond205) V1 load(1, XDATA, add(CFA_XSP16, literal(-15)))
          CFI (cfiCond205) V2 load(1, XDATA, add(CFA_XSP16, literal(-14)))
          CFI (cfiCond205) V3 load(1, XDATA, add(CFA_XSP16, literal(-13)))
          CFI (cfiCond205) V4 load(1, XDATA, add(CFA_XSP16, literal(-12)))
          CFI (cfiCond205) V5 load(1, XDATA, add(CFA_XSP16, literal(-11)))
          CFI (cfiCond205) V6 load(1, XDATA, add(CFA_XSP16, literal(-10)))
          CFI (cfiCond205) V7 load(1, XDATA, add(CFA_XSP16, literal(-9)))
          CFI (cfiCond205) V8 load(1, XDATA, add(CFA_XSP16, literal(-8)))
          CFI (cfiCond205) V9 load(1, XDATA, add(CFA_XSP16, literal(-7)))
          CFI (cfiCond205) R7 load(1, XDATA, add(CFA_XSP16, literal(-6)))
          CFI (cfiCond205) ?RET_LOW load(1, XDATA, add(CFA_XSP16, literal(-5)))
          CFI (cfiCond205) ?RET_HIGH load(1, XDATA, add(CFA_XSP16, literal(-4)))
          CFI (cfiCond205) ?BRET_EXT load(1, XDATA, add(CFA_XSP16, literal(-3)))
          CFI (cfiCond205) DPL0 load(1, XDATA, add(CFA_XSP16, literal(-2)))
          CFI (cfiCond205) DPH0 load(1, XDATA, add(CFA_XSP16, literal(-1)))
          CFI (cfiCond205) CFA_SP SP+-2
          CFI (cfiCond205) CFA_XSP16 add(XSP16, 18)
          CFI Block cfiCond206 Using cfiCommon0
          CFI (cfiCond206) Function ZDP_MgmtBindRsp
          CFI (cfiCond206) Conditional ??CrossCallReturnLabel_176
          CFI (cfiCond206) R6 load(1, XDATA, add(CFA_XSP16, literal(-22)))
          CFI (cfiCond206) VB load(1, XDATA, add(CFA_XSP16, literal(-21)))
          CFI (cfiCond206) V0 load(1, XDATA, add(CFA_XSP16, literal(-20)))
          CFI (cfiCond206) V1 load(1, XDATA, add(CFA_XSP16, literal(-19)))
          CFI (cfiCond206) V2 load(1, XDATA, add(CFA_XSP16, literal(-18)))
          CFI (cfiCond206) V3 load(1, XDATA, add(CFA_XSP16, literal(-17)))
          CFI (cfiCond206) V4 load(1, XDATA, add(CFA_XSP16, literal(-16)))
          CFI (cfiCond206) V5 load(1, XDATA, add(CFA_XSP16, literal(-15)))
          CFI (cfiCond206) V6 load(1, XDATA, add(CFA_XSP16, literal(-14)))
          CFI (cfiCond206) V7 load(1, XDATA, add(CFA_XSP16, literal(-13)))
          CFI (cfiCond206) V8 load(1, XDATA, add(CFA_XSP16, literal(-12)))
          CFI (cfiCond206) V9 load(1, XDATA, add(CFA_XSP16, literal(-11)))
          CFI (cfiCond206) V10 load(1, XDATA, add(CFA_XSP16, literal(-10)))
          CFI (cfiCond206) V11 load(1, XDATA, add(CFA_XSP16, literal(-9)))
          CFI (cfiCond206) V12 load(1, XDATA, add(CFA_XSP16, literal(-8)))
          CFI (cfiCond206) V13 load(1, XDATA, add(CFA_XSP16, literal(-7)))
          CFI (cfiCond206) R7 load(1, XDATA, add(CFA_XSP16, literal(-6)))
          CFI (cfiCond206) ?RET_LOW load(1, XDATA, add(CFA_XSP16, literal(-5)))
          CFI (cfiCond206) ?RET_HIGH load(1, XDATA, add(CFA_XSP16, literal(-4)))
          CFI (cfiCond206) ?BRET_EXT load(1, XDATA, add(CFA_XSP16, literal(-3)))
          CFI (cfiCond206) DPL0 load(1, XDATA, add(CFA_XSP16, literal(-2)))
          CFI (cfiCond206) DPH0 load(1, XDATA, add(CFA_XSP16, literal(-1)))
          CFI (cfiCond206) CFA_SP SP+-2
          CFI (cfiCond206) CFA_XSP16 add(XSP16, 23)
          CFI Block cfiPicker207 Using cfiCommon1
          CFI (cfiPicker207) NoFunction
          CFI (cfiPicker207) Picker
        LCALL     ?Subroutine79 & 0xFFFF
??CrossCallReturnLabel_181:
        RET
          CFI EndBlock cfiCond203
          CFI EndBlock cfiCond204
          CFI EndBlock cfiCond205
          CFI EndBlock cfiCond206
          CFI EndBlock cfiPicker207

        RSEG BANKED_CODE:HUGECODE:NOROOT(0)
?Subroutine79:
          CFI Block cfiCond208 Using cfiCommon0
          CFI Function ZDP_BindUnbindReq
          CFI Conditional ??CrossCallReturnLabel_181, ??CrossCallReturnLabel_175
          CFI R6 load(1, XDATA, add(CFA_XSP16, literal(-18)))
          CFI VB load(1, XDATA, add(CFA_XSP16, literal(-17)))
          CFI V0 load(1, XDATA, add(CFA_XSP16, literal(-16)))
          CFI V1 load(1, XDATA, add(CFA_XSP16, literal(-15)))
          CFI V2 load(1, XDATA, add(CFA_XSP16, literal(-14)))
          CFI V3 load(1, XDATA, add(CFA_XSP16, literal(-13)))
          CFI V4 load(1, XDATA, add(CFA_XSP16, literal(-12)))
          CFI V5 load(1, XDATA, add(CFA_XSP16, literal(-11)))
          CFI V6 load(1, XDATA, add(CFA_XSP16, literal(-10)))
          CFI V7 load(1, XDATA, add(CFA_XSP16, literal(-9)))
          CFI V8 load(1, XDATA, add(CFA_XSP16, literal(-8)))
          CFI V9 load(1, XDATA, add(CFA_XSP16, literal(-7)))
          CFI R7 load(1, XDATA, add(CFA_XSP16, literal(-6)))
          CFI ?RET_LOW load(1, XDATA, add(CFA_XSP16, literal(-5)))
          CFI ?RET_HIGH load(1, XDATA, add(CFA_XSP16, literal(-4)))
          CFI ?BRET_EXT load(1, XDATA, add(CFA_XSP16, literal(-3)))
          CFI DPL0 load(1, XDATA, add(CFA_XSP16, literal(-2)))
          CFI DPH0 load(1, XDATA, add(CFA_XSP16, literal(-1)))
          CFI CFA_SP SP+-4
          CFI CFA_XSP16 add(XSP16, 18)
          CFI Block cfiCond209 Using cfiCommon0
          CFI (cfiCond209) Function ZDP_MgmtBindRsp
          CFI (cfiCond209) Conditional ??CrossCallReturnLabel_181, ??CrossCallReturnLabel_176
          CFI (cfiCond209) R6 load(1, XDATA, add(CFA_XSP16, literal(-22)))
          CFI (cfiCond209) VB load(1, XDATA, add(CFA_XSP16, literal(-21)))
          CFI (cfiCond209) V0 load(1, XDATA, add(CFA_XSP16, literal(-20)))
          CFI (cfiCond209) V1 load(1, XDATA, add(CFA_XSP16, literal(-19)))
          CFI (cfiCond209) V2 load(1, XDATA, add(CFA_XSP16, literal(-18)))
          CFI (cfiCond209) V3 load(1, XDATA, add(CFA_XSP16, literal(-17)))
          CFI (cfiCond209) V4 load(1, XDATA, add(CFA_XSP16, literal(-16)))
          CFI (cfiCond209) V5 load(1, XDATA, add(CFA_XSP16, literal(-15)))
          CFI (cfiCond209) V6 load(1, XDATA, add(CFA_XSP16, literal(-14)))
          CFI (cfiCond209) V7 load(1, XDATA, add(CFA_XSP16, literal(-13)))
          CFI (cfiCond209) V8 load(1, XDATA, add(CFA_XSP16, literal(-12)))
          CFI (cfiCond209) V9 load(1, XDATA, add(CFA_XSP16, literal(-11)))
          CFI (cfiCond209) V10 load(1, XDATA, add(CFA_XSP16, literal(-10)))
          CFI (cfiCond209) V11 load(1, XDATA, add(CFA_XSP16, literal(-9)))
          CFI (cfiCond209) V12 load(1, XDATA, add(CFA_XSP16, literal(-8)))
          CFI (cfiCond209) V13 load(1, XDATA, add(CFA_XSP16, literal(-7)))
          CFI (cfiCond209) R7 load(1, XDATA, add(CFA_XSP16, literal(-6)))
          CFI (cfiCond209) ?RET_LOW load(1, XDATA, add(CFA_XSP16, literal(-5)))
          CFI (cfiCond209) ?RET_HIGH load(1, XDATA, add(CFA_XSP16, literal(-4)))
          CFI (cfiCond209) ?BRET_EXT load(1, XDATA, add(CFA_XSP16, literal(-3)))
          CFI (cfiCond209) DPL0 load(1, XDATA, add(CFA_XSP16, literal(-2)))
          CFI (cfiCond209) DPH0 load(1, XDATA, add(CFA_XSP16, literal(-1)))
          CFI (cfiCond209) CFA_SP SP+-4
          CFI (cfiCond209) CFA_XSP16 add(XSP16, 23)
          CFI Block cfiCond210 Using cfiCommon0
          CFI (cfiCond210) Function ZDP_MgmtBindRsp
          CFI (cfiCond210) Conditional ??CrossCallReturnLabel_181, ??CrossCallReturnLabel_173
          CFI (cfiCond210) R6 load(1, XDATA, add(CFA_XSP16, literal(-22)))
          CFI (cfiCond210) VB load(1, XDATA, add(CFA_XSP16, literal(-21)))
          CFI (cfiCond210) V0 load(1, XDATA, add(CFA_XSP16, literal(-20)))
          CFI (cfiCond210) V1 load(1, XDATA, add(CFA_XSP16, literal(-19)))
          CFI (cfiCond210) V2 load(1, XDATA, add(CFA_XSP16, literal(-18)))
          CFI (cfiCond210) V3 load(1, XDATA, add(CFA_XSP16, literal(-17)))
          CFI (cfiCond210) V4 load(1, XDATA, add(CFA_XSP16, literal(-16)))
          CFI (cfiCond210) V5 load(1, XDATA, add(CFA_XSP16, literal(-15)))
          CFI (cfiCond210) V6 load(1, XDATA, add(CFA_XSP16, literal(-14)))
          CFI (cfiCond210) V7 load(1, XDATA, add(CFA_XSP16, literal(-13)))
          CFI (cfiCond210) V8 load(1, XDATA, add(CFA_XSP16, literal(-12)))
          CFI (cfiCond210) V9 load(1, XDATA, add(CFA_XSP16, literal(-11)))
          CFI (cfiCond210) V10 load(1, XDATA, add(CFA_XSP16, literal(-10)))
          CFI (cfiCond210) V11 load(1, XDATA, add(CFA_XSP16, literal(-9)))
          CFI (cfiCond210) V12 load(1, XDATA, add(CFA_XSP16, literal(-8)))
          CFI (cfiCond210) V13 load(1, XDATA, add(CFA_XSP16, literal(-7)))
          CFI (cfiCond210) R7 load(1, XDATA, add(CFA_XSP16, literal(-6)))
          CFI (cfiCond210) ?RET_LOW load(1, XDATA, add(CFA_XSP16, literal(-5)))
          CFI (cfiCond210) ?RET_HIGH load(1, XDATA, add(CFA_XSP16, literal(-4)))
          CFI (cfiCond210) ?BRET_EXT load(1, XDATA, add(CFA_XSP16, literal(-3)))
          CFI (cfiCond210) DPL0 load(1, XDATA, add(CFA_XSP16, literal(-2)))
          CFI (cfiCond210) DPH0 load(1, XDATA, add(CFA_XSP16, literal(-1)))
          CFI (cfiCond210) CFA_SP SP+-4
          CFI (cfiCond210) CFA_XSP16 add(XSP16, 23)
          CFI Block cfiCond211 Using cfiCommon0
          CFI (cfiCond211) Function ZDP_MgmtBindRsp
          CFI (cfiCond211) Conditional ??CrossCallReturnLabel_181, ??CrossCallReturnLabel_174
          CFI (cfiCond211) R6 load(1, XDATA, add(CFA_XSP16, literal(-22)))
          CFI (cfiCond211) VB load(1, XDATA, add(CFA_XSP16, literal(-21)))
          CFI (cfiCond211) V0 load(1, XDATA, add(CFA_XSP16, literal(-20)))
          CFI (cfiCond211) V1 load(1, XDATA, add(CFA_XSP16, literal(-19)))
          CFI (cfiCond211) V2 load(1, XDATA, add(CFA_XSP16, literal(-18)))
          CFI (cfiCond211) V3 load(1, XDATA, add(CFA_XSP16, literal(-17)))
          CFI (cfiCond211) V4 load(1, XDATA, add(CFA_XSP16, literal(-16)))
          CFI (cfiCond211) V5 load(1, XDATA, add(CFA_XSP16, literal(-15)))
          CFI (cfiCond211) V6 load(1, XDATA, add(CFA_XSP16, literal(-14)))
          CFI (cfiCond211) V7 load(1, XDATA, add(CFA_XSP16, literal(-13)))
          CFI (cfiCond211) V8 load(1, XDATA, add(CFA_XSP16, literal(-12)))
          CFI (cfiCond211) V9 load(1, XDATA, add(CFA_XSP16, literal(-11)))
          CFI (cfiCond211) V10 load(1, XDATA, add(CFA_XSP16, literal(-10)))
          CFI (cfiCond211) V11 load(1, XDATA, add(CFA_XSP16, literal(-9)))
          CFI (cfiCond211) V12 load(1, XDATA, add(CFA_XSP16, literal(-8)))
          CFI (cfiCond211) V13 load(1, XDATA, add(CFA_XSP16, literal(-7)))
          CFI (cfiCond211) R7 load(1, XDATA, add(CFA_XSP16, literal(-6)))
          CFI (cfiCond211) ?RET_LOW load(1, XDATA, add(CFA_XSP16, literal(-5)))
          CFI (cfiCond211) ?RET_HIGH load(1, XDATA, add(CFA_XSP16, literal(-4)))
          CFI (cfiCond211) ?BRET_EXT load(1, XDATA, add(CFA_XSP16, literal(-3)))
          CFI (cfiCond211) DPL0 load(1, XDATA, add(CFA_XSP16, literal(-2)))
          CFI (cfiCond211) DPH0 load(1, XDATA, add(CFA_XSP16, literal(-1)))
          CFI (cfiCond211) CFA_SP SP+-4
          CFI (cfiCond211) CFA_XSP16 add(XSP16, 23)
          CFI Block cfiCond212 Using cfiCommon0
          CFI (cfiCond212) Function ZDP_EPRsp
          CFI (cfiCond212) Conditional ??CrossCallReturnLabel_180, ??CrossCallReturnLabel_85
          CFI (cfiCond212) R6 load(1, XDATA, add(CFA_XSP16, literal(-15)))
          CFI (cfiCond212) VB load(1, XDATA, add(CFA_XSP16, literal(-14)))
          CFI (cfiCond212) V0 load(1, XDATA, add(CFA_XSP16, literal(-13)))
          CFI (cfiCond212) V1 load(1, XDATA, add(CFA_XSP16, literal(-12)))
          CFI (cfiCond212) V2 load(1, XDATA, add(CFA_XSP16, literal(-11)))
          CFI (cfiCond212) V3 load(1, XDATA, add(CFA_XSP16, literal(-10)))
          CFI (cfiCond212) V4 load(1, XDATA, add(CFA_XSP16, literal(-9)))
          CFI (cfiCond212) V5 load(1, XDATA, add(CFA_XSP16, literal(-8)))
          CFI (cfiCond212) V6 load(1, XDATA, add(CFA_XSP16, literal(-7)))
          CFI (cfiCond212) R7 load(1, XDATA, add(CFA_XSP16, literal(-6)))
          CFI (cfiCond212) ?RET_LOW load(1, XDATA, add(CFA_XSP16, literal(-5)))
          CFI (cfiCond212) ?RET_HIGH load(1, XDATA, add(CFA_XSP16, literal(-4)))
          CFI (cfiCond212) ?BRET_EXT load(1, XDATA, add(CFA_XSP16, literal(-3)))
          CFI (cfiCond212) DPL0 load(1, XDATA, add(CFA_XSP16, literal(-2)))
          CFI (cfiCond212) DPH0 load(1, XDATA, add(CFA_XSP16, literal(-1)))
          CFI (cfiCond212) CFA_SP SP+-4
          CFI (cfiCond212) CFA_XSP16 add(XSP16, 16)
          CFI Block cfiCond213 Using cfiCommon0
          CFI (cfiCond213) Function ZDP_BindUnbindReq
          CFI (cfiCond213) Conditional ??CrossCallReturnLabel_180, ??CrossCallReturnLabel_86
          CFI (cfiCond213) R6 load(1, XDATA, add(CFA_XSP16, literal(-18)))
          CFI (cfiCond213) VB load(1, XDATA, add(CFA_XSP16, literal(-17)))
          CFI (cfiCond213) V0 load(1, XDATA, add(CFA_XSP16, literal(-16)))
          CFI (cfiCond213) V1 load(1, XDATA, add(CFA_XSP16, literal(-15)))
          CFI (cfiCond213) V2 load(1, XDATA, add(CFA_XSP16, literal(-14)))
          CFI (cfiCond213) V3 load(1, XDATA, add(CFA_XSP16, literal(-13)))
          CFI (cfiCond213) V4 load(1, XDATA, add(CFA_XSP16, literal(-12)))
          CFI (cfiCond213) V5 load(1, XDATA, add(CFA_XSP16, literal(-11)))
          CFI (cfiCond213) V6 load(1, XDATA, add(CFA_XSP16, literal(-10)))
          CFI (cfiCond213) V7 load(1, XDATA, add(CFA_XSP16, literal(-9)))
          CFI (cfiCond213) V8 load(1, XDATA, add(CFA_XSP16, literal(-8)))
          CFI (cfiCond213) V9 load(1, XDATA, add(CFA_XSP16, literal(-7)))
          CFI (cfiCond213) R7 load(1, XDATA, add(CFA_XSP16, literal(-6)))
          CFI (cfiCond213) ?RET_LOW load(1, XDATA, add(CFA_XSP16, literal(-5)))
          CFI (cfiCond213) ?RET_HIGH load(1, XDATA, add(CFA_XSP16, literal(-4)))
          CFI (cfiCond213) ?BRET_EXT load(1, XDATA, add(CFA_XSP16, literal(-3)))
          CFI (cfiCond213) DPL0 load(1, XDATA, add(CFA_XSP16, literal(-2)))
          CFI (cfiCond213) DPH0 load(1, XDATA, add(CFA_XSP16, literal(-1)))
          CFI (cfiCond213) CFA_SP SP+-4
          CFI (cfiCond213) CFA_XSP16 add(XSP16, 18)
          CFI Block cfiCond214 Using cfiCommon0
          CFI (cfiCond214) Function ZDP_MgmtLqiRsp
          CFI (cfiCond214) Conditional ??CrossCallReturnLabel_180, ??CrossCallReturnLabel_87
          CFI (cfiCond214) R6 load(1, XDATA, add(CFA_XSP16, literal(-21)))
          CFI (cfiCond214) VB load(1, XDATA, add(CFA_XSP16, literal(-20)))
          CFI (cfiCond214) V0 load(1, XDATA, add(CFA_XSP16, literal(-19)))
          CFI (cfiCond214) V1 load(1, XDATA, add(CFA_XSP16, literal(-18)))
          CFI (cfiCond214) V2 load(1, XDATA, add(CFA_XSP16, literal(-17)))
          CFI (cfiCond214) V3 load(1, XDATA, add(CFA_XSP16, literal(-16)))
          CFI (cfiCond214) V4 load(1, XDATA, add(CFA_XSP16, literal(-15)))
          CFI (cfiCond214) V5 load(1, XDATA, add(CFA_XSP16, literal(-14)))
          CFI (cfiCond214) V6 load(1, XDATA, add(CFA_XSP16, literal(-13)))
          CFI (cfiCond214) V7 load(1, XDATA, add(CFA_XSP16, literal(-12)))
          CFI (cfiCond214) V8 load(1, XDATA, add(CFA_XSP16, literal(-11)))
          CFI (cfiCond214) V9 load(1, XDATA, add(CFA_XSP16, literal(-10)))
          CFI (cfiCond214) V10 load(1, XDATA, add(CFA_XSP16, literal(-9)))
          CFI (cfiCond214) V11 load(1, XDATA, add(CFA_XSP16, literal(-8)))
          CFI (cfiCond214) V12 load(1, XDATA, add(CFA_XSP16, literal(-7)))
          CFI (cfiCond214) R7 load(1, XDATA, add(CFA_XSP16, literal(-6)))
          CFI (cfiCond214) ?RET_LOW load(1, XDATA, add(CFA_XSP16, literal(-5)))
          CFI (cfiCond214) ?RET_HIGH load(1, XDATA, add(CFA_XSP16, literal(-4)))
          CFI (cfiCond214) ?BRET_EXT load(1, XDATA, add(CFA_XSP16, literal(-3)))
          CFI (cfiCond214) DPL0 load(1, XDATA, add(CFA_XSP16, literal(-2)))
          CFI (cfiCond214) DPH0 load(1, XDATA, add(CFA_XSP16, literal(-1)))
          CFI (cfiCond214) CFA_SP SP+-4
          CFI (cfiCond214) CFA_XSP16 add(XSP16, 22)
          CFI Block cfiCond215 Using cfiCommon0
          CFI (cfiCond215) Function ZDP_MgmtRtgRsp
          CFI (cfiCond215) Conditional ??CrossCallReturnLabel_179, ??CrossCallReturnLabel_50
          CFI (cfiCond215) R6 load(1, XDATA, add(CFA_XSP16, literal(-20)))
          CFI (cfiCond215) VB load(1, XDATA, add(CFA_XSP16, literal(-19)))
          CFI (cfiCond215) V0 load(1, XDATA, add(CFA_XSP16, literal(-18)))
          CFI (cfiCond215) V1 load(1, XDATA, add(CFA_XSP16, literal(-17)))
          CFI (cfiCond215) V2 load(1, XDATA, add(CFA_XSP16, literal(-16)))
          CFI (cfiCond215) V3 load(1, XDATA, add(CFA_XSP16, literal(-15)))
          CFI (cfiCond215) V4 load(1, XDATA, add(CFA_XSP16, literal(-14)))
          CFI (cfiCond215) V5 load(1, XDATA, add(CFA_XSP16, literal(-13)))
          CFI (cfiCond215) V6 load(1, XDATA, add(CFA_XSP16, literal(-12)))
          CFI (cfiCond215) V7 load(1, XDATA, add(CFA_XSP16, literal(-11)))
          CFI (cfiCond215) V8 load(1, XDATA, add(CFA_XSP16, literal(-10)))
          CFI (cfiCond215) V9 load(1, XDATA, add(CFA_XSP16, literal(-9)))
          CFI (cfiCond215) V10 load(1, XDATA, add(CFA_XSP16, literal(-8)))
          CFI (cfiCond215) V11 load(1, XDATA, add(CFA_XSP16, literal(-7)))
          CFI (cfiCond215) R7 load(1, XDATA, add(CFA_XSP16, literal(-6)))
          CFI (cfiCond215) ?RET_LOW load(1, XDATA, add(CFA_XSP16, literal(-5)))
          CFI (cfiCond215) ?RET_HIGH load(1, XDATA, add(CFA_XSP16, literal(-4)))
          CFI (cfiCond215) ?BRET_EXT load(1, XDATA, add(CFA_XSP16, literal(-3)))
          CFI (cfiCond215) DPL0 load(1, XDATA, add(CFA_XSP16, literal(-2)))
          CFI (cfiCond215) DPH0 load(1, XDATA, add(CFA_XSP16, literal(-1)))
          CFI (cfiCond215) CFA_SP SP+-4
          CFI (cfiCond215) CFA_XSP16 add(XSP16, 21)
          CFI Block cfiCond216 Using cfiCommon0
          CFI (cfiCond216) Function ZDP_MgmtBindRsp
          CFI (cfiCond216) Conditional ??CrossCallReturnLabel_179, ??CrossCallReturnLabel_51
          CFI (cfiCond216) R6 load(1, XDATA, add(CFA_XSP16, literal(-22)))
          CFI (cfiCond216) VB load(1, XDATA, add(CFA_XSP16, literal(-21)))
          CFI (cfiCond216) V0 load(1, XDATA, add(CFA_XSP16, literal(-20)))
          CFI (cfiCond216) V1 load(1, XDATA, add(CFA_XSP16, literal(-19)))
          CFI (cfiCond216) V2 load(1, XDATA, add(CFA_XSP16, literal(-18)))
          CFI (cfiCond216) V3 load(1, XDATA, add(CFA_XSP16, literal(-17)))
          CFI (cfiCond216) V4 load(1, XDATA, add(CFA_XSP16, literal(-16)))
          CFI (cfiCond216) V5 load(1, XDATA, add(CFA_XSP16, literal(-15)))
          CFI (cfiCond216) V6 load(1, XDATA, add(CFA_XSP16, literal(-14)))
          CFI (cfiCond216) V7 load(1, XDATA, add(CFA_XSP16, literal(-13)))
          CFI (cfiCond216) V8 load(1, XDATA, add(CFA_XSP16, literal(-12)))
          CFI (cfiCond216) V9 load(1, XDATA, add(CFA_XSP16, literal(-11)))
          CFI (cfiCond216) V10 load(1, XDATA, add(CFA_XSP16, literal(-10)))
          CFI (cfiCond216) V11 load(1, XDATA, add(CFA_XSP16, literal(-9)))
          CFI (cfiCond216) V12 load(1, XDATA, add(CFA_XSP16, literal(-8)))
          CFI (cfiCond216) V13 load(1, XDATA, add(CFA_XSP16, literal(-7)))
          CFI (cfiCond216) R7 load(1, XDATA, add(CFA_XSP16, literal(-6)))
          CFI (cfiCond216) ?RET_LOW load(1, XDATA, add(CFA_XSP16, literal(-5)))
          CFI (cfiCond216) ?RET_HIGH load(1, XDATA, add(CFA_XSP16, literal(-4)))
          CFI (cfiCond216) ?BRET_EXT load(1, XDATA, add(CFA_XSP16, literal(-3)))
          CFI (cfiCond216) DPL0 load(1, XDATA, add(CFA_XSP16, literal(-2)))
          CFI (cfiCond216) DPH0 load(1, XDATA, add(CFA_XSP16, literal(-1)))
          CFI (cfiCond216) CFA_SP SP+-4
          CFI (cfiCond216) CFA_XSP16 add(XSP16, 23)
          CFI Block cfiCond217 Using cfiCommon0
          CFI (cfiCond217) Function ZDP_MgmtRtgRsp
          CFI (cfiCond217) Conditional ??CrossCallReturnLabel_177, ??CrossCallReturnLabel_8
          CFI (cfiCond217) R6 load(1, XDATA, add(CFA_XSP16, literal(-20)))
          CFI (cfiCond217) VB load(1, XDATA, add(CFA_XSP16, literal(-19)))
          CFI (cfiCond217) V0 load(1, XDATA, add(CFA_XSP16, literal(-18)))
          CFI (cfiCond217) V1 load(1, XDATA, add(CFA_XSP16, literal(-17)))
          CFI (cfiCond217) V2 load(1, XDATA, add(CFA_XSP16, literal(-16)))
          CFI (cfiCond217) V3 load(1, XDATA, add(CFA_XSP16, literal(-15)))
          CFI (cfiCond217) V4 load(1, XDATA, add(CFA_XSP16, literal(-14)))
          CFI (cfiCond217) V5 load(1, XDATA, add(CFA_XSP16, literal(-13)))
          CFI (cfiCond217) V6 load(1, XDATA, add(CFA_XSP16, literal(-12)))
          CFI (cfiCond217) V7 load(1, XDATA, add(CFA_XSP16, literal(-11)))
          CFI (cfiCond217) V8 load(1, XDATA, add(CFA_XSP16, literal(-10)))
          CFI (cfiCond217) V9 load(1, XDATA, add(CFA_XSP16, literal(-9)))
          CFI (cfiCond217) V10 load(1, XDATA, add(CFA_XSP16, literal(-8)))
          CFI (cfiCond217) V11 load(1, XDATA, add(CFA_XSP16, literal(-7)))
          CFI (cfiCond217) R7 load(1, XDATA, add(CFA_XSP16, literal(-6)))
          CFI (cfiCond217) ?RET_LOW load(1, XDATA, add(CFA_XSP16, literal(-5)))
          CFI (cfiCond217) ?RET_HIGH load(1, XDATA, add(CFA_XSP16, literal(-4)))
          CFI (cfiCond217) ?BRET_EXT load(1, XDATA, add(CFA_XSP16, literal(-3)))
          CFI (cfiCond217) DPL0 load(1, XDATA, add(CFA_XSP16, literal(-2)))
          CFI (cfiCond217) DPH0 load(1, XDATA, add(CFA_XSP16, literal(-1)))
          CFI (cfiCond217) CFA_SP SP+-4
          CFI (cfiCond217) CFA_XSP16 add(XSP16, 21)
          CFI Block cfiCond218 Using cfiCommon0
          CFI (cfiCond218) Function ZDP_MgmtBindRsp
          CFI (cfiCond218) Conditional ??CrossCallReturnLabel_177, ??CrossCallReturnLabel_9
          CFI (cfiCond218) R6 load(1, XDATA, add(CFA_XSP16, literal(-22)))
          CFI (cfiCond218) VB load(1, XDATA, add(CFA_XSP16, literal(-21)))
          CFI (cfiCond218) V0 load(1, XDATA, add(CFA_XSP16, literal(-20)))
          CFI (cfiCond218) V1 load(1, XDATA, add(CFA_XSP16, literal(-19)))
          CFI (cfiCond218) V2 load(1, XDATA, add(CFA_XSP16, literal(-18)))
          CFI (cfiCond218) V3 load(1, XDATA, add(CFA_XSP16, literal(-17)))
          CFI (cfiCond218) V4 load(1, XDATA, add(CFA_XSP16, literal(-16)))
          CFI (cfiCond218) V5 load(1, XDATA, add(CFA_XSP16, literal(-15)))
          CFI (cfiCond218) V6 load(1, XDATA, add(CFA_XSP16, literal(-14)))
          CFI (cfiCond218) V7 load(1, XDATA, add(CFA_XSP16, literal(-13)))
          CFI (cfiCond218) V8 load(1, XDATA, add(CFA_XSP16, literal(-12)))
          CFI (cfiCond218) V9 load(1, XDATA, add(CFA_XSP16, literal(-11)))
          CFI (cfiCond218) V10 load(1, XDATA, add(CFA_XSP16, literal(-10)))
          CFI (cfiCond218) V11 load(1, XDATA, add(CFA_XSP16, literal(-9)))
          CFI (cfiCond218) V12 load(1, XDATA, add(CFA_XSP16, literal(-8)))
          CFI (cfiCond218) V13 load(1, XDATA, add(CFA_XSP16, literal(-7)))
          CFI (cfiCond218) R7 load(1, XDATA, add(CFA_XSP16, literal(-6)))
          CFI (cfiCond218) ?RET_LOW load(1, XDATA, add(CFA_XSP16, literal(-5)))
          CFI (cfiCond218) ?RET_HIGH load(1, XDATA, add(CFA_XSP16, literal(-4)))
          CFI (cfiCond218) ?BRET_EXT load(1, XDATA, add(CFA_XSP16, literal(-3)))
          CFI (cfiCond218) DPL0 load(1, XDATA, add(CFA_XSP16, literal(-2)))
          CFI (cfiCond218) DPH0 load(1, XDATA, add(CFA_XSP16, literal(-1)))
          CFI (cfiCond218) CFA_SP SP+-4
          CFI (cfiCond218) CFA_XSP16 add(XSP16, 23)
          CFI Block cfiCond219 Using cfiCommon0
          CFI (cfiCond219) Function ZDP_MgmtRtgRsp
          CFI (cfiCond219) Conditional ??CrossCallReturnLabel_178, ??CrossCallReturnLabel_8
          CFI (cfiCond219) R6 load(1, XDATA, add(CFA_XSP16, literal(-20)))
          CFI (cfiCond219) VB load(1, XDATA, add(CFA_XSP16, literal(-19)))
          CFI (cfiCond219) V0 load(1, XDATA, add(CFA_XSP16, literal(-18)))
          CFI (cfiCond219) V1 load(1, XDATA, add(CFA_XSP16, literal(-17)))
          CFI (cfiCond219) V2 load(1, XDATA, add(CFA_XSP16, literal(-16)))
          CFI (cfiCond219) V3 load(1, XDATA, add(CFA_XSP16, literal(-15)))
          CFI (cfiCond219) V4 load(1, XDATA, add(CFA_XSP16, literal(-14)))
          CFI (cfiCond219) V5 load(1, XDATA, add(CFA_XSP16, literal(-13)))
          CFI (cfiCond219) V6 load(1, XDATA, add(CFA_XSP16, literal(-12)))
          CFI (cfiCond219) V7 load(1, XDATA, add(CFA_XSP16, literal(-11)))
          CFI (cfiCond219) V8 load(1, XDATA, add(CFA_XSP16, literal(-10)))
          CFI (cfiCond219) V9 load(1, XDATA, add(CFA_XSP16, literal(-9)))
          CFI (cfiCond219) V10 load(1, XDATA, add(CFA_XSP16, literal(-8)))
          CFI (cfiCond219) V11 load(1, XDATA, add(CFA_XSP16, literal(-7)))
          CFI (cfiCond219) R7 load(1, XDATA, add(CFA_XSP16, literal(-6)))
          CFI (cfiCond219) ?RET_LOW load(1, XDATA, add(CFA_XSP16, literal(-5)))
          CFI (cfiCond219) ?RET_HIGH load(1, XDATA, add(CFA_XSP16, literal(-4)))
          CFI (cfiCond219) ?BRET_EXT load(1, XDATA, add(CFA_XSP16, literal(-3)))
          CFI (cfiCond219) DPL0 load(1, XDATA, add(CFA_XSP16, literal(-2)))
          CFI (cfiCond219) DPH0 load(1, XDATA, add(CFA_XSP16, literal(-1)))
          CFI (cfiCond219) CFA_SP SP+-4
          CFI (cfiCond219) CFA_XSP16 add(XSP16, 21)
          CFI Block cfiCond220 Using cfiCommon0
          CFI (cfiCond220) Function ZDP_MgmtBindRsp
          CFI (cfiCond220) Conditional ??CrossCallReturnLabel_178, ??CrossCallReturnLabel_9
          CFI (cfiCond220) R6 load(1, XDATA, add(CFA_XSP16, literal(-22)))
          CFI (cfiCond220) VB load(1, XDATA, add(CFA_XSP16, literal(-21)))
          CFI (cfiCond220) V0 load(1, XDATA, add(CFA_XSP16, literal(-20)))
          CFI (cfiCond220) V1 load(1, XDATA, add(CFA_XSP16, literal(-19)))
          CFI (cfiCond220) V2 load(1, XDATA, add(CFA_XSP16, literal(-18)))
          CFI (cfiCond220) V3 load(1, XDATA, add(CFA_XSP16, literal(-17)))
          CFI (cfiCond220) V4 load(1, XDATA, add(CFA_XSP16, literal(-16)))
          CFI (cfiCond220) V5 load(1, XDATA, add(CFA_XSP16, literal(-15)))
          CFI (cfiCond220) V6 load(1, XDATA, add(CFA_XSP16, literal(-14)))
          CFI (cfiCond220) V7 load(1, XDATA, add(CFA_XSP16, literal(-13)))
          CFI (cfiCond220) V8 load(1, XDATA, add(CFA_XSP16, literal(-12)))
          CFI (cfiCond220) V9 load(1, XDATA, add(CFA_XSP16, literal(-11)))
          CFI (cfiCond220) V10 load(1, XDATA, add(CFA_XSP16, literal(-10)))
          CFI (cfiCond220) V11 load(1, XDATA, add(CFA_XSP16, literal(-9)))
          CFI (cfiCond220) V12 load(1, XDATA, add(CFA_XSP16, literal(-8)))
          CFI (cfiCond220) V13 load(1, XDATA, add(CFA_XSP16, literal(-7)))
          CFI (cfiCond220) R7 load(1, XDATA, add(CFA_XSP16, literal(-6)))
          CFI (cfiCond220) ?RET_LOW load(1, XDATA, add(CFA_XSP16, literal(-5)))
          CFI (cfiCond220) ?RET_HIGH load(1, XDATA, add(CFA_XSP16, literal(-4)))
          CFI (cfiCond220) ?BRET_EXT load(1, XDATA, add(CFA_XSP16, literal(-3)))
          CFI (cfiCond220) DPL0 load(1, XDATA, add(CFA_XSP16, literal(-2)))
          CFI (cfiCond220) DPH0 load(1, XDATA, add(CFA_XSP16, literal(-1)))
          CFI (cfiCond220) CFA_SP SP+-4
          CFI (cfiCond220) CFA_XSP16 add(XSP16, 23)
          CFI Block cfiPicker221 Using cfiCommon1
          CFI (cfiPicker221) NoFunction
          CFI (cfiPicker221) Picker
        MOVX      A,@DPTR
        MOV       DPL,R2
        MOV       DPH,R3
        RET
          CFI EndBlock cfiCond208
          CFI EndBlock cfiCond209
          CFI EndBlock cfiCond210
          CFI EndBlock cfiCond211
          CFI EndBlock cfiCond212
          CFI EndBlock cfiCond213
          CFI EndBlock cfiCond214
          CFI EndBlock cfiCond215
          CFI EndBlock cfiCond216
          CFI EndBlock cfiCond217
          CFI EndBlock cfiCond218
          CFI EndBlock cfiCond219
          CFI EndBlock cfiCond220
          CFI EndBlock cfiPicker221

        RSEG BANKED_CODE:HUGECODE:NOROOT(0)
?Subroutine57:
          CFI Block cfiCond222 Using cfiCommon0
          CFI Function ZDP_EPRsp
          CFI Conditional ??CrossCallReturnLabel_85
          CFI R6 load(1, XDATA, add(CFA_XSP16, literal(-15)))
          CFI VB load(1, XDATA, add(CFA_XSP16, literal(-14)))
          CFI V0 load(1, XDATA, add(CFA_XSP16, literal(-13)))
          CFI V1 load(1, XDATA, add(CFA_XSP16, literal(-12)))
          CFI V2 load(1, XDATA, add(CFA_XSP16, literal(-11)))
          CFI V3 load(1, XDATA, add(CFA_XSP16, literal(-10)))
          CFI V4 load(1, XDATA, add(CFA_XSP16, literal(-9)))
          CFI V5 load(1, XDATA, add(CFA_XSP16, literal(-8)))
          CFI V6 load(1, XDATA, add(CFA_XSP16, literal(-7)))
          CFI R7 load(1, XDATA, add(CFA_XSP16, literal(-6)))
          CFI ?RET_LOW load(1, XDATA, add(CFA_XSP16, literal(-5)))
          CFI ?RET_HIGH load(1, XDATA, add(CFA_XSP16, literal(-4)))
          CFI ?BRET_EXT load(1, XDATA, add(CFA_XSP16, literal(-3)))
          CFI DPL0 load(1, XDATA, add(CFA_XSP16, literal(-2)))
          CFI DPH0 load(1, XDATA, add(CFA_XSP16, literal(-1)))
          CFI CFA_SP SP+-2
          CFI CFA_XSP16 add(XSP16, 16)
          CFI Block cfiCond223 Using cfiCommon0
          CFI (cfiCond223) Function ZDP_BindUnbindReq
          CFI (cfiCond223) Conditional ??CrossCallReturnLabel_86
          CFI (cfiCond223) R6 load(1, XDATA, add(CFA_XSP16, literal(-18)))
          CFI (cfiCond223) VB load(1, XDATA, add(CFA_XSP16, literal(-17)))
          CFI (cfiCond223) V0 load(1, XDATA, add(CFA_XSP16, literal(-16)))
          CFI (cfiCond223) V1 load(1, XDATA, add(CFA_XSP16, literal(-15)))
          CFI (cfiCond223) V2 load(1, XDATA, add(CFA_XSP16, literal(-14)))
          CFI (cfiCond223) V3 load(1, XDATA, add(CFA_XSP16, literal(-13)))
          CFI (cfiCond223) V4 load(1, XDATA, add(CFA_XSP16, literal(-12)))
          CFI (cfiCond223) V5 load(1, XDATA, add(CFA_XSP16, literal(-11)))
          CFI (cfiCond223) V6 load(1, XDATA, add(CFA_XSP16, literal(-10)))
          CFI (cfiCond223) V7 load(1, XDATA, add(CFA_XSP16, literal(-9)))
          CFI (cfiCond223) V8 load(1, XDATA, add(CFA_XSP16, literal(-8)))
          CFI (cfiCond223) V9 load(1, XDATA, add(CFA_XSP16, literal(-7)))
          CFI (cfiCond223) R7 load(1, XDATA, add(CFA_XSP16, literal(-6)))
          CFI (cfiCond223) ?RET_LOW load(1, XDATA, add(CFA_XSP16, literal(-5)))
          CFI (cfiCond223) ?RET_HIGH load(1, XDATA, add(CFA_XSP16, literal(-4)))
          CFI (cfiCond223) ?BRET_EXT load(1, XDATA, add(CFA_XSP16, literal(-3)))
          CFI (cfiCond223) DPL0 load(1, XDATA, add(CFA_XSP16, literal(-2)))
          CFI (cfiCond223) DPH0 load(1, XDATA, add(CFA_XSP16, literal(-1)))
          CFI (cfiCond223) CFA_SP SP+-2
          CFI (cfiCond223) CFA_XSP16 add(XSP16, 18)
          CFI Block cfiCond224 Using cfiCommon0
          CFI (cfiCond224) Function ZDP_MgmtLqiRsp
          CFI (cfiCond224) Conditional ??CrossCallReturnLabel_87
          CFI (cfiCond224) R6 load(1, XDATA, add(CFA_XSP16, literal(-21)))
          CFI (cfiCond224) VB load(1, XDATA, add(CFA_XSP16, literal(-20)))
          CFI (cfiCond224) V0 load(1, XDATA, add(CFA_XSP16, literal(-19)))
          CFI (cfiCond224) V1 load(1, XDATA, add(CFA_XSP16, literal(-18)))
          CFI (cfiCond224) V2 load(1, XDATA, add(CFA_XSP16, literal(-17)))
          CFI (cfiCond224) V3 load(1, XDATA, add(CFA_XSP16, literal(-16)))
          CFI (cfiCond224) V4 load(1, XDATA, add(CFA_XSP16, literal(-15)))
          CFI (cfiCond224) V5 load(1, XDATA, add(CFA_XSP16, literal(-14)))
          CFI (cfiCond224) V6 load(1, XDATA, add(CFA_XSP16, literal(-13)))
          CFI (cfiCond224) V7 load(1, XDATA, add(CFA_XSP16, literal(-12)))
          CFI (cfiCond224) V8 load(1, XDATA, add(CFA_XSP16, literal(-11)))
          CFI (cfiCond224) V9 load(1, XDATA, add(CFA_XSP16, literal(-10)))
          CFI (cfiCond224) V10 load(1, XDATA, add(CFA_XSP16, literal(-9)))
          CFI (cfiCond224) V11 load(1, XDATA, add(CFA_XSP16, literal(-8)))
          CFI (cfiCond224) V12 load(1, XDATA, add(CFA_XSP16, literal(-7)))
          CFI (cfiCond224) R7 load(1, XDATA, add(CFA_XSP16, literal(-6)))
          CFI (cfiCond224) ?RET_LOW load(1, XDATA, add(CFA_XSP16, literal(-5)))
          CFI (cfiCond224) ?RET_HIGH load(1, XDATA, add(CFA_XSP16, literal(-4)))
          CFI (cfiCond224) ?BRET_EXT load(1, XDATA, add(CFA_XSP16, literal(-3)))
          CFI (cfiCond224) DPL0 load(1, XDATA, add(CFA_XSP16, literal(-2)))
          CFI (cfiCond224) DPH0 load(1, XDATA, add(CFA_XSP16, literal(-1)))
          CFI (cfiCond224) CFA_SP SP+-2
          CFI (cfiCond224) CFA_XSP16 add(XSP16, 22)
          CFI Block cfiPicker225 Using cfiCommon1
          CFI (cfiPicker225) NoFunction
          CFI (cfiPicker225) Picker
        LCALL     ?Subroutine79 & 0xFFFF
??CrossCallReturnLabel_180:
        MOVX      @DPTR,A
        RET
          CFI EndBlock cfiCond222
          CFI EndBlock cfiCond223
          CFI EndBlock cfiCond224
          CFI EndBlock cfiPicker225

        RSEG BANKED_CODE:HUGECODE:NOROOT(0)
?Subroutine44:
          CFI Block cfiCond226 Using cfiCommon0
          CFI Function ZDP_MatchDescReq
          CFI Conditional ??CrossCallReturnLabel_62
          CFI R6 load(1, XDATA, add(CFA_XSP16, literal(-14)))
          CFI VB load(1, XDATA, add(CFA_XSP16, literal(-13)))
          CFI V0 load(1, XDATA, add(CFA_XSP16, literal(-12)))
          CFI V1 load(1, XDATA, add(CFA_XSP16, literal(-11)))
          CFI V2 load(1, XDATA, add(CFA_XSP16, literal(-10)))
          CFI V3 load(1, XDATA, add(CFA_XSP16, literal(-9)))
          CFI V4 load(1, XDATA, add(CFA_XSP16, literal(-8)))
          CFI V5 load(1, XDATA, add(CFA_XSP16, literal(-7)))
          CFI R7 load(1, XDATA, add(CFA_XSP16, literal(-6)))
          CFI ?RET_LOW load(1, XDATA, add(CFA_XSP16, literal(-5)))
          CFI ?RET_HIGH load(1, XDATA, add(CFA_XSP16, literal(-4)))
          CFI ?BRET_EXT load(1, XDATA, add(CFA_XSP16, literal(-3)))
          CFI DPL0 load(1, XDATA, add(CFA_XSP16, literal(-2)))
          CFI DPH0 load(1, XDATA, add(CFA_XSP16, literal(-1)))
          CFI CFA_SP SP+-2
          CFI CFA_XSP16 add(XSP16, 14)
          CFI Block cfiCond227 Using cfiCommon0
          CFI (cfiCond227) Function ZDP_MatchDescReq
          CFI (cfiCond227) Conditional ??CrossCallReturnLabel_63
          CFI (cfiCond227) R6 load(1, XDATA, add(CFA_XSP16, literal(-14)))
          CFI (cfiCond227) VB load(1, XDATA, add(CFA_XSP16, literal(-13)))
          CFI (cfiCond227) V0 load(1, XDATA, add(CFA_XSP16, literal(-12)))
          CFI (cfiCond227) V1 load(1, XDATA, add(CFA_XSP16, literal(-11)))
          CFI (cfiCond227) V2 load(1, XDATA, add(CFA_XSP16, literal(-10)))
          CFI (cfiCond227) V3 load(1, XDATA, add(CFA_XSP16, literal(-9)))
          CFI (cfiCond227) V4 load(1, XDATA, add(CFA_XSP16, literal(-8)))
          CFI (cfiCond227) V5 load(1, XDATA, add(CFA_XSP16, literal(-7)))
          CFI (cfiCond227) R7 load(1, XDATA, add(CFA_XSP16, literal(-6)))
          CFI (cfiCond227) ?RET_LOW load(1, XDATA, add(CFA_XSP16, literal(-5)))
          CFI (cfiCond227) ?RET_HIGH load(1, XDATA, add(CFA_XSP16, literal(-4)))
          CFI (cfiCond227) ?BRET_EXT load(1, XDATA, add(CFA_XSP16, literal(-3)))
          CFI (cfiCond227) DPL0 load(1, XDATA, add(CFA_XSP16, literal(-2)))
          CFI (cfiCond227) DPH0 load(1, XDATA, add(CFA_XSP16, literal(-1)))
          CFI (cfiCond227) CFA_SP SP+-2
          CFI (cfiCond227) CFA_XSP16 add(XSP16, 14)
          CFI Block cfiCond228 Using cfiCommon0
          CFI (cfiCond228) Function ZDP_MatchDescReq
          CFI (cfiCond228) Conditional ??CrossCallReturnLabel_64
          CFI (cfiCond228) R6 load(1, XDATA, add(CFA_XSP16, literal(-14)))
          CFI (cfiCond228) VB load(1, XDATA, add(CFA_XSP16, literal(-13)))
          CFI (cfiCond228) V0 load(1, XDATA, add(CFA_XSP16, literal(-12)))
          CFI (cfiCond228) V1 load(1, XDATA, add(CFA_XSP16, literal(-11)))
          CFI (cfiCond228) V2 load(1, XDATA, add(CFA_XSP16, literal(-10)))
          CFI (cfiCond228) V3 load(1, XDATA, add(CFA_XSP16, literal(-9)))
          CFI (cfiCond228) V4 load(1, XDATA, add(CFA_XSP16, literal(-8)))
          CFI (cfiCond228) V5 load(1, XDATA, add(CFA_XSP16, literal(-7)))
          CFI (cfiCond228) R7 load(1, XDATA, add(CFA_XSP16, literal(-6)))
          CFI (cfiCond228) ?RET_LOW load(1, XDATA, add(CFA_XSP16, literal(-5)))
          CFI (cfiCond228) ?RET_HIGH load(1, XDATA, add(CFA_XSP16, literal(-4)))
          CFI (cfiCond228) ?BRET_EXT load(1, XDATA, add(CFA_XSP16, literal(-3)))
          CFI (cfiCond228) DPL0 load(1, XDATA, add(CFA_XSP16, literal(-2)))
          CFI (cfiCond228) DPH0 load(1, XDATA, add(CFA_XSP16, literal(-1)))
          CFI (cfiCond228) CFA_SP SP+-2
          CFI (cfiCond228) CFA_XSP16 add(XSP16, 14)
          CFI Block cfiCond229 Using cfiCommon0
          CFI (cfiCond229) Function zdpProcessAddrReq
          CFI (cfiCond229) Conditional ??CrossCallReturnLabel_65
          CFI (cfiCond229) R6 load(1, XDATA, add(CFA_XSP16, literal(-15)))
          CFI (cfiCond229) VB load(1, XDATA, add(CFA_XSP16, literal(-14)))
          CFI (cfiCond229) V0 load(1, XDATA, add(CFA_XSP16, literal(-13)))
          CFI (cfiCond229) V1 load(1, XDATA, add(CFA_XSP16, literal(-12)))
          CFI (cfiCond229) V2 load(1, XDATA, add(CFA_XSP16, literal(-11)))
          CFI (cfiCond229) V3 load(1, XDATA, add(CFA_XSP16, literal(-10)))
          CFI (cfiCond229) V4 load(1, XDATA, add(CFA_XSP16, literal(-9)))
          CFI (cfiCond229) V5 load(1, XDATA, add(CFA_XSP16, literal(-8)))
          CFI (cfiCond229) V6 load(1, XDATA, add(CFA_XSP16, literal(-7)))
          CFI (cfiCond229) R7 load(1, XDATA, add(CFA_XSP16, literal(-6)))
          CFI (cfiCond229) ?RET_LOW load(1, XDATA, add(CFA_XSP16, literal(-5)))
          CFI (cfiCond229) ?RET_HIGH load(1, XDATA, add(CFA_XSP16, literal(-4)))
          CFI (cfiCond229) ?BRET_EXT load(1, XDATA, add(CFA_XSP16, literal(-3)))
          CFI (cfiCond229) DPL0 load(1, XDATA, add(CFA_XSP16, literal(-2)))
          CFI (cfiCond229) DPH0 load(1, XDATA, add(CFA_XSP16, literal(-1)))
          CFI (cfiCond229) CFA_SP SP+-2
          CFI (cfiCond229) CFA_XSP16 add(XSP16, 15)
          CFI Block cfiCond230 Using cfiCommon0
          CFI (cfiCond230) Function ZDP_BindUnbindReq
          CFI (cfiCond230) Conditional ??CrossCallReturnLabel_66
          CFI (cfiCond230) R6 load(1, XDATA, add(CFA_XSP16, literal(-18)))
          CFI (cfiCond230) VB load(1, XDATA, add(CFA_XSP16, literal(-17)))
          CFI (cfiCond230) V0 load(1, XDATA, add(CFA_XSP16, literal(-16)))
          CFI (cfiCond230) V1 load(1, XDATA, add(CFA_XSP16, literal(-15)))
          CFI (cfiCond230) V2 load(1, XDATA, add(CFA_XSP16, literal(-14)))
          CFI (cfiCond230) V3 load(1, XDATA, add(CFA_XSP16, literal(-13)))
          CFI (cfiCond230) V4 load(1, XDATA, add(CFA_XSP16, literal(-12)))
          CFI (cfiCond230) V5 load(1, XDATA, add(CFA_XSP16, literal(-11)))
          CFI (cfiCond230) V6 load(1, XDATA, add(CFA_XSP16, literal(-10)))
          CFI (cfiCond230) V7 load(1, XDATA, add(CFA_XSP16, literal(-9)))
          CFI (cfiCond230) V8 load(1, XDATA, add(CFA_XSP16, literal(-8)))
          CFI (cfiCond230) V9 load(1, XDATA, add(CFA_XSP16, literal(-7)))
          CFI (cfiCond230) R7 load(1, XDATA, add(CFA_XSP16, literal(-6)))
          CFI (cfiCond230) ?RET_LOW load(1, XDATA, add(CFA_XSP16, literal(-5)))
          CFI (cfiCond230) ?RET_HIGH load(1, XDATA, add(CFA_XSP16, literal(-4)))
          CFI (cfiCond230) ?BRET_EXT load(1, XDATA, add(CFA_XSP16, literal(-3)))
          CFI (cfiCond230) DPL0 load(1, XDATA, add(CFA_XSP16, literal(-2)))
          CFI (cfiCond230) DPH0 load(1, XDATA, add(CFA_XSP16, literal(-1)))
          CFI (cfiCond230) CFA_SP SP+-2
          CFI (cfiCond230) CFA_XSP16 add(XSP16, 18)
          CFI Block cfiCond231 Using cfiCommon0
          CFI (cfiCond231) Function ZDP_MgmtRtgRsp
          CFI (cfiCond231) Conditional ??CrossCallReturnLabel_67
          CFI (cfiCond231) R6 load(1, XDATA, add(CFA_XSP16, literal(-20)))
          CFI (cfiCond231) VB load(1, XDATA, add(CFA_XSP16, literal(-19)))
          CFI (cfiCond231) V0 load(1, XDATA, add(CFA_XSP16, literal(-18)))
          CFI (cfiCond231) V1 load(1, XDATA, add(CFA_XSP16, literal(-17)))
          CFI (cfiCond231) V2 load(1, XDATA, add(CFA_XSP16, literal(-16)))
          CFI (cfiCond231) V3 load(1, XDATA, add(CFA_XSP16, literal(-15)))
          CFI (cfiCond231) V4 load(1, XDATA, add(CFA_XSP16, literal(-14)))
          CFI (cfiCond231) V5 load(1, XDATA, add(CFA_XSP16, literal(-13)))
          CFI (cfiCond231) V6 load(1, XDATA, add(CFA_XSP16, literal(-12)))
          CFI (cfiCond231) V7 load(1, XDATA, add(CFA_XSP16, literal(-11)))
          CFI (cfiCond231) V8 load(1, XDATA, add(CFA_XSP16, literal(-10)))
          CFI (cfiCond231) V9 load(1, XDATA, add(CFA_XSP16, literal(-9)))
          CFI (cfiCond231) V10 load(1, XDATA, add(CFA_XSP16, literal(-8)))
          CFI (cfiCond231) V11 load(1, XDATA, add(CFA_XSP16, literal(-7)))
          CFI (cfiCond231) R7 load(1, XDATA, add(CFA_XSP16, literal(-6)))
          CFI (cfiCond231) ?RET_LOW load(1, XDATA, add(CFA_XSP16, literal(-5)))
          CFI (cfiCond231) ?RET_HIGH load(1, XDATA, add(CFA_XSP16, literal(-4)))
          CFI (cfiCond231) ?BRET_EXT load(1, XDATA, add(CFA_XSP16, literal(-3)))
          CFI (cfiCond231) DPL0 load(1, XDATA, add(CFA_XSP16, literal(-2)))
          CFI (cfiCond231) DPH0 load(1, XDATA, add(CFA_XSP16, literal(-1)))
          CFI (cfiCond231) CFA_SP SP+-2
          CFI (cfiCond231) CFA_XSP16 add(XSP16, 21)
          CFI Block cfiPicker232 Using cfiCommon1
          CFI (cfiPicker232) NoFunction
          CFI (cfiPicker232) Picker
        MOVX      A,@DPTR
        MOV       R4,A
        INC       DPTR
        MOVX      A,@DPTR
        MOV       R5,A
        RET
          CFI EndBlock cfiCond226
          CFI EndBlock cfiCond227
          CFI EndBlock cfiCond228
          CFI EndBlock cfiCond229
          CFI EndBlock cfiCond230
          CFI EndBlock cfiCond231
          CFI EndBlock cfiPicker232

        RSEG BANKED_CODE:HUGECODE:NOROOT(0)
?Subroutine38:
          CFI Block cfiCond233 Using cfiCommon0
          CFI Function ZDP_MgmtDirectJoinReq
          CFI Conditional ??CrossCallReturnLabel_182
          CFI R6 load(1, XDATA, add(CFA_XSP16, literal(-12)))
          CFI VB load(1, XDATA, add(CFA_XSP16, literal(-11)))
          CFI V0 load(1, XDATA, add(CFA_XSP16, literal(-10)))
          CFI V1 load(1, XDATA, add(CFA_XSP16, literal(-9)))
          CFI V2 load(1, XDATA, add(CFA_XSP16, literal(-8)))
          CFI V3 load(1, XDATA, add(CFA_XSP16, literal(-7)))
          CFI R7 load(1, XDATA, add(CFA_XSP16, literal(-6)))
          CFI ?RET_LOW load(1, XDATA, add(CFA_XSP16, literal(-5)))
          CFI ?RET_HIGH load(1, XDATA, add(CFA_XSP16, literal(-4)))
          CFI ?BRET_EXT load(1, XDATA, add(CFA_XSP16, literal(-3)))
          CFI DPL0 load(1, XDATA, add(CFA_XSP16, literal(-2)))
          CFI DPH0 load(1, XDATA, add(CFA_XSP16, literal(-1)))
          CFI CFA_SP SP+-2
          CFI CFA_XSP16 add(XSP16, 12)
          CFI Block cfiCond234 Using cfiCommon0
          CFI (cfiCond234) Function ZDP_MgmtLeaveReq
          CFI (cfiCond234) Conditional ??CrossCallReturnLabel_183
          CFI (cfiCond234) R6 load(1, XDATA, add(CFA_XSP16, literal(-12)))
          CFI (cfiCond234) VB load(1, XDATA, add(CFA_XSP16, literal(-11)))
          CFI (cfiCond234) V0 load(1, XDATA, add(CFA_XSP16, literal(-10)))
          CFI (cfiCond234) V1 load(1, XDATA, add(CFA_XSP16, literal(-9)))
          CFI (cfiCond234) V2 load(1, XDATA, add(CFA_XSP16, literal(-8)))
          CFI (cfiCond234) V3 load(1, XDATA, add(CFA_XSP16, literal(-7)))
          CFI (cfiCond234) R7 load(1, XDATA, add(CFA_XSP16, literal(-6)))
          CFI (cfiCond234) ?RET_LOW load(1, XDATA, add(CFA_XSP16, literal(-5)))
          CFI (cfiCond234) ?RET_HIGH load(1, XDATA, add(CFA_XSP16, literal(-4)))
          CFI (cfiCond234) ?BRET_EXT load(1, XDATA, add(CFA_XSP16, literal(-3)))
          CFI (cfiCond234) DPL0 load(1, XDATA, add(CFA_XSP16, literal(-2)))
          CFI (cfiCond234) DPH0 load(1, XDATA, add(CFA_XSP16, literal(-1)))
          CFI (cfiCond234) CFA_SP SP+-2
          CFI (cfiCond234) CFA_XSP16 add(XSP16, 12)
          CFI Block cfiPicker235 Using cfiCommon1
          CFI (cfiPicker235) NoFunction
          CFI (cfiPicker235) Picker
        MOV       A,R2
        MOV       R6,A
        MOV       A,R3
        MOV       R7,A
        MOV       ?V0,R1
          CFI EndBlock cfiCond233
          CFI EndBlock cfiCond234
          CFI EndBlock cfiPicker235
        ; Setup parameters for call to function sAddrExtCpy
        ; Setup parameters for call to function sAddrExtCpy
        REQUIRE ??Subroutine107_0
        ; // Fall through to label ??Subroutine107_0

        RSEG BANKED_CODE:HUGECODE:NOROOT(0)
??Subroutine107_0:
          CFI Block cfiCond236 Using cfiCommon0
          CFI Function ZDP_ParentAnnce
          CFI Conditional ??CrossCallReturnLabel_188
          CFI R6 load(1, XDATA, add(CFA_XSP16, literal(-20)))
          CFI VB load(1, XDATA, add(CFA_XSP16, literal(-19)))
          CFI V0 load(1, XDATA, add(CFA_XSP16, literal(-18)))
          CFI V1 load(1, XDATA, add(CFA_XSP16, literal(-17)))
          CFI V2 load(1, XDATA, add(CFA_XSP16, literal(-16)))
          CFI V3 load(1, XDATA, add(CFA_XSP16, literal(-15)))
          CFI V4 load(1, XDATA, add(CFA_XSP16, literal(-14)))
          CFI V5 load(1, XDATA, add(CFA_XSP16, literal(-13)))
          CFI V6 load(1, XDATA, add(CFA_XSP16, literal(-12)))
          CFI V7 load(1, XDATA, add(CFA_XSP16, literal(-11)))
          CFI V8 load(1, XDATA, add(CFA_XSP16, literal(-10)))
          CFI V9 load(1, XDATA, add(CFA_XSP16, literal(-9)))
          CFI V10 load(1, XDATA, add(CFA_XSP16, literal(-8)))
          CFI V11 load(1, XDATA, add(CFA_XSP16, literal(-7)))
          CFI R7 load(1, XDATA, add(CFA_XSP16, literal(-6)))
          CFI ?RET_LOW load(1, XDATA, add(CFA_XSP16, literal(-5)))
          CFI ?RET_HIGH load(1, XDATA, add(CFA_XSP16, literal(-4)))
          CFI ?BRET_EXT load(1, XDATA, add(CFA_XSP16, literal(-3)))
          CFI DPL0 load(1, XDATA, add(CFA_XSP16, literal(-2)))
          CFI DPH0 load(1, XDATA, add(CFA_XSP16, literal(-1)))
          CFI CFA_SP SP+-2
          CFI CFA_XSP16 add(XSP16, 20)
          CFI Block cfiCond237 Using cfiCommon0
          CFI (cfiCond237) Function zdpProcessAddrReq
          CFI (cfiCond237) Conditional ??CrossCallReturnLabel_189
          CFI (cfiCond237) R6 load(1, XDATA, add(CFA_XSP16, literal(-15)))
          CFI (cfiCond237) VB load(1, XDATA, add(CFA_XSP16, literal(-14)))
          CFI (cfiCond237) V0 load(1, XDATA, add(CFA_XSP16, literal(-13)))
          CFI (cfiCond237) V1 load(1, XDATA, add(CFA_XSP16, literal(-12)))
          CFI (cfiCond237) V2 load(1, XDATA, add(CFA_XSP16, literal(-11)))
          CFI (cfiCond237) V3 load(1, XDATA, add(CFA_XSP16, literal(-10)))
          CFI (cfiCond237) V4 load(1, XDATA, add(CFA_XSP16, literal(-9)))
          CFI (cfiCond237) V5 load(1, XDATA, add(CFA_XSP16, literal(-8)))
          CFI (cfiCond237) V6 load(1, XDATA, add(CFA_XSP16, literal(-7)))
          CFI (cfiCond237) R7 load(1, XDATA, add(CFA_XSP16, literal(-6)))
          CFI (cfiCond237) ?RET_LOW load(1, XDATA, add(CFA_XSP16, literal(-5)))
          CFI (cfiCond237) ?RET_HIGH load(1, XDATA, add(CFA_XSP16, literal(-4)))
          CFI (cfiCond237) ?BRET_EXT load(1, XDATA, add(CFA_XSP16, literal(-3)))
          CFI (cfiCond237) DPL0 load(1, XDATA, add(CFA_XSP16, literal(-2)))
          CFI (cfiCond237) DPH0 load(1, XDATA, add(CFA_XSP16, literal(-1)))
          CFI (cfiCond237) CFA_SP SP+-2
          CFI (cfiCond237) CFA_XSP16 add(XSP16, 15)
          CFI Block cfiCond238 Using cfiCommon0
          CFI (cfiCond238) Function ZDP_BindUnbindReq
          CFI (cfiCond238) Conditional ??CrossCallReturnLabel_190
          CFI (cfiCond238) R6 load(1, XDATA, add(CFA_XSP16, literal(-18)))
          CFI (cfiCond238) VB load(1, XDATA, add(CFA_XSP16, literal(-17)))
          CFI (cfiCond238) V0 load(1, XDATA, add(CFA_XSP16, literal(-16)))
          CFI (cfiCond238) V1 load(1, XDATA, add(CFA_XSP16, literal(-15)))
          CFI (cfiCond238) V2 load(1, XDATA, add(CFA_XSP16, literal(-14)))
          CFI (cfiCond238) V3 load(1, XDATA, add(CFA_XSP16, literal(-13)))
          CFI (cfiCond238) V4 load(1, XDATA, add(CFA_XSP16, literal(-12)))
          CFI (cfiCond238) V5 load(1, XDATA, add(CFA_XSP16, literal(-11)))
          CFI (cfiCond238) V6 load(1, XDATA, add(CFA_XSP16, literal(-10)))
          CFI (cfiCond238) V7 load(1, XDATA, add(CFA_XSP16, literal(-9)))
          CFI (cfiCond238) V8 load(1, XDATA, add(CFA_XSP16, literal(-8)))
          CFI (cfiCond238) V9 load(1, XDATA, add(CFA_XSP16, literal(-7)))
          CFI (cfiCond238) R7 load(1, XDATA, add(CFA_XSP16, literal(-6)))
          CFI (cfiCond238) ?RET_LOW load(1, XDATA, add(CFA_XSP16, literal(-5)))
          CFI (cfiCond238) ?RET_HIGH load(1, XDATA, add(CFA_XSP16, literal(-4)))
          CFI (cfiCond238) ?BRET_EXT load(1, XDATA, add(CFA_XSP16, literal(-3)))
          CFI (cfiCond238) DPL0 load(1, XDATA, add(CFA_XSP16, literal(-2)))
          CFI (cfiCond238) DPH0 load(1, XDATA, add(CFA_XSP16, literal(-1)))
          CFI (cfiCond238) CFA_SP SP+-2
          CFI (cfiCond238) CFA_XSP16 add(XSP16, 18)
          CFI Block cfiCond239 Using cfiCommon0
          CFI (cfiCond239) Function ZDP_MgmtNwkDiscReq
          CFI (cfiCond239) Conditional ??CrossCallReturnLabel_191
          CFI (cfiCond239) R6 load(1, XDATA, add(CFA_XSP16, literal(-12)))
          CFI (cfiCond239) VB load(1, XDATA, add(CFA_XSP16, literal(-11)))
          CFI (cfiCond239) V0 load(1, XDATA, add(CFA_XSP16, literal(-10)))
          CFI (cfiCond239) V1 load(1, XDATA, add(CFA_XSP16, literal(-9)))
          CFI (cfiCond239) V2 load(1, XDATA, add(CFA_XSP16, literal(-8)))
          CFI (cfiCond239) V3 load(1, XDATA, add(CFA_XSP16, literal(-7)))
          CFI (cfiCond239) R7 load(1, XDATA, add(CFA_XSP16, literal(-6)))
          CFI (cfiCond239) ?RET_LOW load(1, XDATA, add(CFA_XSP16, literal(-5)))
          CFI (cfiCond239) ?RET_HIGH load(1, XDATA, add(CFA_XSP16, literal(-4)))
          CFI (cfiCond239) ?BRET_EXT load(1, XDATA, add(CFA_XSP16, literal(-3)))
          CFI (cfiCond239) DPL0 load(1, XDATA, add(CFA_XSP16, literal(-2)))
          CFI (cfiCond239) DPH0 load(1, XDATA, add(CFA_XSP16, literal(-1)))
          CFI (cfiCond239) CFA_SP SP+-2
          CFI (cfiCond239) CFA_XSP16 add(XSP16, 16)
          CFI Block cfiCond240 Using cfiCommon0
          CFI (cfiCond240) Function ZDP_MgmtNwkUpdateReq
          CFI (cfiCond240) Conditional ??CrossCallReturnLabel_192
          CFI (cfiCond240) R6 load(1, XDATA, add(CFA_XSP16, literal(-14)))
          CFI (cfiCond240) VB load(1, XDATA, add(CFA_XSP16, literal(-13)))
          CFI (cfiCond240) V0 load(1, XDATA, add(CFA_XSP16, literal(-12)))
          CFI (cfiCond240) V1 load(1, XDATA, add(CFA_XSP16, literal(-11)))
          CFI (cfiCond240) V2 load(1, XDATA, add(CFA_XSP16, literal(-10)))
          CFI (cfiCond240) V3 load(1, XDATA, add(CFA_XSP16, literal(-9)))
          CFI (cfiCond240) V4 load(1, XDATA, add(CFA_XSP16, literal(-8)))
          CFI (cfiCond240) V5 load(1, XDATA, add(CFA_XSP16, literal(-7)))
          CFI (cfiCond240) R7 load(1, XDATA, add(CFA_XSP16, literal(-6)))
          CFI (cfiCond240) ?RET_LOW load(1, XDATA, add(CFA_XSP16, literal(-5)))
          CFI (cfiCond240) ?RET_HIGH load(1, XDATA, add(CFA_XSP16, literal(-4)))
          CFI (cfiCond240) ?BRET_EXT load(1, XDATA, add(CFA_XSP16, literal(-3)))
          CFI (cfiCond240) DPL0 load(1, XDATA, add(CFA_XSP16, literal(-2)))
          CFI (cfiCond240) DPH0 load(1, XDATA, add(CFA_XSP16, literal(-1)))
          CFI (cfiCond240) CFA_SP SP+-2
          CFI (cfiCond240) CFA_XSP16 add(XSP16, 18)
          CFI Block cfiCond241 Using cfiCommon0
          CFI (cfiCond241) Function ZDP_MgmtDirectJoinReq
          CFI (cfiCond241) Conditional ??CrossCallReturnLabel_182
          CFI (cfiCond241) R6 load(1, XDATA, add(CFA_XSP16, literal(-12)))
          CFI (cfiCond241) VB load(1, XDATA, add(CFA_XSP16, literal(-11)))
          CFI (cfiCond241) V0 load(1, XDATA, add(CFA_XSP16, literal(-10)))
          CFI (cfiCond241) V1 load(1, XDATA, add(CFA_XSP16, literal(-9)))
          CFI (cfiCond241) V2 load(1, XDATA, add(CFA_XSP16, literal(-8)))
          CFI (cfiCond241) V3 load(1, XDATA, add(CFA_XSP16, literal(-7)))
          CFI (cfiCond241) R7 load(1, XDATA, add(CFA_XSP16, literal(-6)))
          CFI (cfiCond241) ?RET_LOW load(1, XDATA, add(CFA_XSP16, literal(-5)))
          CFI (cfiCond241) ?RET_HIGH load(1, XDATA, add(CFA_XSP16, literal(-4)))
          CFI (cfiCond241) ?BRET_EXT load(1, XDATA, add(CFA_XSP16, literal(-3)))
          CFI (cfiCond241) DPL0 load(1, XDATA, add(CFA_XSP16, literal(-2)))
          CFI (cfiCond241) DPH0 load(1, XDATA, add(CFA_XSP16, literal(-1)))
          CFI (cfiCond241) CFA_SP SP+-2
          CFI (cfiCond241) CFA_XSP16 add(XSP16, 12)
          CFI Block cfiCond242 Using cfiCommon0
          CFI (cfiCond242) Function ZDP_MgmtLeaveReq
          CFI (cfiCond242) Conditional ??CrossCallReturnLabel_183
          CFI (cfiCond242) R6 load(1, XDATA, add(CFA_XSP16, literal(-12)))
          CFI (cfiCond242) VB load(1, XDATA, add(CFA_XSP16, literal(-11)))
          CFI (cfiCond242) V0 load(1, XDATA, add(CFA_XSP16, literal(-10)))
          CFI (cfiCond242) V1 load(1, XDATA, add(CFA_XSP16, literal(-9)))
          CFI (cfiCond242) V2 load(1, XDATA, add(CFA_XSP16, literal(-8)))
          CFI (cfiCond242) V3 load(1, XDATA, add(CFA_XSP16, literal(-7)))
          CFI (cfiCond242) R7 load(1, XDATA, add(CFA_XSP16, literal(-6)))
          CFI (cfiCond242) ?RET_LOW load(1, XDATA, add(CFA_XSP16, literal(-5)))
          CFI (cfiCond242) ?RET_HIGH load(1, XDATA, add(CFA_XSP16, literal(-4)))
          CFI (cfiCond242) ?BRET_EXT load(1, XDATA, add(CFA_XSP16, literal(-3)))
          CFI (cfiCond242) DPL0 load(1, XDATA, add(CFA_XSP16, literal(-2)))
          CFI (cfiCond242) DPH0 load(1, XDATA, add(CFA_XSP16, literal(-1)))
          CFI (cfiCond242) CFA_SP SP+-2
          CFI (cfiCond242) CFA_XSP16 add(XSP16, 12)
          CFI Block cfiPicker243 Using cfiCommon1
          CFI (cfiPicker243) NoFunction
          CFI (cfiPicker243) Picker
        MOV       DPTR,#ZDP_TmpBuf
          CFI EndBlock cfiCond236
          CFI EndBlock cfiCond237
          CFI EndBlock cfiCond238
          CFI EndBlock cfiCond239
          CFI EndBlock cfiCond240
          CFI EndBlock cfiCond241
          CFI EndBlock cfiCond242
          CFI EndBlock cfiPicker243
        REQUIRE ??Subroutine108_0
        ; // Fall through to label ??Subroutine108_0

        RSEG BANKED_CODE:HUGECODE:NOROOT(0)
??Subroutine108_0:
          CFI Block cfiCond244 Using cfiCommon0
          CFI Function zdpProcessAddrReq
          CFI Conditional ??CrossCallReturnLabel_184
          CFI R6 load(1, XDATA, add(CFA_XSP16, literal(-15)))
          CFI VB load(1, XDATA, add(CFA_XSP16, literal(-14)))
          CFI V0 load(1, XDATA, add(CFA_XSP16, literal(-13)))
          CFI V1 load(1, XDATA, add(CFA_XSP16, literal(-12)))
          CFI V2 load(1, XDATA, add(CFA_XSP16, literal(-11)))
          CFI V3 load(1, XDATA, add(CFA_XSP16, literal(-10)))
          CFI V4 load(1, XDATA, add(CFA_XSP16, literal(-9)))
          CFI V5 load(1, XDATA, add(CFA_XSP16, literal(-8)))
          CFI V6 load(1, XDATA, add(CFA_XSP16, literal(-7)))
          CFI R7 load(1, XDATA, add(CFA_XSP16, literal(-6)))
          CFI ?RET_LOW load(1, XDATA, add(CFA_XSP16, literal(-5)))
          CFI ?RET_HIGH load(1, XDATA, add(CFA_XSP16, literal(-4)))
          CFI ?BRET_EXT load(1, XDATA, add(CFA_XSP16, literal(-3)))
          CFI DPL0 load(1, XDATA, add(CFA_XSP16, literal(-2)))
          CFI DPH0 load(1, XDATA, add(CFA_XSP16, literal(-1)))
          CFI CFA_SP SP+-2
          CFI CFA_XSP16 add(XSP16, 15)
          CFI Block cfiCond245 Using cfiCommon0
          CFI (cfiCond245) Function ZDO_RegisterForZDOMsg
          CFI (cfiCond245) Conditional ??CrossCallReturnLabel_185
          CFI (cfiCond245) R6 load(1, XDATA, add(CFA_XSP16, literal(-14)))
          CFI (cfiCond245) VB load(1, XDATA, add(CFA_XSP16, literal(-13)))
          CFI (cfiCond245) V0 load(1, XDATA, add(CFA_XSP16, literal(-12)))
          CFI (cfiCond245) V1 load(1, XDATA, add(CFA_XSP16, literal(-11)))
          CFI (cfiCond245) V2 load(1, XDATA, add(CFA_XSP16, literal(-10)))
          CFI (cfiCond245) V3 load(1, XDATA, add(CFA_XSP16, literal(-9)))
          CFI (cfiCond245) V4 load(1, XDATA, add(CFA_XSP16, literal(-8)))
          CFI (cfiCond245) V5 load(1, XDATA, add(CFA_XSP16, literal(-7)))
          CFI (cfiCond245) R7 load(1, XDATA, add(CFA_XSP16, literal(-6)))
          CFI (cfiCond245) ?RET_LOW load(1, XDATA, add(CFA_XSP16, literal(-5)))
          CFI (cfiCond245) ?RET_HIGH load(1, XDATA, add(CFA_XSP16, literal(-4)))
          CFI (cfiCond245) ?BRET_EXT load(1, XDATA, add(CFA_XSP16, literal(-3)))
          CFI (cfiCond245) DPL0 load(1, XDATA, add(CFA_XSP16, literal(-2)))
          CFI (cfiCond245) DPH0 load(1, XDATA, add(CFA_XSP16, literal(-1)))
          CFI (cfiCond245) CFA_SP SP+-2
          CFI (cfiCond245) CFA_XSP16 add(XSP16, 14)
          CFI Block cfiCond246 Using cfiCommon0
          CFI (cfiCond246) Function ZDO_RemoveRegisteredCB
          CFI (cfiCond246) Conditional ??CrossCallReturnLabel_186
          CFI (cfiCond246) R6 load(1, XDATA, add(CFA_XSP16, literal(-9)))
          CFI (cfiCond246) VB load(1, XDATA, add(CFA_XSP16, literal(-8)))
          CFI (cfiCond246) V0 load(1, XDATA, add(CFA_XSP16, literal(-7)))
          CFI (cfiCond246) R7 load(1, XDATA, add(CFA_XSP16, literal(-6)))
          CFI (cfiCond246) ?RET_LOW load(1, XDATA, add(CFA_XSP16, literal(-5)))
          CFI (cfiCond246) ?RET_HIGH load(1, XDATA, add(CFA_XSP16, literal(-4)))
          CFI (cfiCond246) ?BRET_EXT load(1, XDATA, add(CFA_XSP16, literal(-3)))
          CFI (cfiCond246) DPL0 load(1, XDATA, add(CFA_XSP16, literal(-2)))
          CFI (cfiCond246) DPH0 load(1, XDATA, add(CFA_XSP16, literal(-1)))
          CFI (cfiCond246) CFA_SP SP+-2
          CFI (cfiCond246) CFA_XSP16 add(XSP16, 9)
          CFI Block cfiCond247 Using cfiCommon0
          CFI (cfiCond247) Function ZDO_SendMsgCBs
          CFI (cfiCond247) Conditional ??CrossCallReturnLabel_187
          CFI (cfiCond247) R6 load(1, XDATA, add(CFA_XSP16, literal(-18)))
          CFI (cfiCond247) VB load(1, XDATA, add(CFA_XSP16, literal(-17)))
          CFI (cfiCond247) V0 load(1, XDATA, add(CFA_XSP16, literal(-16)))
          CFI (cfiCond247) V1 load(1, XDATA, add(CFA_XSP16, literal(-15)))
          CFI (cfiCond247) V2 load(1, XDATA, add(CFA_XSP16, literal(-14)))
          CFI (cfiCond247) V3 load(1, XDATA, add(CFA_XSP16, literal(-13)))
          CFI (cfiCond247) V4 load(1, XDATA, add(CFA_XSP16, literal(-12)))
          CFI (cfiCond247) V5 load(1, XDATA, add(CFA_XSP16, literal(-11)))
          CFI (cfiCond247) V6 load(1, XDATA, add(CFA_XSP16, literal(-10)))
          CFI (cfiCond247) V7 load(1, XDATA, add(CFA_XSP16, literal(-9)))
          CFI (cfiCond247) V8 load(1, XDATA, add(CFA_XSP16, literal(-8)))
          CFI (cfiCond247) V9 load(1, XDATA, add(CFA_XSP16, literal(-7)))
          CFI (cfiCond247) R7 load(1, XDATA, add(CFA_XSP16, literal(-6)))
          CFI (cfiCond247) ?RET_LOW load(1, XDATA, add(CFA_XSP16, literal(-5)))
          CFI (cfiCond247) ?RET_HIGH load(1, XDATA, add(CFA_XSP16, literal(-4)))
          CFI (cfiCond247) ?BRET_EXT load(1, XDATA, add(CFA_XSP16, literal(-3)))
          CFI (cfiCond247) DPL0 load(1, XDATA, add(CFA_XSP16, literal(-2)))
          CFI (cfiCond247) DPH0 load(1, XDATA, add(CFA_XSP16, literal(-1)))
          CFI (cfiCond247) CFA_SP SP+-2
          CFI (cfiCond247) CFA_XSP16 add(XSP16, 18)
          CFI Block cfiCond248 Using cfiCommon0
          CFI (cfiCond248) Function ZDP_ParentAnnce
          CFI (cfiCond248) Conditional ??CrossCallReturnLabel_188
          CFI (cfiCond248) R6 load(1, XDATA, add(CFA_XSP16, literal(-20)))
          CFI (cfiCond248) VB load(1, XDATA, add(CFA_XSP16, literal(-19)))
          CFI (cfiCond248) V0 load(1, XDATA, add(CFA_XSP16, literal(-18)))
          CFI (cfiCond248) V1 load(1, XDATA, add(CFA_XSP16, literal(-17)))
          CFI (cfiCond248) V2 load(1, XDATA, add(CFA_XSP16, literal(-16)))
          CFI (cfiCond248) V3 load(1, XDATA, add(CFA_XSP16, literal(-15)))
          CFI (cfiCond248) V4 load(1, XDATA, add(CFA_XSP16, literal(-14)))
          CFI (cfiCond248) V5 load(1, XDATA, add(CFA_XSP16, literal(-13)))
          CFI (cfiCond248) V6 load(1, XDATA, add(CFA_XSP16, literal(-12)))
          CFI (cfiCond248) V7 load(1, XDATA, add(CFA_XSP16, literal(-11)))
          CFI (cfiCond248) V8 load(1, XDATA, add(CFA_XSP16, literal(-10)))
          CFI (cfiCond248) V9 load(1, XDATA, add(CFA_XSP16, literal(-9)))
          CFI (cfiCond248) V10 load(1, XDATA, add(CFA_XSP16, literal(-8)))
          CFI (cfiCond248) V11 load(1, XDATA, add(CFA_XSP16, literal(-7)))
          CFI (cfiCond248) R7 load(1, XDATA, add(CFA_XSP16, literal(-6)))
          CFI (cfiCond248) ?RET_LOW load(1, XDATA, add(CFA_XSP16, literal(-5)))
          CFI (cfiCond248) ?RET_HIGH load(1, XDATA, add(CFA_XSP16, literal(-4)))
          CFI (cfiCond248) ?BRET_EXT load(1, XDATA, add(CFA_XSP16, literal(-3)))
          CFI (cfiCond248) DPL0 load(1, XDATA, add(CFA_XSP16, literal(-2)))
          CFI (cfiCond248) DPH0 load(1, XDATA, add(CFA_XSP16, literal(-1)))
          CFI (cfiCond248) CFA_SP SP+-2
          CFI (cfiCond248) CFA_XSP16 add(XSP16, 20)
          CFI Block cfiCond249 Using cfiCommon0
          CFI (cfiCond249) Function zdpProcessAddrReq
          CFI (cfiCond249) Conditional ??CrossCallReturnLabel_189
          CFI (cfiCond249) R6 load(1, XDATA, add(CFA_XSP16, literal(-15)))
          CFI (cfiCond249) VB load(1, XDATA, add(CFA_XSP16, literal(-14)))
          CFI (cfiCond249) V0 load(1, XDATA, add(CFA_XSP16, literal(-13)))
          CFI (cfiCond249) V1 load(1, XDATA, add(CFA_XSP16, literal(-12)))
          CFI (cfiCond249) V2 load(1, XDATA, add(CFA_XSP16, literal(-11)))
          CFI (cfiCond249) V3 load(1, XDATA, add(CFA_XSP16, literal(-10)))
          CFI (cfiCond249) V4 load(1, XDATA, add(CFA_XSP16, literal(-9)))
          CFI (cfiCond249) V5 load(1, XDATA, add(CFA_XSP16, literal(-8)))
          CFI (cfiCond249) V6 load(1, XDATA, add(CFA_XSP16, literal(-7)))
          CFI (cfiCond249) R7 load(1, XDATA, add(CFA_XSP16, literal(-6)))
          CFI (cfiCond249) ?RET_LOW load(1, XDATA, add(CFA_XSP16, literal(-5)))
          CFI (cfiCond249) ?RET_HIGH load(1, XDATA, add(CFA_XSP16, literal(-4)))
          CFI (cfiCond249) ?BRET_EXT load(1, XDATA, add(CFA_XSP16, literal(-3)))
          CFI (cfiCond249) DPL0 load(1, XDATA, add(CFA_XSP16, literal(-2)))
          CFI (cfiCond249) DPH0 load(1, XDATA, add(CFA_XSP16, literal(-1)))
          CFI (cfiCond249) CFA_SP SP+-2
          CFI (cfiCond249) CFA_XSP16 add(XSP16, 15)
          CFI Block cfiCond250 Using cfiCommon0
          CFI (cfiCond250) Function ZDP_BindUnbindReq
          CFI (cfiCond250) Conditional ??CrossCallReturnLabel_190
          CFI (cfiCond250) R6 load(1, XDATA, add(CFA_XSP16, literal(-18)))
          CFI (cfiCond250) VB load(1, XDATA, add(CFA_XSP16, literal(-17)))
          CFI (cfiCond250) V0 load(1, XDATA, add(CFA_XSP16, literal(-16)))
          CFI (cfiCond250) V1 load(1, XDATA, add(CFA_XSP16, literal(-15)))
          CFI (cfiCond250) V2 load(1, XDATA, add(CFA_XSP16, literal(-14)))
          CFI (cfiCond250) V3 load(1, XDATA, add(CFA_XSP16, literal(-13)))
          CFI (cfiCond250) V4 load(1, XDATA, add(CFA_XSP16, literal(-12)))
          CFI (cfiCond250) V5 load(1, XDATA, add(CFA_XSP16, literal(-11)))
          CFI (cfiCond250) V6 load(1, XDATA, add(CFA_XSP16, literal(-10)))
          CFI (cfiCond250) V7 load(1, XDATA, add(CFA_XSP16, literal(-9)))
          CFI (cfiCond250) V8 load(1, XDATA, add(CFA_XSP16, literal(-8)))
          CFI (cfiCond250) V9 load(1, XDATA, add(CFA_XSP16, literal(-7)))
          CFI (cfiCond250) R7 load(1, XDATA, add(CFA_XSP16, literal(-6)))
          CFI (cfiCond250) ?RET_LOW load(1, XDATA, add(CFA_XSP16, literal(-5)))
          CFI (cfiCond250) ?RET_HIGH load(1, XDATA, add(CFA_XSP16, literal(-4)))
          CFI (cfiCond250) ?BRET_EXT load(1, XDATA, add(CFA_XSP16, literal(-3)))
          CFI (cfiCond250) DPL0 load(1, XDATA, add(CFA_XSP16, literal(-2)))
          CFI (cfiCond250) DPH0 load(1, XDATA, add(CFA_XSP16, literal(-1)))
          CFI (cfiCond250) CFA_SP SP+-2
          CFI (cfiCond250) CFA_XSP16 add(XSP16, 18)
          CFI Block cfiCond251 Using cfiCommon0
          CFI (cfiCond251) Function ZDP_MgmtNwkDiscReq
          CFI (cfiCond251) Conditional ??CrossCallReturnLabel_191
          CFI (cfiCond251) R6 load(1, XDATA, add(CFA_XSP16, literal(-12)))
          CFI (cfiCond251) VB load(1, XDATA, add(CFA_XSP16, literal(-11)))
          CFI (cfiCond251) V0 load(1, XDATA, add(CFA_XSP16, literal(-10)))
          CFI (cfiCond251) V1 load(1, XDATA, add(CFA_XSP16, literal(-9)))
          CFI (cfiCond251) V2 load(1, XDATA, add(CFA_XSP16, literal(-8)))
          CFI (cfiCond251) V3 load(1, XDATA, add(CFA_XSP16, literal(-7)))
          CFI (cfiCond251) R7 load(1, XDATA, add(CFA_XSP16, literal(-6)))
          CFI (cfiCond251) ?RET_LOW load(1, XDATA, add(CFA_XSP16, literal(-5)))
          CFI (cfiCond251) ?RET_HIGH load(1, XDATA, add(CFA_XSP16, literal(-4)))
          CFI (cfiCond251) ?BRET_EXT load(1, XDATA, add(CFA_XSP16, literal(-3)))
          CFI (cfiCond251) DPL0 load(1, XDATA, add(CFA_XSP16, literal(-2)))
          CFI (cfiCond251) DPH0 load(1, XDATA, add(CFA_XSP16, literal(-1)))
          CFI (cfiCond251) CFA_SP SP+-2
          CFI (cfiCond251) CFA_XSP16 add(XSP16, 16)
          CFI Block cfiCond252 Using cfiCommon0
          CFI (cfiCond252) Function ZDP_MgmtNwkUpdateReq
          CFI (cfiCond252) Conditional ??CrossCallReturnLabel_192
          CFI (cfiCond252) R6 load(1, XDATA, add(CFA_XSP16, literal(-14)))
          CFI (cfiCond252) VB load(1, XDATA, add(CFA_XSP16, literal(-13)))
          CFI (cfiCond252) V0 load(1, XDATA, add(CFA_XSP16, literal(-12)))
          CFI (cfiCond252) V1 load(1, XDATA, add(CFA_XSP16, literal(-11)))
          CFI (cfiCond252) V2 load(1, XDATA, add(CFA_XSP16, literal(-10)))
          CFI (cfiCond252) V3 load(1, XDATA, add(CFA_XSP16, literal(-9)))
          CFI (cfiCond252) V4 load(1, XDATA, add(CFA_XSP16, literal(-8)))
          CFI (cfiCond252) V5 load(1, XDATA, add(CFA_XSP16, literal(-7)))
          CFI (cfiCond252) R7 load(1, XDATA, add(CFA_XSP16, literal(-6)))
          CFI (cfiCond252) ?RET_LOW load(1, XDATA, add(CFA_XSP16, literal(-5)))
          CFI (cfiCond252) ?RET_HIGH load(1, XDATA, add(CFA_XSP16, literal(-4)))
          CFI (cfiCond252) ?BRET_EXT load(1, XDATA, add(CFA_XSP16, literal(-3)))
          CFI (cfiCond252) DPL0 load(1, XDATA, add(CFA_XSP16, literal(-2)))
          CFI (cfiCond252) DPH0 load(1, XDATA, add(CFA_XSP16, literal(-1)))
          CFI (cfiCond252) CFA_SP SP+-2
          CFI (cfiCond252) CFA_XSP16 add(XSP16, 18)
          CFI Block cfiCond253 Using cfiCommon0
          CFI (cfiCond253) Function ZDP_MgmtDirectJoinReq
          CFI (cfiCond253) Conditional ??CrossCallReturnLabel_182
          CFI (cfiCond253) R6 load(1, XDATA, add(CFA_XSP16, literal(-12)))
          CFI (cfiCond253) VB load(1, XDATA, add(CFA_XSP16, literal(-11)))
          CFI (cfiCond253) V0 load(1, XDATA, add(CFA_XSP16, literal(-10)))
          CFI (cfiCond253) V1 load(1, XDATA, add(CFA_XSP16, literal(-9)))
          CFI (cfiCond253) V2 load(1, XDATA, add(CFA_XSP16, literal(-8)))
          CFI (cfiCond253) V3 load(1, XDATA, add(CFA_XSP16, literal(-7)))
          CFI (cfiCond253) R7 load(1, XDATA, add(CFA_XSP16, literal(-6)))
          CFI (cfiCond253) ?RET_LOW load(1, XDATA, add(CFA_XSP16, literal(-5)))
          CFI (cfiCond253) ?RET_HIGH load(1, XDATA, add(CFA_XSP16, literal(-4)))
          CFI (cfiCond253) ?BRET_EXT load(1, XDATA, add(CFA_XSP16, literal(-3)))
          CFI (cfiCond253) DPL0 load(1, XDATA, add(CFA_XSP16, literal(-2)))
          CFI (cfiCond253) DPH0 load(1, XDATA, add(CFA_XSP16, literal(-1)))
          CFI (cfiCond253) CFA_SP SP+-2
          CFI (cfiCond253) CFA_XSP16 add(XSP16, 12)
          CFI Block cfiCond254 Using cfiCommon0
          CFI (cfiCond254) Function ZDP_MgmtLeaveReq
          CFI (cfiCond254) Conditional ??CrossCallReturnLabel_183
          CFI (cfiCond254) R6 load(1, XDATA, add(CFA_XSP16, literal(-12)))
          CFI (cfiCond254) VB load(1, XDATA, add(CFA_XSP16, literal(-11)))
          CFI (cfiCond254) V0 load(1, XDATA, add(CFA_XSP16, literal(-10)))
          CFI (cfiCond254) V1 load(1, XDATA, add(CFA_XSP16, literal(-9)))
          CFI (cfiCond254) V2 load(1, XDATA, add(CFA_XSP16, literal(-8)))
          CFI (cfiCond254) V3 load(1, XDATA, add(CFA_XSP16, literal(-7)))
          CFI (cfiCond254) R7 load(1, XDATA, add(CFA_XSP16, literal(-6)))
          CFI (cfiCond254) ?RET_LOW load(1, XDATA, add(CFA_XSP16, literal(-5)))
          CFI (cfiCond254) ?RET_HIGH load(1, XDATA, add(CFA_XSP16, literal(-4)))
          CFI (cfiCond254) ?BRET_EXT load(1, XDATA, add(CFA_XSP16, literal(-3)))
          CFI (cfiCond254) DPL0 load(1, XDATA, add(CFA_XSP16, literal(-2)))
          CFI (cfiCond254) DPH0 load(1, XDATA, add(CFA_XSP16, literal(-1)))
          CFI (cfiCond254) CFA_SP SP+-2
          CFI (cfiCond254) CFA_XSP16 add(XSP16, 12)
          CFI Block cfiPicker255 Using cfiCommon1
          CFI (cfiPicker255) NoFunction
          CFI (cfiPicker255) Picker
        MOVX      A,@DPTR
        MOV       R2,A
        INC       DPTR
        MOVX      A,@DPTR
        MOV       R3,A
        RET
          CFI EndBlock cfiCond244
          CFI EndBlock cfiCond245
          CFI EndBlock cfiCond246
          CFI EndBlock cfiCond247
          CFI EndBlock cfiCond248
          CFI EndBlock cfiCond249
          CFI EndBlock cfiCond250
          CFI EndBlock cfiCond251
          CFI EndBlock cfiCond252
          CFI EndBlock cfiCond253
          CFI EndBlock cfiCond254
          CFI EndBlock cfiPicker255
// 1250 
// 1251 /*********************************************************************
// 1252  * Network Management
// 1253  */
// 1254 
// 1255 /*********************************************************************
// 1256  * @fn          ZDP_MgmtNwkDiscReq
// 1257  *
// 1258  * @brief       This builds and send a Mgmt_NWK_Disc_req message. This
// 1259  *              function sends a unicast message.
// 1260  *
// 1261  * @param       dstAddr - destination address of the message
// 1262  * @param       ScanChannels - 32 bit address bit map
// 1263  * @param       StartIndex - Starting index within the reporting network
// 1264  *                           list
// 1265  * @param       SecurityEnable - Security Options
// 1266  *
// 1267  * @return      afStatus_t
// 1268  */

        RSEG BANKED_CODE:HUGECODE:NOROOT(0)
// 1269 afStatus_t ZDP_MgmtNwkDiscReq( zAddrType_t *dstAddr,
ZDP_MgmtNwkDiscReq:
          CFI Block cfiBlock256 Using cfiCommon0
          CFI Function ZDP_MgmtNwkDiscReq
        CODE
// 1270                                uint32 ScanChannels,
// 1271                                byte ScanDuration,
// 1272                                byte StartIndex,
// 1273                                byte SecurityEnable )
// 1274 {
        FUNCALL ZDP_MgmtNwkDiscReq, osal_buffer_uint32
        LOCFRAME ISTACK, 0, STACK
        LOCFRAME PSTACK, 0, STACK
        LOCFRAME XSTACK, 16, STACK
        LOCFRAME IOVERLAY, 0, STATIC
        LOCFRAME DOVERLAY, 0, STATIC
        ARGFRAME ISTACK, 0, STACK
        ARGFRAME PSTACK, 0, STACK
        ARGFRAME XSTACK, 16, STACK
        ARGFRAME IOVERLAY, 0, STATIC
        ARGFRAME DOVERLAY, 0, STATIC
        FUNCALL ZDP_MgmtNwkDiscReq, fillAndSend
        LOCFRAME ISTACK, 0, STACK
        LOCFRAME PSTACK, 0, STACK
        LOCFRAME XSTACK, 14, STACK
        LOCFRAME IOVERLAY, 0, STATIC
        LOCFRAME DOVERLAY, 0, STATIC
        ARGFRAME ISTACK, 0, STACK
        ARGFRAME PSTACK, 0, STACK
        ARGFRAME XSTACK, 14, STACK
        ARGFRAME IOVERLAY, 0, STATIC
        ARGFRAME DOVERLAY, 0, STATIC
        REQUIRE ?V0
        REQUIRE ?V1
        REQUIRE ?V2
        REQUIRE ?V3
        MOV       A,#-0xc
        LCALL     ?BANKED_ENTER_XDATA
          CFI DPH0 load(1, XDATA, add(CFA_XSP16, literal(-1)))
          CFI DPL0 load(1, XDATA, add(CFA_XSP16, literal(-2)))
          CFI ?BRET_EXT load(1, XDATA, add(CFA_XSP16, literal(-3)))
          CFI ?RET_HIGH load(1, XDATA, add(CFA_XSP16, literal(-4)))
          CFI ?RET_LOW load(1, XDATA, add(CFA_XSP16, literal(-5)))
          CFI R7 load(1, XDATA, add(CFA_XSP16, literal(-6)))
          CFI V3 load(1, XDATA, add(CFA_XSP16, literal(-7)))
          CFI V2 load(1, XDATA, add(CFA_XSP16, literal(-8)))
          CFI V1 load(1, XDATA, add(CFA_XSP16, literal(-9)))
          CFI V0 load(1, XDATA, add(CFA_XSP16, literal(-10)))
          CFI VB load(1, XDATA, add(CFA_XSP16, literal(-11)))
          CFI R6 load(1, XDATA, add(CFA_XSP16, literal(-12)))
          CFI CFA_SP SP+0
          CFI CFA_XSP16 add(XSP16, 12)
        ; Saved register size: 12
        ; Auto size: 0
        MOV       A,R2
        MOV       R6,A
        MOV       A,R3
        MOV       R7,A
        MOV       ?V0,R1
        MOV       ?V1,R4
// 1275   uint8 *pBuf = ZDP_TmpBuf;
// 1276   byte len = sizeof( uint32 )+1+1;  // ScanChannels + ScanDuration + StartIndex.
// 1277 
// 1278   (void)SecurityEnable;  // Intentionally unreferenced parameter
// 1279 
// 1280   pBuf = osal_buffer_uint32( pBuf, ScanChannels );
        ; Setup parameters for call to function osal_buffer_uint32
        MOV       A,#0xc
        LCALL     ?XSTACK_DISP0_8
        LCALL     ?PUSH_XSTACK8_X_FOUR
          CFI CFA_XSP16 add(XSP16, 16)
        LCALL     ??Subroutine107_0 & 0xFFFF
??CrossCallReturnLabel_191:
        LCALL     `??osal_buffer_uint32::?relay`; Banked call to: osal_buffer_uint32
        MOV       A,#0x4
        LCALL     ?DEALLOC_XSTACK8
          CFI CFA_XSP16 add(XSP16, 12)
        MOV       DPL,R2
        MOV       DPH,R3
// 1281 
// 1282   *pBuf++ = ScanDuration;
        MOV       A,?V0
        MOVX      @DPTR,A
// 1283   *pBuf = StartIndex;
        INC       DPTR
        MOV       A,?V1
        MOVX      @DPTR,A
// 1284 
// 1285   return fillAndSend( &ZDP_TransID, dstAddr, Mgmt_NWK_Disc_req, len );
        ; Setup parameters for call to function fillAndSend
        MOV       ?V2,#0x30
        MOV       ?V3,#0x0
        MOV       R0,#?V2
        LCALL     ?PUSH_XSTACK_I_TWO
          CFI CFA_XSP16 add(XSP16, 14)
        MOV       R1,#0x6
        LJMP      ??Subroutine90_0 & 0xFFFF
// 1286 }
          CFI EndBlock cfiBlock256
// 1287 
// 1288 /*********************************************************************
// 1289  * @fn          ZDP_MgmtDirectJoinReq
// 1290  *
// 1291  * @brief       This builds and send a Mgmt_Direct_Join_req message. This
// 1292  *              function sends a unicast message.
// 1293  *
// 1294  * @param       dstAddr - destination address of the message
// 1295  * @param       deviceAddr - 64 bit IEEE Address
// 1296  * @param       SecurityEnable - Security Options
// 1297  *
// 1298  * @return      afStatus_t
// 1299  */

        RSEG BANKED_CODE:HUGECODE:NOROOT(0)
// 1300 afStatus_t ZDP_MgmtDirectJoinReq( zAddrType_t *dstAddr,
ZDP_MgmtDirectJoinReq:
          CFI Block cfiBlock257 Using cfiCommon0
          CFI Function ZDP_MgmtDirectJoinReq
        CODE
// 1301                                uint8 *deviceAddr,
// 1302                                byte capInfo,
// 1303                                byte SecurityEnable )
// 1304 {
        FUNCALL ZDP_MgmtDirectJoinReq, sAddrExtCpy
        LOCFRAME ISTACK, 0, STACK
        LOCFRAME PSTACK, 0, STACK
        LOCFRAME XSTACK, 12, STACK
        LOCFRAME IOVERLAY, 0, STATIC
        LOCFRAME DOVERLAY, 0, STATIC
        ARGFRAME ISTACK, 0, STACK
        ARGFRAME PSTACK, 0, STACK
        ARGFRAME XSTACK, 12, STACK
        ARGFRAME IOVERLAY, 0, STATIC
        ARGFRAME DOVERLAY, 0, STATIC
        FUNCALL ZDP_MgmtDirectJoinReq, fillAndSend
        LOCFRAME ISTACK, 0, STACK
        LOCFRAME PSTACK, 0, STACK
        LOCFRAME XSTACK, 14, STACK
        LOCFRAME IOVERLAY, 0, STATIC
        LOCFRAME DOVERLAY, 0, STATIC
        ARGFRAME ISTACK, 0, STACK
        ARGFRAME PSTACK, 0, STACK
        ARGFRAME XSTACK, 14, STACK
        ARGFRAME IOVERLAY, 0, STATIC
        ARGFRAME DOVERLAY, 0, STATIC
        REQUIRE ?V0
        REQUIRE ?V2
        REQUIRE ?V3
        MOV       A,#-0xc
        LCALL     ?BANKED_ENTER_XDATA
          CFI DPH0 load(1, XDATA, add(CFA_XSP16, literal(-1)))
          CFI DPL0 load(1, XDATA, add(CFA_XSP16, literal(-2)))
          CFI ?BRET_EXT load(1, XDATA, add(CFA_XSP16, literal(-3)))
          CFI ?RET_HIGH load(1, XDATA, add(CFA_XSP16, literal(-4)))
          CFI ?RET_LOW load(1, XDATA, add(CFA_XSP16, literal(-5)))
          CFI R7 load(1, XDATA, add(CFA_XSP16, literal(-6)))
          CFI V3 load(1, XDATA, add(CFA_XSP16, literal(-7)))
          CFI V2 load(1, XDATA, add(CFA_XSP16, literal(-8)))
          CFI V1 load(1, XDATA, add(CFA_XSP16, literal(-9)))
          CFI V0 load(1, XDATA, add(CFA_XSP16, literal(-10)))
          CFI VB load(1, XDATA, add(CFA_XSP16, literal(-11)))
          CFI R6 load(1, XDATA, add(CFA_XSP16, literal(-12)))
          CFI CFA_SP SP+0
          CFI CFA_XSP16 add(XSP16, 12)
        ; Saved register size: 12
        ; Auto size: 0
        LCALL     ?Subroutine38 & 0xFFFF
// 1305   (void)SecurityEnable;  // Intentionally unreferenced parameter
// 1306 
// 1307   osal_cpyExtAddr( ZDP_TmpBuf, deviceAddr );
??CrossCallReturnLabel_182:
        LCALL     `??sAddrExtCpy::?relay`; Banked call to: sAddrExtCpy
// 1308   ZDP_TmpBuf[Z_EXTADDR_LEN] = capInfo;
        LCALL     ?Subroutine76 & 0xFFFF
??CrossCallReturnLabel_247:
        XCH       A,R0
        ADD       A,#0x8
        MOV       DPL,A
        CLR       A
        ADDC      A,R0
        MOV       DPH,A
        MOV       A,?V0
        MOVX      @DPTR,A
// 1309 
// 1310   return fillAndSend( &ZDP_TransID, dstAddr, Mgmt_Direct_Join_req, (Z_EXTADDR_LEN + 1) );
        ; Setup parameters for call to function fillAndSend
        MOV       ?V2,#0x35
        LJMP      ?Subroutine1 & 0xFFFF
// 1311 }
          CFI EndBlock cfiBlock257
// 1312 
// 1313 /*********************************************************************
// 1314  * @fn          ZDP_MgmtPermitJoinReq
// 1315  *
// 1316  * @brief       This builds and send a Mgmt_Permit_Join_req message.
// 1317  *
// 1318  * @param       dstAddr - destination address of the message
// 1319  * @param       duration - Permit duration
// 1320  * @param       TcSignificance - Trust Center Significance
// 1321  *
// 1322  * @return      afStatus_t
// 1323  */

        RSEG BANKED_CODE:HUGECODE:NOROOT(0)
// 1324 afStatus_t ZDP_MgmtPermitJoinReq( zAddrType_t *dstAddr, byte duration,
ZDP_MgmtPermitJoinReq:
          CFI Block cfiBlock258 Using cfiCommon0
          CFI Function ZDP_MgmtPermitJoinReq
        CODE
// 1325                                   byte TcSignificance, byte SecurityEnable )
// 1326 {
        FUNCALL ZDP_MgmtPermitJoinReq, NLME_GetShortAddr
        LOCFRAME ISTACK, 0, STACK
        LOCFRAME PSTACK, 0, STACK
        LOCFRAME XSTACK, 21, STACK
        LOCFRAME IOVERLAY, 0, STATIC
        LOCFRAME DOVERLAY, 0, STATIC
        ARGFRAME ISTACK, 0, STACK
        ARGFRAME PSTACK, 0, STACK
        ARGFRAME XSTACK, 21, STACK
        ARGFRAME IOVERLAY, 0, STATIC
        ARGFRAME DOVERLAY, 0, STATIC
        FUNCALL ZDP_MgmtPermitJoinReq, fillAndSend
        LOCFRAME ISTACK, 0, STACK
        LOCFRAME PSTACK, 0, STACK
        LOCFRAME XSTACK, 23, STACK
        LOCFRAME IOVERLAY, 0, STATIC
        LOCFRAME DOVERLAY, 0, STATIC
        ARGFRAME ISTACK, 0, STACK
        ARGFRAME PSTACK, 0, STACK
        ARGFRAME XSTACK, 23, STACK
        ARGFRAME IOVERLAY, 0, STATIC
        ARGFRAME DOVERLAY, 0, STATIC
        FUNCALL ZDP_MgmtPermitJoinReq, fillAndSend
        LOCFRAME ISTACK, 0, STACK
        LOCFRAME PSTACK, 0, STACK
        LOCFRAME XSTACK, 23, STACK
        LOCFRAME IOVERLAY, 0, STATIC
        LOCFRAME DOVERLAY, 0, STATIC
        ARGFRAME ISTACK, 0, STACK
        ARGFRAME PSTACK, 0, STACK
        ARGFRAME XSTACK, 23, STACK
        ARGFRAME IOVERLAY, 0, STATIC
        ARGFRAME DOVERLAY, 0, STATIC
        REQUIRE ?V0
        REQUIRE ?V1
        REQUIRE ?V2
        REQUIRE ?V3
        MOV       A,#-0xc
        LCALL     ?BANKED_ENTER_XDATA
          CFI DPH0 load(1, XDATA, add(CFA_XSP16, literal(-1)))
          CFI DPL0 load(1, XDATA, add(CFA_XSP16, literal(-2)))
          CFI ?BRET_EXT load(1, XDATA, add(CFA_XSP16, literal(-3)))
          CFI ?RET_HIGH load(1, XDATA, add(CFA_XSP16, literal(-4)))
          CFI ?RET_LOW load(1, XDATA, add(CFA_XSP16, literal(-5)))
          CFI R7 load(1, XDATA, add(CFA_XSP16, literal(-6)))
          CFI V3 load(1, XDATA, add(CFA_XSP16, literal(-7)))
          CFI V2 load(1, XDATA, add(CFA_XSP16, literal(-8)))
          CFI V1 load(1, XDATA, add(CFA_XSP16, literal(-9)))
          CFI V0 load(1, XDATA, add(CFA_XSP16, literal(-10)))
          CFI VB load(1, XDATA, add(CFA_XSP16, literal(-11)))
          CFI R6 load(1, XDATA, add(CFA_XSP16, literal(-12)))
          CFI CFA_SP SP+0
          CFI CFA_XSP16 add(XSP16, 12)
        ; Saved register size: 12
        ; Auto size: 9
        MOV       A,#-0x9
        LCALL     ?ALLOC_XSTACK8
          CFI CFA_XSP16 add(XSP16, 21)
        MOV       A,R2
        MOV       R6,A
        MOV       A,R3
        MOV       R7,A
// 1327   (void)SecurityEnable;  // Intentionally unreferenced parameter
// 1328 
// 1329   // Build buffer
// 1330   ZDP_TmpBuf[ZDP_MGMT_PERMIT_JOIN_REQ_DURATION] = duration;
        LCALL     ?Subroutine45 & 0xFFFF
??CrossCallReturnLabel_166:
        MOV       A,R1
        LCALL     ?Subroutine21 & 0xFFFF
// 1331   ZDP_TmpBuf[ZDP_MGMT_PERMIT_JOIN_REQ_TC_SIG]   = TcSignificance;
??CrossCallReturnLabel_25:
        MOV       A,R4
        MOVX      @DPTR,A
// 1332 
// 1333   // Check of this is a broadcast message
// 1334   if ( (dstAddr) && ((dstAddr->addrMode == Addr16Bit) || (dstAddr->addrMode == AddrBroadcast))
// 1335       && ((dstAddr->addr.shortAddr == NWK_BROADCAST_SHORTADDR_DEVALL)
// 1336           || (dstAddr->addr.shortAddr == NWK_BROADCAST_SHORTADDR_DEVZCZR)
// 1337           || (dstAddr->addr.shortAddr == NWK_BROADCAST_SHORTADDR_DEVRXON)) )
        MOV       A,R6
        ORL       A,R7
        JZ        ??ZDP_MgmtPermitJoinReq_0
        MOV       DPL,R6
        MOV       DPH,R7
        INC       DPTR
        INC       DPTR
        INC       DPTR
        INC       DPTR
        INC       DPTR
        INC       DPTR
        INC       DPTR
        INC       DPTR
        MOVX      A,@DPTR
        MOV       R0,A
        MOV       A,#0x2
        XRL       A,R0
        JZ        ??ZDP_MgmtPermitJoinReq_1
        MOV       A,#0xf
        XRL       A,R0
        JNZ       ??ZDP_MgmtPermitJoinReq_0
??ZDP_MgmtPermitJoinReq_1:
        MOV       DPL,R6
        MOV       DPH,R7
        LCALL     ??Subroutine118_0 & 0xFFFF
??CrossCallReturnLabel_234:
        MOV       A,#-0x1
        XRL       A,R0
        JNZ       ??ZDP_MgmtPermitJoinReq_2
        MOV       A,#-0x1
        XRL       A,R1
??ZDP_MgmtPermitJoinReq_2:
        JZ        ??ZDP_MgmtPermitJoinReq_3
        MOV       A,#-0x4
        XRL       A,R0
        JNZ       ??ZDP_MgmtPermitJoinReq_4
        MOV       A,#-0x1
        XRL       A,R1
??ZDP_MgmtPermitJoinReq_4:
        JZ        ??ZDP_MgmtPermitJoinReq_3
        MOV       A,#-0x3
        XRL       A,R0
        JNZ       ??ZDP_MgmtPermitJoinReq_5
        MOV       A,#-0x1
        XRL       A,R1
??ZDP_MgmtPermitJoinReq_5:
        JNZ       ??ZDP_MgmtPermitJoinReq_0
// 1338   {
// 1339     // Send this to our self as well as broadcast to network
// 1340     zAddrType_t tmpAddr;
// 1341 
// 1342     tmpAddr.addrMode = Addr16Bit;
??ZDP_MgmtPermitJoinReq_3:
        MOV       A,#0x8
        LCALL     ?XSTACK_DISP0_8
        MOV       A,#0x2
        MOVX      @DPTR,A
// 1343     tmpAddr.addr.shortAddr = NLME_GetShortAddr();
        ; Setup parameters for call to function NLME_GetShortAddr
        LCALL     `??NLME_GetShortAddr::?relay`; Banked call to: NLME_GetShortAddr
        MOV       DPL,?XSP + 0
        MOV       DPH,?XSP + 1
        MOV       A,R2
        MOVX      @DPTR,A
        INC       DPTR
        MOV       A,R3
        MOVX      @DPTR,A
// 1344 
// 1345     fillAndSend( &ZDP_TransID, &tmpAddr, Mgmt_Permit_Join_req,
// 1346                       ZDP_MGMT_PERMIT_JOIN_REQ_SIZE );
        ; Setup parameters for call to function fillAndSend
        MOV       ?V2,#0x36
        MOV       ?V3,#0x0
        MOV       R0,#?V2
        LCALL     ?PUSH_XSTACK_I_TWO
          CFI CFA_XSP16 add(XSP16, 23)
        MOV       R1,#0x2
        MOV       A,R1
        LCALL     ?XSTACK_DISP102_8
        MOV       R2,#ZDP_TransID & 0xff
        MOV       R3,#(ZDP_TransID >> 8) & 0xff
        LCALL     `??fillAndSend::?relay`; Banked call to: fillAndSend
        MOV       A,#0x2
        LCALL     ?DEALLOC_XSTACK8
          CFI CFA_XSP16 add(XSP16, 21)
// 1347   }
// 1348 
// 1349   // Send the message
// 1350   return fillAndSend( &ZDP_TransID, dstAddr, Mgmt_Permit_Join_req,
// 1351                       ZDP_MGMT_PERMIT_JOIN_REQ_SIZE );
??ZDP_MgmtPermitJoinReq_0:
        ; Setup parameters for call to function fillAndSend
        MOV       ?V2,#0x36
        MOV       ?V3,#0x0
        MOV       R0,#?V2
        LCALL     ?PUSH_XSTACK_I_TWO
          CFI CFA_XSP16 add(XSP16, 23)
        MOV       R1,#0x2
        MOV       A,R6
        MOV       R4,A
        MOV       A,R7
        MOV       R5,A
        LJMP      ?Subroutine9 & 0xFFFF
// 1352 }
          CFI EndBlock cfiBlock258

        RSEG BANKED_CODE:HUGECODE:NOROOT(0)
?Subroutine21:
          CFI Block cfiCond259 Using cfiCommon0
          CFI Function ZDP_DeviceAnnce
          CFI Conditional ??CrossCallReturnLabel_24
          CFI R6 load(1, XDATA, add(CFA_XSP16, literal(-10)))
          CFI VB load(1, XDATA, add(CFA_XSP16, literal(-9)))
          CFI V0 load(1, XDATA, add(CFA_XSP16, literal(-8)))
          CFI V1 load(1, XDATA, add(CFA_XSP16, literal(-7)))
          CFI R7 load(1, XDATA, add(CFA_XSP16, literal(-6)))
          CFI ?RET_LOW load(1, XDATA, add(CFA_XSP16, literal(-5)))
          CFI ?RET_HIGH load(1, XDATA, add(CFA_XSP16, literal(-4)))
          CFI ?BRET_EXT load(1, XDATA, add(CFA_XSP16, literal(-3)))
          CFI DPL0 load(1, XDATA, add(CFA_XSP16, literal(-2)))
          CFI DPH0 load(1, XDATA, add(CFA_XSP16, literal(-1)))
          CFI CFA_SP SP+-2
          CFI CFA_XSP16 add(XSP16, 19)
          CFI Block cfiCond260 Using cfiCommon0
          CFI (cfiCond260) Function ZDP_MgmtPermitJoinReq
          CFI (cfiCond260) Conditional ??CrossCallReturnLabel_25
          CFI (cfiCond260) R6 load(1, XDATA, add(CFA_XSP16, literal(-12)))
          CFI (cfiCond260) VB load(1, XDATA, add(CFA_XSP16, literal(-11)))
          CFI (cfiCond260) V0 load(1, XDATA, add(CFA_XSP16, literal(-10)))
          CFI (cfiCond260) V1 load(1, XDATA, add(CFA_XSP16, literal(-9)))
          CFI (cfiCond260) V2 load(1, XDATA, add(CFA_XSP16, literal(-8)))
          CFI (cfiCond260) V3 load(1, XDATA, add(CFA_XSP16, literal(-7)))
          CFI (cfiCond260) R7 load(1, XDATA, add(CFA_XSP16, literal(-6)))
          CFI (cfiCond260) ?RET_LOW load(1, XDATA, add(CFA_XSP16, literal(-5)))
          CFI (cfiCond260) ?RET_HIGH load(1, XDATA, add(CFA_XSP16, literal(-4)))
          CFI (cfiCond260) ?BRET_EXT load(1, XDATA, add(CFA_XSP16, literal(-3)))
          CFI (cfiCond260) DPL0 load(1, XDATA, add(CFA_XSP16, literal(-2)))
          CFI (cfiCond260) DPH0 load(1, XDATA, add(CFA_XSP16, literal(-1)))
          CFI (cfiCond260) CFA_SP SP+-2
          CFI (cfiCond260) CFA_XSP16 add(XSP16, 21)
          CFI Block cfiPicker261 Using cfiCommon1
          CFI (cfiPicker261) NoFunction
          CFI (cfiPicker261) Picker
        LCALL     ?Subroutine70 & 0xFFFF
??CrossCallReturnLabel_114:
        RET
          CFI EndBlock cfiCond259
          CFI EndBlock cfiCond260
          CFI EndBlock cfiPicker261

        RSEG BANKED_CODE:HUGECODE:NOROOT(0)
?Subroutine70:
          CFI Block cfiCond262 Using cfiCommon0
          CFI Function ZDP_NWKAddrOfInterestReq
          CFI Conditional ??CrossCallReturnLabel_112, ??CrossCallReturnLabel_16
          CFI R6 load(1, XDATA, add(CFA_XSP16, literal(-10)))
          CFI VB load(1, XDATA, add(CFA_XSP16, literal(-9)))
          CFI V0 load(1, XDATA, add(CFA_XSP16, literal(-8)))
          CFI V1 load(1, XDATA, add(CFA_XSP16, literal(-7)))
          CFI R7 load(1, XDATA, add(CFA_XSP16, literal(-6)))
          CFI ?RET_LOW load(1, XDATA, add(CFA_XSP16, literal(-5)))
          CFI ?RET_HIGH load(1, XDATA, add(CFA_XSP16, literal(-4)))
          CFI ?BRET_EXT load(1, XDATA, add(CFA_XSP16, literal(-3)))
          CFI DPL0 load(1, XDATA, add(CFA_XSP16, literal(-2)))
          CFI DPH0 load(1, XDATA, add(CFA_XSP16, literal(-1)))
          CFI CFA_SP SP+-4
          CFI CFA_XSP16 add(XSP16, 10)
          CFI Block cfiCond263 Using cfiCommon0
          CFI (cfiCond263) Function ZDP_SimpleDescReq
          CFI (cfiCond263) Conditional ??CrossCallReturnLabel_112, ??CrossCallReturnLabel_17
          CFI (cfiCond263) R6 load(1, XDATA, add(CFA_XSP16, literal(-10)))
          CFI (cfiCond263) VB load(1, XDATA, add(CFA_XSP16, literal(-9)))
          CFI (cfiCond263) V0 load(1, XDATA, add(CFA_XSP16, literal(-8)))
          CFI (cfiCond263) V1 load(1, XDATA, add(CFA_XSP16, literal(-7)))
          CFI (cfiCond263) R7 load(1, XDATA, add(CFA_XSP16, literal(-6)))
          CFI (cfiCond263) ?RET_LOW load(1, XDATA, add(CFA_XSP16, literal(-5)))
          CFI (cfiCond263) ?RET_HIGH load(1, XDATA, add(CFA_XSP16, literal(-4)))
          CFI (cfiCond263) ?BRET_EXT load(1, XDATA, add(CFA_XSP16, literal(-3)))
          CFI (cfiCond263) DPL0 load(1, XDATA, add(CFA_XSP16, literal(-2)))
          CFI (cfiCond263) DPH0 load(1, XDATA, add(CFA_XSP16, literal(-1)))
          CFI (cfiCond263) CFA_SP SP+-4
          CFI (cfiCond263) CFA_XSP16 add(XSP16, 10)
          CFI Block cfiCond264 Using cfiCommon0
          CFI (cfiCond264) Function ZDP_SimpleDescReq
          CFI (cfiCond264) Conditional ??CrossCallReturnLabel_113, ??CrossCallReturnLabel_6
          CFI (cfiCond264) R6 load(1, XDATA, add(CFA_XSP16, literal(-10)))
          CFI (cfiCond264) VB load(1, XDATA, add(CFA_XSP16, literal(-9)))
          CFI (cfiCond264) V0 load(1, XDATA, add(CFA_XSP16, literal(-8)))
          CFI (cfiCond264) V1 load(1, XDATA, add(CFA_XSP16, literal(-7)))
          CFI (cfiCond264) R7 load(1, XDATA, add(CFA_XSP16, literal(-6)))
          CFI (cfiCond264) ?RET_LOW load(1, XDATA, add(CFA_XSP16, literal(-5)))
          CFI (cfiCond264) ?RET_HIGH load(1, XDATA, add(CFA_XSP16, literal(-4)))
          CFI (cfiCond264) ?BRET_EXT load(1, XDATA, add(CFA_XSP16, literal(-3)))
          CFI (cfiCond264) DPL0 load(1, XDATA, add(CFA_XSP16, literal(-2)))
          CFI (cfiCond264) DPH0 load(1, XDATA, add(CFA_XSP16, literal(-1)))
          CFI (cfiCond264) CFA_SP SP+-4
          CFI (cfiCond264) CFA_XSP16 add(XSP16, 10)
          CFI Block cfiCond265 Using cfiCommon0
          CFI (cfiCond265) Function ZDP_GenericRsp
          CFI (cfiCond265) Conditional ??CrossCallReturnLabel_113, ??CrossCallReturnLabel_7
          CFI (cfiCond265) R6 load(1, XDATA, add(CFA_XSP16, literal(-9)))
          CFI (cfiCond265) VB load(1, XDATA, add(CFA_XSP16, literal(-8)))
          CFI (cfiCond265) V0 load(1, XDATA, add(CFA_XSP16, literal(-7)))
          CFI (cfiCond265) R7 load(1, XDATA, add(CFA_XSP16, literal(-6)))
          CFI (cfiCond265) ?RET_LOW load(1, XDATA, add(CFA_XSP16, literal(-5)))
          CFI (cfiCond265) ?RET_HIGH load(1, XDATA, add(CFA_XSP16, literal(-4)))
          CFI (cfiCond265) ?BRET_EXT load(1, XDATA, add(CFA_XSP16, literal(-3)))
          CFI (cfiCond265) DPL0 load(1, XDATA, add(CFA_XSP16, literal(-2)))
          CFI (cfiCond265) DPH0 load(1, XDATA, add(CFA_XSP16, literal(-1)))
          CFI (cfiCond265) CFA_SP SP+-4
          CFI (cfiCond265) CFA_XSP16 add(XSP16, 10)
          CFI Block cfiCond266 Using cfiCommon0
          CFI (cfiCond266) Function ZDP_DeviceAnnce
          CFI (cfiCond266) Conditional ??CrossCallReturnLabel_114, ??CrossCallReturnLabel_24
          CFI (cfiCond266) R6 load(1, XDATA, add(CFA_XSP16, literal(-10)))
          CFI (cfiCond266) VB load(1, XDATA, add(CFA_XSP16, literal(-9)))
          CFI (cfiCond266) V0 load(1, XDATA, add(CFA_XSP16, literal(-8)))
          CFI (cfiCond266) V1 load(1, XDATA, add(CFA_XSP16, literal(-7)))
          CFI (cfiCond266) R7 load(1, XDATA, add(CFA_XSP16, literal(-6)))
          CFI (cfiCond266) ?RET_LOW load(1, XDATA, add(CFA_XSP16, literal(-5)))
          CFI (cfiCond266) ?RET_HIGH load(1, XDATA, add(CFA_XSP16, literal(-4)))
          CFI (cfiCond266) ?BRET_EXT load(1, XDATA, add(CFA_XSP16, literal(-3)))
          CFI (cfiCond266) DPL0 load(1, XDATA, add(CFA_XSP16, literal(-2)))
          CFI (cfiCond266) DPH0 load(1, XDATA, add(CFA_XSP16, literal(-1)))
          CFI (cfiCond266) CFA_SP SP+-4
          CFI (cfiCond266) CFA_XSP16 add(XSP16, 19)
          CFI Block cfiCond267 Using cfiCommon0
          CFI (cfiCond267) Function ZDP_MgmtPermitJoinReq
          CFI (cfiCond267) Conditional ??CrossCallReturnLabel_114, ??CrossCallReturnLabel_25
          CFI (cfiCond267) R6 load(1, XDATA, add(CFA_XSP16, literal(-12)))
          CFI (cfiCond267) VB load(1, XDATA, add(CFA_XSP16, literal(-11)))
          CFI (cfiCond267) V0 load(1, XDATA, add(CFA_XSP16, literal(-10)))
          CFI (cfiCond267) V1 load(1, XDATA, add(CFA_XSP16, literal(-9)))
          CFI (cfiCond267) V2 load(1, XDATA, add(CFA_XSP16, literal(-8)))
          CFI (cfiCond267) V3 load(1, XDATA, add(CFA_XSP16, literal(-7)))
          CFI (cfiCond267) R7 load(1, XDATA, add(CFA_XSP16, literal(-6)))
          CFI (cfiCond267) ?RET_LOW load(1, XDATA, add(CFA_XSP16, literal(-5)))
          CFI (cfiCond267) ?RET_HIGH load(1, XDATA, add(CFA_XSP16, literal(-4)))
          CFI (cfiCond267) ?BRET_EXT load(1, XDATA, add(CFA_XSP16, literal(-3)))
          CFI (cfiCond267) DPL0 load(1, XDATA, add(CFA_XSP16, literal(-2)))
          CFI (cfiCond267) DPH0 load(1, XDATA, add(CFA_XSP16, literal(-1)))
          CFI (cfiCond267) CFA_SP SP+-4
          CFI (cfiCond267) CFA_XSP16 add(XSP16, 21)
          CFI Block cfiPicker268 Using cfiCommon1
          CFI (cfiPicker268) NoFunction
          CFI (cfiPicker268) Picker
        MOVX      @DPTR,A
        MOV       DPTR,#ZDP_TmpBuf
        MOVX      A,@DPTR
        MOV       R0,A
        INC       DPTR
        MOVX      A,@DPTR
        MOV       DPH,A
        MOV       DPL,R0
        INC       DPTR
        RET
          CFI EndBlock cfiCond262
          CFI EndBlock cfiCond263
          CFI EndBlock cfiCond264
          CFI EndBlock cfiCond265
          CFI EndBlock cfiCond266
          CFI EndBlock cfiCond267
          CFI EndBlock cfiPicker268
// 1353 
// 1354 /*********************************************************************
// 1355  * @fn          ZDP_MgmtLeaveReq
// 1356  *
// 1357  * @brief       This builds and send a Mgmt_Leave_req message.
// 1358  *
// 1359  * @param       dstAddr - destination address of the message
// 1360  *              IEEEAddr - IEEE adddress of device that is removed
// 1361  *              RemoveChildren - set to 1 to remove the children of the
// 1362  *                                device as well. 0 otherwise.
// 1363  *              Rejoin - set to 1 if the removed device should rejoin
// 1364                          afterwards. 0 otherwise.
// 1365  *
// 1366  * @return      afStatus_t
// 1367  */

        RSEG BANKED_CODE:HUGECODE:NOROOT(0)
// 1368 afStatus_t ZDP_MgmtLeaveReq( zAddrType_t *dstAddr, uint8 *IEEEAddr, uint8 RemoveChildren,
ZDP_MgmtLeaveReq:
          CFI Block cfiBlock269 Using cfiCommon0
          CFI Function ZDP_MgmtLeaveReq
        CODE
// 1369                  uint8 Rejoin, uint8 SecurityEnable )
// 1370 
// 1371 {
        FUNCALL ZDP_MgmtLeaveReq, sAddrExtCpy
        LOCFRAME ISTACK, 0, STACK
        LOCFRAME PSTACK, 0, STACK
        LOCFRAME XSTACK, 12, STACK
        LOCFRAME IOVERLAY, 0, STATIC
        LOCFRAME DOVERLAY, 0, STATIC
        ARGFRAME ISTACK, 0, STACK
        ARGFRAME PSTACK, 0, STACK
        ARGFRAME XSTACK, 12, STACK
        ARGFRAME IOVERLAY, 0, STATIC
        ARGFRAME DOVERLAY, 0, STATIC
        FUNCALL ZDP_MgmtLeaveReq, fillAndSend
        LOCFRAME ISTACK, 0, STACK
        LOCFRAME PSTACK, 0, STACK
        LOCFRAME XSTACK, 14, STACK
        LOCFRAME IOVERLAY, 0, STATIC
        LOCFRAME DOVERLAY, 0, STATIC
        ARGFRAME ISTACK, 0, STACK
        ARGFRAME PSTACK, 0, STACK
        ARGFRAME XSTACK, 14, STACK
        ARGFRAME IOVERLAY, 0, STATIC
        ARGFRAME DOVERLAY, 0, STATIC
        REQUIRE ?V0
        REQUIRE ?V2
        REQUIRE ?V3
        MOV       A,#-0xc
        LCALL     ?BANKED_ENTER_XDATA
          CFI DPH0 load(1, XDATA, add(CFA_XSP16, literal(-1)))
          CFI DPL0 load(1, XDATA, add(CFA_XSP16, literal(-2)))
          CFI ?BRET_EXT load(1, XDATA, add(CFA_XSP16, literal(-3)))
          CFI ?RET_HIGH load(1, XDATA, add(CFA_XSP16, literal(-4)))
          CFI ?RET_LOW load(1, XDATA, add(CFA_XSP16, literal(-5)))
          CFI R7 load(1, XDATA, add(CFA_XSP16, literal(-6)))
          CFI V3 load(1, XDATA, add(CFA_XSP16, literal(-7)))
          CFI V2 load(1, XDATA, add(CFA_XSP16, literal(-8)))
          CFI V1 load(1, XDATA, add(CFA_XSP16, literal(-9)))
          CFI V0 load(1, XDATA, add(CFA_XSP16, literal(-10)))
          CFI VB load(1, XDATA, add(CFA_XSP16, literal(-11)))
          CFI R6 load(1, XDATA, add(CFA_XSP16, literal(-12)))
          CFI CFA_SP SP+0
          CFI CFA_XSP16 add(XSP16, 12)
        ; Saved register size: 12
        ; Auto size: 0
        LCALL     ?Subroutine38 & 0xFFFF
// 1372   (void)SecurityEnable;  // Intentionally unreferenced parameter
// 1373 
// 1374   osal_cpyExtAddr( ZDP_TmpBuf, IEEEAddr );
??CrossCallReturnLabel_183:
        LCALL     `??sAddrExtCpy::?relay`; Banked call to: sAddrExtCpy
// 1375   ZDP_TmpBuf[Z_EXTADDR_LEN] = 0;
        MOV       DPTR,#ZDP_TmpBuf
        MOVX      A,@DPTR
        ADD       A,#0x8
        MOV       R0,A
        INC       DPTR
        MOVX      A,@DPTR
        ADDC      A,#0x0
        MOV       R1,A
        MOV       DPL,R0
        MOV       DPH,R1
        CLR       A
        MOVX      @DPTR,A
// 1376 
// 1377   if ( RemoveChildren == TRUE )
        INC       A
        XRL       A,?V0
        JNZ       ??ZDP_MgmtLeaveReq_0
// 1378   {
// 1379     ZDP_TmpBuf[Z_EXTADDR_LEN] |= ZDP_MGMT_LEAVE_REQ_RC;
        MOV       A,#0x40
        MOVX      @DPTR,A
// 1380   }
// 1381   if ( Rejoin == TRUE )
??ZDP_MgmtLeaveReq_0:
        MOV       A,#0xc
        LCALL     ?XSTACK_DISP0_8
        MOVX      A,@DPTR
        XRL       A,#0x1
        JNZ       ??ZDP_MgmtLeaveReq_1
// 1382   {
// 1383     ZDP_TmpBuf[Z_EXTADDR_LEN] |= ZDP_MGMT_LEAVE_REQ_REJOIN;
        MOV       DPL,R0
        MOV       DPH,R1
        MOVX      A,@DPTR
        SETB      0xE0 /* A   */.7
        MOVX      @DPTR,A
// 1384   }
// 1385 
// 1386   return fillAndSend( &ZDP_TransID, dstAddr, Mgmt_Leave_req, (Z_EXTADDR_LEN + 1) );
??ZDP_MgmtLeaveReq_1:
        ; Setup parameters for call to function fillAndSend
        MOV       ?V2,#0x34
        LJMP      ?Subroutine1 & 0xFFFF
// 1387 }
          CFI EndBlock cfiBlock269
// 1388 
// 1389 /*********************************************************************
// 1390  * @fn          ZDP_MgmtNwkUpdateReq
// 1391  *
// 1392  * @brief       This builds and send a Mgmt_NWK_Update_req message. This
// 1393  *              function sends a unicast or broadcast message.
// 1394  *
// 1395  * @param       dstAddr - destination address of the message
// 1396  * @param       ChannelMask - 32 bit address bit map
// 1397  * @param       ScanDuration - length of time to spend scanning each channel
// 1398  * @param       ScanCount - number of energy scans to be conducted
// 1399  * @param       NwkUpdateId - NWk Update Id value
// 1400  * @param       NwkManagerAddr - NWK address for device with Network Manager
// 1401  *                               bit set in its Node Descriptor
// 1402  *
// 1403  * @return      afStatus_t
// 1404  */

        RSEG BANKED_CODE:HUGECODE:NOROOT(0)
// 1405 afStatus_t ZDP_MgmtNwkUpdateReq( zAddrType_t *dstAddr,
ZDP_MgmtNwkUpdateReq:
          CFI Block cfiBlock270 Using cfiCommon0
          CFI Function ZDP_MgmtNwkUpdateReq
        CODE
// 1406                                  uint32 ChannelMask,
// 1407                                  uint8 ScanDuration,
// 1408                                  uint8 ScanCount,
// 1409                                  uint8 NwkUpdateId,
// 1410                                  uint16 NwkManagerAddr )
// 1411 {
        FUNCALL ZDP_MgmtNwkUpdateReq, osal_buffer_uint32
        LOCFRAME ISTACK, 0, STACK
        LOCFRAME PSTACK, 0, STACK
        LOCFRAME XSTACK, 18, STACK
        LOCFRAME IOVERLAY, 0, STATIC
        LOCFRAME DOVERLAY, 0, STATIC
        ARGFRAME ISTACK, 0, STACK
        ARGFRAME PSTACK, 0, STACK
        ARGFRAME XSTACK, 18, STACK
        ARGFRAME IOVERLAY, 0, STATIC
        ARGFRAME DOVERLAY, 0, STATIC
        FUNCALL ZDP_MgmtNwkUpdateReq, fillAndSend
        LOCFRAME ISTACK, 0, STACK
        LOCFRAME PSTACK, 0, STACK
        LOCFRAME XSTACK, 16, STACK
        LOCFRAME IOVERLAY, 0, STATIC
        LOCFRAME DOVERLAY, 0, STATIC
        ARGFRAME ISTACK, 0, STACK
        ARGFRAME PSTACK, 0, STACK
        ARGFRAME XSTACK, 16, STACK
        ARGFRAME IOVERLAY, 0, STATIC
        ARGFRAME DOVERLAY, 0, STATIC
        REQUIRE ?V0
        REQUIRE ?V1
        REQUIRE ?V2
        REQUIRE ?V3
        REQUIRE ?V4
        REQUIRE ?V5
        MOV       A,#-0xe
        LCALL     ?BANKED_ENTER_XDATA
          CFI DPH0 load(1, XDATA, add(CFA_XSP16, literal(-1)))
          CFI DPL0 load(1, XDATA, add(CFA_XSP16, literal(-2)))
          CFI ?BRET_EXT load(1, XDATA, add(CFA_XSP16, literal(-3)))
          CFI ?RET_HIGH load(1, XDATA, add(CFA_XSP16, literal(-4)))
          CFI ?RET_LOW load(1, XDATA, add(CFA_XSP16, literal(-5)))
          CFI R7 load(1, XDATA, add(CFA_XSP16, literal(-6)))
          CFI V5 load(1, XDATA, add(CFA_XSP16, literal(-7)))
          CFI V4 load(1, XDATA, add(CFA_XSP16, literal(-8)))
          CFI V3 load(1, XDATA, add(CFA_XSP16, literal(-9)))
          CFI V2 load(1, XDATA, add(CFA_XSP16, literal(-10)))
          CFI V1 load(1, XDATA, add(CFA_XSP16, literal(-11)))
          CFI V0 load(1, XDATA, add(CFA_XSP16, literal(-12)))
          CFI VB load(1, XDATA, add(CFA_XSP16, literal(-13)))
          CFI R6 load(1, XDATA, add(CFA_XSP16, literal(-14)))
          CFI CFA_SP SP+0
          CFI CFA_XSP16 add(XSP16, 14)
        ; Saved register size: 14
        ; Auto size: 0
        MOV       ?V0,R2
        MOV       ?V1,R3
        MOV       A,R1
        MOV       R7,A
        MOV       ?V2,R4
        MOV       ?V3,R5
// 1412   uint8 *pBuf = ZDP_TmpBuf;
// 1413   byte len = sizeof( uint32 ) + 1;  // ChannelMask + ScanDuration
        MOV       R6,#0x5
// 1414 
// 1415   pBuf = osal_buffer_uint32( pBuf, ChannelMask );
        ; Setup parameters for call to function osal_buffer_uint32
        MOV       A,#0xe
        LCALL     ?XSTACK_DISP0_8
        LCALL     ?PUSH_XSTACK8_X_FOUR
          CFI CFA_XSP16 add(XSP16, 18)
        LCALL     ??Subroutine107_0 & 0xFFFF
??CrossCallReturnLabel_192:
        LCALL     `??osal_buffer_uint32::?relay`; Banked call to: osal_buffer_uint32
        MOV       A,#0x4
        LCALL     ?DEALLOC_XSTACK8
          CFI CFA_XSP16 add(XSP16, 14)
// 1416 
// 1417   *pBuf++ = ScanDuration;
        MOV       A,R7
        MOV       DPL,R2
        MOV       DPH,R3
        MOVX      @DPTR,A
// 1418 
// 1419   if ( ScanDuration <= 0x05 )
        MOV       A,R2
        ADD       A,#0x2
        MOV       R4,A
        CLR       A
        ADDC      A,R3
        MOV       R5,A
        INC       DPTR
        MOV       A,R7
        CLR       C
        SUBB      A,#0x6
        JNC       ??ZDP_MgmtNwkUpdateReq_0
// 1420   {
// 1421     // Request is to scan over channelMask
// 1422     len += sizeof( uint8 );
        MOV       R6,#0x6
// 1423 
// 1424     *pBuf++ = ScanCount;
        MOV       A,?V2
        MOVX      @DPTR,A
        SJMP      ??ZDP_MgmtNwkUpdateReq_1
// 1425   }
// 1426   else if ( ( ScanDuration == 0xFE ) || ( ScanDuration == 0xFF ) )
??ZDP_MgmtNwkUpdateReq_0:
        MOV       A,#-0x2
        XRL       A,R7
        JZ        ??ZDP_MgmtNwkUpdateReq_2
        MOV       A,#-0x1
        XRL       A,R7
        JNZ       ??ZDP_MgmtNwkUpdateReq_1
// 1427   {
// 1428     // Request is to change Channel (0xFE) or apsChannelMask and NwkManagerAddr (0xFF)
// 1429     len += sizeof( uint8 );
??ZDP_MgmtNwkUpdateReq_2:
        MOV       R6,#0x6
// 1430 
// 1431     *pBuf++ = NwkUpdateId;
        MOV       A,?V3
        MOVX      @DPTR,A
// 1432 
// 1433     if ( ScanDuration == 0xFF )
        MOV       A,#-0x1
        XRL       A,R7
        JNZ       ??ZDP_MgmtNwkUpdateReq_1
// 1434     {
// 1435       len += sizeof( uint16 );
        MOV       R6,#0x8
        MOV       A,#0x12
        LCALL     ?XSTACK_DISP0_8
        LCALL     ?Subroutine51 & 0xFFFF
// 1436 
// 1437       *pBuf++  = LO_UINT16( NwkManagerAddr );
// 1438       *pBuf++  = HI_UINT16( NwkManagerAddr );
// 1439     }
// 1440   }
??CrossCallReturnLabel_78:
        LCALL     ?Subroutine33 & 0xFFFF
??CrossCallReturnLabel_42:
        MOVX      @DPTR,A
        MOV       A,R2
        ADD       A,#0x4
// 1441 
// 1442   return fillAndSend( &ZDP_TransID, dstAddr, Mgmt_NWK_Update_req, len );
??ZDP_MgmtNwkUpdateReq_1:
        ; Setup parameters for call to function fillAndSend
        MOV       ?V4,#0x38
        MOV       ?V5,#0x0
        MOV       R0,#?V4
        LCALL     ?PUSH_XSTACK_I_TWO
          CFI CFA_XSP16 add(XSP16, 16)
        MOV       A,R6
        MOV       R1,A
        MOV       R4,?V0
        MOV       R5,?V1
        MOV       R2,#ZDP_TransID & 0xff
        MOV       R3,#(ZDP_TransID >> 8) & 0xff
        LCALL     `??fillAndSend::?relay`; Banked call to: fillAndSend
        MOV       A,#0x2
        LJMP      ?Subroutine0 & 0xFFFF
// 1443 }
          CFI EndBlock cfiBlock270

        RSEG BANKED_CODE:HUGECODE:NOROOT(0)
?Subroutine51:
          CFI Block cfiCond271 Using cfiCommon0
          CFI Function ZDP_ServerDiscRsp
          CFI Conditional ??CrossCallReturnLabel_77
          CFI R6 load(1, XDATA, add(CFA_XSP16, literal(-10)))
          CFI VB load(1, XDATA, add(CFA_XSP16, literal(-9)))
          CFI V0 load(1, XDATA, add(CFA_XSP16, literal(-8)))
          CFI V1 load(1, XDATA, add(CFA_XSP16, literal(-7)))
          CFI R7 load(1, XDATA, add(CFA_XSP16, literal(-6)))
          CFI ?RET_LOW load(1, XDATA, add(CFA_XSP16, literal(-5)))
          CFI ?RET_HIGH load(1, XDATA, add(CFA_XSP16, literal(-4)))
          CFI ?BRET_EXT load(1, XDATA, add(CFA_XSP16, literal(-3)))
          CFI DPL0 load(1, XDATA, add(CFA_XSP16, literal(-2)))
          CFI DPH0 load(1, XDATA, add(CFA_XSP16, literal(-1)))
          CFI CFA_SP SP+-2
          CFI CFA_XSP16 add(XSP16, 11)
          CFI Block cfiCond272 Using cfiCommon0
          CFI (cfiCond272) Function ZDP_MgmtNwkUpdateReq
          CFI (cfiCond272) Conditional ??CrossCallReturnLabel_78
          CFI (cfiCond272) R6 load(1, XDATA, add(CFA_XSP16, literal(-14)))
          CFI (cfiCond272) VB load(1, XDATA, add(CFA_XSP16, literal(-13)))
          CFI (cfiCond272) V0 load(1, XDATA, add(CFA_XSP16, literal(-12)))
          CFI (cfiCond272) V1 load(1, XDATA, add(CFA_XSP16, literal(-11)))
          CFI (cfiCond272) V2 load(1, XDATA, add(CFA_XSP16, literal(-10)))
          CFI (cfiCond272) V3 load(1, XDATA, add(CFA_XSP16, literal(-9)))
          CFI (cfiCond272) V4 load(1, XDATA, add(CFA_XSP16, literal(-8)))
          CFI (cfiCond272) V5 load(1, XDATA, add(CFA_XSP16, literal(-7)))
          CFI (cfiCond272) R7 load(1, XDATA, add(CFA_XSP16, literal(-6)))
          CFI (cfiCond272) ?RET_LOW load(1, XDATA, add(CFA_XSP16, literal(-5)))
          CFI (cfiCond272) ?RET_HIGH load(1, XDATA, add(CFA_XSP16, literal(-4)))
          CFI (cfiCond272) ?BRET_EXT load(1, XDATA, add(CFA_XSP16, literal(-3)))
          CFI (cfiCond272) DPL0 load(1, XDATA, add(CFA_XSP16, literal(-2)))
          CFI (cfiCond272) DPH0 load(1, XDATA, add(CFA_XSP16, literal(-1)))
          CFI (cfiCond272) CFA_SP SP+-2
          CFI (cfiCond272) CFA_XSP16 add(XSP16, 14)
          CFI Block cfiPicker273 Using cfiCommon1
          CFI (cfiPicker273) NoFunction
          CFI (cfiPicker273) Picker
        LCALL     ?Subroutine75 & 0xFFFF
??CrossCallReturnLabel_154:
        MOV       DPL,R4
        MOV       DPH,R5
        RET
          CFI EndBlock cfiCond271
          CFI EndBlock cfiCond272
          CFI EndBlock cfiPicker273
// 1444 
// 1445 
// 1446 /*********************************************************************
// 1447  * Network Management Responses
// 1448  */
// 1449 
// 1450 /*********************************************************************
// 1451  * @fn          ZDP_MgmtNwkDiscRsp
// 1452  *
// 1453  * @brief       This builds and send a Mgmt_NWK_Disc_rsp message. This
// 1454  *              function sends a unicast message.
// 1455  *
// 1456  * @param       dstAddr - destination address of the message
// 1457  * @param       Status - message status (ZDP_SUCCESS or other)
// 1458  * @param       NetworkCount - Total number of networks found
// 1459  * @param       StartIndex - Starting index within the reporting network
// 1460  *                           list
// 1461  * @param       NetworkListCount - number of network lists included
// 1462  *                                 in this message
// 1463  * @param       NetworkList - List of network descriptors
// 1464  * @param       SecurityEnable - Security Options
// 1465  *
// 1466  * @return      afStatus_t
// 1467  */

        RSEG BANKED_CODE:HUGECODE:NOROOT(0)
// 1468 afStatus_t ZDP_MgmtNwkDiscRsp( byte TransSeq, zAddrType_t *dstAddr,
ZDP_MgmtNwkDiscRsp:
          CFI Block cfiBlock274 Using cfiCommon0
          CFI Function ZDP_MgmtNwkDiscRsp
        CODE
// 1469                             byte Status,
// 1470                             byte NetworkCount,
// 1471                             byte StartIndex,
// 1472                             byte NetworkListCount,
// 1473                             networkDesc_t *NetworkList,
// 1474                             byte SecurityEnable )
// 1475 {
        FUNCALL ZDP_MgmtNwkDiscRsp, osal_mem_alloc
        LOCFRAME ISTACK, 0, STACK
        LOCFRAME PSTACK, 0, STACK
        LOCFRAME XSTACK, 23, STACK
        LOCFRAME IOVERLAY, 0, STATIC
        LOCFRAME DOVERLAY, 0, STATIC
        ARGFRAME ISTACK, 0, STACK
        ARGFRAME PSTACK, 0, STACK
        ARGFRAME XSTACK, 23, STACK
        ARGFRAME IOVERLAY, 0, STATIC
        ARGFRAME DOVERLAY, 0, STATIC
        FUNCALL ZDP_MgmtNwkDiscRsp, sAddrExtCpy
        LOCFRAME ISTACK, 0, STACK
        LOCFRAME PSTACK, 0, STACK
        LOCFRAME XSTACK, 23, STACK
        LOCFRAME IOVERLAY, 0, STATIC
        LOCFRAME DOVERLAY, 0, STATIC
        ARGFRAME ISTACK, 0, STACK
        ARGFRAME PSTACK, 0, STACK
        ARGFRAME XSTACK, 23, STACK
        ARGFRAME IOVERLAY, 0, STATIC
        ARGFRAME DOVERLAY, 0, STATIC
        FUNCALL ZDP_MgmtNwkDiscRsp, fillAndSend
        LOCFRAME ISTACK, 0, STACK
        LOCFRAME PSTACK, 0, STACK
        LOCFRAME XSTACK, 25, STACK
        LOCFRAME IOVERLAY, 0, STATIC
        LOCFRAME DOVERLAY, 0, STATIC
        ARGFRAME ISTACK, 0, STACK
        ARGFRAME PSTACK, 0, STACK
        ARGFRAME XSTACK, 25, STACK
        ARGFRAME IOVERLAY, 0, STATIC
        ARGFRAME DOVERLAY, 0, STATIC
        FUNCALL ZDP_MgmtNwkDiscRsp, osal_mem_free
        LOCFRAME ISTACK, 0, STACK
        LOCFRAME PSTACK, 0, STACK
        LOCFRAME XSTACK, 23, STACK
        LOCFRAME IOVERLAY, 0, STATIC
        LOCFRAME DOVERLAY, 0, STATIC
        ARGFRAME ISTACK, 0, STACK
        ARGFRAME PSTACK, 0, STACK
        ARGFRAME XSTACK, 23, STACK
        ARGFRAME IOVERLAY, 0, STATIC
        ARGFRAME DOVERLAY, 0, STATIC
        REQUIRE ?V0
        REQUIRE ?V1
        REQUIRE ?V2
        REQUIRE ?V3
        REQUIRE ?V4
        REQUIRE ?V5
        REQUIRE ?V6
        REQUIRE ?V7
        REQUIRE ?V8
        REQUIRE ?V9
        REQUIRE ?V10
        REQUIRE ?V12
        REQUIRE ?V13
        MOV       A,#-0x16
        LCALL     ?BANKED_ENTER_XDATA
          CFI DPH0 load(1, XDATA, add(CFA_XSP16, literal(-1)))
          CFI DPL0 load(1, XDATA, add(CFA_XSP16, literal(-2)))
          CFI ?BRET_EXT load(1, XDATA, add(CFA_XSP16, literal(-3)))
          CFI ?RET_HIGH load(1, XDATA, add(CFA_XSP16, literal(-4)))
          CFI ?RET_LOW load(1, XDATA, add(CFA_XSP16, literal(-5)))
          CFI R7 load(1, XDATA, add(CFA_XSP16, literal(-6)))
          CFI V13 load(1, XDATA, add(CFA_XSP16, literal(-7)))
          CFI V12 load(1, XDATA, add(CFA_XSP16, literal(-8)))
          CFI V11 load(1, XDATA, add(CFA_XSP16, literal(-9)))
          CFI V10 load(1, XDATA, add(CFA_XSP16, literal(-10)))
          CFI V9 load(1, XDATA, add(CFA_XSP16, literal(-11)))
          CFI V8 load(1, XDATA, add(CFA_XSP16, literal(-12)))
          CFI V7 load(1, XDATA, add(CFA_XSP16, literal(-13)))
          CFI V6 load(1, XDATA, add(CFA_XSP16, literal(-14)))
          CFI V5 load(1, XDATA, add(CFA_XSP16, literal(-15)))
          CFI V4 load(1, XDATA, add(CFA_XSP16, literal(-16)))
          CFI V3 load(1, XDATA, add(CFA_XSP16, literal(-17)))
          CFI V2 load(1, XDATA, add(CFA_XSP16, literal(-18)))
          CFI V1 load(1, XDATA, add(CFA_XSP16, literal(-19)))
          CFI V0 load(1, XDATA, add(CFA_XSP16, literal(-20)))
          CFI VB load(1, XDATA, add(CFA_XSP16, literal(-21)))
          CFI R6 load(1, XDATA, add(CFA_XSP16, literal(-22)))
          CFI CFA_SP SP+0
          CFI CFA_XSP16 add(XSP16, 22)
        ; Saved register size: 22
        ; Auto size: 1
        MOV       A,#-0x1
        LCALL     ?ALLOC_XSTACK8
          CFI CFA_XSP16 add(XSP16, 23)
        MOV       A,R1
        MOV       DPL,?XSP + 0
        MOV       DPH,?XSP + 1
        MOVX      @DPTR,A
        MOV       ?V12,R2
        MOV       ?V13,R3
        MOV       ?V10,R4
        MOV       ?V7,R5
        MOV       A,#0x18
        LCALL     ?XSTACK_DISP0_8
        MOVX      A,@DPTR
        MOV       ?V4,A
// 1476   uint8 *buf;
// 1477   uint8 *pBuf;
// 1478   byte len = 1+1+1+1;  // Status + NetworkCount + StartIndex + NetworkCountList.
// 1479   byte idx;
// 1480 
// 1481   (void)SecurityEnable;  // Intentionally unreferenced parameter
// 1482 
// 1483   len += (NetworkListCount * ( ZDP_NETWORK_EXTENDED_DISCRIPTOR_SIZE - 2 ));
        MOV       B,#0xc
        MUL       AB
        ADD       A,#0x4
        MOV       ?V5,A
// 1484 
// 1485   buf = osal_mem_alloc( len+1 );
        ; Setup parameters for call to function osal_mem_alloc
        LCALL     ?Subroutine66 & 0xFFFF
??CrossCallReturnLabel_101:
        LCALL     `??osal_mem_alloc::?relay`; Banked call to: osal_mem_alloc
        MOV       ?V0,R2
        MOV       ?V1,R3
// 1486   if ( buf == NULL )
        MOV       A,R2
        ORL       A,?V1
        JNZ       ??ZDP_MgmtNwkDiscRsp_0
// 1487   {
// 1488     return afStatus_MEM_FAIL;
        MOV       R1,#0x10
        LJMP      ??CrossCallReturnLabel_28 & 0xFFFF
// 1489   }
// 1490 
// 1491   pBuf = buf+1;
??ZDP_MgmtNwkDiscRsp_0:
        MOV       DPL,R2
        MOV       DPH,R3
        INC       DPTR
        MOV       ?V8,DPL
        MOV       ?V9,DPH
        MOV       R6,?V8
        MOV       R7,?V9
// 1492 
// 1493   *pBuf++ = Status;
        MOV       A,?V10
        MOVX      @DPTR,A
// 1494   *pBuf++ = NetworkCount;
        INC       DPTR
        MOV       A,?V7
        MOVX      @DPTR,A
// 1495   *pBuf++ = StartIndex;
        MOV       A,#0x17
        LCALL     ?XSTACK_DISP0_8
        LCALL     ?Subroutine43 & 0xFFFF
??CrossCallReturnLabel_60:
        INC       DPTR
        LCALL     ?Subroutine83 & 0xFFFF
// 1496   *pBuf++ = NetworkListCount;
??CrossCallReturnLabel_127:
        MOV       A,?V4
        MOVX      @DPTR,A
        MOV       A,R6
        ADD       A,#0x4
        MOV       R6,A
        JNC       ??ZDP_MgmtNwkDiscRsp_1
        INC       R7
// 1497 
// 1498   for ( idx = 0; idx < NetworkListCount; idx++ )
??ZDP_MgmtNwkDiscRsp_1:
        MOV       ?V6,#0x0
        MOV       A,#0x19
        LCALL     ?XSTACK_DISP0_8
        LCALL     ?Subroutine49 & 0xFFFF
??CrossCallReturnLabel_73:
        SJMP      ??ZDP_MgmtNwkDiscRsp_2
// 1499   {
// 1500     osal_cpyExtAddr( pBuf, NetworkList->extendedPANID);
// 1501     pBuf += Z_EXTADDR_LEN;
// 1502 
// 1503     *pBuf++  = NetworkList->logicalChannel;                // LogicalChannel
// 1504     *pBuf    = NetworkList->stackProfile;                  // Stack profile
// 1505     *pBuf++ |= (byte)(NetworkList->version << 4);          // ZigBee Version
// 1506     *pBuf    = BEACON_ORDER_NO_BEACONS;                    // Beacon Order
// 1507     *pBuf++ |= (uint8)(BEACON_ORDER_NO_BEACONS << 4);      // Superframe Order
// 1508 
// 1509     if ( NetworkList->chosenRouter != INVALID_NODE_ADDR )
// 1510     {
// 1511       *pBuf++ = TRUE;                         // Permit Joining
// 1512     }
// 1513     else
// 1514     {
// 1515       *pBuf++ = FALSE;
??ZDP_MgmtNwkDiscRsp_3:
        CLR       A
??ZDP_MgmtNwkDiscRsp_4:
        MOVX      @DPTR,A
        MOV       A,R0
        MOV       R6,A
        MOV       A,R1
        MOV       R7,A
// 1516     }
// 1517 
// 1518     NetworkList = NetworkList->nextDesc;    // Move to next list entry
        MOV       A,?V2
        ADD       A,#0x14
        MOV       DPL,A
        CLR       A
        ADDC      A,?V3
        MOV       DPH,A
        LCALL     ?Subroutine49 & 0xFFFF
??CrossCallReturnLabel_74:
        INC       ?V6
??ZDP_MgmtNwkDiscRsp_2:
        MOV       A,?V6
        CLR       C
        SUBB      A,?V4
        JNC       ??ZDP_MgmtNwkDiscRsp_5
        ; Setup parameters for call to function sAddrExtCpy
        MOV       A,?V2
        ADD       A,#0xb
        MOV       R4,A
        CLR       A
        ADDC      A,?V3
        MOV       R5,A
        MOV       A,R6
        MOV       R2,A
        MOV       A,R7
        MOV       R3,A
        LCALL     `??sAddrExtCpy::?relay`; Banked call to: sAddrExtCpy
        MOV       DPL,?V2
        MOV       DPH,?V3
        INC       DPTR
        INC       DPTR
        LCALL     ?Subroutine43 & 0xFFFF
??CrossCallReturnLabel_61:
        INC       DPTR
        INC       DPTR
        INC       DPTR
        INC       DPTR
        INC       DPTR
        INC       DPTR
        INC       DPTR
        LCALL     ?Subroutine36 & 0xFFFF
??CrossCallReturnLabel_48:
        MOV       DPL,?V2
        MOV       DPH,?V3
        INC       DPTR
        INC       DPTR
        INC       DPTR
        INC       DPTR
        INC       DPTR
        LCALL     ?Subroutine60 & 0xFFFF
??CrossCallReturnLabel_195:
        LCALL     ?Subroutine30 & 0xFFFF
??CrossCallReturnLabel_41:
        INC       DPTR
        INC       DPTR
        INC       DPTR
        MOVX      A,@DPTR
        SWAP      A
        ANL       A,#0xf0
        MOV       R2,A
        MOV       DPL,R0
        MOV       DPH,R1
        MOVX      A,@DPTR
        ORL       A,R2
        LCALL     ?Subroutine20 & 0xFFFF
??CrossCallReturnLabel_23:
        INC       DPTR
        INC       DPTR
        MOV       A,#-0x1
        MOVX      @DPTR,A
        MOV       A,R6
        ADD       A,#0xc
        MOV       R0,A
        CLR       A
        ADDC      A,R7
        MOV       R1,A
        MOV       A,R6
        ADD       A,#0xb
        MOV       R2,A
        CLR       A
        ADDC      A,R7
        MOV       R3,A
        MOV       DPL,?V2
        MOV       DPH,?V3
        INC       DPTR
        INC       DPTR
        INC       DPTR
        INC       DPTR
        INC       DPTR
        INC       DPTR
        INC       DPTR
        MOVX      A,@DPTR
        XRL       A,#0xfe
        JNZ       ??ZDP_MgmtNwkDiscRsp_6
        INC       DPTR
        MOVX      A,@DPTR
        CPL       A
??ZDP_MgmtNwkDiscRsp_6:
        MOV       DPL,R2
        MOV       DPH,R3
        JNZ       $+5
        LJMP      ??ZDP_MgmtNwkDiscRsp_3 & 0xFFFF
        MOV       A,#0x1
        LJMP      ??ZDP_MgmtNwkDiscRsp_4 & 0xFFFF
// 1519   }
// 1520 
// 1521   FillAndSendBuffer( &TransSeq, dstAddr, Mgmt_NWK_Disc_rsp, len, buf );
??ZDP_MgmtNwkDiscRsp_5:
        MOV       DPTR,#ZDP_TmpBuf
        MOV       A,?V8
        MOVX      @DPTR,A
        INC       DPTR
        MOV       A,?V9
        MOVX      @DPTR,A
        ; Setup parameters for call to function fillAndSend
        MOV       ?V2,#0x30
        MOV       ?V3,#-0x80
        MOV       R0,#?V2
        LCALL     ?PUSH_XSTACK_I_TWO
          CFI CFA_XSP16 add(XSP16, 25)
        MOV       R1,?V5
        MOV       R4,?V12
        MOV       R5,?V13
        MOV       A,#0x2
        LCALL     ?XSTACK_DISP101_8
        LCALL     `??fillAndSend::?relay`; Banked call to: fillAndSend
        MOV       A,#0x2
        LCALL     ?DEALLOC_XSTACK8
          CFI CFA_XSP16 add(XSP16, 23)
        MOV       A,R1
        MOV       R6,A
        ; Setup parameters for call to function osal_mem_free
        MOV       R2,?V0
        MOV       R3,?V1
        LCALL     `??osal_mem_free::?relay`; Banked call to: osal_mem_free
        LCALL     ?Subroutine24 & 0xFFFF
??CrossCallReturnLabel_28:
          CFI EndBlock cfiBlock274
        REQUIRE ?Subroutine7
        ; // Fall through to label ?Subroutine7
// 1522 }

        RSEG BANKED_CODE:HUGECODE:NOROOT(0)
?Subroutine7:
          CFI Block cfiBlock275 Using cfiCommon0
          CFI NoFunction
          CFI CFA_SP SP+0
          CFI CFA_XSP16 add(XSP16, 23)
          CFI VB load(1, XDATA, add(CFA_XSP16, literal(-21)))
          CFI DPL0 load(1, XDATA, add(CFA_XSP16, literal(-2)))
          CFI DPH0 load(1, XDATA, add(CFA_XSP16, literal(-1)))
          CFI R6 load(1, XDATA, add(CFA_XSP16, literal(-22)))
          CFI R7 load(1, XDATA, add(CFA_XSP16, literal(-6)))
          CFI V0 load(1, XDATA, add(CFA_XSP16, literal(-20)))
          CFI V1 load(1, XDATA, add(CFA_XSP16, literal(-19)))
          CFI V2 load(1, XDATA, add(CFA_XSP16, literal(-18)))
          CFI V3 load(1, XDATA, add(CFA_XSP16, literal(-17)))
          CFI V4 load(1, XDATA, add(CFA_XSP16, literal(-16)))
          CFI V5 load(1, XDATA, add(CFA_XSP16, literal(-15)))
          CFI V6 load(1, XDATA, add(CFA_XSP16, literal(-14)))
          CFI V7 load(1, XDATA, add(CFA_XSP16, literal(-13)))
          CFI V8 load(1, XDATA, add(CFA_XSP16, literal(-12)))
          CFI V9 load(1, XDATA, add(CFA_XSP16, literal(-11)))
          CFI V10 load(1, XDATA, add(CFA_XSP16, literal(-10)))
          CFI V11 load(1, XDATA, add(CFA_XSP16, literal(-9)))
          CFI V12 load(1, XDATA, add(CFA_XSP16, literal(-8)))
          CFI V13 load(1, XDATA, add(CFA_XSP16, literal(-7)))
          CFI ?BRET_EXT load(1, XDATA, add(CFA_XSP16, literal(-3)))
          CFI ?RET_HIGH load(1, XDATA, add(CFA_XSP16, literal(-4)))
          CFI ?RET_LOW load(1, XDATA, add(CFA_XSP16, literal(-5)))
        MOV       A,#0x1
        LCALL     ?DEALLOC_XSTACK8
          CFI CFA_XSP16 add(XSP16, 22)
        MOV       R7,#0xe
        LJMP      ?BANKED_LEAVE_XDATA
          CFI EndBlock cfiBlock275

        RSEG BANKED_CODE:HUGECODE:NOROOT(0)
?Subroutine60:
          CFI Block cfiCond276 Using cfiCommon0
          CFI Function ZDP_MgmtNwkDiscRsp
          CFI Conditional ??CrossCallReturnLabel_195
          CFI R6 load(1, XDATA, add(CFA_XSP16, literal(-22)))
          CFI VB load(1, XDATA, add(CFA_XSP16, literal(-21)))
          CFI V0 load(1, XDATA, add(CFA_XSP16, literal(-20)))
          CFI V1 load(1, XDATA, add(CFA_XSP16, literal(-19)))
          CFI V2 load(1, XDATA, add(CFA_XSP16, literal(-18)))
          CFI V3 load(1, XDATA, add(CFA_XSP16, literal(-17)))
          CFI V4 load(1, XDATA, add(CFA_XSP16, literal(-16)))
          CFI V5 load(1, XDATA, add(CFA_XSP16, literal(-15)))
          CFI V6 load(1, XDATA, add(CFA_XSP16, literal(-14)))
          CFI V7 load(1, XDATA, add(CFA_XSP16, literal(-13)))
          CFI V8 load(1, XDATA, add(CFA_XSP16, literal(-12)))
          CFI V9 load(1, XDATA, add(CFA_XSP16, literal(-11)))
          CFI V10 load(1, XDATA, add(CFA_XSP16, literal(-10)))
          CFI V11 load(1, XDATA, add(CFA_XSP16, literal(-9)))
          CFI V12 load(1, XDATA, add(CFA_XSP16, literal(-8)))
          CFI V13 load(1, XDATA, add(CFA_XSP16, literal(-7)))
          CFI R7 load(1, XDATA, add(CFA_XSP16, literal(-6)))
          CFI ?RET_LOW load(1, XDATA, add(CFA_XSP16, literal(-5)))
          CFI ?RET_HIGH load(1, XDATA, add(CFA_XSP16, literal(-4)))
          CFI ?BRET_EXT load(1, XDATA, add(CFA_XSP16, literal(-3)))
          CFI DPL0 load(1, XDATA, add(CFA_XSP16, literal(-2)))
          CFI DPH0 load(1, XDATA, add(CFA_XSP16, literal(-1)))
          CFI CFA_SP SP+-2
          CFI CFA_XSP16 add(XSP16, 23)
          CFI Block cfiCond277 Using cfiCommon0
          CFI (cfiCond277) Function ZDP_MgmtLqiRsp
          CFI (cfiCond277) Conditional ??CrossCallReturnLabel_196
          CFI (cfiCond277) R6 load(1, XDATA, add(CFA_XSP16, literal(-21)))
          CFI (cfiCond277) VB load(1, XDATA, add(CFA_XSP16, literal(-20)))
          CFI (cfiCond277) V0 load(1, XDATA, add(CFA_XSP16, literal(-19)))
          CFI (cfiCond277) V1 load(1, XDATA, add(CFA_XSP16, literal(-18)))
          CFI (cfiCond277) V2 load(1, XDATA, add(CFA_XSP16, literal(-17)))
          CFI (cfiCond277) V3 load(1, XDATA, add(CFA_XSP16, literal(-16)))
          CFI (cfiCond277) V4 load(1, XDATA, add(CFA_XSP16, literal(-15)))
          CFI (cfiCond277) V5 load(1, XDATA, add(CFA_XSP16, literal(-14)))
          CFI (cfiCond277) V6 load(1, XDATA, add(CFA_XSP16, literal(-13)))
          CFI (cfiCond277) V7 load(1, XDATA, add(CFA_XSP16, literal(-12)))
          CFI (cfiCond277) V8 load(1, XDATA, add(CFA_XSP16, literal(-11)))
          CFI (cfiCond277) V9 load(1, XDATA, add(CFA_XSP16, literal(-10)))
          CFI (cfiCond277) V10 load(1, XDATA, add(CFA_XSP16, literal(-9)))
          CFI (cfiCond277) V11 load(1, XDATA, add(CFA_XSP16, literal(-8)))
          CFI (cfiCond277) V12 load(1, XDATA, add(CFA_XSP16, literal(-7)))
          CFI (cfiCond277) R7 load(1, XDATA, add(CFA_XSP16, literal(-6)))
          CFI (cfiCond277) ?RET_LOW load(1, XDATA, add(CFA_XSP16, literal(-5)))
          CFI (cfiCond277) ?RET_HIGH load(1, XDATA, add(CFA_XSP16, literal(-4)))
          CFI (cfiCond277) ?BRET_EXT load(1, XDATA, add(CFA_XSP16, literal(-3)))
          CFI (cfiCond277) DPL0 load(1, XDATA, add(CFA_XSP16, literal(-2)))
          CFI (cfiCond277) DPH0 load(1, XDATA, add(CFA_XSP16, literal(-1)))
          CFI (cfiCond277) CFA_SP SP+-2
          CFI (cfiCond277) CFA_XSP16 add(XSP16, 22)
          CFI Block cfiPicker278 Using cfiCommon1
          CFI (cfiPicker278) NoFunction
          CFI (cfiPicker278) Picker
        INC       DPTR
          CFI EndBlock cfiCond276
          CFI EndBlock cfiCond277
          CFI EndBlock cfiPicker278
        REQUIRE ??Subroutine109_0
        ; // Fall through to label ??Subroutine109_0

        RSEG BANKED_CODE:HUGECODE:NOROOT(0)
??Subroutine109_0:
          CFI Block cfiCond279 Using cfiCommon0
          CFI Function ZDP_SimpleDescMsg
          CFI Conditional ??CrossCallReturnLabel_193
          CFI R6 load(1, XDATA, add(CFA_XSP16, literal(-20)))
          CFI VB load(1, XDATA, add(CFA_XSP16, literal(-19)))
          CFI V0 load(1, XDATA, add(CFA_XSP16, literal(-18)))
          CFI V1 load(1, XDATA, add(CFA_XSP16, literal(-17)))
          CFI V2 load(1, XDATA, add(CFA_XSP16, literal(-16)))
          CFI V3 load(1, XDATA, add(CFA_XSP16, literal(-15)))
          CFI V4 load(1, XDATA, add(CFA_XSP16, literal(-14)))
          CFI V5 load(1, XDATA, add(CFA_XSP16, literal(-13)))
          CFI V6 load(1, XDATA, add(CFA_XSP16, literal(-12)))
          CFI V7 load(1, XDATA, add(CFA_XSP16, literal(-11)))
          CFI V8 load(1, XDATA, add(CFA_XSP16, literal(-10)))
          CFI V9 load(1, XDATA, add(CFA_XSP16, literal(-9)))
          CFI V10 load(1, XDATA, add(CFA_XSP16, literal(-8)))
          CFI V11 load(1, XDATA, add(CFA_XSP16, literal(-7)))
          CFI R7 load(1, XDATA, add(CFA_XSP16, literal(-6)))
          CFI ?RET_LOW load(1, XDATA, add(CFA_XSP16, literal(-5)))
          CFI ?RET_HIGH load(1, XDATA, add(CFA_XSP16, literal(-4)))
          CFI ?BRET_EXT load(1, XDATA, add(CFA_XSP16, literal(-3)))
          CFI DPL0 load(1, XDATA, add(CFA_XSP16, literal(-2)))
          CFI DPH0 load(1, XDATA, add(CFA_XSP16, literal(-1)))
          CFI CFA_SP SP+-2
          CFI CFA_XSP16 add(XSP16, 20)
          CFI Block cfiCond280 Using cfiCommon0
          CFI (cfiCond280) Function ZDP_SimpleDescMsg
          CFI (cfiCond280) Conditional ??CrossCallReturnLabel_194
          CFI (cfiCond280) R6 load(1, XDATA, add(CFA_XSP16, literal(-20)))
          CFI (cfiCond280) VB load(1, XDATA, add(CFA_XSP16, literal(-19)))
          CFI (cfiCond280) V0 load(1, XDATA, add(CFA_XSP16, literal(-18)))
          CFI (cfiCond280) V1 load(1, XDATA, add(CFA_XSP16, literal(-17)))
          CFI (cfiCond280) V2 load(1, XDATA, add(CFA_XSP16, literal(-16)))
          CFI (cfiCond280) V3 load(1, XDATA, add(CFA_XSP16, literal(-15)))
          CFI (cfiCond280) V4 load(1, XDATA, add(CFA_XSP16, literal(-14)))
          CFI (cfiCond280) V5 load(1, XDATA, add(CFA_XSP16, literal(-13)))
          CFI (cfiCond280) V6 load(1, XDATA, add(CFA_XSP16, literal(-12)))
          CFI (cfiCond280) V7 load(1, XDATA, add(CFA_XSP16, literal(-11)))
          CFI (cfiCond280) V8 load(1, XDATA, add(CFA_XSP16, literal(-10)))
          CFI (cfiCond280) V9 load(1, XDATA, add(CFA_XSP16, literal(-9)))
          CFI (cfiCond280) V10 load(1, XDATA, add(CFA_XSP16, literal(-8)))
          CFI (cfiCond280) V11 load(1, XDATA, add(CFA_XSP16, literal(-7)))
          CFI (cfiCond280) R7 load(1, XDATA, add(CFA_XSP16, literal(-6)))
          CFI (cfiCond280) ?RET_LOW load(1, XDATA, add(CFA_XSP16, literal(-5)))
          CFI (cfiCond280) ?RET_HIGH load(1, XDATA, add(CFA_XSP16, literal(-4)))
          CFI (cfiCond280) ?BRET_EXT load(1, XDATA, add(CFA_XSP16, literal(-3)))
          CFI (cfiCond280) DPL0 load(1, XDATA, add(CFA_XSP16, literal(-2)))
          CFI (cfiCond280) DPH0 load(1, XDATA, add(CFA_XSP16, literal(-1)))
          CFI (cfiCond280) CFA_SP SP+-2
          CFI (cfiCond280) CFA_XSP16 add(XSP16, 20)
          CFI Block cfiCond281 Using cfiCommon0
          CFI (cfiCond281) Function ZDP_MgmtNwkDiscRsp
          CFI (cfiCond281) Conditional ??CrossCallReturnLabel_195
          CFI (cfiCond281) R6 load(1, XDATA, add(CFA_XSP16, literal(-22)))
          CFI (cfiCond281) VB load(1, XDATA, add(CFA_XSP16, literal(-21)))
          CFI (cfiCond281) V0 load(1, XDATA, add(CFA_XSP16, literal(-20)))
          CFI (cfiCond281) V1 load(1, XDATA, add(CFA_XSP16, literal(-19)))
          CFI (cfiCond281) V2 load(1, XDATA, add(CFA_XSP16, literal(-18)))
          CFI (cfiCond281) V3 load(1, XDATA, add(CFA_XSP16, literal(-17)))
          CFI (cfiCond281) V4 load(1, XDATA, add(CFA_XSP16, literal(-16)))
          CFI (cfiCond281) V5 load(1, XDATA, add(CFA_XSP16, literal(-15)))
          CFI (cfiCond281) V6 load(1, XDATA, add(CFA_XSP16, literal(-14)))
          CFI (cfiCond281) V7 load(1, XDATA, add(CFA_XSP16, literal(-13)))
          CFI (cfiCond281) V8 load(1, XDATA, add(CFA_XSP16, literal(-12)))
          CFI (cfiCond281) V9 load(1, XDATA, add(CFA_XSP16, literal(-11)))
          CFI (cfiCond281) V10 load(1, XDATA, add(CFA_XSP16, literal(-10)))
          CFI (cfiCond281) V11 load(1, XDATA, add(CFA_XSP16, literal(-9)))
          CFI (cfiCond281) V12 load(1, XDATA, add(CFA_XSP16, literal(-8)))
          CFI (cfiCond281) V13 load(1, XDATA, add(CFA_XSP16, literal(-7)))
          CFI (cfiCond281) R7 load(1, XDATA, add(CFA_XSP16, literal(-6)))
          CFI (cfiCond281) ?RET_LOW load(1, XDATA, add(CFA_XSP16, literal(-5)))
          CFI (cfiCond281) ?RET_HIGH load(1, XDATA, add(CFA_XSP16, literal(-4)))
          CFI (cfiCond281) ?BRET_EXT load(1, XDATA, add(CFA_XSP16, literal(-3)))
          CFI (cfiCond281) DPL0 load(1, XDATA, add(CFA_XSP16, literal(-2)))
          CFI (cfiCond281) DPH0 load(1, XDATA, add(CFA_XSP16, literal(-1)))
          CFI (cfiCond281) CFA_SP SP+-2
          CFI (cfiCond281) CFA_XSP16 add(XSP16, 23)
          CFI Block cfiCond282 Using cfiCommon0
          CFI (cfiCond282) Function ZDP_MgmtLqiRsp
          CFI (cfiCond282) Conditional ??CrossCallReturnLabel_196
          CFI (cfiCond282) R6 load(1, XDATA, add(CFA_XSP16, literal(-21)))
          CFI (cfiCond282) VB load(1, XDATA, add(CFA_XSP16, literal(-20)))
          CFI (cfiCond282) V0 load(1, XDATA, add(CFA_XSP16, literal(-19)))
          CFI (cfiCond282) V1 load(1, XDATA, add(CFA_XSP16, literal(-18)))
          CFI (cfiCond282) V2 load(1, XDATA, add(CFA_XSP16, literal(-17)))
          CFI (cfiCond282) V3 load(1, XDATA, add(CFA_XSP16, literal(-16)))
          CFI (cfiCond282) V4 load(1, XDATA, add(CFA_XSP16, literal(-15)))
          CFI (cfiCond282) V5 load(1, XDATA, add(CFA_XSP16, literal(-14)))
          CFI (cfiCond282) V6 load(1, XDATA, add(CFA_XSP16, literal(-13)))
          CFI (cfiCond282) V7 load(1, XDATA, add(CFA_XSP16, literal(-12)))
          CFI (cfiCond282) V8 load(1, XDATA, add(CFA_XSP16, literal(-11)))
          CFI (cfiCond282) V9 load(1, XDATA, add(CFA_XSP16, literal(-10)))
          CFI (cfiCond282) V10 load(1, XDATA, add(CFA_XSP16, literal(-9)))
          CFI (cfiCond282) V11 load(1, XDATA, add(CFA_XSP16, literal(-8)))
          CFI (cfiCond282) V12 load(1, XDATA, add(CFA_XSP16, literal(-7)))
          CFI (cfiCond282) R7 load(1, XDATA, add(CFA_XSP16, literal(-6)))
          CFI (cfiCond282) ?RET_LOW load(1, XDATA, add(CFA_XSP16, literal(-5)))
          CFI (cfiCond282) ?RET_HIGH load(1, XDATA, add(CFA_XSP16, literal(-4)))
          CFI (cfiCond282) ?BRET_EXT load(1, XDATA, add(CFA_XSP16, literal(-3)))
          CFI (cfiCond282) DPL0 load(1, XDATA, add(CFA_XSP16, literal(-2)))
          CFI (cfiCond282) DPH0 load(1, XDATA, add(CFA_XSP16, literal(-1)))
          CFI (cfiCond282) CFA_SP SP+-2
          CFI (cfiCond282) CFA_XSP16 add(XSP16, 22)
          CFI Block cfiPicker283 Using cfiCommon1
          CFI (cfiPicker283) NoFunction
          CFI (cfiPicker283) Picker
        LCALL     ??Subroutine110_0 & 0xFFFF
??CrossCallReturnLabel_201:
        RET
          CFI EndBlock cfiCond279
          CFI EndBlock cfiCond280
          CFI EndBlock cfiCond281
          CFI EndBlock cfiCond282
          CFI EndBlock cfiPicker283

        RSEG BANKED_CODE:HUGECODE:NOROOT(0)
?Subroutine74:
          CFI Block cfiCond284 Using cfiCommon0
          CFI Function ZDP_MatchDescReq
          CFI Conditional ??CrossCallReturnLabel_198, ??CrossCallReturnLabel_2
          CFI R6 load(1, XDATA, add(CFA_XSP16, literal(-14)))
          CFI VB load(1, XDATA, add(CFA_XSP16, literal(-13)))
          CFI V0 load(1, XDATA, add(CFA_XSP16, literal(-12)))
          CFI V1 load(1, XDATA, add(CFA_XSP16, literal(-11)))
          CFI V2 load(1, XDATA, add(CFA_XSP16, literal(-10)))
          CFI V3 load(1, XDATA, add(CFA_XSP16, literal(-9)))
          CFI V4 load(1, XDATA, add(CFA_XSP16, literal(-8)))
          CFI V5 load(1, XDATA, add(CFA_XSP16, literal(-7)))
          CFI R7 load(1, XDATA, add(CFA_XSP16, literal(-6)))
          CFI ?RET_LOW load(1, XDATA, add(CFA_XSP16, literal(-5)))
          CFI ?RET_HIGH load(1, XDATA, add(CFA_XSP16, literal(-4)))
          CFI ?BRET_EXT load(1, XDATA, add(CFA_XSP16, literal(-3)))
          CFI DPL0 load(1, XDATA, add(CFA_XSP16, literal(-2)))
          CFI DPH0 load(1, XDATA, add(CFA_XSP16, literal(-1)))
          CFI CFA_SP SP+-4
          CFI CFA_XSP16 add(XSP16, 14)
          CFI Block cfiCond285 Using cfiCommon0
          CFI (cfiCond285) Function ZDP_MatchDescReq
          CFI (cfiCond285) Conditional ??CrossCallReturnLabel_198, ??CrossCallReturnLabel_3
          CFI (cfiCond285) R6 load(1, XDATA, add(CFA_XSP16, literal(-14)))
          CFI (cfiCond285) VB load(1, XDATA, add(CFA_XSP16, literal(-13)))
          CFI (cfiCond285) V0 load(1, XDATA, add(CFA_XSP16, literal(-12)))
          CFI (cfiCond285) V1 load(1, XDATA, add(CFA_XSP16, literal(-11)))
          CFI (cfiCond285) V2 load(1, XDATA, add(CFA_XSP16, literal(-10)))
          CFI (cfiCond285) V3 load(1, XDATA, add(CFA_XSP16, literal(-9)))
          CFI (cfiCond285) V4 load(1, XDATA, add(CFA_XSP16, literal(-8)))
          CFI (cfiCond285) V5 load(1, XDATA, add(CFA_XSP16, literal(-7)))
          CFI (cfiCond285) R7 load(1, XDATA, add(CFA_XSP16, literal(-6)))
          CFI (cfiCond285) ?RET_LOW load(1, XDATA, add(CFA_XSP16, literal(-5)))
          CFI (cfiCond285) ?RET_HIGH load(1, XDATA, add(CFA_XSP16, literal(-4)))
          CFI (cfiCond285) ?BRET_EXT load(1, XDATA, add(CFA_XSP16, literal(-3)))
          CFI (cfiCond285) DPL0 load(1, XDATA, add(CFA_XSP16, literal(-2)))
          CFI (cfiCond285) DPH0 load(1, XDATA, add(CFA_XSP16, literal(-1)))
          CFI (cfiCond285) CFA_SP SP+-4
          CFI (cfiCond285) CFA_XSP16 add(XSP16, 14)
          CFI Block cfiCond286 Using cfiCommon0
          CFI (cfiCond286) Function ZDP_MgmtLqiRsp
          CFI (cfiCond286) Conditional ??CrossCallReturnLabel_199, ??CrossCallReturnLabel_88
          CFI (cfiCond286) R6 load(1, XDATA, add(CFA_XSP16, literal(-21)))
          CFI (cfiCond286) VB load(1, XDATA, add(CFA_XSP16, literal(-20)))
          CFI (cfiCond286) V0 load(1, XDATA, add(CFA_XSP16, literal(-19)))
          CFI (cfiCond286) V1 load(1, XDATA, add(CFA_XSP16, literal(-18)))
          CFI (cfiCond286) V2 load(1, XDATA, add(CFA_XSP16, literal(-17)))
          CFI (cfiCond286) V3 load(1, XDATA, add(CFA_XSP16, literal(-16)))
          CFI (cfiCond286) V4 load(1, XDATA, add(CFA_XSP16, literal(-15)))
          CFI (cfiCond286) V5 load(1, XDATA, add(CFA_XSP16, literal(-14)))
          CFI (cfiCond286) V6 load(1, XDATA, add(CFA_XSP16, literal(-13)))
          CFI (cfiCond286) V7 load(1, XDATA, add(CFA_XSP16, literal(-12)))
          CFI (cfiCond286) V8 load(1, XDATA, add(CFA_XSP16, literal(-11)))
          CFI (cfiCond286) V9 load(1, XDATA, add(CFA_XSP16, literal(-10)))
          CFI (cfiCond286) V10 load(1, XDATA, add(CFA_XSP16, literal(-9)))
          CFI (cfiCond286) V11 load(1, XDATA, add(CFA_XSP16, literal(-8)))
          CFI (cfiCond286) V12 load(1, XDATA, add(CFA_XSP16, literal(-7)))
          CFI (cfiCond286) R7 load(1, XDATA, add(CFA_XSP16, literal(-6)))
          CFI (cfiCond286) ?RET_LOW load(1, XDATA, add(CFA_XSP16, literal(-5)))
          CFI (cfiCond286) ?RET_HIGH load(1, XDATA, add(CFA_XSP16, literal(-4)))
          CFI (cfiCond286) ?BRET_EXT load(1, XDATA, add(CFA_XSP16, literal(-3)))
          CFI (cfiCond286) DPL0 load(1, XDATA, add(CFA_XSP16, literal(-2)))
          CFI (cfiCond286) DPH0 load(1, XDATA, add(CFA_XSP16, literal(-1)))
          CFI (cfiCond286) CFA_SP SP+-4
          CFI (cfiCond286) CFA_XSP16 add(XSP16, 22)
          CFI Block cfiCond287 Using cfiCommon0
          CFI (cfiCond287) Function ZDP_MgmtLqiRsp
          CFI (cfiCond287) Conditional ??CrossCallReturnLabel_199, ??CrossCallReturnLabel_89
          CFI (cfiCond287) R6 load(1, XDATA, add(CFA_XSP16, literal(-21)))
          CFI (cfiCond287) VB load(1, XDATA, add(CFA_XSP16, literal(-20)))
          CFI (cfiCond287) V0 load(1, XDATA, add(CFA_XSP16, literal(-19)))
          CFI (cfiCond287) V1 load(1, XDATA, add(CFA_XSP16, literal(-18)))
          CFI (cfiCond287) V2 load(1, XDATA, add(CFA_XSP16, literal(-17)))
          CFI (cfiCond287) V3 load(1, XDATA, add(CFA_XSP16, literal(-16)))
          CFI (cfiCond287) V4 load(1, XDATA, add(CFA_XSP16, literal(-15)))
          CFI (cfiCond287) V5 load(1, XDATA, add(CFA_XSP16, literal(-14)))
          CFI (cfiCond287) V6 load(1, XDATA, add(CFA_XSP16, literal(-13)))
          CFI (cfiCond287) V7 load(1, XDATA, add(CFA_XSP16, literal(-12)))
          CFI (cfiCond287) V8 load(1, XDATA, add(CFA_XSP16, literal(-11)))
          CFI (cfiCond287) V9 load(1, XDATA, add(CFA_XSP16, literal(-10)))
          CFI (cfiCond287) V10 load(1, XDATA, add(CFA_XSP16, literal(-9)))
          CFI (cfiCond287) V11 load(1, XDATA, add(CFA_XSP16, literal(-8)))
          CFI (cfiCond287) V12 load(1, XDATA, add(CFA_XSP16, literal(-7)))
          CFI (cfiCond287) R7 load(1, XDATA, add(CFA_XSP16, literal(-6)))
          CFI (cfiCond287) ?RET_LOW load(1, XDATA, add(CFA_XSP16, literal(-5)))
          CFI (cfiCond287) ?RET_HIGH load(1, XDATA, add(CFA_XSP16, literal(-4)))
          CFI (cfiCond287) ?BRET_EXT load(1, XDATA, add(CFA_XSP16, literal(-3)))
          CFI (cfiCond287) DPL0 load(1, XDATA, add(CFA_XSP16, literal(-2)))
          CFI (cfiCond287) DPH0 load(1, XDATA, add(CFA_XSP16, literal(-1)))
          CFI (cfiCond287) CFA_SP SP+-4
          CFI (cfiCond287) CFA_XSP16 add(XSP16, 22)
          CFI Block cfiPicker288 Using cfiCommon1
          CFI (cfiPicker288) NoFunction
          CFI (cfiPicker288) Picker
        MOV       DPH,A
          CFI EndBlock cfiCond284
          CFI EndBlock cfiCond285
          CFI EndBlock cfiCond286
          CFI EndBlock cfiCond287
          CFI EndBlock cfiPicker288
        REQUIRE ??Subroutine110_0
        ; // Fall through to label ??Subroutine110_0

        RSEG BANKED_CODE:HUGECODE:NOROOT(0)
??Subroutine110_0:
          CFI Block cfiCond289 Using cfiCommon0
          CFI Function ZDP_SimpleDescMsg
          CFI Conditional ??CrossCallReturnLabel_197, ??CrossCallReturnLabel_90
          CFI R6 load(1, XDATA, add(CFA_XSP16, literal(-20)))
          CFI VB load(1, XDATA, add(CFA_XSP16, literal(-19)))
          CFI V0 load(1, XDATA, add(CFA_XSP16, literal(-18)))
          CFI V1 load(1, XDATA, add(CFA_XSP16, literal(-17)))
          CFI V2 load(1, XDATA, add(CFA_XSP16, literal(-16)))
          CFI V3 load(1, XDATA, add(CFA_XSP16, literal(-15)))
          CFI V4 load(1, XDATA, add(CFA_XSP16, literal(-14)))
          CFI V5 load(1, XDATA, add(CFA_XSP16, literal(-13)))
          CFI V6 load(1, XDATA, add(CFA_XSP16, literal(-12)))
          CFI V7 load(1, XDATA, add(CFA_XSP16, literal(-11)))
          CFI V8 load(1, XDATA, add(CFA_XSP16, literal(-10)))
          CFI V9 load(1, XDATA, add(CFA_XSP16, literal(-9)))
          CFI V10 load(1, XDATA, add(CFA_XSP16, literal(-8)))
          CFI V11 load(1, XDATA, add(CFA_XSP16, literal(-7)))
          CFI R7 load(1, XDATA, add(CFA_XSP16, literal(-6)))
          CFI ?RET_LOW load(1, XDATA, add(CFA_XSP16, literal(-5)))
          CFI ?RET_HIGH load(1, XDATA, add(CFA_XSP16, literal(-4)))
          CFI ?BRET_EXT load(1, XDATA, add(CFA_XSP16, literal(-3)))
          CFI DPL0 load(1, XDATA, add(CFA_XSP16, literal(-2)))
          CFI DPH0 load(1, XDATA, add(CFA_XSP16, literal(-1)))
          CFI CFA_SP SP+-4
          CFI CFA_XSP16 add(XSP16, 20)
          CFI Block cfiCond290 Using cfiCommon0
          CFI (cfiCond290) Function ZDP_SimpleDescMsg
          CFI (cfiCond290) Conditional ??CrossCallReturnLabel_197, ??CrossCallReturnLabel_91
          CFI (cfiCond290) R6 load(1, XDATA, add(CFA_XSP16, literal(-20)))
          CFI (cfiCond290) VB load(1, XDATA, add(CFA_XSP16, literal(-19)))
          CFI (cfiCond290) V0 load(1, XDATA, add(CFA_XSP16, literal(-18)))
          CFI (cfiCond290) V1 load(1, XDATA, add(CFA_XSP16, literal(-17)))
          CFI (cfiCond290) V2 load(1, XDATA, add(CFA_XSP16, literal(-16)))
          CFI (cfiCond290) V3 load(1, XDATA, add(CFA_XSP16, literal(-15)))
          CFI (cfiCond290) V4 load(1, XDATA, add(CFA_XSP16, literal(-14)))
          CFI (cfiCond290) V5 load(1, XDATA, add(CFA_XSP16, literal(-13)))
          CFI (cfiCond290) V6 load(1, XDATA, add(CFA_XSP16, literal(-12)))
          CFI (cfiCond290) V7 load(1, XDATA, add(CFA_XSP16, literal(-11)))
          CFI (cfiCond290) V8 load(1, XDATA, add(CFA_XSP16, literal(-10)))
          CFI (cfiCond290) V9 load(1, XDATA, add(CFA_XSP16, literal(-9)))
          CFI (cfiCond290) V10 load(1, XDATA, add(CFA_XSP16, literal(-8)))
          CFI (cfiCond290) V11 load(1, XDATA, add(CFA_XSP16, literal(-7)))
          CFI (cfiCond290) R7 load(1, XDATA, add(CFA_XSP16, literal(-6)))
          CFI (cfiCond290) ?RET_LOW load(1, XDATA, add(CFA_XSP16, literal(-5)))
          CFI (cfiCond290) ?RET_HIGH load(1, XDATA, add(CFA_XSP16, literal(-4)))
          CFI (cfiCond290) ?BRET_EXT load(1, XDATA, add(CFA_XSP16, literal(-3)))
          CFI (cfiCond290) DPL0 load(1, XDATA, add(CFA_XSP16, literal(-2)))
          CFI (cfiCond290) DPH0 load(1, XDATA, add(CFA_XSP16, literal(-1)))
          CFI (cfiCond290) CFA_SP SP+-4
          CFI (cfiCond290) CFA_XSP16 add(XSP16, 20)
          CFI Block cfiCond291 Using cfiCommon0
          CFI (cfiCond291) Function ZDP_SimpleDescMsg
          CFI (cfiCond291) Conditional ??CrossCallReturnLabel_197, ??CrossCallReturnLabel_92
          CFI (cfiCond291) R6 load(1, XDATA, add(CFA_XSP16, literal(-20)))
          CFI (cfiCond291) VB load(1, XDATA, add(CFA_XSP16, literal(-19)))
          CFI (cfiCond291) V0 load(1, XDATA, add(CFA_XSP16, literal(-18)))
          CFI (cfiCond291) V1 load(1, XDATA, add(CFA_XSP16, literal(-17)))
          CFI (cfiCond291) V2 load(1, XDATA, add(CFA_XSP16, literal(-16)))
          CFI (cfiCond291) V3 load(1, XDATA, add(CFA_XSP16, literal(-15)))
          CFI (cfiCond291) V4 load(1, XDATA, add(CFA_XSP16, literal(-14)))
          CFI (cfiCond291) V5 load(1, XDATA, add(CFA_XSP16, literal(-13)))
          CFI (cfiCond291) V6 load(1, XDATA, add(CFA_XSP16, literal(-12)))
          CFI (cfiCond291) V7 load(1, XDATA, add(CFA_XSP16, literal(-11)))
          CFI (cfiCond291) V8 load(1, XDATA, add(CFA_XSP16, literal(-10)))
          CFI (cfiCond291) V9 load(1, XDATA, add(CFA_XSP16, literal(-9)))
          CFI (cfiCond291) V10 load(1, XDATA, add(CFA_XSP16, literal(-8)))
          CFI (cfiCond291) V11 load(1, XDATA, add(CFA_XSP16, literal(-7)))
          CFI (cfiCond291) R7 load(1, XDATA, add(CFA_XSP16, literal(-6)))
          CFI (cfiCond291) ?RET_LOW load(1, XDATA, add(CFA_XSP16, literal(-5)))
          CFI (cfiCond291) ?RET_HIGH load(1, XDATA, add(CFA_XSP16, literal(-4)))
          CFI (cfiCond291) ?BRET_EXT load(1, XDATA, add(CFA_XSP16, literal(-3)))
          CFI (cfiCond291) DPL0 load(1, XDATA, add(CFA_XSP16, literal(-2)))
          CFI (cfiCond291) DPH0 load(1, XDATA, add(CFA_XSP16, literal(-1)))
          CFI (cfiCond291) CFA_SP SP+-4
          CFI (cfiCond291) CFA_XSP16 add(XSP16, 20)
          CFI Block cfiCond292 Using cfiCommon0
          CFI (cfiCond292) Function ZDP_SimpleDescMsg
          CFI (cfiCond292) Conditional ??CrossCallReturnLabel_200, ??CrossCallReturnLabel_171
          CFI (cfiCond292) R6 load(1, XDATA, add(CFA_XSP16, literal(-20)))
          CFI (cfiCond292) VB load(1, XDATA, add(CFA_XSP16, literal(-19)))
          CFI (cfiCond292) V0 load(1, XDATA, add(CFA_XSP16, literal(-18)))
          CFI (cfiCond292) V1 load(1, XDATA, add(CFA_XSP16, literal(-17)))
          CFI (cfiCond292) V2 load(1, XDATA, add(CFA_XSP16, literal(-16)))
          CFI (cfiCond292) V3 load(1, XDATA, add(CFA_XSP16, literal(-15)))
          CFI (cfiCond292) V4 load(1, XDATA, add(CFA_XSP16, literal(-14)))
          CFI (cfiCond292) V5 load(1, XDATA, add(CFA_XSP16, literal(-13)))
          CFI (cfiCond292) V6 load(1, XDATA, add(CFA_XSP16, literal(-12)))
          CFI (cfiCond292) V7 load(1, XDATA, add(CFA_XSP16, literal(-11)))
          CFI (cfiCond292) V8 load(1, XDATA, add(CFA_XSP16, literal(-10)))
          CFI (cfiCond292) V9 load(1, XDATA, add(CFA_XSP16, literal(-9)))
          CFI (cfiCond292) V10 load(1, XDATA, add(CFA_XSP16, literal(-8)))
          CFI (cfiCond292) V11 load(1, XDATA, add(CFA_XSP16, literal(-7)))
          CFI (cfiCond292) R7 load(1, XDATA, add(CFA_XSP16, literal(-6)))
          CFI (cfiCond292) ?RET_LOW load(1, XDATA, add(CFA_XSP16, literal(-5)))
          CFI (cfiCond292) ?RET_HIGH load(1, XDATA, add(CFA_XSP16, literal(-4)))
          CFI (cfiCond292) ?BRET_EXT load(1, XDATA, add(CFA_XSP16, literal(-3)))
          CFI (cfiCond292) DPL0 load(1, XDATA, add(CFA_XSP16, literal(-2)))
          CFI (cfiCond292) DPH0 load(1, XDATA, add(CFA_XSP16, literal(-1)))
          CFI (cfiCond292) CFA_SP SP+-4
          CFI (cfiCond292) CFA_XSP16 add(XSP16, 20)
          CFI Block cfiCond293 Using cfiCommon0
          CFI (cfiCond293) Function ZDP_SimpleDescMsg
          CFI (cfiCond293) Conditional ??CrossCallReturnLabel_200, ??CrossCallReturnLabel_172
          CFI (cfiCond293) R6 load(1, XDATA, add(CFA_XSP16, literal(-20)))
          CFI (cfiCond293) VB load(1, XDATA, add(CFA_XSP16, literal(-19)))
          CFI (cfiCond293) V0 load(1, XDATA, add(CFA_XSP16, literal(-18)))
          CFI (cfiCond293) V1 load(1, XDATA, add(CFA_XSP16, literal(-17)))
          CFI (cfiCond293) V2 load(1, XDATA, add(CFA_XSP16, literal(-16)))
          CFI (cfiCond293) V3 load(1, XDATA, add(CFA_XSP16, literal(-15)))
          CFI (cfiCond293) V4 load(1, XDATA, add(CFA_XSP16, literal(-14)))
          CFI (cfiCond293) V5 load(1, XDATA, add(CFA_XSP16, literal(-13)))
          CFI (cfiCond293) V6 load(1, XDATA, add(CFA_XSP16, literal(-12)))
          CFI (cfiCond293) V7 load(1, XDATA, add(CFA_XSP16, literal(-11)))
          CFI (cfiCond293) V8 load(1, XDATA, add(CFA_XSP16, literal(-10)))
          CFI (cfiCond293) V9 load(1, XDATA, add(CFA_XSP16, literal(-9)))
          CFI (cfiCond293) V10 load(1, XDATA, add(CFA_XSP16, literal(-8)))
          CFI (cfiCond293) V11 load(1, XDATA, add(CFA_XSP16, literal(-7)))
          CFI (cfiCond293) R7 load(1, XDATA, add(CFA_XSP16, literal(-6)))
          CFI (cfiCond293) ?RET_LOW load(1, XDATA, add(CFA_XSP16, literal(-5)))
          CFI (cfiCond293) ?RET_HIGH load(1, XDATA, add(CFA_XSP16, literal(-4)))
          CFI (cfiCond293) ?BRET_EXT load(1, XDATA, add(CFA_XSP16, literal(-3)))
          CFI (cfiCond293) DPL0 load(1, XDATA, add(CFA_XSP16, literal(-2)))
          CFI (cfiCond293) DPH0 load(1, XDATA, add(CFA_XSP16, literal(-1)))
          CFI (cfiCond293) CFA_SP SP+-4
          CFI (cfiCond293) CFA_XSP16 add(XSP16, 20)
          CFI Block cfiCond294 Using cfiCommon0
          CFI (cfiCond294) Function ZDP_SimpleDescMsg
          CFI (cfiCond294) Conditional ??CrossCallReturnLabel_200, ??CrossCallReturnLabel_168
          CFI (cfiCond294) R6 load(1, XDATA, add(CFA_XSP16, literal(-20)))
          CFI (cfiCond294) VB load(1, XDATA, add(CFA_XSP16, literal(-19)))
          CFI (cfiCond294) V0 load(1, XDATA, add(CFA_XSP16, literal(-18)))
          CFI (cfiCond294) V1 load(1, XDATA, add(CFA_XSP16, literal(-17)))
          CFI (cfiCond294) V2 load(1, XDATA, add(CFA_XSP16, literal(-16)))
          CFI (cfiCond294) V3 load(1, XDATA, add(CFA_XSP16, literal(-15)))
          CFI (cfiCond294) V4 load(1, XDATA, add(CFA_XSP16, literal(-14)))
          CFI (cfiCond294) V5 load(1, XDATA, add(CFA_XSP16, literal(-13)))
          CFI (cfiCond294) V6 load(1, XDATA, add(CFA_XSP16, literal(-12)))
          CFI (cfiCond294) V7 load(1, XDATA, add(CFA_XSP16, literal(-11)))
          CFI (cfiCond294) V8 load(1, XDATA, add(CFA_XSP16, literal(-10)))
          CFI (cfiCond294) V9 load(1, XDATA, add(CFA_XSP16, literal(-9)))
          CFI (cfiCond294) V10 load(1, XDATA, add(CFA_XSP16, literal(-8)))
          CFI (cfiCond294) V11 load(1, XDATA, add(CFA_XSP16, literal(-7)))
          CFI (cfiCond294) R7 load(1, XDATA, add(CFA_XSP16, literal(-6)))
          CFI (cfiCond294) ?RET_LOW load(1, XDATA, add(CFA_XSP16, literal(-5)))
          CFI (cfiCond294) ?RET_HIGH load(1, XDATA, add(CFA_XSP16, literal(-4)))
          CFI (cfiCond294) ?BRET_EXT load(1, XDATA, add(CFA_XSP16, literal(-3)))
          CFI (cfiCond294) DPL0 load(1, XDATA, add(CFA_XSP16, literal(-2)))
          CFI (cfiCond294) DPH0 load(1, XDATA, add(CFA_XSP16, literal(-1)))
          CFI (cfiCond294) CFA_SP SP+-4
          CFI (cfiCond294) CFA_XSP16 add(XSP16, 20)
          CFI Block cfiCond295 Using cfiCommon0
          CFI (cfiCond295) Function ZDP_EndDeviceBindReq
          CFI (cfiCond295) Conditional ??CrossCallReturnLabel_200, ??CrossCallReturnLabel_169
          CFI (cfiCond295) R6 load(1, XDATA, add(CFA_XSP16, literal(-18)))
          CFI (cfiCond295) VB load(1, XDATA, add(CFA_XSP16, literal(-17)))
          CFI (cfiCond295) V0 load(1, XDATA, add(CFA_XSP16, literal(-16)))
          CFI (cfiCond295) V1 load(1, XDATA, add(CFA_XSP16, literal(-15)))
          CFI (cfiCond295) V2 load(1, XDATA, add(CFA_XSP16, literal(-14)))
          CFI (cfiCond295) V3 load(1, XDATA, add(CFA_XSP16, literal(-13)))
          CFI (cfiCond295) V4 load(1, XDATA, add(CFA_XSP16, literal(-12)))
          CFI (cfiCond295) V5 load(1, XDATA, add(CFA_XSP16, literal(-11)))
          CFI (cfiCond295) V6 load(1, XDATA, add(CFA_XSP16, literal(-10)))
          CFI (cfiCond295) V7 load(1, XDATA, add(CFA_XSP16, literal(-9)))
          CFI (cfiCond295) V8 load(1, XDATA, add(CFA_XSP16, literal(-8)))
          CFI (cfiCond295) V9 load(1, XDATA, add(CFA_XSP16, literal(-7)))
          CFI (cfiCond295) R7 load(1, XDATA, add(CFA_XSP16, literal(-6)))
          CFI (cfiCond295) ?RET_LOW load(1, XDATA, add(CFA_XSP16, literal(-5)))
          CFI (cfiCond295) ?RET_HIGH load(1, XDATA, add(CFA_XSP16, literal(-4)))
          CFI (cfiCond295) ?BRET_EXT load(1, XDATA, add(CFA_XSP16, literal(-3)))
          CFI (cfiCond295) DPL0 load(1, XDATA, add(CFA_XSP16, literal(-2)))
          CFI (cfiCond295) DPH0 load(1, XDATA, add(CFA_XSP16, literal(-1)))
          CFI (cfiCond295) CFA_SP SP+-4
          CFI (cfiCond295) CFA_XSP16 add(XSP16, 18)
          CFI Block cfiCond296 Using cfiCommon0
          CFI (cfiCond296) Function ZDP_MgmtLqiRsp
          CFI (cfiCond296) Conditional ??CrossCallReturnLabel_200, ??CrossCallReturnLabel_170
          CFI (cfiCond296) R6 load(1, XDATA, add(CFA_XSP16, literal(-21)))
          CFI (cfiCond296) VB load(1, XDATA, add(CFA_XSP16, literal(-20)))
          CFI (cfiCond296) V0 load(1, XDATA, add(CFA_XSP16, literal(-19)))
          CFI (cfiCond296) V1 load(1, XDATA, add(CFA_XSP16, literal(-18)))
          CFI (cfiCond296) V2 load(1, XDATA, add(CFA_XSP16, literal(-17)))
          CFI (cfiCond296) V3 load(1, XDATA, add(CFA_XSP16, literal(-16)))
          CFI (cfiCond296) V4 load(1, XDATA, add(CFA_XSP16, literal(-15)))
          CFI (cfiCond296) V5 load(1, XDATA, add(CFA_XSP16, literal(-14)))
          CFI (cfiCond296) V6 load(1, XDATA, add(CFA_XSP16, literal(-13)))
          CFI (cfiCond296) V7 load(1, XDATA, add(CFA_XSP16, literal(-12)))
          CFI (cfiCond296) V8 load(1, XDATA, add(CFA_XSP16, literal(-11)))
          CFI (cfiCond296) V9 load(1, XDATA, add(CFA_XSP16, literal(-10)))
          CFI (cfiCond296) V10 load(1, XDATA, add(CFA_XSP16, literal(-9)))
          CFI (cfiCond296) V11 load(1, XDATA, add(CFA_XSP16, literal(-8)))
          CFI (cfiCond296) V12 load(1, XDATA, add(CFA_XSP16, literal(-7)))
          CFI (cfiCond296) R7 load(1, XDATA, add(CFA_XSP16, literal(-6)))
          CFI (cfiCond296) ?RET_LOW load(1, XDATA, add(CFA_XSP16, literal(-5)))
          CFI (cfiCond296) ?RET_HIGH load(1, XDATA, add(CFA_XSP16, literal(-4)))
          CFI (cfiCond296) ?BRET_EXT load(1, XDATA, add(CFA_XSP16, literal(-3)))
          CFI (cfiCond296) DPL0 load(1, XDATA, add(CFA_XSP16, literal(-2)))
          CFI (cfiCond296) DPH0 load(1, XDATA, add(CFA_XSP16, literal(-1)))
          CFI (cfiCond296) CFA_SP SP+-4
          CFI (cfiCond296) CFA_XSP16 add(XSP16, 22)
          CFI Block cfiCond297 Using cfiCommon0
          CFI (cfiCond297) Function ZDP_MgmtNwkDiscRsp
          CFI (cfiCond297) Conditional ??CrossCallReturnLabel_201, ??CrossCallReturnLabel_195
          CFI (cfiCond297) R6 load(1, XDATA, add(CFA_XSP16, literal(-22)))
          CFI (cfiCond297) VB load(1, XDATA, add(CFA_XSP16, literal(-21)))
          CFI (cfiCond297) V0 load(1, XDATA, add(CFA_XSP16, literal(-20)))
          CFI (cfiCond297) V1 load(1, XDATA, add(CFA_XSP16, literal(-19)))
          CFI (cfiCond297) V2 load(1, XDATA, add(CFA_XSP16, literal(-18)))
          CFI (cfiCond297) V3 load(1, XDATA, add(CFA_XSP16, literal(-17)))
          CFI (cfiCond297) V4 load(1, XDATA, add(CFA_XSP16, literal(-16)))
          CFI (cfiCond297) V5 load(1, XDATA, add(CFA_XSP16, literal(-15)))
          CFI (cfiCond297) V6 load(1, XDATA, add(CFA_XSP16, literal(-14)))
          CFI (cfiCond297) V7 load(1, XDATA, add(CFA_XSP16, literal(-13)))
          CFI (cfiCond297) V8 load(1, XDATA, add(CFA_XSP16, literal(-12)))
          CFI (cfiCond297) V9 load(1, XDATA, add(CFA_XSP16, literal(-11)))
          CFI (cfiCond297) V10 load(1, XDATA, add(CFA_XSP16, literal(-10)))
          CFI (cfiCond297) V11 load(1, XDATA, add(CFA_XSP16, literal(-9)))
          CFI (cfiCond297) V12 load(1, XDATA, add(CFA_XSP16, literal(-8)))
          CFI (cfiCond297) V13 load(1, XDATA, add(CFA_XSP16, literal(-7)))
          CFI (cfiCond297) R7 load(1, XDATA, add(CFA_XSP16, literal(-6)))
          CFI (cfiCond297) ?RET_LOW load(1, XDATA, add(CFA_XSP16, literal(-5)))
          CFI (cfiCond297) ?RET_HIGH load(1, XDATA, add(CFA_XSP16, literal(-4)))
          CFI (cfiCond297) ?BRET_EXT load(1, XDATA, add(CFA_XSP16, literal(-3)))
          CFI (cfiCond297) DPL0 load(1, XDATA, add(CFA_XSP16, literal(-2)))
          CFI (cfiCond297) DPH0 load(1, XDATA, add(CFA_XSP16, literal(-1)))
          CFI (cfiCond297) CFA_SP SP+-4
          CFI (cfiCond297) CFA_XSP16 add(XSP16, 23)
          CFI Block cfiCond298 Using cfiCommon0
          CFI (cfiCond298) Function ZDP_MgmtLqiRsp
          CFI (cfiCond298) Conditional ??CrossCallReturnLabel_201, ??CrossCallReturnLabel_196
          CFI (cfiCond298) R6 load(1, XDATA, add(CFA_XSP16, literal(-21)))
          CFI (cfiCond298) VB load(1, XDATA, add(CFA_XSP16, literal(-20)))
          CFI (cfiCond298) V0 load(1, XDATA, add(CFA_XSP16, literal(-19)))
          CFI (cfiCond298) V1 load(1, XDATA, add(CFA_XSP16, literal(-18)))
          CFI (cfiCond298) V2 load(1, XDATA, add(CFA_XSP16, literal(-17)))
          CFI (cfiCond298) V3 load(1, XDATA, add(CFA_XSP16, literal(-16)))
          CFI (cfiCond298) V4 load(1, XDATA, add(CFA_XSP16, literal(-15)))
          CFI (cfiCond298) V5 load(1, XDATA, add(CFA_XSP16, literal(-14)))
          CFI (cfiCond298) V6 load(1, XDATA, add(CFA_XSP16, literal(-13)))
          CFI (cfiCond298) V7 load(1, XDATA, add(CFA_XSP16, literal(-12)))
          CFI (cfiCond298) V8 load(1, XDATA, add(CFA_XSP16, literal(-11)))
          CFI (cfiCond298) V9 load(1, XDATA, add(CFA_XSP16, literal(-10)))
          CFI (cfiCond298) V10 load(1, XDATA, add(CFA_XSP16, literal(-9)))
          CFI (cfiCond298) V11 load(1, XDATA, add(CFA_XSP16, literal(-8)))
          CFI (cfiCond298) V12 load(1, XDATA, add(CFA_XSP16, literal(-7)))
          CFI (cfiCond298) R7 load(1, XDATA, add(CFA_XSP16, literal(-6)))
          CFI (cfiCond298) ?RET_LOW load(1, XDATA, add(CFA_XSP16, literal(-5)))
          CFI (cfiCond298) ?RET_HIGH load(1, XDATA, add(CFA_XSP16, literal(-4)))
          CFI (cfiCond298) ?BRET_EXT load(1, XDATA, add(CFA_XSP16, literal(-3)))
          CFI (cfiCond298) DPL0 load(1, XDATA, add(CFA_XSP16, literal(-2)))
          CFI (cfiCond298) DPH0 load(1, XDATA, add(CFA_XSP16, literal(-1)))
          CFI (cfiCond298) CFA_SP SP+-4
          CFI (cfiCond298) CFA_XSP16 add(XSP16, 22)
          CFI Block cfiCond299 Using cfiCommon0
          CFI (cfiCond299) Function ZDP_SimpleDescMsg
          CFI (cfiCond299) Conditional ??CrossCallReturnLabel_201, ??CrossCallReturnLabel_193
          CFI (cfiCond299) R6 load(1, XDATA, add(CFA_XSP16, literal(-20)))
          CFI (cfiCond299) VB load(1, XDATA, add(CFA_XSP16, literal(-19)))
          CFI (cfiCond299) V0 load(1, XDATA, add(CFA_XSP16, literal(-18)))
          CFI (cfiCond299) V1 load(1, XDATA, add(CFA_XSP16, literal(-17)))
          CFI (cfiCond299) V2 load(1, XDATA, add(CFA_XSP16, literal(-16)))
          CFI (cfiCond299) V3 load(1, XDATA, add(CFA_XSP16, literal(-15)))
          CFI (cfiCond299) V4 load(1, XDATA, add(CFA_XSP16, literal(-14)))
          CFI (cfiCond299) V5 load(1, XDATA, add(CFA_XSP16, literal(-13)))
          CFI (cfiCond299) V6 load(1, XDATA, add(CFA_XSP16, literal(-12)))
          CFI (cfiCond299) V7 load(1, XDATA, add(CFA_XSP16, literal(-11)))
          CFI (cfiCond299) V8 load(1, XDATA, add(CFA_XSP16, literal(-10)))
          CFI (cfiCond299) V9 load(1, XDATA, add(CFA_XSP16, literal(-9)))
          CFI (cfiCond299) V10 load(1, XDATA, add(CFA_XSP16, literal(-8)))
          CFI (cfiCond299) V11 load(1, XDATA, add(CFA_XSP16, literal(-7)))
          CFI (cfiCond299) R7 load(1, XDATA, add(CFA_XSP16, literal(-6)))
          CFI (cfiCond299) ?RET_LOW load(1, XDATA, add(CFA_XSP16, literal(-5)))
          CFI (cfiCond299) ?RET_HIGH load(1, XDATA, add(CFA_XSP16, literal(-4)))
          CFI (cfiCond299) ?BRET_EXT load(1, XDATA, add(CFA_XSP16, literal(-3)))
          CFI (cfiCond299) DPL0 load(1, XDATA, add(CFA_XSP16, literal(-2)))
          CFI (cfiCond299) DPH0 load(1, XDATA, add(CFA_XSP16, literal(-1)))
          CFI (cfiCond299) CFA_SP SP+-4
          CFI (cfiCond299) CFA_XSP16 add(XSP16, 20)
          CFI Block cfiCond300 Using cfiCommon0
          CFI (cfiCond300) Function ZDP_SimpleDescMsg
          CFI (cfiCond300) Conditional ??CrossCallReturnLabel_201, ??CrossCallReturnLabel_194
          CFI (cfiCond300) R6 load(1, XDATA, add(CFA_XSP16, literal(-20)))
          CFI (cfiCond300) VB load(1, XDATA, add(CFA_XSP16, literal(-19)))
          CFI (cfiCond300) V0 load(1, XDATA, add(CFA_XSP16, literal(-18)))
          CFI (cfiCond300) V1 load(1, XDATA, add(CFA_XSP16, literal(-17)))
          CFI (cfiCond300) V2 load(1, XDATA, add(CFA_XSP16, literal(-16)))
          CFI (cfiCond300) V3 load(1, XDATA, add(CFA_XSP16, literal(-15)))
          CFI (cfiCond300) V4 load(1, XDATA, add(CFA_XSP16, literal(-14)))
          CFI (cfiCond300) V5 load(1, XDATA, add(CFA_XSP16, literal(-13)))
          CFI (cfiCond300) V6 load(1, XDATA, add(CFA_XSP16, literal(-12)))
          CFI (cfiCond300) V7 load(1, XDATA, add(CFA_XSP16, literal(-11)))
          CFI (cfiCond300) V8 load(1, XDATA, add(CFA_XSP16, literal(-10)))
          CFI (cfiCond300) V9 load(1, XDATA, add(CFA_XSP16, literal(-9)))
          CFI (cfiCond300) V10 load(1, XDATA, add(CFA_XSP16, literal(-8)))
          CFI (cfiCond300) V11 load(1, XDATA, add(CFA_XSP16, literal(-7)))
          CFI (cfiCond300) R7 load(1, XDATA, add(CFA_XSP16, literal(-6)))
          CFI (cfiCond300) ?RET_LOW load(1, XDATA, add(CFA_XSP16, literal(-5)))
          CFI (cfiCond300) ?RET_HIGH load(1, XDATA, add(CFA_XSP16, literal(-4)))
          CFI (cfiCond300) ?BRET_EXT load(1, XDATA, add(CFA_XSP16, literal(-3)))
          CFI (cfiCond300) DPL0 load(1, XDATA, add(CFA_XSP16, literal(-2)))
          CFI (cfiCond300) DPH0 load(1, XDATA, add(CFA_XSP16, literal(-1)))
          CFI (cfiCond300) CFA_SP SP+-4
          CFI (cfiCond300) CFA_XSP16 add(XSP16, 20)
          CFI Block cfiCond301 Using cfiCommon0
          CFI (cfiCond301) Function ZDP_MatchDescReq
          CFI (cfiCond301) Conditional ??CrossCallReturnLabel_198, ??CrossCallReturnLabel_2
          CFI (cfiCond301) R6 load(1, XDATA, add(CFA_XSP16, literal(-14)))
          CFI (cfiCond301) VB load(1, XDATA, add(CFA_XSP16, literal(-13)))
          CFI (cfiCond301) V0 load(1, XDATA, add(CFA_XSP16, literal(-12)))
          CFI (cfiCond301) V1 load(1, XDATA, add(CFA_XSP16, literal(-11)))
          CFI (cfiCond301) V2 load(1, XDATA, add(CFA_XSP16, literal(-10)))
          CFI (cfiCond301) V3 load(1, XDATA, add(CFA_XSP16, literal(-9)))
          CFI (cfiCond301) V4 load(1, XDATA, add(CFA_XSP16, literal(-8)))
          CFI (cfiCond301) V5 load(1, XDATA, add(CFA_XSP16, literal(-7)))
          CFI (cfiCond301) R7 load(1, XDATA, add(CFA_XSP16, literal(-6)))
          CFI (cfiCond301) ?RET_LOW load(1, XDATA, add(CFA_XSP16, literal(-5)))
          CFI (cfiCond301) ?RET_HIGH load(1, XDATA, add(CFA_XSP16, literal(-4)))
          CFI (cfiCond301) ?BRET_EXT load(1, XDATA, add(CFA_XSP16, literal(-3)))
          CFI (cfiCond301) DPL0 load(1, XDATA, add(CFA_XSP16, literal(-2)))
          CFI (cfiCond301) DPH0 load(1, XDATA, add(CFA_XSP16, literal(-1)))
          CFI (cfiCond301) CFA_SP SP+-4
          CFI (cfiCond301) CFA_XSP16 add(XSP16, 14)
          CFI Block cfiCond302 Using cfiCommon0
          CFI (cfiCond302) Function ZDP_MatchDescReq
          CFI (cfiCond302) Conditional ??CrossCallReturnLabel_198, ??CrossCallReturnLabel_3
          CFI (cfiCond302) R6 load(1, XDATA, add(CFA_XSP16, literal(-14)))
          CFI (cfiCond302) VB load(1, XDATA, add(CFA_XSP16, literal(-13)))
          CFI (cfiCond302) V0 load(1, XDATA, add(CFA_XSP16, literal(-12)))
          CFI (cfiCond302) V1 load(1, XDATA, add(CFA_XSP16, literal(-11)))
          CFI (cfiCond302) V2 load(1, XDATA, add(CFA_XSP16, literal(-10)))
          CFI (cfiCond302) V3 load(1, XDATA, add(CFA_XSP16, literal(-9)))
          CFI (cfiCond302) V4 load(1, XDATA, add(CFA_XSP16, literal(-8)))
          CFI (cfiCond302) V5 load(1, XDATA, add(CFA_XSP16, literal(-7)))
          CFI (cfiCond302) R7 load(1, XDATA, add(CFA_XSP16, literal(-6)))
          CFI (cfiCond302) ?RET_LOW load(1, XDATA, add(CFA_XSP16, literal(-5)))
          CFI (cfiCond302) ?RET_HIGH load(1, XDATA, add(CFA_XSP16, literal(-4)))
          CFI (cfiCond302) ?BRET_EXT load(1, XDATA, add(CFA_XSP16, literal(-3)))
          CFI (cfiCond302) DPL0 load(1, XDATA, add(CFA_XSP16, literal(-2)))
          CFI (cfiCond302) DPH0 load(1, XDATA, add(CFA_XSP16, literal(-1)))
          CFI (cfiCond302) CFA_SP SP+-4
          CFI (cfiCond302) CFA_XSP16 add(XSP16, 14)
          CFI Block cfiCond303 Using cfiCommon0
          CFI (cfiCond303) Function ZDP_MgmtLqiRsp
          CFI (cfiCond303) Conditional ??CrossCallReturnLabel_199, ??CrossCallReturnLabel_88
          CFI (cfiCond303) R6 load(1, XDATA, add(CFA_XSP16, literal(-21)))
          CFI (cfiCond303) VB load(1, XDATA, add(CFA_XSP16, literal(-20)))
          CFI (cfiCond303) V0 load(1, XDATA, add(CFA_XSP16, literal(-19)))
          CFI (cfiCond303) V1 load(1, XDATA, add(CFA_XSP16, literal(-18)))
          CFI (cfiCond303) V2 load(1, XDATA, add(CFA_XSP16, literal(-17)))
          CFI (cfiCond303) V3 load(1, XDATA, add(CFA_XSP16, literal(-16)))
          CFI (cfiCond303) V4 load(1, XDATA, add(CFA_XSP16, literal(-15)))
          CFI (cfiCond303) V5 load(1, XDATA, add(CFA_XSP16, literal(-14)))
          CFI (cfiCond303) V6 load(1, XDATA, add(CFA_XSP16, literal(-13)))
          CFI (cfiCond303) V7 load(1, XDATA, add(CFA_XSP16, literal(-12)))
          CFI (cfiCond303) V8 load(1, XDATA, add(CFA_XSP16, literal(-11)))
          CFI (cfiCond303) V9 load(1, XDATA, add(CFA_XSP16, literal(-10)))
          CFI (cfiCond303) V10 load(1, XDATA, add(CFA_XSP16, literal(-9)))
          CFI (cfiCond303) V11 load(1, XDATA, add(CFA_XSP16, literal(-8)))
          CFI (cfiCond303) V12 load(1, XDATA, add(CFA_XSP16, literal(-7)))
          CFI (cfiCond303) R7 load(1, XDATA, add(CFA_XSP16, literal(-6)))
          CFI (cfiCond303) ?RET_LOW load(1, XDATA, add(CFA_XSP16, literal(-5)))
          CFI (cfiCond303) ?RET_HIGH load(1, XDATA, add(CFA_XSP16, literal(-4)))
          CFI (cfiCond303) ?BRET_EXT load(1, XDATA, add(CFA_XSP16, literal(-3)))
          CFI (cfiCond303) DPL0 load(1, XDATA, add(CFA_XSP16, literal(-2)))
          CFI (cfiCond303) DPH0 load(1, XDATA, add(CFA_XSP16, literal(-1)))
          CFI (cfiCond303) CFA_SP SP+-4
          CFI (cfiCond303) CFA_XSP16 add(XSP16, 22)
          CFI Block cfiCond304 Using cfiCommon0
          CFI (cfiCond304) Function ZDP_MgmtLqiRsp
          CFI (cfiCond304) Conditional ??CrossCallReturnLabel_199, ??CrossCallReturnLabel_89
          CFI (cfiCond304) R6 load(1, XDATA, add(CFA_XSP16, literal(-21)))
          CFI (cfiCond304) VB load(1, XDATA, add(CFA_XSP16, literal(-20)))
          CFI (cfiCond304) V0 load(1, XDATA, add(CFA_XSP16, literal(-19)))
          CFI (cfiCond304) V1 load(1, XDATA, add(CFA_XSP16, literal(-18)))
          CFI (cfiCond304) V2 load(1, XDATA, add(CFA_XSP16, literal(-17)))
          CFI (cfiCond304) V3 load(1, XDATA, add(CFA_XSP16, literal(-16)))
          CFI (cfiCond304) V4 load(1, XDATA, add(CFA_XSP16, literal(-15)))
          CFI (cfiCond304) V5 load(1, XDATA, add(CFA_XSP16, literal(-14)))
          CFI (cfiCond304) V6 load(1, XDATA, add(CFA_XSP16, literal(-13)))
          CFI (cfiCond304) V7 load(1, XDATA, add(CFA_XSP16, literal(-12)))
          CFI (cfiCond304) V8 load(1, XDATA, add(CFA_XSP16, literal(-11)))
          CFI (cfiCond304) V9 load(1, XDATA, add(CFA_XSP16, literal(-10)))
          CFI (cfiCond304) V10 load(1, XDATA, add(CFA_XSP16, literal(-9)))
          CFI (cfiCond304) V11 load(1, XDATA, add(CFA_XSP16, literal(-8)))
          CFI (cfiCond304) V12 load(1, XDATA, add(CFA_XSP16, literal(-7)))
          CFI (cfiCond304) R7 load(1, XDATA, add(CFA_XSP16, literal(-6)))
          CFI (cfiCond304) ?RET_LOW load(1, XDATA, add(CFA_XSP16, literal(-5)))
          CFI (cfiCond304) ?RET_HIGH load(1, XDATA, add(CFA_XSP16, literal(-4)))
          CFI (cfiCond304) ?BRET_EXT load(1, XDATA, add(CFA_XSP16, literal(-3)))
          CFI (cfiCond304) DPL0 load(1, XDATA, add(CFA_XSP16, literal(-2)))
          CFI (cfiCond304) DPH0 load(1, XDATA, add(CFA_XSP16, literal(-1)))
          CFI (cfiCond304) CFA_SP SP+-4
          CFI (cfiCond304) CFA_XSP16 add(XSP16, 22)
          CFI Block cfiPicker305 Using cfiCommon1
          CFI (cfiPicker305) NoFunction
          CFI (cfiPicker305) Picker
        MOVX      A,@DPTR
        MOV       DPL,R0
        MOV       DPH,R1
        RET
          CFI EndBlock cfiCond289
          CFI EndBlock cfiCond290
          CFI EndBlock cfiCond291
          CFI EndBlock cfiCond292
          CFI EndBlock cfiCond293
          CFI EndBlock cfiCond294
          CFI EndBlock cfiCond295
          CFI EndBlock cfiCond296
          CFI EndBlock cfiCond297
          CFI EndBlock cfiCond298
          CFI EndBlock cfiCond299
          CFI EndBlock cfiCond300
          CFI EndBlock cfiCond301
          CFI EndBlock cfiCond302
          CFI EndBlock cfiCond303
          CFI EndBlock cfiCond304
          CFI EndBlock cfiPicker305

        RSEG BANKED_CODE:HUGECODE:NOROOT(0)
?Subroutine49:
          CFI Block cfiCond306 Using cfiCommon0
          CFI Function ZDP_SendData
          CFI Conditional ??CrossCallReturnLabel_72
          CFI R6 load(1, XDATA, add(CFA_XSP16, literal(-12)))
          CFI VB load(1, XDATA, add(CFA_XSP16, literal(-11)))
          CFI V0 load(1, XDATA, add(CFA_XSP16, literal(-10)))
          CFI V1 load(1, XDATA, add(CFA_XSP16, literal(-9)))
          CFI V2 load(1, XDATA, add(CFA_XSP16, literal(-8)))
          CFI V3 load(1, XDATA, add(CFA_XSP16, literal(-7)))
          CFI R7 load(1, XDATA, add(CFA_XSP16, literal(-6)))
          CFI ?RET_LOW load(1, XDATA, add(CFA_XSP16, literal(-5)))
          CFI ?RET_HIGH load(1, XDATA, add(CFA_XSP16, literal(-4)))
          CFI ?BRET_EXT load(1, XDATA, add(CFA_XSP16, literal(-3)))
          CFI DPL0 load(1, XDATA, add(CFA_XSP16, literal(-2)))
          CFI DPH0 load(1, XDATA, add(CFA_XSP16, literal(-1)))
          CFI CFA_SP SP+-2
          CFI CFA_XSP16 add(XSP16, 12)
          CFI Block cfiCond307 Using cfiCommon0
          CFI (cfiCond307) Function ZDP_MgmtNwkDiscRsp
          CFI (cfiCond307) Conditional ??CrossCallReturnLabel_73
          CFI (cfiCond307) R6 load(1, XDATA, add(CFA_XSP16, literal(-22)))
          CFI (cfiCond307) VB load(1, XDATA, add(CFA_XSP16, literal(-21)))
          CFI (cfiCond307) V0 load(1, XDATA, add(CFA_XSP16, literal(-20)))
          CFI (cfiCond307) V1 load(1, XDATA, add(CFA_XSP16, literal(-19)))
          CFI (cfiCond307) V2 load(1, XDATA, add(CFA_XSP16, literal(-18)))
          CFI (cfiCond307) V3 load(1, XDATA, add(CFA_XSP16, literal(-17)))
          CFI (cfiCond307) V4 load(1, XDATA, add(CFA_XSP16, literal(-16)))
          CFI (cfiCond307) V5 load(1, XDATA, add(CFA_XSP16, literal(-15)))
          CFI (cfiCond307) V6 load(1, XDATA, add(CFA_XSP16, literal(-14)))
          CFI (cfiCond307) V7 load(1, XDATA, add(CFA_XSP16, literal(-13)))
          CFI (cfiCond307) V8 load(1, XDATA, add(CFA_XSP16, literal(-12)))
          CFI (cfiCond307) V9 load(1, XDATA, add(CFA_XSP16, literal(-11)))
          CFI (cfiCond307) V10 load(1, XDATA, add(CFA_XSP16, literal(-10)))
          CFI (cfiCond307) V11 load(1, XDATA, add(CFA_XSP16, literal(-9)))
          CFI (cfiCond307) V12 load(1, XDATA, add(CFA_XSP16, literal(-8)))
          CFI (cfiCond307) V13 load(1, XDATA, add(CFA_XSP16, literal(-7)))
          CFI (cfiCond307) R7 load(1, XDATA, add(CFA_XSP16, literal(-6)))
          CFI (cfiCond307) ?RET_LOW load(1, XDATA, add(CFA_XSP16, literal(-5)))
          CFI (cfiCond307) ?RET_HIGH load(1, XDATA, add(CFA_XSP16, literal(-4)))
          CFI (cfiCond307) ?BRET_EXT load(1, XDATA, add(CFA_XSP16, literal(-3)))
          CFI (cfiCond307) DPL0 load(1, XDATA, add(CFA_XSP16, literal(-2)))
          CFI (cfiCond307) DPH0 load(1, XDATA, add(CFA_XSP16, literal(-1)))
          CFI (cfiCond307) CFA_SP SP+-2
          CFI (cfiCond307) CFA_XSP16 add(XSP16, 23)
          CFI Block cfiCond308 Using cfiCommon0
          CFI (cfiCond308) Function ZDP_MgmtNwkDiscRsp
          CFI (cfiCond308) Conditional ??CrossCallReturnLabel_74
          CFI (cfiCond308) R6 load(1, XDATA, add(CFA_XSP16, literal(-22)))
          CFI (cfiCond308) VB load(1, XDATA, add(CFA_XSP16, literal(-21)))
          CFI (cfiCond308) V0 load(1, XDATA, add(CFA_XSP16, literal(-20)))
          CFI (cfiCond308) V1 load(1, XDATA, add(CFA_XSP16, literal(-19)))
          CFI (cfiCond308) V2 load(1, XDATA, add(CFA_XSP16, literal(-18)))
          CFI (cfiCond308) V3 load(1, XDATA, add(CFA_XSP16, literal(-17)))
          CFI (cfiCond308) V4 load(1, XDATA, add(CFA_XSP16, literal(-16)))
          CFI (cfiCond308) V5 load(1, XDATA, add(CFA_XSP16, literal(-15)))
          CFI (cfiCond308) V6 load(1, XDATA, add(CFA_XSP16, literal(-14)))
          CFI (cfiCond308) V7 load(1, XDATA, add(CFA_XSP16, literal(-13)))
          CFI (cfiCond308) V8 load(1, XDATA, add(CFA_XSP16, literal(-12)))
          CFI (cfiCond308) V9 load(1, XDATA, add(CFA_XSP16, literal(-11)))
          CFI (cfiCond308) V10 load(1, XDATA, add(CFA_XSP16, literal(-10)))
          CFI (cfiCond308) V11 load(1, XDATA, add(CFA_XSP16, literal(-9)))
          CFI (cfiCond308) V12 load(1, XDATA, add(CFA_XSP16, literal(-8)))
          CFI (cfiCond308) V13 load(1, XDATA, add(CFA_XSP16, literal(-7)))
          CFI (cfiCond308) R7 load(1, XDATA, add(CFA_XSP16, literal(-6)))
          CFI (cfiCond308) ?RET_LOW load(1, XDATA, add(CFA_XSP16, literal(-5)))
          CFI (cfiCond308) ?RET_HIGH load(1, XDATA, add(CFA_XSP16, literal(-4)))
          CFI (cfiCond308) ?BRET_EXT load(1, XDATA, add(CFA_XSP16, literal(-3)))
          CFI (cfiCond308) DPL0 load(1, XDATA, add(CFA_XSP16, literal(-2)))
          CFI (cfiCond308) DPH0 load(1, XDATA, add(CFA_XSP16, literal(-1)))
          CFI (cfiCond308) CFA_SP SP+-2
          CFI (cfiCond308) CFA_XSP16 add(XSP16, 23)
          CFI Block cfiPicker309 Using cfiCommon1
          CFI (cfiPicker309) NoFunction
          CFI (cfiPicker309) Picker
        MOVX      A,@DPTR
        MOV       ?V2,A
        INC       DPTR
        MOVX      A,@DPTR
        MOV       ?V3,A
        RET
          CFI EndBlock cfiCond306
          CFI EndBlock cfiCond307
          CFI EndBlock cfiCond308
          CFI EndBlock cfiPicker309

        RSEG BANKED_CODE:HUGECODE:NOROOT(0)
?Subroutine43:
          CFI Block cfiCond310 Using cfiCommon0
          CFI Function ZDP_NodeDescMsg
          CFI Conditional ??CrossCallReturnLabel_57
          CFI R6 load(1, XDATA, add(CFA_XSP16, literal(-10)))
          CFI VB load(1, XDATA, add(CFA_XSP16, literal(-9)))
          CFI V0 load(1, XDATA, add(CFA_XSP16, literal(-8)))
          CFI V1 load(1, XDATA, add(CFA_XSP16, literal(-7)))
          CFI R7 load(1, XDATA, add(CFA_XSP16, literal(-6)))
          CFI ?RET_LOW load(1, XDATA, add(CFA_XSP16, literal(-5)))
          CFI ?RET_HIGH load(1, XDATA, add(CFA_XSP16, literal(-4)))
          CFI ?BRET_EXT load(1, XDATA, add(CFA_XSP16, literal(-3)))
          CFI DPL0 load(1, XDATA, add(CFA_XSP16, literal(-2)))
          CFI DPH0 load(1, XDATA, add(CFA_XSP16, literal(-1)))
          CFI CFA_SP SP+-2
          CFI CFA_XSP16 add(XSP16, 10)
          CFI Block cfiCond311 Using cfiCommon0
          CFI (cfiCond311) Function ZDP_NodeDescMsg
          CFI (cfiCond311) Conditional ??CrossCallReturnLabel_58
          CFI (cfiCond311) R6 load(1, XDATA, add(CFA_XSP16, literal(-10)))
          CFI (cfiCond311) VB load(1, XDATA, add(CFA_XSP16, literal(-9)))
          CFI (cfiCond311) V0 load(1, XDATA, add(CFA_XSP16, literal(-8)))
          CFI (cfiCond311) V1 load(1, XDATA, add(CFA_XSP16, literal(-7)))
          CFI (cfiCond311) R7 load(1, XDATA, add(CFA_XSP16, literal(-6)))
          CFI (cfiCond311) ?RET_LOW load(1, XDATA, add(CFA_XSP16, literal(-5)))
          CFI (cfiCond311) ?RET_HIGH load(1, XDATA, add(CFA_XSP16, literal(-4)))
          CFI (cfiCond311) ?BRET_EXT load(1, XDATA, add(CFA_XSP16, literal(-3)))
          CFI (cfiCond311) DPL0 load(1, XDATA, add(CFA_XSP16, literal(-2)))
          CFI (cfiCond311) DPH0 load(1, XDATA, add(CFA_XSP16, literal(-1)))
          CFI (cfiCond311) CFA_SP SP+-2
          CFI (cfiCond311) CFA_XSP16 add(XSP16, 10)
          CFI Block cfiCond312 Using cfiCommon0
          CFI (cfiCond312) Function ZDP_NodeDescMsg
          CFI (cfiCond312) Conditional ??CrossCallReturnLabel_59
          CFI (cfiCond312) R6 load(1, XDATA, add(CFA_XSP16, literal(-10)))
          CFI (cfiCond312) VB load(1, XDATA, add(CFA_XSP16, literal(-9)))
          CFI (cfiCond312) V0 load(1, XDATA, add(CFA_XSP16, literal(-8)))
          CFI (cfiCond312) V1 load(1, XDATA, add(CFA_XSP16, literal(-7)))
          CFI (cfiCond312) R7 load(1, XDATA, add(CFA_XSP16, literal(-6)))
          CFI (cfiCond312) ?RET_LOW load(1, XDATA, add(CFA_XSP16, literal(-5)))
          CFI (cfiCond312) ?RET_HIGH load(1, XDATA, add(CFA_XSP16, literal(-4)))
          CFI (cfiCond312) ?BRET_EXT load(1, XDATA, add(CFA_XSP16, literal(-3)))
          CFI (cfiCond312) DPL0 load(1, XDATA, add(CFA_XSP16, literal(-2)))
          CFI (cfiCond312) DPH0 load(1, XDATA, add(CFA_XSP16, literal(-1)))
          CFI (cfiCond312) CFA_SP SP+-2
          CFI (cfiCond312) CFA_XSP16 add(XSP16, 10)
          CFI Block cfiCond313 Using cfiCommon0
          CFI (cfiCond313) Function ZDP_MgmtNwkDiscRsp
          CFI (cfiCond313) Conditional ??CrossCallReturnLabel_60
          CFI (cfiCond313) R6 load(1, XDATA, add(CFA_XSP16, literal(-22)))
          CFI (cfiCond313) VB load(1, XDATA, add(CFA_XSP16, literal(-21)))
          CFI (cfiCond313) V0 load(1, XDATA, add(CFA_XSP16, literal(-20)))
          CFI (cfiCond313) V1 load(1, XDATA, add(CFA_XSP16, literal(-19)))
          CFI (cfiCond313) V2 load(1, XDATA, add(CFA_XSP16, literal(-18)))
          CFI (cfiCond313) V3 load(1, XDATA, add(CFA_XSP16, literal(-17)))
          CFI (cfiCond313) V4 load(1, XDATA, add(CFA_XSP16, literal(-16)))
          CFI (cfiCond313) V5 load(1, XDATA, add(CFA_XSP16, literal(-15)))
          CFI (cfiCond313) V6 load(1, XDATA, add(CFA_XSP16, literal(-14)))
          CFI (cfiCond313) V7 load(1, XDATA, add(CFA_XSP16, literal(-13)))
          CFI (cfiCond313) V8 load(1, XDATA, add(CFA_XSP16, literal(-12)))
          CFI (cfiCond313) V9 load(1, XDATA, add(CFA_XSP16, literal(-11)))
          CFI (cfiCond313) V10 load(1, XDATA, add(CFA_XSP16, literal(-10)))
          CFI (cfiCond313) V11 load(1, XDATA, add(CFA_XSP16, literal(-9)))
          CFI (cfiCond313) V12 load(1, XDATA, add(CFA_XSP16, literal(-8)))
          CFI (cfiCond313) V13 load(1, XDATA, add(CFA_XSP16, literal(-7)))
          CFI (cfiCond313) R7 load(1, XDATA, add(CFA_XSP16, literal(-6)))
          CFI (cfiCond313) ?RET_LOW load(1, XDATA, add(CFA_XSP16, literal(-5)))
          CFI (cfiCond313) ?RET_HIGH load(1, XDATA, add(CFA_XSP16, literal(-4)))
          CFI (cfiCond313) ?BRET_EXT load(1, XDATA, add(CFA_XSP16, literal(-3)))
          CFI (cfiCond313) DPL0 load(1, XDATA, add(CFA_XSP16, literal(-2)))
          CFI (cfiCond313) DPH0 load(1, XDATA, add(CFA_XSP16, literal(-1)))
          CFI (cfiCond313) CFA_SP SP+-2
          CFI (cfiCond313) CFA_XSP16 add(XSP16, 23)
          CFI Block cfiCond314 Using cfiCommon0
          CFI (cfiCond314) Function ZDP_MgmtNwkDiscRsp
          CFI (cfiCond314) Conditional ??CrossCallReturnLabel_61
          CFI (cfiCond314) R6 load(1, XDATA, add(CFA_XSP16, literal(-22)))
          CFI (cfiCond314) VB load(1, XDATA, add(CFA_XSP16, literal(-21)))
          CFI (cfiCond314) V0 load(1, XDATA, add(CFA_XSP16, literal(-20)))
          CFI (cfiCond314) V1 load(1, XDATA, add(CFA_XSP16, literal(-19)))
          CFI (cfiCond314) V2 load(1, XDATA, add(CFA_XSP16, literal(-18)))
          CFI (cfiCond314) V3 load(1, XDATA, add(CFA_XSP16, literal(-17)))
          CFI (cfiCond314) V4 load(1, XDATA, add(CFA_XSP16, literal(-16)))
          CFI (cfiCond314) V5 load(1, XDATA, add(CFA_XSP16, literal(-15)))
          CFI (cfiCond314) V6 load(1, XDATA, add(CFA_XSP16, literal(-14)))
          CFI (cfiCond314) V7 load(1, XDATA, add(CFA_XSP16, literal(-13)))
          CFI (cfiCond314) V8 load(1, XDATA, add(CFA_XSP16, literal(-12)))
          CFI (cfiCond314) V9 load(1, XDATA, add(CFA_XSP16, literal(-11)))
          CFI (cfiCond314) V10 load(1, XDATA, add(CFA_XSP16, literal(-10)))
          CFI (cfiCond314) V11 load(1, XDATA, add(CFA_XSP16, literal(-9)))
          CFI (cfiCond314) V12 load(1, XDATA, add(CFA_XSP16, literal(-8)))
          CFI (cfiCond314) V13 load(1, XDATA, add(CFA_XSP16, literal(-7)))
          CFI (cfiCond314) R7 load(1, XDATA, add(CFA_XSP16, literal(-6)))
          CFI (cfiCond314) ?RET_LOW load(1, XDATA, add(CFA_XSP16, literal(-5)))
          CFI (cfiCond314) ?RET_HIGH load(1, XDATA, add(CFA_XSP16, literal(-4)))
          CFI (cfiCond314) ?BRET_EXT load(1, XDATA, add(CFA_XSP16, literal(-3)))
          CFI (cfiCond314) DPL0 load(1, XDATA, add(CFA_XSP16, literal(-2)))
          CFI (cfiCond314) DPH0 load(1, XDATA, add(CFA_XSP16, literal(-1)))
          CFI (cfiCond314) CFA_SP SP+-2
          CFI (cfiCond314) CFA_XSP16 add(XSP16, 23)
          CFI Block cfiPicker315 Using cfiCommon1
          CFI (cfiPicker315) NoFunction
          CFI (cfiPicker315) Picker
        LCALL     ??Subroutine111_0 & 0xFFFF
??CrossCallReturnLabel_203:
        INC       DPTR
        RET
          CFI EndBlock cfiCond310
          CFI EndBlock cfiCond311
          CFI EndBlock cfiCond312
          CFI EndBlock cfiCond313
          CFI EndBlock cfiCond314
          CFI EndBlock cfiPicker315

        RSEG BANKED_CODE:HUGECODE:NOROOT(0)
?Subroutine77:
          CFI Block cfiCond316 Using cfiCommon0
          CFI Function ZDP_NodeDescMsg
          CFI Conditional ??CrossCallReturnLabel_204
          CFI R6 load(1, XDATA, add(CFA_XSP16, literal(-10)))
          CFI VB load(1, XDATA, add(CFA_XSP16, literal(-9)))
          CFI V0 load(1, XDATA, add(CFA_XSP16, literal(-8)))
          CFI V1 load(1, XDATA, add(CFA_XSP16, literal(-7)))
          CFI R7 load(1, XDATA, add(CFA_XSP16, literal(-6)))
          CFI ?RET_LOW load(1, XDATA, add(CFA_XSP16, literal(-5)))
          CFI ?RET_HIGH load(1, XDATA, add(CFA_XSP16, literal(-4)))
          CFI ?BRET_EXT load(1, XDATA, add(CFA_XSP16, literal(-3)))
          CFI DPL0 load(1, XDATA, add(CFA_XSP16, literal(-2)))
          CFI DPH0 load(1, XDATA, add(CFA_XSP16, literal(-1)))
          CFI CFA_SP SP+-2
          CFI CFA_XSP16 add(XSP16, 10)
          CFI Block cfiCond317 Using cfiCommon0
          CFI (cfiCond317) Function ZDP_NodeDescMsg
          CFI (cfiCond317) Conditional ??CrossCallReturnLabel_205
          CFI (cfiCond317) R6 load(1, XDATA, add(CFA_XSP16, literal(-10)))
          CFI (cfiCond317) VB load(1, XDATA, add(CFA_XSP16, literal(-9)))
          CFI (cfiCond317) V0 load(1, XDATA, add(CFA_XSP16, literal(-8)))
          CFI (cfiCond317) V1 load(1, XDATA, add(CFA_XSP16, literal(-7)))
          CFI (cfiCond317) R7 load(1, XDATA, add(CFA_XSP16, literal(-6)))
          CFI (cfiCond317) ?RET_LOW load(1, XDATA, add(CFA_XSP16, literal(-5)))
          CFI (cfiCond317) ?RET_HIGH load(1, XDATA, add(CFA_XSP16, literal(-4)))
          CFI (cfiCond317) ?BRET_EXT load(1, XDATA, add(CFA_XSP16, literal(-3)))
          CFI (cfiCond317) DPL0 load(1, XDATA, add(CFA_XSP16, literal(-2)))
          CFI (cfiCond317) DPH0 load(1, XDATA, add(CFA_XSP16, literal(-1)))
          CFI (cfiCond317) CFA_SP SP+-2
          CFI (cfiCond317) CFA_XSP16 add(XSP16, 10)
          CFI Block cfiPicker318 Using cfiCommon1
          CFI (cfiPicker318) NoFunction
          CFI (cfiPicker318) Picker
        INC       DPTR
          CFI EndBlock cfiCond316
          CFI EndBlock cfiCond317
          CFI EndBlock cfiPicker318
        REQUIRE ??Subroutine111_0
        ; // Fall through to label ??Subroutine111_0

        RSEG BANKED_CODE:HUGECODE:NOROOT(0)
??Subroutine111_0:
          CFI Block cfiCond319 Using cfiCommon0
          CFI Function ZDP_NodeDescMsg
          CFI Conditional ??CrossCallReturnLabel_202, ??CrossCallReturnLabel_55
          CFI R6 load(1, XDATA, add(CFA_XSP16, literal(-10)))
          CFI VB load(1, XDATA, add(CFA_XSP16, literal(-9)))
          CFI V0 load(1, XDATA, add(CFA_XSP16, literal(-8)))
          CFI V1 load(1, XDATA, add(CFA_XSP16, literal(-7)))
          CFI R7 load(1, XDATA, add(CFA_XSP16, literal(-6)))
          CFI ?RET_LOW load(1, XDATA, add(CFA_XSP16, literal(-5)))
          CFI ?RET_HIGH load(1, XDATA, add(CFA_XSP16, literal(-4)))
          CFI ?BRET_EXT load(1, XDATA, add(CFA_XSP16, literal(-3)))
          CFI DPL0 load(1, XDATA, add(CFA_XSP16, literal(-2)))
          CFI DPH0 load(1, XDATA, add(CFA_XSP16, literal(-1)))
          CFI CFA_SP SP+-4
          CFI CFA_XSP16 add(XSP16, 10)
          CFI Block cfiCond320 Using cfiCommon0
          CFI (cfiCond320) Function ZDP_NodeDescMsg
          CFI (cfiCond320) Conditional ??CrossCallReturnLabel_202, ??CrossCallReturnLabel_56
          CFI (cfiCond320) R6 load(1, XDATA, add(CFA_XSP16, literal(-10)))
          CFI (cfiCond320) VB load(1, XDATA, add(CFA_XSP16, literal(-9)))
          CFI (cfiCond320) V0 load(1, XDATA, add(CFA_XSP16, literal(-8)))
          CFI (cfiCond320) V1 load(1, XDATA, add(CFA_XSP16, literal(-7)))
          CFI (cfiCond320) R7 load(1, XDATA, add(CFA_XSP16, literal(-6)))
          CFI (cfiCond320) ?RET_LOW load(1, XDATA, add(CFA_XSP16, literal(-5)))
          CFI (cfiCond320) ?RET_HIGH load(1, XDATA, add(CFA_XSP16, literal(-4)))
          CFI (cfiCond320) ?BRET_EXT load(1, XDATA, add(CFA_XSP16, literal(-3)))
          CFI (cfiCond320) DPL0 load(1, XDATA, add(CFA_XSP16, literal(-2)))
          CFI (cfiCond320) DPH0 load(1, XDATA, add(CFA_XSP16, literal(-1)))
          CFI (cfiCond320) CFA_SP SP+-4
          CFI (cfiCond320) CFA_XSP16 add(XSP16, 10)
          CFI Block cfiCond321 Using cfiCommon0
          CFI (cfiCond321) Function ZDP_NodeDescMsg
          CFI (cfiCond321) Conditional ??CrossCallReturnLabel_203, ??CrossCallReturnLabel_57
          CFI (cfiCond321) R6 load(1, XDATA, add(CFA_XSP16, literal(-10)))
          CFI (cfiCond321) VB load(1, XDATA, add(CFA_XSP16, literal(-9)))
          CFI (cfiCond321) V0 load(1, XDATA, add(CFA_XSP16, literal(-8)))
          CFI (cfiCond321) V1 load(1, XDATA, add(CFA_XSP16, literal(-7)))
          CFI (cfiCond321) R7 load(1, XDATA, add(CFA_XSP16, literal(-6)))
          CFI (cfiCond321) ?RET_LOW load(1, XDATA, add(CFA_XSP16, literal(-5)))
          CFI (cfiCond321) ?RET_HIGH load(1, XDATA, add(CFA_XSP16, literal(-4)))
          CFI (cfiCond321) ?BRET_EXT load(1, XDATA, add(CFA_XSP16, literal(-3)))
          CFI (cfiCond321) DPL0 load(1, XDATA, add(CFA_XSP16, literal(-2)))
          CFI (cfiCond321) DPH0 load(1, XDATA, add(CFA_XSP16, literal(-1)))
          CFI (cfiCond321) CFA_SP SP+-4
          CFI (cfiCond321) CFA_XSP16 add(XSP16, 10)
          CFI Block cfiCond322 Using cfiCommon0
          CFI (cfiCond322) Function ZDP_NodeDescMsg
          CFI (cfiCond322) Conditional ??CrossCallReturnLabel_203, ??CrossCallReturnLabel_58
          CFI (cfiCond322) R6 load(1, XDATA, add(CFA_XSP16, literal(-10)))
          CFI (cfiCond322) VB load(1, XDATA, add(CFA_XSP16, literal(-9)))
          CFI (cfiCond322) V0 load(1, XDATA, add(CFA_XSP16, literal(-8)))
          CFI (cfiCond322) V1 load(1, XDATA, add(CFA_XSP16, literal(-7)))
          CFI (cfiCond322) R7 load(1, XDATA, add(CFA_XSP16, literal(-6)))
          CFI (cfiCond322) ?RET_LOW load(1, XDATA, add(CFA_XSP16, literal(-5)))
          CFI (cfiCond322) ?RET_HIGH load(1, XDATA, add(CFA_XSP16, literal(-4)))
          CFI (cfiCond322) ?BRET_EXT load(1, XDATA, add(CFA_XSP16, literal(-3)))
          CFI (cfiCond322) DPL0 load(1, XDATA, add(CFA_XSP16, literal(-2)))
          CFI (cfiCond322) DPH0 load(1, XDATA, add(CFA_XSP16, literal(-1)))
          CFI (cfiCond322) CFA_SP SP+-4
          CFI (cfiCond322) CFA_XSP16 add(XSP16, 10)
          CFI Block cfiCond323 Using cfiCommon0
          CFI (cfiCond323) Function ZDP_NodeDescMsg
          CFI (cfiCond323) Conditional ??CrossCallReturnLabel_203, ??CrossCallReturnLabel_59
          CFI (cfiCond323) R6 load(1, XDATA, add(CFA_XSP16, literal(-10)))
          CFI (cfiCond323) VB load(1, XDATA, add(CFA_XSP16, literal(-9)))
          CFI (cfiCond323) V0 load(1, XDATA, add(CFA_XSP16, literal(-8)))
          CFI (cfiCond323) V1 load(1, XDATA, add(CFA_XSP16, literal(-7)))
          CFI (cfiCond323) R7 load(1, XDATA, add(CFA_XSP16, literal(-6)))
          CFI (cfiCond323) ?RET_LOW load(1, XDATA, add(CFA_XSP16, literal(-5)))
          CFI (cfiCond323) ?RET_HIGH load(1, XDATA, add(CFA_XSP16, literal(-4)))
          CFI (cfiCond323) ?BRET_EXT load(1, XDATA, add(CFA_XSP16, literal(-3)))
          CFI (cfiCond323) DPL0 load(1, XDATA, add(CFA_XSP16, literal(-2)))
          CFI (cfiCond323) DPH0 load(1, XDATA, add(CFA_XSP16, literal(-1)))
          CFI (cfiCond323) CFA_SP SP+-4
          CFI (cfiCond323) CFA_XSP16 add(XSP16, 10)
          CFI Block cfiCond324 Using cfiCommon0
          CFI (cfiCond324) Function ZDP_MgmtNwkDiscRsp
          CFI (cfiCond324) Conditional ??CrossCallReturnLabel_203, ??CrossCallReturnLabel_60
          CFI (cfiCond324) R6 load(1, XDATA, add(CFA_XSP16, literal(-22)))
          CFI (cfiCond324) VB load(1, XDATA, add(CFA_XSP16, literal(-21)))
          CFI (cfiCond324) V0 load(1, XDATA, add(CFA_XSP16, literal(-20)))
          CFI (cfiCond324) V1 load(1, XDATA, add(CFA_XSP16, literal(-19)))
          CFI (cfiCond324) V2 load(1, XDATA, add(CFA_XSP16, literal(-18)))
          CFI (cfiCond324) V3 load(1, XDATA, add(CFA_XSP16, literal(-17)))
          CFI (cfiCond324) V4 load(1, XDATA, add(CFA_XSP16, literal(-16)))
          CFI (cfiCond324) V5 load(1, XDATA, add(CFA_XSP16, literal(-15)))
          CFI (cfiCond324) V6 load(1, XDATA, add(CFA_XSP16, literal(-14)))
          CFI (cfiCond324) V7 load(1, XDATA, add(CFA_XSP16, literal(-13)))
          CFI (cfiCond324) V8 load(1, XDATA, add(CFA_XSP16, literal(-12)))
          CFI (cfiCond324) V9 load(1, XDATA, add(CFA_XSP16, literal(-11)))
          CFI (cfiCond324) V10 load(1, XDATA, add(CFA_XSP16, literal(-10)))
          CFI (cfiCond324) V11 load(1, XDATA, add(CFA_XSP16, literal(-9)))
          CFI (cfiCond324) V12 load(1, XDATA, add(CFA_XSP16, literal(-8)))
          CFI (cfiCond324) V13 load(1, XDATA, add(CFA_XSP16, literal(-7)))
          CFI (cfiCond324) R7 load(1, XDATA, add(CFA_XSP16, literal(-6)))
          CFI (cfiCond324) ?RET_LOW load(1, XDATA, add(CFA_XSP16, literal(-5)))
          CFI (cfiCond324) ?RET_HIGH load(1, XDATA, add(CFA_XSP16, literal(-4)))
          CFI (cfiCond324) ?BRET_EXT load(1, XDATA, add(CFA_XSP16, literal(-3)))
          CFI (cfiCond324) DPL0 load(1, XDATA, add(CFA_XSP16, literal(-2)))
          CFI (cfiCond324) DPH0 load(1, XDATA, add(CFA_XSP16, literal(-1)))
          CFI (cfiCond324) CFA_SP SP+-4
          CFI (cfiCond324) CFA_XSP16 add(XSP16, 23)
          CFI Block cfiCond325 Using cfiCommon0
          CFI (cfiCond325) Function ZDP_MgmtNwkDiscRsp
          CFI (cfiCond325) Conditional ??CrossCallReturnLabel_203, ??CrossCallReturnLabel_61
          CFI (cfiCond325) R6 load(1, XDATA, add(CFA_XSP16, literal(-22)))
          CFI (cfiCond325) VB load(1, XDATA, add(CFA_XSP16, literal(-21)))
          CFI (cfiCond325) V0 load(1, XDATA, add(CFA_XSP16, literal(-20)))
          CFI (cfiCond325) V1 load(1, XDATA, add(CFA_XSP16, literal(-19)))
          CFI (cfiCond325) V2 load(1, XDATA, add(CFA_XSP16, literal(-18)))
          CFI (cfiCond325) V3 load(1, XDATA, add(CFA_XSP16, literal(-17)))
          CFI (cfiCond325) V4 load(1, XDATA, add(CFA_XSP16, literal(-16)))
          CFI (cfiCond325) V5 load(1, XDATA, add(CFA_XSP16, literal(-15)))
          CFI (cfiCond325) V6 load(1, XDATA, add(CFA_XSP16, literal(-14)))
          CFI (cfiCond325) V7 load(1, XDATA, add(CFA_XSP16, literal(-13)))
          CFI (cfiCond325) V8 load(1, XDATA, add(CFA_XSP16, literal(-12)))
          CFI (cfiCond325) V9 load(1, XDATA, add(CFA_XSP16, literal(-11)))
          CFI (cfiCond325) V10 load(1, XDATA, add(CFA_XSP16, literal(-10)))
          CFI (cfiCond325) V11 load(1, XDATA, add(CFA_XSP16, literal(-9)))
          CFI (cfiCond325) V12 load(1, XDATA, add(CFA_XSP16, literal(-8)))
          CFI (cfiCond325) V13 load(1, XDATA, add(CFA_XSP16, literal(-7)))
          CFI (cfiCond325) R7 load(1, XDATA, add(CFA_XSP16, literal(-6)))
          CFI (cfiCond325) ?RET_LOW load(1, XDATA, add(CFA_XSP16, literal(-5)))
          CFI (cfiCond325) ?RET_HIGH load(1, XDATA, add(CFA_XSP16, literal(-4)))
          CFI (cfiCond325) ?BRET_EXT load(1, XDATA, add(CFA_XSP16, literal(-3)))
          CFI (cfiCond325) DPL0 load(1, XDATA, add(CFA_XSP16, literal(-2)))
          CFI (cfiCond325) DPH0 load(1, XDATA, add(CFA_XSP16, literal(-1)))
          CFI (cfiCond325) CFA_SP SP+-4
          CFI (cfiCond325) CFA_XSP16 add(XSP16, 23)
          CFI Block cfiCond326 Using cfiCommon0
          CFI (cfiCond326) Function ZDP_NodeDescMsg
          CFI (cfiCond326) Conditional ??CrossCallReturnLabel_204
          CFI (cfiCond326) R6 load(1, XDATA, add(CFA_XSP16, literal(-10)))
          CFI (cfiCond326) VB load(1, XDATA, add(CFA_XSP16, literal(-9)))
          CFI (cfiCond326) V0 load(1, XDATA, add(CFA_XSP16, literal(-8)))
          CFI (cfiCond326) V1 load(1, XDATA, add(CFA_XSP16, literal(-7)))
          CFI (cfiCond326) R7 load(1, XDATA, add(CFA_XSP16, literal(-6)))
          CFI (cfiCond326) ?RET_LOW load(1, XDATA, add(CFA_XSP16, literal(-5)))
          CFI (cfiCond326) ?RET_HIGH load(1, XDATA, add(CFA_XSP16, literal(-4)))
          CFI (cfiCond326) ?BRET_EXT load(1, XDATA, add(CFA_XSP16, literal(-3)))
          CFI (cfiCond326) DPL0 load(1, XDATA, add(CFA_XSP16, literal(-2)))
          CFI (cfiCond326) DPH0 load(1, XDATA, add(CFA_XSP16, literal(-1)))
          CFI (cfiCond326) CFA_SP SP+-2
          CFI (cfiCond326) CFA_XSP16 add(XSP16, 10)
          CFI Block cfiCond327 Using cfiCommon0
          CFI (cfiCond327) Function ZDP_NodeDescMsg
          CFI (cfiCond327) Conditional ??CrossCallReturnLabel_205
          CFI (cfiCond327) R6 load(1, XDATA, add(CFA_XSP16, literal(-10)))
          CFI (cfiCond327) VB load(1, XDATA, add(CFA_XSP16, literal(-9)))
          CFI (cfiCond327) V0 load(1, XDATA, add(CFA_XSP16, literal(-8)))
          CFI (cfiCond327) V1 load(1, XDATA, add(CFA_XSP16, literal(-7)))
          CFI (cfiCond327) R7 load(1, XDATA, add(CFA_XSP16, literal(-6)))
          CFI (cfiCond327) ?RET_LOW load(1, XDATA, add(CFA_XSP16, literal(-5)))
          CFI (cfiCond327) ?RET_HIGH load(1, XDATA, add(CFA_XSP16, literal(-4)))
          CFI (cfiCond327) ?BRET_EXT load(1, XDATA, add(CFA_XSP16, literal(-3)))
          CFI (cfiCond327) DPL0 load(1, XDATA, add(CFA_XSP16, literal(-2)))
          CFI (cfiCond327) DPH0 load(1, XDATA, add(CFA_XSP16, literal(-1)))
          CFI (cfiCond327) CFA_SP SP+-2
          CFI (cfiCond327) CFA_XSP16 add(XSP16, 10)
          CFI Block cfiPicker328 Using cfiCommon1
          CFI (cfiPicker328) NoFunction
          CFI (cfiPicker328) Picker
        MOVX      A,@DPTR
        MOV       DPL,R6
        MOV       DPH,R7
        RET
          CFI EndBlock cfiCond319
          CFI EndBlock cfiCond320
          CFI EndBlock cfiCond321
          CFI EndBlock cfiCond322
          CFI EndBlock cfiCond323
          CFI EndBlock cfiCond324
          CFI EndBlock cfiCond325
          CFI EndBlock cfiCond326
          CFI EndBlock cfiCond327
          CFI EndBlock cfiPicker328

        RSEG BANKED_CODE:HUGECODE:NOROOT(0)
?Subroutine30:
          CFI Block cfiCond329 Using cfiCommon0
          CFI Function ZDP_UserDescSet
          CFI Conditional ??CrossCallReturnLabel_40
          CFI R6 load(1, XDATA, add(CFA_XSP16, literal(-15)))
          CFI VB load(1, XDATA, add(CFA_XSP16, literal(-14)))
          CFI V0 load(1, XDATA, add(CFA_XSP16, literal(-13)))
          CFI V1 load(1, XDATA, add(CFA_XSP16, literal(-12)))
          CFI V2 load(1, XDATA, add(CFA_XSP16, literal(-11)))
          CFI V3 load(1, XDATA, add(CFA_XSP16, literal(-10)))
          CFI V4 load(1, XDATA, add(CFA_XSP16, literal(-9)))
          CFI V5 load(1, XDATA, add(CFA_XSP16, literal(-8)))
          CFI V6 load(1, XDATA, add(CFA_XSP16, literal(-7)))
          CFI R7 load(1, XDATA, add(CFA_XSP16, literal(-6)))
          CFI ?RET_LOW load(1, XDATA, add(CFA_XSP16, literal(-5)))
          CFI ?RET_HIGH load(1, XDATA, add(CFA_XSP16, literal(-4)))
          CFI ?BRET_EXT load(1, XDATA, add(CFA_XSP16, literal(-3)))
          CFI DPL0 load(1, XDATA, add(CFA_XSP16, literal(-2)))
          CFI DPH0 load(1, XDATA, add(CFA_XSP16, literal(-1)))
          CFI CFA_SP SP+-2
          CFI CFA_XSP16 add(XSP16, 15)
          CFI Block cfiCond330 Using cfiCommon0
          CFI (cfiCond330) Function ZDP_MgmtNwkDiscRsp
          CFI (cfiCond330) Conditional ??CrossCallReturnLabel_41
          CFI (cfiCond330) R6 load(1, XDATA, add(CFA_XSP16, literal(-22)))
          CFI (cfiCond330) VB load(1, XDATA, add(CFA_XSP16, literal(-21)))
          CFI (cfiCond330) V0 load(1, XDATA, add(CFA_XSP16, literal(-20)))
          CFI (cfiCond330) V1 load(1, XDATA, add(CFA_XSP16, literal(-19)))
          CFI (cfiCond330) V2 load(1, XDATA, add(CFA_XSP16, literal(-18)))
          CFI (cfiCond330) V3 load(1, XDATA, add(CFA_XSP16, literal(-17)))
          CFI (cfiCond330) V4 load(1, XDATA, add(CFA_XSP16, literal(-16)))
          CFI (cfiCond330) V5 load(1, XDATA, add(CFA_XSP16, literal(-15)))
          CFI (cfiCond330) V6 load(1, XDATA, add(CFA_XSP16, literal(-14)))
          CFI (cfiCond330) V7 load(1, XDATA, add(CFA_XSP16, literal(-13)))
          CFI (cfiCond330) V8 load(1, XDATA, add(CFA_XSP16, literal(-12)))
          CFI (cfiCond330) V9 load(1, XDATA, add(CFA_XSP16, literal(-11)))
          CFI (cfiCond330) V10 load(1, XDATA, add(CFA_XSP16, literal(-10)))
          CFI (cfiCond330) V11 load(1, XDATA, add(CFA_XSP16, literal(-9)))
          CFI (cfiCond330) V12 load(1, XDATA, add(CFA_XSP16, literal(-8)))
          CFI (cfiCond330) V13 load(1, XDATA, add(CFA_XSP16, literal(-7)))
          CFI (cfiCond330) R7 load(1, XDATA, add(CFA_XSP16, literal(-6)))
          CFI (cfiCond330) ?RET_LOW load(1, XDATA, add(CFA_XSP16, literal(-5)))
          CFI (cfiCond330) ?RET_HIGH load(1, XDATA, add(CFA_XSP16, literal(-4)))
          CFI (cfiCond330) ?BRET_EXT load(1, XDATA, add(CFA_XSP16, literal(-3)))
          CFI (cfiCond330) DPL0 load(1, XDATA, add(CFA_XSP16, literal(-2)))
          CFI (cfiCond330) DPH0 load(1, XDATA, add(CFA_XSP16, literal(-1)))
          CFI (cfiCond330) CFA_SP SP+-2
          CFI (cfiCond330) CFA_XSP16 add(XSP16, 23)
          CFI Block cfiPicker331 Using cfiCommon1
          CFI (cfiPicker331) NoFunction
          CFI (cfiPicker331) Picker
        LCALL     ?Subroutine84 & 0xFFFF
??CrossCallReturnLabel_130:
        INC       DPTR
        RET
          CFI EndBlock cfiCond329
          CFI EndBlock cfiCond330
          CFI EndBlock cfiPicker331

        RSEG BANKED_CODE:HUGECODE:NOROOT(0)
?Subroutine84:
          CFI Block cfiCond332 Using cfiCommon0
          CFI Function ZDP_SimpleDescMsg
          CFI Conditional ??CrossCallReturnLabel_129, ??CrossCallReturnLabel_4
          CFI R6 load(1, XDATA, add(CFA_XSP16, literal(-20)))
          CFI VB load(1, XDATA, add(CFA_XSP16, literal(-19)))
          CFI V0 load(1, XDATA, add(CFA_XSP16, literal(-18)))
          CFI V1 load(1, XDATA, add(CFA_XSP16, literal(-17)))
          CFI V2 load(1, XDATA, add(CFA_XSP16, literal(-16)))
          CFI V3 load(1, XDATA, add(CFA_XSP16, literal(-15)))
          CFI V4 load(1, XDATA, add(CFA_XSP16, literal(-14)))
          CFI V5 load(1, XDATA, add(CFA_XSP16, literal(-13)))
          CFI V6 load(1, XDATA, add(CFA_XSP16, literal(-12)))
          CFI V7 load(1, XDATA, add(CFA_XSP16, literal(-11)))
          CFI V8 load(1, XDATA, add(CFA_XSP16, literal(-10)))
          CFI V9 load(1, XDATA, add(CFA_XSP16, literal(-9)))
          CFI V10 load(1, XDATA, add(CFA_XSP16, literal(-8)))
          CFI V11 load(1, XDATA, add(CFA_XSP16, literal(-7)))
          CFI R7 load(1, XDATA, add(CFA_XSP16, literal(-6)))
          CFI ?RET_LOW load(1, XDATA, add(CFA_XSP16, literal(-5)))
          CFI ?RET_HIGH load(1, XDATA, add(CFA_XSP16, literal(-4)))
          CFI ?BRET_EXT load(1, XDATA, add(CFA_XSP16, literal(-3)))
          CFI DPL0 load(1, XDATA, add(CFA_XSP16, literal(-2)))
          CFI DPH0 load(1, XDATA, add(CFA_XSP16, literal(-1)))
          CFI CFA_SP SP+-4
          CFI CFA_XSP16 add(XSP16, 20)
          CFI Block cfiCond333 Using cfiCommon0
          CFI (cfiCond333) Function ZDP_SimpleDescMsg
          CFI (cfiCond333) Conditional ??CrossCallReturnLabel_129, ??CrossCallReturnLabel_5
          CFI (cfiCond333) R6 load(1, XDATA, add(CFA_XSP16, literal(-20)))
          CFI (cfiCond333) VB load(1, XDATA, add(CFA_XSP16, literal(-19)))
          CFI (cfiCond333) V0 load(1, XDATA, add(CFA_XSP16, literal(-18)))
          CFI (cfiCond333) V1 load(1, XDATA, add(CFA_XSP16, literal(-17)))
          CFI (cfiCond333) V2 load(1, XDATA, add(CFA_XSP16, literal(-16)))
          CFI (cfiCond333) V3 load(1, XDATA, add(CFA_XSP16, literal(-15)))
          CFI (cfiCond333) V4 load(1, XDATA, add(CFA_XSP16, literal(-14)))
          CFI (cfiCond333) V5 load(1, XDATA, add(CFA_XSP16, literal(-13)))
          CFI (cfiCond333) V6 load(1, XDATA, add(CFA_XSP16, literal(-12)))
          CFI (cfiCond333) V7 load(1, XDATA, add(CFA_XSP16, literal(-11)))
          CFI (cfiCond333) V8 load(1, XDATA, add(CFA_XSP16, literal(-10)))
          CFI (cfiCond333) V9 load(1, XDATA, add(CFA_XSP16, literal(-9)))
          CFI (cfiCond333) V10 load(1, XDATA, add(CFA_XSP16, literal(-8)))
          CFI (cfiCond333) V11 load(1, XDATA, add(CFA_XSP16, literal(-7)))
          CFI (cfiCond333) R7 load(1, XDATA, add(CFA_XSP16, literal(-6)))
          CFI (cfiCond333) ?RET_LOW load(1, XDATA, add(CFA_XSP16, literal(-5)))
          CFI (cfiCond333) ?RET_HIGH load(1, XDATA, add(CFA_XSP16, literal(-4)))
          CFI (cfiCond333) ?BRET_EXT load(1, XDATA, add(CFA_XSP16, literal(-3)))
          CFI (cfiCond333) DPL0 load(1, XDATA, add(CFA_XSP16, literal(-2)))
          CFI (cfiCond333) DPH0 load(1, XDATA, add(CFA_XSP16, literal(-1)))
          CFI (cfiCond333) CFA_SP SP+-4
          CFI (cfiCond333) CFA_XSP16 add(XSP16, 20)
          CFI Block cfiCond334 Using cfiCommon0
          CFI (cfiCond334) Function ZDP_UserDescSet
          CFI (cfiCond334) Conditional ??CrossCallReturnLabel_130, ??CrossCallReturnLabel_40
          CFI (cfiCond334) R6 load(1, XDATA, add(CFA_XSP16, literal(-15)))
          CFI (cfiCond334) VB load(1, XDATA, add(CFA_XSP16, literal(-14)))
          CFI (cfiCond334) V0 load(1, XDATA, add(CFA_XSP16, literal(-13)))
          CFI (cfiCond334) V1 load(1, XDATA, add(CFA_XSP16, literal(-12)))
          CFI (cfiCond334) V2 load(1, XDATA, add(CFA_XSP16, literal(-11)))
          CFI (cfiCond334) V3 load(1, XDATA, add(CFA_XSP16, literal(-10)))
          CFI (cfiCond334) V4 load(1, XDATA, add(CFA_XSP16, literal(-9)))
          CFI (cfiCond334) V5 load(1, XDATA, add(CFA_XSP16, literal(-8)))
          CFI (cfiCond334) V6 load(1, XDATA, add(CFA_XSP16, literal(-7)))
          CFI (cfiCond334) R7 load(1, XDATA, add(CFA_XSP16, literal(-6)))
          CFI (cfiCond334) ?RET_LOW load(1, XDATA, add(CFA_XSP16, literal(-5)))
          CFI (cfiCond334) ?RET_HIGH load(1, XDATA, add(CFA_XSP16, literal(-4)))
          CFI (cfiCond334) ?BRET_EXT load(1, XDATA, add(CFA_XSP16, literal(-3)))
          CFI (cfiCond334) DPL0 load(1, XDATA, add(CFA_XSP16, literal(-2)))
          CFI (cfiCond334) DPH0 load(1, XDATA, add(CFA_XSP16, literal(-1)))
          CFI (cfiCond334) CFA_SP SP+-4
          CFI (cfiCond334) CFA_XSP16 add(XSP16, 15)
          CFI Block cfiCond335 Using cfiCommon0
          CFI (cfiCond335) Function ZDP_MgmtNwkDiscRsp
          CFI (cfiCond335) Conditional ??CrossCallReturnLabel_130, ??CrossCallReturnLabel_41
          CFI (cfiCond335) R6 load(1, XDATA, add(CFA_XSP16, literal(-22)))
          CFI (cfiCond335) VB load(1, XDATA, add(CFA_XSP16, literal(-21)))
          CFI (cfiCond335) V0 load(1, XDATA, add(CFA_XSP16, literal(-20)))
          CFI (cfiCond335) V1 load(1, XDATA, add(CFA_XSP16, literal(-19)))
          CFI (cfiCond335) V2 load(1, XDATA, add(CFA_XSP16, literal(-18)))
          CFI (cfiCond335) V3 load(1, XDATA, add(CFA_XSP16, literal(-17)))
          CFI (cfiCond335) V4 load(1, XDATA, add(CFA_XSP16, literal(-16)))
          CFI (cfiCond335) V5 load(1, XDATA, add(CFA_XSP16, literal(-15)))
          CFI (cfiCond335) V6 load(1, XDATA, add(CFA_XSP16, literal(-14)))
          CFI (cfiCond335) V7 load(1, XDATA, add(CFA_XSP16, literal(-13)))
          CFI (cfiCond335) V8 load(1, XDATA, add(CFA_XSP16, literal(-12)))
          CFI (cfiCond335) V9 load(1, XDATA, add(CFA_XSP16, literal(-11)))
          CFI (cfiCond335) V10 load(1, XDATA, add(CFA_XSP16, literal(-10)))
          CFI (cfiCond335) V11 load(1, XDATA, add(CFA_XSP16, literal(-9)))
          CFI (cfiCond335) V12 load(1, XDATA, add(CFA_XSP16, literal(-8)))
          CFI (cfiCond335) V13 load(1, XDATA, add(CFA_XSP16, literal(-7)))
          CFI (cfiCond335) R7 load(1, XDATA, add(CFA_XSP16, literal(-6)))
          CFI (cfiCond335) ?RET_LOW load(1, XDATA, add(CFA_XSP16, literal(-5)))
          CFI (cfiCond335) ?RET_HIGH load(1, XDATA, add(CFA_XSP16, literal(-4)))
          CFI (cfiCond335) ?BRET_EXT load(1, XDATA, add(CFA_XSP16, literal(-3)))
          CFI (cfiCond335) DPL0 load(1, XDATA, add(CFA_XSP16, literal(-2)))
          CFI (cfiCond335) DPH0 load(1, XDATA, add(CFA_XSP16, literal(-1)))
          CFI (cfiCond335) CFA_SP SP+-4
          CFI (cfiCond335) CFA_XSP16 add(XSP16, 23)
          CFI Block cfiPicker336 Using cfiCommon1
          CFI (cfiPicker336) NoFunction
          CFI (cfiPicker336) Picker
        MOVX      @DPTR,A
        MOV       DPL,?V2
        MOV       DPH,?V3
        INC       DPTR
        RET
          CFI EndBlock cfiCond332
          CFI EndBlock cfiCond333
          CFI EndBlock cfiCond334
          CFI EndBlock cfiCond335
          CFI EndBlock cfiPicker336

        RSEG BANKED_CODE:HUGECODE:NOROOT(0)
?Subroutine20:
          CFI Block cfiCond337 Using cfiCommon0
          CFI Function fillAndSend
          CFI Conditional ??CrossCallReturnLabel_22
          CFI R6 load(1, XDATA, add(CFA_XSP16, literal(-14)))
          CFI VB load(1, XDATA, add(CFA_XSP16, literal(-13)))
          CFI V0 load(1, XDATA, add(CFA_XSP16, literal(-12)))
          CFI V1 load(1, XDATA, add(CFA_XSP16, literal(-11)))
          CFI V2 load(1, XDATA, add(CFA_XSP16, literal(-10)))
          CFI V3 load(1, XDATA, add(CFA_XSP16, literal(-9)))
          CFI V4 load(1, XDATA, add(CFA_XSP16, literal(-8)))
          CFI V5 load(1, XDATA, add(CFA_XSP16, literal(-7)))
          CFI R7 load(1, XDATA, add(CFA_XSP16, literal(-6)))
          CFI ?RET_LOW load(1, XDATA, add(CFA_XSP16, literal(-5)))
          CFI ?RET_HIGH load(1, XDATA, add(CFA_XSP16, literal(-4)))
          CFI ?BRET_EXT load(1, XDATA, add(CFA_XSP16, literal(-3)))
          CFI DPL0 load(1, XDATA, add(CFA_XSP16, literal(-2)))
          CFI DPH0 load(1, XDATA, add(CFA_XSP16, literal(-1)))
          CFI CFA_SP SP+-2
          CFI CFA_XSP16 add(XSP16, 26)
          CFI Block cfiCond338 Using cfiCommon0
          CFI (cfiCond338) Function ZDP_MgmtNwkDiscRsp
          CFI (cfiCond338) Conditional ??CrossCallReturnLabel_23
          CFI (cfiCond338) R6 load(1, XDATA, add(CFA_XSP16, literal(-22)))
          CFI (cfiCond338) VB load(1, XDATA, add(CFA_XSP16, literal(-21)))
          CFI (cfiCond338) V0 load(1, XDATA, add(CFA_XSP16, literal(-20)))
          CFI (cfiCond338) V1 load(1, XDATA, add(CFA_XSP16, literal(-19)))
          CFI (cfiCond338) V2 load(1, XDATA, add(CFA_XSP16, literal(-18)))
          CFI (cfiCond338) V3 load(1, XDATA, add(CFA_XSP16, literal(-17)))
          CFI (cfiCond338) V4 load(1, XDATA, add(CFA_XSP16, literal(-16)))
          CFI (cfiCond338) V5 load(1, XDATA, add(CFA_XSP16, literal(-15)))
          CFI (cfiCond338) V6 load(1, XDATA, add(CFA_XSP16, literal(-14)))
          CFI (cfiCond338) V7 load(1, XDATA, add(CFA_XSP16, literal(-13)))
          CFI (cfiCond338) V8 load(1, XDATA, add(CFA_XSP16, literal(-12)))
          CFI (cfiCond338) V9 load(1, XDATA, add(CFA_XSP16, literal(-11)))
          CFI (cfiCond338) V10 load(1, XDATA, add(CFA_XSP16, literal(-10)))
          CFI (cfiCond338) V11 load(1, XDATA, add(CFA_XSP16, literal(-9)))
          CFI (cfiCond338) V12 load(1, XDATA, add(CFA_XSP16, literal(-8)))
          CFI (cfiCond338) V13 load(1, XDATA, add(CFA_XSP16, literal(-7)))
          CFI (cfiCond338) R7 load(1, XDATA, add(CFA_XSP16, literal(-6)))
          CFI (cfiCond338) ?RET_LOW load(1, XDATA, add(CFA_XSP16, literal(-5)))
          CFI (cfiCond338) ?RET_HIGH load(1, XDATA, add(CFA_XSP16, literal(-4)))
          CFI (cfiCond338) ?BRET_EXT load(1, XDATA, add(CFA_XSP16, literal(-3)))
          CFI (cfiCond338) DPL0 load(1, XDATA, add(CFA_XSP16, literal(-2)))
          CFI (cfiCond338) DPH0 load(1, XDATA, add(CFA_XSP16, literal(-1)))
          CFI (cfiCond338) CFA_SP SP+-2
          CFI (cfiCond338) CFA_XSP16 add(XSP16, 23)
          CFI Block cfiPicker339 Using cfiCommon1
          CFI (cfiPicker339) NoFunction
          CFI (cfiPicker339) Picker
        LCALL     ?Subroutine83 & 0xFFFF
??CrossCallReturnLabel_128:
        INC       DPTR
        INC       DPTR
        INC       DPTR
        INC       DPTR
        INC       DPTR
        RET
          CFI EndBlock cfiCond337
          CFI EndBlock cfiCond338
          CFI EndBlock cfiPicker339

        RSEG BANKED_CODE:HUGECODE:NOROOT(0)
?Subroutine83:
          CFI Block cfiCond340 Using cfiCommon0
          CFI Function ZDP_MgmtNwkDiscRsp
          CFI Conditional ??CrossCallReturnLabel_127
          CFI R6 load(1, XDATA, add(CFA_XSP16, literal(-22)))
          CFI VB load(1, XDATA, add(CFA_XSP16, literal(-21)))
          CFI V0 load(1, XDATA, add(CFA_XSP16, literal(-20)))
          CFI V1 load(1, XDATA, add(CFA_XSP16, literal(-19)))
          CFI V2 load(1, XDATA, add(CFA_XSP16, literal(-18)))
          CFI V3 load(1, XDATA, add(CFA_XSP16, literal(-17)))
          CFI V4 load(1, XDATA, add(CFA_XSP16, literal(-16)))
          CFI V5 load(1, XDATA, add(CFA_XSP16, literal(-15)))
          CFI V6 load(1, XDATA, add(CFA_XSP16, literal(-14)))
          CFI V7 load(1, XDATA, add(CFA_XSP16, literal(-13)))
          CFI V8 load(1, XDATA, add(CFA_XSP16, literal(-12)))
          CFI V9 load(1, XDATA, add(CFA_XSP16, literal(-11)))
          CFI V10 load(1, XDATA, add(CFA_XSP16, literal(-10)))
          CFI V11 load(1, XDATA, add(CFA_XSP16, literal(-9)))
          CFI V12 load(1, XDATA, add(CFA_XSP16, literal(-8)))
          CFI V13 load(1, XDATA, add(CFA_XSP16, literal(-7)))
          CFI R7 load(1, XDATA, add(CFA_XSP16, literal(-6)))
          CFI ?RET_LOW load(1, XDATA, add(CFA_XSP16, literal(-5)))
          CFI ?RET_HIGH load(1, XDATA, add(CFA_XSP16, literal(-4)))
          CFI ?BRET_EXT load(1, XDATA, add(CFA_XSP16, literal(-3)))
          CFI DPL0 load(1, XDATA, add(CFA_XSP16, literal(-2)))
          CFI DPH0 load(1, XDATA, add(CFA_XSP16, literal(-1)))
          CFI CFA_SP SP+-2
          CFI CFA_XSP16 add(XSP16, 23)
          CFI Block cfiCond341 Using cfiCommon0
          CFI (cfiCond341) Function fillAndSend
          CFI (cfiCond341) Conditional ??CrossCallReturnLabel_128, ??CrossCallReturnLabel_22
          CFI (cfiCond341) R6 load(1, XDATA, add(CFA_XSP16, literal(-14)))
          CFI (cfiCond341) VB load(1, XDATA, add(CFA_XSP16, literal(-13)))
          CFI (cfiCond341) V0 load(1, XDATA, add(CFA_XSP16, literal(-12)))
          CFI (cfiCond341) V1 load(1, XDATA, add(CFA_XSP16, literal(-11)))
          CFI (cfiCond341) V2 load(1, XDATA, add(CFA_XSP16, literal(-10)))
          CFI (cfiCond341) V3 load(1, XDATA, add(CFA_XSP16, literal(-9)))
          CFI (cfiCond341) V4 load(1, XDATA, add(CFA_XSP16, literal(-8)))
          CFI (cfiCond341) V5 load(1, XDATA, add(CFA_XSP16, literal(-7)))
          CFI (cfiCond341) R7 load(1, XDATA, add(CFA_XSP16, literal(-6)))
          CFI (cfiCond341) ?RET_LOW load(1, XDATA, add(CFA_XSP16, literal(-5)))
          CFI (cfiCond341) ?RET_HIGH load(1, XDATA, add(CFA_XSP16, literal(-4)))
          CFI (cfiCond341) ?BRET_EXT load(1, XDATA, add(CFA_XSP16, literal(-3)))
          CFI (cfiCond341) DPL0 load(1, XDATA, add(CFA_XSP16, literal(-2)))
          CFI (cfiCond341) DPH0 load(1, XDATA, add(CFA_XSP16, literal(-1)))
          CFI (cfiCond341) CFA_SP SP+-4
          CFI (cfiCond341) CFA_XSP16 add(XSP16, 26)
          CFI Block cfiCond342 Using cfiCommon0
          CFI (cfiCond342) Function ZDP_MgmtNwkDiscRsp
          CFI (cfiCond342) Conditional ??CrossCallReturnLabel_128, ??CrossCallReturnLabel_23
          CFI (cfiCond342) R6 load(1, XDATA, add(CFA_XSP16, literal(-22)))
          CFI (cfiCond342) VB load(1, XDATA, add(CFA_XSP16, literal(-21)))
          CFI (cfiCond342) V0 load(1, XDATA, add(CFA_XSP16, literal(-20)))
          CFI (cfiCond342) V1 load(1, XDATA, add(CFA_XSP16, literal(-19)))
          CFI (cfiCond342) V2 load(1, XDATA, add(CFA_XSP16, literal(-18)))
          CFI (cfiCond342) V3 load(1, XDATA, add(CFA_XSP16, literal(-17)))
          CFI (cfiCond342) V4 load(1, XDATA, add(CFA_XSP16, literal(-16)))
          CFI (cfiCond342) V5 load(1, XDATA, add(CFA_XSP16, literal(-15)))
          CFI (cfiCond342) V6 load(1, XDATA, add(CFA_XSP16, literal(-14)))
          CFI (cfiCond342) V7 load(1, XDATA, add(CFA_XSP16, literal(-13)))
          CFI (cfiCond342) V8 load(1, XDATA, add(CFA_XSP16, literal(-12)))
          CFI (cfiCond342) V9 load(1, XDATA, add(CFA_XSP16, literal(-11)))
          CFI (cfiCond342) V10 load(1, XDATA, add(CFA_XSP16, literal(-10)))
          CFI (cfiCond342) V11 load(1, XDATA, add(CFA_XSP16, literal(-9)))
          CFI (cfiCond342) V12 load(1, XDATA, add(CFA_XSP16, literal(-8)))
          CFI (cfiCond342) V13 load(1, XDATA, add(CFA_XSP16, literal(-7)))
          CFI (cfiCond342) R7 load(1, XDATA, add(CFA_XSP16, literal(-6)))
          CFI (cfiCond342) ?RET_LOW load(1, XDATA, add(CFA_XSP16, literal(-5)))
          CFI (cfiCond342) ?RET_HIGH load(1, XDATA, add(CFA_XSP16, literal(-4)))
          CFI (cfiCond342) ?BRET_EXT load(1, XDATA, add(CFA_XSP16, literal(-3)))
          CFI (cfiCond342) DPL0 load(1, XDATA, add(CFA_XSP16, literal(-2)))
          CFI (cfiCond342) DPH0 load(1, XDATA, add(CFA_XSP16, literal(-1)))
          CFI (cfiCond342) CFA_SP SP+-4
          CFI (cfiCond342) CFA_XSP16 add(XSP16, 23)
          CFI Block cfiPicker343 Using cfiCommon1
          CFI (cfiPicker343) NoFunction
          CFI (cfiPicker343) Picker
        MOVX      @DPTR,A
        MOV       DPL,R6
        MOV       DPH,R7
        INC       DPTR
        INC       DPTR
        INC       DPTR
        RET
          CFI EndBlock cfiCond340
          CFI EndBlock cfiCond341
          CFI EndBlock cfiCond342
          CFI EndBlock cfiPicker343
// 1523 
// 1524 /*********************************************************************
// 1525  * @fn          ZDP_MgmtLqiRsp
// 1526  *
// 1527  * @brief       This builds and send a Mgmt_Lqi_rsp message. This
// 1528  *              function sends a unicast message.
// 1529  *
// 1530  * @param       dstAddr - destination address of the message
// 1531  * @param       Status - message status (ZDP_SUCCESS or other)
// 1532  * @param       NeighborLqiEntries - Total number of entries found
// 1533  * @param       StartIndex - Starting index within the reporting list
// 1534  * @param       NeighborLqiCount - number of lists included
// 1535  *                                 in this message
// 1536  * @param       NeighborLqiList - List of NeighborLqiItems.  This list
// 1537  *                is the list to be sent, not the entire list
// 1538  * @param       SecurityEnable - true if secure
// 1539  *
// 1540  * @return      ZStatus_t
// 1541  */

        RSEG BANKED_CODE:HUGECODE:NOROOT(0)
// 1542 ZStatus_t ZDP_MgmtLqiRsp( byte TransSeq, zAddrType_t *dstAddr,
ZDP_MgmtLqiRsp:
          CFI Block cfiBlock344 Using cfiCommon0
          CFI Function ZDP_MgmtLqiRsp
        CODE
// 1543                           byte Status,
// 1544                           byte NeighborLqiEntries,
// 1545                           byte StartIndex,
// 1546                           byte NeighborLqiCount,
// 1547                           ZDP_MgmtLqiItem_t* NeighborList,
// 1548                           byte SecurityEnable )
// 1549 {
        FUNCALL ZDP_MgmtLqiRsp, fillAndSend
        LOCFRAME ISTACK, 0, STACK
        LOCFRAME PSTACK, 0, STACK
        LOCFRAME XSTACK, 24, STACK
        LOCFRAME IOVERLAY, 0, STATIC
        LOCFRAME DOVERLAY, 0, STATIC
        ARGFRAME ISTACK, 0, STACK
        ARGFRAME PSTACK, 0, STACK
        ARGFRAME XSTACK, 24, STACK
        ARGFRAME IOVERLAY, 0, STATIC
        ARGFRAME DOVERLAY, 0, STATIC
        FUNCALL ZDP_MgmtLqiRsp, osal_mem_alloc
        LOCFRAME ISTACK, 0, STACK
        LOCFRAME PSTACK, 0, STACK
        LOCFRAME XSTACK, 22, STACK
        LOCFRAME IOVERLAY, 0, STATIC
        LOCFRAME DOVERLAY, 0, STATIC
        ARGFRAME ISTACK, 0, STACK
        ARGFRAME PSTACK, 0, STACK
        ARGFRAME XSTACK, 22, STACK
        ARGFRAME IOVERLAY, 0, STATIC
        ARGFRAME DOVERLAY, 0, STATIC
        FUNCALL ZDP_MgmtLqiRsp, sAddrExtCpy
        LOCFRAME ISTACK, 0, STACK
        LOCFRAME PSTACK, 0, STACK
        LOCFRAME XSTACK, 22, STACK
        LOCFRAME IOVERLAY, 0, STATIC
        LOCFRAME DOVERLAY, 0, STATIC
        ARGFRAME ISTACK, 0, STACK
        ARGFRAME PSTACK, 0, STACK
        ARGFRAME XSTACK, 22, STACK
        ARGFRAME IOVERLAY, 0, STATIC
        ARGFRAME DOVERLAY, 0, STATIC
        FUNCALL ZDP_MgmtLqiRsp, sAddrExtCpy
        LOCFRAME ISTACK, 0, STACK
        LOCFRAME PSTACK, 0, STACK
        LOCFRAME XSTACK, 22, STACK
        LOCFRAME IOVERLAY, 0, STATIC
        LOCFRAME DOVERLAY, 0, STATIC
        ARGFRAME ISTACK, 0, STACK
        ARGFRAME PSTACK, 0, STACK
        ARGFRAME XSTACK, 22, STACK
        ARGFRAME IOVERLAY, 0, STATIC
        ARGFRAME DOVERLAY, 0, STATIC
        FUNCALL ZDP_MgmtLqiRsp, fillAndSend
        LOCFRAME ISTACK, 0, STACK
        LOCFRAME PSTACK, 0, STACK
        LOCFRAME XSTACK, 24, STACK
        LOCFRAME IOVERLAY, 0, STATIC
        LOCFRAME DOVERLAY, 0, STATIC
        ARGFRAME ISTACK, 0, STACK
        ARGFRAME PSTACK, 0, STACK
        ARGFRAME XSTACK, 24, STACK
        ARGFRAME IOVERLAY, 0, STATIC
        ARGFRAME DOVERLAY, 0, STATIC
        FUNCALL ZDP_MgmtLqiRsp, osal_mem_free
        LOCFRAME ISTACK, 0, STACK
        LOCFRAME PSTACK, 0, STACK
        LOCFRAME XSTACK, 22, STACK
        LOCFRAME IOVERLAY, 0, STATIC
        LOCFRAME DOVERLAY, 0, STATIC
        ARGFRAME ISTACK, 0, STACK
        ARGFRAME PSTACK, 0, STACK
        ARGFRAME XSTACK, 22, STACK
        ARGFRAME IOVERLAY, 0, STATIC
        ARGFRAME DOVERLAY, 0, STATIC
        REQUIRE ?V0
        REQUIRE ?V1
        REQUIRE ?V2
        REQUIRE ?V3
        REQUIRE ?V4
        REQUIRE ?V5
        REQUIRE ?V6
        REQUIRE ?V7
        REQUIRE ?V8
        REQUIRE ?V9
        REQUIRE ?V10
        REQUIRE ?V11
        REQUIRE ?V12
        MOV       A,#-0x15
        LCALL     ?BANKED_ENTER_XDATA
          CFI DPH0 load(1, XDATA, add(CFA_XSP16, literal(-1)))
          CFI DPL0 load(1, XDATA, add(CFA_XSP16, literal(-2)))
          CFI ?BRET_EXT load(1, XDATA, add(CFA_XSP16, literal(-3)))
          CFI ?RET_HIGH load(1, XDATA, add(CFA_XSP16, literal(-4)))
          CFI ?RET_LOW load(1, XDATA, add(CFA_XSP16, literal(-5)))
          CFI R7 load(1, XDATA, add(CFA_XSP16, literal(-6)))
          CFI V12 load(1, XDATA, add(CFA_XSP16, literal(-7)))
          CFI V11 load(1, XDATA, add(CFA_XSP16, literal(-8)))
          CFI V10 load(1, XDATA, add(CFA_XSP16, literal(-9)))
          CFI V9 load(1, XDATA, add(CFA_XSP16, literal(-10)))
          CFI V8 load(1, XDATA, add(CFA_XSP16, literal(-11)))
          CFI V7 load(1, XDATA, add(CFA_XSP16, literal(-12)))
          CFI V6 load(1, XDATA, add(CFA_XSP16, literal(-13)))
          CFI V5 load(1, XDATA, add(CFA_XSP16, literal(-14)))
          CFI V4 load(1, XDATA, add(CFA_XSP16, literal(-15)))
          CFI V3 load(1, XDATA, add(CFA_XSP16, literal(-16)))
          CFI V2 load(1, XDATA, add(CFA_XSP16, literal(-17)))
          CFI V1 load(1, XDATA, add(CFA_XSP16, literal(-18)))
          CFI V0 load(1, XDATA, add(CFA_XSP16, literal(-19)))
          CFI VB load(1, XDATA, add(CFA_XSP16, literal(-20)))
          CFI R6 load(1, XDATA, add(CFA_XSP16, literal(-21)))
          CFI CFA_SP SP+0
          CFI CFA_XSP16 add(XSP16, 21)
        ; Saved register size: 21
        ; Auto size: 1
        MOV       A,#-0x1
        LCALL     ?ALLOC_XSTACK8
          CFI CFA_XSP16 add(XSP16, 22)
        MOV       A,R1
        MOV       DPL,?XSP + 0
        MOV       DPH,?XSP + 1
        MOVX      @DPTR,A
        MOV       ?V10,R2
        MOV       ?V11,R3
        MOV       ?V12,R5
// 1550   ZDP_MgmtLqiItem_t* list = NeighborList;
        MOV       A,#0x18
        LCALL     ?XSTACK_DISP0_8
        LCALL     ??Subroutine112_0 & 0xFFFF
// 1551   uint8 *buf, *pBuf;
// 1552   byte len, x;
// 1553 
// 1554   (void)SecurityEnable;  // Intentionally unreferenced parameter
// 1555 
// 1556   if ( ZSuccess != Status )
??CrossCallReturnLabel_207:
        MOV       A,R4
        JZ        ??ZDP_MgmtLqiRsp_0
// 1557   {
// 1558     ZDP_TmpBuf[0] = Status;
        LCALL     ?Subroutine45 & 0xFFFF
// 1559     return fillAndSend( &TransSeq, dstAddr, Mgmt_Lqi_rsp, 1 );
// 1560   }
??CrossCallReturnLabel_167:
        MOV       A,R4
        LCALL     ?Subroutine34 & 0xFFFF
??CrossCallReturnLabel_44:
        LCALL     ?PUSH_XSTACK_I_TWO
          CFI CFA_XSP16 add(XSP16, 24)
        MOV       R1,#0x1
        MOV       R4,?V10
        MOV       R5,?V11
        MOV       A,#0x2
        LCALL     ?XSTACK_DISP101_8
        LCALL     `??fillAndSend::?relay`; Banked call to: fillAndSend
        MOV       A,#0x2
        LCALL     ?DEALLOC_XSTACK8
          CFI CFA_XSP16 add(XSP16, 22)
        LJMP      ??CrossCallReturnLabel_29 & 0xFFFF
??ZDP_MgmtLqiRsp_0:
        MOV       A,#0x17
        LCALL     ?XSTACK_DISP0_8
        MOVX      A,@DPTR
        MOV       ?V5,A
// 1561 
// 1562   // (Status + NeighborLqiEntries + StartIndex + NeighborLqiCount) +
// 1563   //  neighbor LQI data.
// 1564   len = (1 + 1 + 1 + 1) + (NeighborLqiCount * ZDP_MGMTLQI_EXTENDED_SIZE);
        MOV       B,#0x16
        MUL       AB
        ADD       A,#0x4
        MOV       ?V6,A
// 1565 
// 1566   buf = osal_mem_alloc( len+1 );
        ; Setup parameters for call to function osal_mem_alloc
        LCALL     ?Subroutine66 & 0xFFFF
??CrossCallReturnLabel_102:
        LCALL     `??osal_mem_alloc::?relay`; Banked call to: osal_mem_alloc
        MOV       ?V2,R2
        MOV       ?V3,R3
// 1567   if ( buf == NULL )
        MOV       A,R2
        ORL       A,?V3
        JNZ       ??ZDP_MgmtLqiRsp_1
// 1568   {
// 1569     return afStatus_MEM_FAIL;
        MOV       R1,#0x10
        LJMP      ??CrossCallReturnLabel_29 & 0xFFFF
// 1570   }
// 1571 
// 1572   pBuf = buf+1;
??ZDP_MgmtLqiRsp_1:
        MOV       DPL,R2
        MOV       DPH,R3
        INC       DPTR
        MOV       ?V8,DPL
        MOV       ?V9,DPH
        MOV       ?V0,?V8
        MOV       ?V1,?V9
// 1573 
// 1574   *pBuf++ = Status;
        CLR       A
        MOVX      @DPTR,A
// 1575   *pBuf++ = NeighborLqiEntries;
        INC       DPTR
        MOV       A,?V12
        MOVX      @DPTR,A
// 1576   *pBuf++ = StartIndex;
        MOV       A,#0x16
        LCALL     ?XSTACK_DISP0_8
        LCALL     ?Subroutine63 & 0xFFFF
??CrossCallReturnLabel_98:
        INC       DPTR
        MOVX      @DPTR,A
// 1577   *pBuf++ = NeighborLqiCount;
        MOV       DPL,?V0
        MOV       DPH,?V1
        INC       DPTR
        INC       DPTR
        INC       DPTR
        MOV       A,?V5
        MOVX      @DPTR,A
        MOV       A,?V0
        ADD       A,#0x4
        MOV       ?V0,A
        JNC       ??ZDP_MgmtLqiRsp_2
        INC       ?V1
// 1578 
// 1579   for ( x = 0; x < NeighborLqiCount; x++ )
??ZDP_MgmtLqiRsp_2:
        MOV       ?V4,#0x0
        LJMP      ??ZDP_MgmtLqiRsp_3 & 0xFFFF
// 1580   {
// 1581     osal_cpyExtAddr( pBuf, list->extPanID);         // Extended PanID
??ZDP_MgmtLqiRsp_4:
        ; Setup parameters for call to function sAddrExtCpy
        MOV       A,R6
        ADD       A,#0x2
        MOV       R4,A
        CLR       A
        ADDC      A,R7
        MOV       R5,A
        MOV       R2,?V0
        MOV       R3,?V1
        LCALL     `??sAddrExtCpy::?relay`; Banked call to: sAddrExtCpy
// 1582     pBuf += Z_EXTADDR_LEN;
// 1583 
// 1584     // EXTADDR
// 1585     pBuf = osal_cpyExtAddr( pBuf, list->extAddr );
        ; Setup parameters for call to function sAddrExtCpy
        MOV       A,R6
        ADD       A,#0xa
        MOV       R4,A
        CLR       A
        ADDC      A,R7
        MOV       R5,A
        MOV       A,?V0
        ADD       A,#0x8
        MOV       R2,A
        CLR       A
        ADDC      A,?V1
        MOV       R3,A
        LCALL     `??sAddrExtCpy::?relay`; Banked call to: sAddrExtCpy
        MOV       ?V0,R2
        MOV       ?V1,R3
        MOV       R0,?V0
        MOV       R1,?V1
// 1586 
// 1587     // NWKADDR
// 1588     *pBuf++ = LO_UINT16( list->nwkAddr );
        MOV       A,R6
        ADD       A,#0x12
        MOV       R2,A
        CLR       A
        ADDC      A,R7
        MOV       R3,A
        MOV       DPL,R2
        MOV       DPH,R3
        LCALL     ??Subroutine104_0 & 0xFFFF
// 1589     *pBuf++ = HI_UINT16( list->nwkAddr );
??CrossCallReturnLabel_170:
        MOV       DPL,R2
        MOV       DPH,R3
        LCALL     ?Subroutine60 & 0xFFFF
??CrossCallReturnLabel_196:
        INC       DPTR
        MOVX      @DPTR,A
// 1590 
// 1591     // DEVICETYPE
// 1592     *pBuf = list->devType;
        MOV       A,R0
        ADD       A,#0x2
        MOV       R2,A
        CLR       A
        ADDC      A,R1
        MOV       R3,A
        LCALL     ?Subroutine69 & 0xFFFF
??CrossCallReturnLabel_110:
        LCALL     ?Subroutine57 & 0xFFFF
// 1593 
// 1594     // RXONIDLE
// 1595     *pBuf |= (uint8)(list->rxOnIdle << 2);
??CrossCallReturnLabel_87:
        MOV       A,R6
        ADD       A,#0x15
        MOV       DPL,A
        CLR       A
        ADDC      A,R7
        MOV       DPH,A
        MOVX      A,@DPTR
        RLC       A
        RLC       A
        ANL       A,#0xfc
        MOV       R4,A
        MOV       DPL,R2
        MOV       DPH,R3
        MOVX      A,@DPTR
        ORL       A,R4
        MOVX      @DPTR,A
// 1596 
// 1597     // RELATIONSHIP
// 1598     *pBuf++ |= (uint8)(list->relation << 4);
        MOV       A,R6
        ADD       A,#0x16
        MOV       DPL,A
        CLR       A
        ADDC      A,R7
        MOV       DPH,A
        MOVX      A,@DPTR
        SWAP      A
        ANL       A,#0xf0
        MOV       R4,A
        MOV       DPL,R2
        MOV       DPH,R3
        MOVX      A,@DPTR
        ORL       A,R4
        MOVX      @DPTR,A
// 1599 
// 1600     // PERMITJOINING
// 1601     *pBuf++ = (uint8)(list->permit);
        MOV       A,R6
        ADD       A,#0x17
        LCALL     ?Subroutine58 & 0xFFFF
??CrossCallReturnLabel_88:
        MOVX      @DPTR,A
// 1602 
// 1603     // DEPTH
// 1604     *pBuf++ = list->depth;
        MOV       A,R6
        ADD       A,#0x18
        LCALL     ?Subroutine58 & 0xFFFF
??CrossCallReturnLabel_89:
        INC       DPTR
        MOVX      @DPTR,A
// 1605 
// 1606     // LQI
// 1607     *pBuf++ = list->lqi;
        MOV       A,R6
        ADD       A,#0x19
        MOV       DPL,A
        CLR       A
        ADDC      A,R7
        MOV       DPH,A
        LCALL     ?Subroutine53 & 0xFFFF
??CrossCallReturnLabel_82:
        MOVX      @DPTR,A
        MOV       A,R0
        ADD       A,#0x6
        MOV       ?V0,A
        CLR       A
        ADDC      A,R1
        MOV       ?V1,A
// 1608 
// 1609     list++; // next list entry
        MOV       A,R6
        ADD       A,#0x1a
        MOV       R6,A
        JNC       ??ZDP_MgmtLqiRsp_5
        INC       R7
// 1610   }
??ZDP_MgmtLqiRsp_5:
        INC       ?V4
??ZDP_MgmtLqiRsp_3:
        MOV       A,?V4
        CLR       C
        SUBB      A,?V5
        JNC       $+5
        LJMP      ??ZDP_MgmtLqiRsp_4 & 0xFFFF
// 1611 
// 1612   FillAndSendBuffer( &TransSeq, dstAddr, Mgmt_Lqi_rsp, len, buf );
        MOV       DPTR,#ZDP_TmpBuf
        MOV       A,?V8
        MOVX      @DPTR,A
        INC       DPTR
        MOV       A,?V9
        LCALL     ?Subroutine34 & 0xFFFF
??CrossCallReturnLabel_45:
        LCALL     ?PUSH_XSTACK_I_TWO
          CFI CFA_XSP16 add(XSP16, 24)
        MOV       R1,?V6
        MOV       R4,?V10
        MOV       R5,?V11
        MOV       A,#0x2
        LCALL     ?XSTACK_DISP101_8
        LCALL     `??fillAndSend::?relay`; Banked call to: fillAndSend
        MOV       A,#0x2
        LCALL     ?DEALLOC_XSTACK8
          CFI CFA_XSP16 add(XSP16, 22)
        MOV       A,R1
        MOV       R6,A
        ; Setup parameters for call to function osal_mem_free
        MOV       R2,?V2
        MOV       R3,?V3
        LCALL     `??osal_mem_free::?relay`; Banked call to: osal_mem_free
        LCALL     ?Subroutine24 & 0xFFFF
??CrossCallReturnLabel_29:
        MOV       A,#0x1
        LCALL     ?DEALLOC_XSTACK8
          CFI CFA_XSP16 add(XSP16, 21)
        MOV       R7,#0xd
        LJMP      ?BANKED_LEAVE_XDATA
// 1613 }
          CFI EndBlock cfiBlock344

        RSEG BANKED_CODE:HUGECODE:NOROOT(0)
?Subroutine63:
          CFI Block cfiCond345 Using cfiCommon0
          CFI Function ZDP_EndDeviceBindReq
          CFI Conditional ??CrossCallReturnLabel_97
          CFI R6 load(1, XDATA, add(CFA_XSP16, literal(-18)))
          CFI VB load(1, XDATA, add(CFA_XSP16, literal(-17)))
          CFI V0 load(1, XDATA, add(CFA_XSP16, literal(-16)))
          CFI V1 load(1, XDATA, add(CFA_XSP16, literal(-15)))
          CFI V2 load(1, XDATA, add(CFA_XSP16, literal(-14)))
          CFI V3 load(1, XDATA, add(CFA_XSP16, literal(-13)))
          CFI V4 load(1, XDATA, add(CFA_XSP16, literal(-12)))
          CFI V5 load(1, XDATA, add(CFA_XSP16, literal(-11)))
          CFI V6 load(1, XDATA, add(CFA_XSP16, literal(-10)))
          CFI V7 load(1, XDATA, add(CFA_XSP16, literal(-9)))
          CFI V8 load(1, XDATA, add(CFA_XSP16, literal(-8)))
          CFI V9 load(1, XDATA, add(CFA_XSP16, literal(-7)))
          CFI R7 load(1, XDATA, add(CFA_XSP16, literal(-6)))
          CFI ?RET_LOW load(1, XDATA, add(CFA_XSP16, literal(-5)))
          CFI ?RET_HIGH load(1, XDATA, add(CFA_XSP16, literal(-4)))
          CFI ?BRET_EXT load(1, XDATA, add(CFA_XSP16, literal(-3)))
          CFI DPL0 load(1, XDATA, add(CFA_XSP16, literal(-2)))
          CFI DPH0 load(1, XDATA, add(CFA_XSP16, literal(-1)))
          CFI CFA_SP SP+-2
          CFI CFA_XSP16 add(XSP16, 18)
          CFI Block cfiCond346 Using cfiCommon0
          CFI (cfiCond346) Function ZDP_MgmtLqiRsp
          CFI (cfiCond346) Conditional ??CrossCallReturnLabel_98
          CFI (cfiCond346) R6 load(1, XDATA, add(CFA_XSP16, literal(-21)))
          CFI (cfiCond346) VB load(1, XDATA, add(CFA_XSP16, literal(-20)))
          CFI (cfiCond346) V0 load(1, XDATA, add(CFA_XSP16, literal(-19)))
          CFI (cfiCond346) V1 load(1, XDATA, add(CFA_XSP16, literal(-18)))
          CFI (cfiCond346) V2 load(1, XDATA, add(CFA_XSP16, literal(-17)))
          CFI (cfiCond346) V3 load(1, XDATA, add(CFA_XSP16, literal(-16)))
          CFI (cfiCond346) V4 load(1, XDATA, add(CFA_XSP16, literal(-15)))
          CFI (cfiCond346) V5 load(1, XDATA, add(CFA_XSP16, literal(-14)))
          CFI (cfiCond346) V6 load(1, XDATA, add(CFA_XSP16, literal(-13)))
          CFI (cfiCond346) V7 load(1, XDATA, add(CFA_XSP16, literal(-12)))
          CFI (cfiCond346) V8 load(1, XDATA, add(CFA_XSP16, literal(-11)))
          CFI (cfiCond346) V9 load(1, XDATA, add(CFA_XSP16, literal(-10)))
          CFI (cfiCond346) V10 load(1, XDATA, add(CFA_XSP16, literal(-9)))
          CFI (cfiCond346) V11 load(1, XDATA, add(CFA_XSP16, literal(-8)))
          CFI (cfiCond346) V12 load(1, XDATA, add(CFA_XSP16, literal(-7)))
          CFI (cfiCond346) R7 load(1, XDATA, add(CFA_XSP16, literal(-6)))
          CFI (cfiCond346) ?RET_LOW load(1, XDATA, add(CFA_XSP16, literal(-5)))
          CFI (cfiCond346) ?RET_HIGH load(1, XDATA, add(CFA_XSP16, literal(-4)))
          CFI (cfiCond346) ?BRET_EXT load(1, XDATA, add(CFA_XSP16, literal(-3)))
          CFI (cfiCond346) DPL0 load(1, XDATA, add(CFA_XSP16, literal(-2)))
          CFI (cfiCond346) DPH0 load(1, XDATA, add(CFA_XSP16, literal(-1)))
          CFI (cfiCond346) CFA_SP SP+-2
          CFI (cfiCond346) CFA_XSP16 add(XSP16, 22)
          CFI Block cfiPicker347 Using cfiCommon1
          CFI (cfiPicker347) NoFunction
          CFI (cfiPicker347) Picker
        MOVX      A,@DPTR
        MOV       DPL,?V0
        MOV       DPH,?V1
        INC       DPTR
        RET
          CFI EndBlock cfiCond345
          CFI EndBlock cfiCond346
          CFI EndBlock cfiPicker347

        RSEG BANKED_CODE:HUGECODE:NOROOT(0)
?Subroutine58:
          CFI Block cfiCond348 Using cfiCommon0
          CFI Function ZDP_MgmtLqiRsp
          CFI Conditional ??CrossCallReturnLabel_88
          CFI R6 load(1, XDATA, add(CFA_XSP16, literal(-21)))
          CFI VB load(1, XDATA, add(CFA_XSP16, literal(-20)))
          CFI V0 load(1, XDATA, add(CFA_XSP16, literal(-19)))
          CFI V1 load(1, XDATA, add(CFA_XSP16, literal(-18)))
          CFI V2 load(1, XDATA, add(CFA_XSP16, literal(-17)))
          CFI V3 load(1, XDATA, add(CFA_XSP16, literal(-16)))
          CFI V4 load(1, XDATA, add(CFA_XSP16, literal(-15)))
          CFI V5 load(1, XDATA, add(CFA_XSP16, literal(-14)))
          CFI V6 load(1, XDATA, add(CFA_XSP16, literal(-13)))
          CFI V7 load(1, XDATA, add(CFA_XSP16, literal(-12)))
          CFI V8 load(1, XDATA, add(CFA_XSP16, literal(-11)))
          CFI V9 load(1, XDATA, add(CFA_XSP16, literal(-10)))
          CFI V10 load(1, XDATA, add(CFA_XSP16, literal(-9)))
          CFI V11 load(1, XDATA, add(CFA_XSP16, literal(-8)))
          CFI V12 load(1, XDATA, add(CFA_XSP16, literal(-7)))
          CFI R7 load(1, XDATA, add(CFA_XSP16, literal(-6)))
          CFI ?RET_LOW load(1, XDATA, add(CFA_XSP16, literal(-5)))
          CFI ?RET_HIGH load(1, XDATA, add(CFA_XSP16, literal(-4)))
          CFI ?BRET_EXT load(1, XDATA, add(CFA_XSP16, literal(-3)))
          CFI DPL0 load(1, XDATA, add(CFA_XSP16, literal(-2)))
          CFI DPH0 load(1, XDATA, add(CFA_XSP16, literal(-1)))
          CFI CFA_SP SP+-2
          CFI CFA_XSP16 add(XSP16, 22)
          CFI Block cfiCond349 Using cfiCommon0
          CFI (cfiCond349) Function ZDP_MgmtLqiRsp
          CFI (cfiCond349) Conditional ??CrossCallReturnLabel_89
          CFI (cfiCond349) R6 load(1, XDATA, add(CFA_XSP16, literal(-21)))
          CFI (cfiCond349) VB load(1, XDATA, add(CFA_XSP16, literal(-20)))
          CFI (cfiCond349) V0 load(1, XDATA, add(CFA_XSP16, literal(-19)))
          CFI (cfiCond349) V1 load(1, XDATA, add(CFA_XSP16, literal(-18)))
          CFI (cfiCond349) V2 load(1, XDATA, add(CFA_XSP16, literal(-17)))
          CFI (cfiCond349) V3 load(1, XDATA, add(CFA_XSP16, literal(-16)))
          CFI (cfiCond349) V4 load(1, XDATA, add(CFA_XSP16, literal(-15)))
          CFI (cfiCond349) V5 load(1, XDATA, add(CFA_XSP16, literal(-14)))
          CFI (cfiCond349) V6 load(1, XDATA, add(CFA_XSP16, literal(-13)))
          CFI (cfiCond349) V7 load(1, XDATA, add(CFA_XSP16, literal(-12)))
          CFI (cfiCond349) V8 load(1, XDATA, add(CFA_XSP16, literal(-11)))
          CFI (cfiCond349) V9 load(1, XDATA, add(CFA_XSP16, literal(-10)))
          CFI (cfiCond349) V10 load(1, XDATA, add(CFA_XSP16, literal(-9)))
          CFI (cfiCond349) V11 load(1, XDATA, add(CFA_XSP16, literal(-8)))
          CFI (cfiCond349) V12 load(1, XDATA, add(CFA_XSP16, literal(-7)))
          CFI (cfiCond349) R7 load(1, XDATA, add(CFA_XSP16, literal(-6)))
          CFI (cfiCond349) ?RET_LOW load(1, XDATA, add(CFA_XSP16, literal(-5)))
          CFI (cfiCond349) ?RET_HIGH load(1, XDATA, add(CFA_XSP16, literal(-4)))
          CFI (cfiCond349) ?BRET_EXT load(1, XDATA, add(CFA_XSP16, literal(-3)))
          CFI (cfiCond349) DPL0 load(1, XDATA, add(CFA_XSP16, literal(-2)))
          CFI (cfiCond349) DPH0 load(1, XDATA, add(CFA_XSP16, literal(-1)))
          CFI (cfiCond349) CFA_SP SP+-2
          CFI (cfiCond349) CFA_XSP16 add(XSP16, 22)
          CFI Block cfiPicker350 Using cfiCommon1
          CFI (cfiPicker350) NoFunction
          CFI (cfiPicker350) Picker
        MOV       DPL,A
        CLR       A
        ADDC      A,R7
        LCALL     ?Subroutine74 & 0xFFFF
??CrossCallReturnLabel_199:
        INC       DPTR
        INC       DPTR
        INC       DPTR
        RET
          CFI EndBlock cfiCond348
          CFI EndBlock cfiCond349
          CFI EndBlock cfiPicker350

        RSEG BANKED_CODE:HUGECODE:NOROOT(0)
?Subroutine53:
          CFI Block cfiCond351 Using cfiCommon0
          CFI Function ZDP_SimpleDescMsg
          CFI Conditional ??CrossCallReturnLabel_81
          CFI R6 load(1, XDATA, add(CFA_XSP16, literal(-20)))
          CFI VB load(1, XDATA, add(CFA_XSP16, literal(-19)))
          CFI V0 load(1, XDATA, add(CFA_XSP16, literal(-18)))
          CFI V1 load(1, XDATA, add(CFA_XSP16, literal(-17)))
          CFI V2 load(1, XDATA, add(CFA_XSP16, literal(-16)))
          CFI V3 load(1, XDATA, add(CFA_XSP16, literal(-15)))
          CFI V4 load(1, XDATA, add(CFA_XSP16, literal(-14)))
          CFI V5 load(1, XDATA, add(CFA_XSP16, literal(-13)))
          CFI V6 load(1, XDATA, add(CFA_XSP16, literal(-12)))
          CFI V7 load(1, XDATA, add(CFA_XSP16, literal(-11)))
          CFI V8 load(1, XDATA, add(CFA_XSP16, literal(-10)))
          CFI V9 load(1, XDATA, add(CFA_XSP16, literal(-9)))
          CFI V10 load(1, XDATA, add(CFA_XSP16, literal(-8)))
          CFI V11 load(1, XDATA, add(CFA_XSP16, literal(-7)))
          CFI R7 load(1, XDATA, add(CFA_XSP16, literal(-6)))
          CFI ?RET_LOW load(1, XDATA, add(CFA_XSP16, literal(-5)))
          CFI ?RET_HIGH load(1, XDATA, add(CFA_XSP16, literal(-4)))
          CFI ?BRET_EXT load(1, XDATA, add(CFA_XSP16, literal(-3)))
          CFI DPL0 load(1, XDATA, add(CFA_XSP16, literal(-2)))
          CFI DPH0 load(1, XDATA, add(CFA_XSP16, literal(-1)))
          CFI CFA_SP SP+-2
          CFI CFA_XSP16 add(XSP16, 20)
          CFI Block cfiCond352 Using cfiCommon0
          CFI (cfiCond352) Function ZDP_MgmtLqiRsp
          CFI (cfiCond352) Conditional ??CrossCallReturnLabel_82
          CFI (cfiCond352) R6 load(1, XDATA, add(CFA_XSP16, literal(-21)))
          CFI (cfiCond352) VB load(1, XDATA, add(CFA_XSP16, literal(-20)))
          CFI (cfiCond352) V0 load(1, XDATA, add(CFA_XSP16, literal(-19)))
          CFI (cfiCond352) V1 load(1, XDATA, add(CFA_XSP16, literal(-18)))
          CFI (cfiCond352) V2 load(1, XDATA, add(CFA_XSP16, literal(-17)))
          CFI (cfiCond352) V3 load(1, XDATA, add(CFA_XSP16, literal(-16)))
          CFI (cfiCond352) V4 load(1, XDATA, add(CFA_XSP16, literal(-15)))
          CFI (cfiCond352) V5 load(1, XDATA, add(CFA_XSP16, literal(-14)))
          CFI (cfiCond352) V6 load(1, XDATA, add(CFA_XSP16, literal(-13)))
          CFI (cfiCond352) V7 load(1, XDATA, add(CFA_XSP16, literal(-12)))
          CFI (cfiCond352) V8 load(1, XDATA, add(CFA_XSP16, literal(-11)))
          CFI (cfiCond352) V9 load(1, XDATA, add(CFA_XSP16, literal(-10)))
          CFI (cfiCond352) V10 load(1, XDATA, add(CFA_XSP16, literal(-9)))
          CFI (cfiCond352) V11 load(1, XDATA, add(CFA_XSP16, literal(-8)))
          CFI (cfiCond352) V12 load(1, XDATA, add(CFA_XSP16, literal(-7)))
          CFI (cfiCond352) R7 load(1, XDATA, add(CFA_XSP16, literal(-6)))
          CFI (cfiCond352) ?RET_LOW load(1, XDATA, add(CFA_XSP16, literal(-5)))
          CFI (cfiCond352) ?RET_HIGH load(1, XDATA, add(CFA_XSP16, literal(-4)))
          CFI (cfiCond352) ?BRET_EXT load(1, XDATA, add(CFA_XSP16, literal(-3)))
          CFI (cfiCond352) DPL0 load(1, XDATA, add(CFA_XSP16, literal(-2)))
          CFI (cfiCond352) DPH0 load(1, XDATA, add(CFA_XSP16, literal(-1)))
          CFI (cfiCond352) CFA_SP SP+-2
          CFI (cfiCond352) CFA_XSP16 add(XSP16, 22)
          CFI Block cfiPicker353 Using cfiCommon1
          CFI (cfiPicker353) NoFunction
          CFI (cfiPicker353) Picker
        LCALL     ?Subroutine73 & 0xFFFF
??CrossCallReturnLabel_120:
        RET
          CFI EndBlock cfiCond351
          CFI EndBlock cfiCond352
          CFI EndBlock cfiPicker353

        RSEG BANKED_CODE:HUGECODE:NOROOT(0)
?Subroutine73:
          CFI Block cfiCond354 Using cfiCommon0
          CFI Function ZDP_SimpleDescMsg
          CFI Conditional ??CrossCallReturnLabel_119, ??CrossCallReturnLabel_4
          CFI R6 load(1, XDATA, add(CFA_XSP16, literal(-20)))
          CFI VB load(1, XDATA, add(CFA_XSP16, literal(-19)))
          CFI V0 load(1, XDATA, add(CFA_XSP16, literal(-18)))
          CFI V1 load(1, XDATA, add(CFA_XSP16, literal(-17)))
          CFI V2 load(1, XDATA, add(CFA_XSP16, literal(-16)))
          CFI V3 load(1, XDATA, add(CFA_XSP16, literal(-15)))
          CFI V4 load(1, XDATA, add(CFA_XSP16, literal(-14)))
          CFI V5 load(1, XDATA, add(CFA_XSP16, literal(-13)))
          CFI V6 load(1, XDATA, add(CFA_XSP16, literal(-12)))
          CFI V7 load(1, XDATA, add(CFA_XSP16, literal(-11)))
          CFI V8 load(1, XDATA, add(CFA_XSP16, literal(-10)))
          CFI V9 load(1, XDATA, add(CFA_XSP16, literal(-9)))
          CFI V10 load(1, XDATA, add(CFA_XSP16, literal(-8)))
          CFI V11 load(1, XDATA, add(CFA_XSP16, literal(-7)))
          CFI R7 load(1, XDATA, add(CFA_XSP16, literal(-6)))
          CFI ?RET_LOW load(1, XDATA, add(CFA_XSP16, literal(-5)))
          CFI ?RET_HIGH load(1, XDATA, add(CFA_XSP16, literal(-4)))
          CFI ?BRET_EXT load(1, XDATA, add(CFA_XSP16, literal(-3)))
          CFI DPL0 load(1, XDATA, add(CFA_XSP16, literal(-2)))
          CFI DPH0 load(1, XDATA, add(CFA_XSP16, literal(-1)))
          CFI CFA_SP SP+-4
          CFI CFA_XSP16 add(XSP16, 20)
          CFI Block cfiCond355 Using cfiCommon0
          CFI (cfiCond355) Function ZDP_SimpleDescMsg
          CFI (cfiCond355) Conditional ??CrossCallReturnLabel_119, ??CrossCallReturnLabel_5
          CFI (cfiCond355) R6 load(1, XDATA, add(CFA_XSP16, literal(-20)))
          CFI (cfiCond355) VB load(1, XDATA, add(CFA_XSP16, literal(-19)))
          CFI (cfiCond355) V0 load(1, XDATA, add(CFA_XSP16, literal(-18)))
          CFI (cfiCond355) V1 load(1, XDATA, add(CFA_XSP16, literal(-17)))
          CFI (cfiCond355) V2 load(1, XDATA, add(CFA_XSP16, literal(-16)))
          CFI (cfiCond355) V3 load(1, XDATA, add(CFA_XSP16, literal(-15)))
          CFI (cfiCond355) V4 load(1, XDATA, add(CFA_XSP16, literal(-14)))
          CFI (cfiCond355) V5 load(1, XDATA, add(CFA_XSP16, literal(-13)))
          CFI (cfiCond355) V6 load(1, XDATA, add(CFA_XSP16, literal(-12)))
          CFI (cfiCond355) V7 load(1, XDATA, add(CFA_XSP16, literal(-11)))
          CFI (cfiCond355) V8 load(1, XDATA, add(CFA_XSP16, literal(-10)))
          CFI (cfiCond355) V9 load(1, XDATA, add(CFA_XSP16, literal(-9)))
          CFI (cfiCond355) V10 load(1, XDATA, add(CFA_XSP16, literal(-8)))
          CFI (cfiCond355) V11 load(1, XDATA, add(CFA_XSP16, literal(-7)))
          CFI (cfiCond355) R7 load(1, XDATA, add(CFA_XSP16, literal(-6)))
          CFI (cfiCond355) ?RET_LOW load(1, XDATA, add(CFA_XSP16, literal(-5)))
          CFI (cfiCond355) ?RET_HIGH load(1, XDATA, add(CFA_XSP16, literal(-4)))
          CFI (cfiCond355) ?BRET_EXT load(1, XDATA, add(CFA_XSP16, literal(-3)))
          CFI (cfiCond355) DPL0 load(1, XDATA, add(CFA_XSP16, literal(-2)))
          CFI (cfiCond355) DPH0 load(1, XDATA, add(CFA_XSP16, literal(-1)))
          CFI (cfiCond355) CFA_SP SP+-4
          CFI (cfiCond355) CFA_XSP16 add(XSP16, 20)
          CFI Block cfiCond356 Using cfiCommon0
          CFI (cfiCond356) Function ZDP_SimpleDescMsg
          CFI (cfiCond356) Conditional ??CrossCallReturnLabel_120, ??CrossCallReturnLabel_81
          CFI (cfiCond356) R6 load(1, XDATA, add(CFA_XSP16, literal(-20)))
          CFI (cfiCond356) VB load(1, XDATA, add(CFA_XSP16, literal(-19)))
          CFI (cfiCond356) V0 load(1, XDATA, add(CFA_XSP16, literal(-18)))
          CFI (cfiCond356) V1 load(1, XDATA, add(CFA_XSP16, literal(-17)))
          CFI (cfiCond356) V2 load(1, XDATA, add(CFA_XSP16, literal(-16)))
          CFI (cfiCond356) V3 load(1, XDATA, add(CFA_XSP16, literal(-15)))
          CFI (cfiCond356) V4 load(1, XDATA, add(CFA_XSP16, literal(-14)))
          CFI (cfiCond356) V5 load(1, XDATA, add(CFA_XSP16, literal(-13)))
          CFI (cfiCond356) V6 load(1, XDATA, add(CFA_XSP16, literal(-12)))
          CFI (cfiCond356) V7 load(1, XDATA, add(CFA_XSP16, literal(-11)))
          CFI (cfiCond356) V8 load(1, XDATA, add(CFA_XSP16, literal(-10)))
          CFI (cfiCond356) V9 load(1, XDATA, add(CFA_XSP16, literal(-9)))
          CFI (cfiCond356) V10 load(1, XDATA, add(CFA_XSP16, literal(-8)))
          CFI (cfiCond356) V11 load(1, XDATA, add(CFA_XSP16, literal(-7)))
          CFI (cfiCond356) R7 load(1, XDATA, add(CFA_XSP16, literal(-6)))
          CFI (cfiCond356) ?RET_LOW load(1, XDATA, add(CFA_XSP16, literal(-5)))
          CFI (cfiCond356) ?RET_HIGH load(1, XDATA, add(CFA_XSP16, literal(-4)))
          CFI (cfiCond356) ?BRET_EXT load(1, XDATA, add(CFA_XSP16, literal(-3)))
          CFI (cfiCond356) DPL0 load(1, XDATA, add(CFA_XSP16, literal(-2)))
          CFI (cfiCond356) DPH0 load(1, XDATA, add(CFA_XSP16, literal(-1)))
          CFI (cfiCond356) CFA_SP SP+-4
          CFI (cfiCond356) CFA_XSP16 add(XSP16, 20)
          CFI Block cfiCond357 Using cfiCommon0
          CFI (cfiCond357) Function ZDP_MgmtLqiRsp
          CFI (cfiCond357) Conditional ??CrossCallReturnLabel_120, ??CrossCallReturnLabel_82
          CFI (cfiCond357) R6 load(1, XDATA, add(CFA_XSP16, literal(-21)))
          CFI (cfiCond357) VB load(1, XDATA, add(CFA_XSP16, literal(-20)))
          CFI (cfiCond357) V0 load(1, XDATA, add(CFA_XSP16, literal(-19)))
          CFI (cfiCond357) V1 load(1, XDATA, add(CFA_XSP16, literal(-18)))
          CFI (cfiCond357) V2 load(1, XDATA, add(CFA_XSP16, literal(-17)))
          CFI (cfiCond357) V3 load(1, XDATA, add(CFA_XSP16, literal(-16)))
          CFI (cfiCond357) V4 load(1, XDATA, add(CFA_XSP16, literal(-15)))
          CFI (cfiCond357) V5 load(1, XDATA, add(CFA_XSP16, literal(-14)))
          CFI (cfiCond357) V6 load(1, XDATA, add(CFA_XSP16, literal(-13)))
          CFI (cfiCond357) V7 load(1, XDATA, add(CFA_XSP16, literal(-12)))
          CFI (cfiCond357) V8 load(1, XDATA, add(CFA_XSP16, literal(-11)))
          CFI (cfiCond357) V9 load(1, XDATA, add(CFA_XSP16, literal(-10)))
          CFI (cfiCond357) V10 load(1, XDATA, add(CFA_XSP16, literal(-9)))
          CFI (cfiCond357) V11 load(1, XDATA, add(CFA_XSP16, literal(-8)))
          CFI (cfiCond357) V12 load(1, XDATA, add(CFA_XSP16, literal(-7)))
          CFI (cfiCond357) R7 load(1, XDATA, add(CFA_XSP16, literal(-6)))
          CFI (cfiCond357) ?RET_LOW load(1, XDATA, add(CFA_XSP16, literal(-5)))
          CFI (cfiCond357) ?RET_HIGH load(1, XDATA, add(CFA_XSP16, literal(-4)))
          CFI (cfiCond357) ?BRET_EXT load(1, XDATA, add(CFA_XSP16, literal(-3)))
          CFI (cfiCond357) DPL0 load(1, XDATA, add(CFA_XSP16, literal(-2)))
          CFI (cfiCond357) DPH0 load(1, XDATA, add(CFA_XSP16, literal(-1)))
          CFI (cfiCond357) CFA_SP SP+-4
          CFI (cfiCond357) CFA_XSP16 add(XSP16, 22)
          CFI Block cfiPicker358 Using cfiCommon1
          CFI (cfiPicker358) NoFunction
          CFI (cfiPicker358) Picker
        MOVX      A,@DPTR
        MOV       DPL,R0
        MOV       DPH,R1
        INC       DPTR
        INC       DPTR
        INC       DPTR
        INC       DPTR
        INC       DPTR
        RET
          CFI EndBlock cfiCond354
          CFI EndBlock cfiCond355
          CFI EndBlock cfiCond356
          CFI EndBlock cfiCond357
          CFI EndBlock cfiPicker358

        RSEG BANKED_CODE:HUGECODE:NOROOT(0)
?Subroutine34:
          CFI Block cfiCond359 Using cfiCommon0
          CFI Function ZDP_MgmtLqiRsp
          CFI Conditional ??CrossCallReturnLabel_44
          CFI R6 load(1, XDATA, add(CFA_XSP16, literal(-21)))
          CFI VB load(1, XDATA, add(CFA_XSP16, literal(-20)))
          CFI V0 load(1, XDATA, add(CFA_XSP16, literal(-19)))
          CFI V1 load(1, XDATA, add(CFA_XSP16, literal(-18)))
          CFI V2 load(1, XDATA, add(CFA_XSP16, literal(-17)))
          CFI V3 load(1, XDATA, add(CFA_XSP16, literal(-16)))
          CFI V4 load(1, XDATA, add(CFA_XSP16, literal(-15)))
          CFI V5 load(1, XDATA, add(CFA_XSP16, literal(-14)))
          CFI V6 load(1, XDATA, add(CFA_XSP16, literal(-13)))
          CFI V7 load(1, XDATA, add(CFA_XSP16, literal(-12)))
          CFI V8 load(1, XDATA, add(CFA_XSP16, literal(-11)))
          CFI V9 load(1, XDATA, add(CFA_XSP16, literal(-10)))
          CFI V10 load(1, XDATA, add(CFA_XSP16, literal(-9)))
          CFI V11 load(1, XDATA, add(CFA_XSP16, literal(-8)))
          CFI V12 load(1, XDATA, add(CFA_XSP16, literal(-7)))
          CFI R7 load(1, XDATA, add(CFA_XSP16, literal(-6)))
          CFI ?RET_LOW load(1, XDATA, add(CFA_XSP16, literal(-5)))
          CFI ?RET_HIGH load(1, XDATA, add(CFA_XSP16, literal(-4)))
          CFI ?BRET_EXT load(1, XDATA, add(CFA_XSP16, literal(-3)))
          CFI DPL0 load(1, XDATA, add(CFA_XSP16, literal(-2)))
          CFI DPH0 load(1, XDATA, add(CFA_XSP16, literal(-1)))
          CFI CFA_SP SP+-2
          CFI CFA_XSP16 add(XSP16, 22)
          CFI Block cfiCond360 Using cfiCommon0
          CFI (cfiCond360) Function ZDP_MgmtLqiRsp
          CFI (cfiCond360) Conditional ??CrossCallReturnLabel_45
          CFI (cfiCond360) R6 load(1, XDATA, add(CFA_XSP16, literal(-21)))
          CFI (cfiCond360) VB load(1, XDATA, add(CFA_XSP16, literal(-20)))
          CFI (cfiCond360) V0 load(1, XDATA, add(CFA_XSP16, literal(-19)))
          CFI (cfiCond360) V1 load(1, XDATA, add(CFA_XSP16, literal(-18)))
          CFI (cfiCond360) V2 load(1, XDATA, add(CFA_XSP16, literal(-17)))
          CFI (cfiCond360) V3 load(1, XDATA, add(CFA_XSP16, literal(-16)))
          CFI (cfiCond360) V4 load(1, XDATA, add(CFA_XSP16, literal(-15)))
          CFI (cfiCond360) V5 load(1, XDATA, add(CFA_XSP16, literal(-14)))
          CFI (cfiCond360) V6 load(1, XDATA, add(CFA_XSP16, literal(-13)))
          CFI (cfiCond360) V7 load(1, XDATA, add(CFA_XSP16, literal(-12)))
          CFI (cfiCond360) V8 load(1, XDATA, add(CFA_XSP16, literal(-11)))
          CFI (cfiCond360) V9 load(1, XDATA, add(CFA_XSP16, literal(-10)))
          CFI (cfiCond360) V10 load(1, XDATA, add(CFA_XSP16, literal(-9)))
          CFI (cfiCond360) V11 load(1, XDATA, add(CFA_XSP16, literal(-8)))
          CFI (cfiCond360) V12 load(1, XDATA, add(CFA_XSP16, literal(-7)))
          CFI (cfiCond360) R7 load(1, XDATA, add(CFA_XSP16, literal(-6)))
          CFI (cfiCond360) ?RET_LOW load(1, XDATA, add(CFA_XSP16, literal(-5)))
          CFI (cfiCond360) ?RET_HIGH load(1, XDATA, add(CFA_XSP16, literal(-4)))
          CFI (cfiCond360) ?BRET_EXT load(1, XDATA, add(CFA_XSP16, literal(-3)))
          CFI (cfiCond360) DPL0 load(1, XDATA, add(CFA_XSP16, literal(-2)))
          CFI (cfiCond360) DPH0 load(1, XDATA, add(CFA_XSP16, literal(-1)))
          CFI (cfiCond360) CFA_SP SP+-2
          CFI (cfiCond360) CFA_XSP16 add(XSP16, 22)
          CFI Block cfiPicker361 Using cfiCommon1
          CFI (cfiPicker361) NoFunction
          CFI (cfiPicker361) Picker
        MOVX      @DPTR,A
        ; Setup parameters for call to function fillAndSend
        ; Setup parameters for call to function fillAndSend
        MOV       ?V0,#0x31
        MOV       ?V1,#-0x80
        MOV       R0,#?V0
        RET
          CFI EndBlock cfiCond359
          CFI EndBlock cfiCond360
          CFI EndBlock cfiPicker361

        RSEG BANKED_CODE:HUGECODE:NOROOT(0)
?Subroutine24:
          CFI Block cfiCond362 Using cfiCommon0
          CFI Function ZDP_MgmtNwkDiscRsp
          CFI Conditional ??CrossCallReturnLabel_28
          CFI R6 load(1, XDATA, add(CFA_XSP16, literal(-22)))
          CFI VB load(1, XDATA, add(CFA_XSP16, literal(-21)))
          CFI V0 load(1, XDATA, add(CFA_XSP16, literal(-20)))
          CFI V1 load(1, XDATA, add(CFA_XSP16, literal(-19)))
          CFI V2 load(1, XDATA, add(CFA_XSP16, literal(-18)))
          CFI V3 load(1, XDATA, add(CFA_XSP16, literal(-17)))
          CFI V4 load(1, XDATA, add(CFA_XSP16, literal(-16)))
          CFI V5 load(1, XDATA, add(CFA_XSP16, literal(-15)))
          CFI V6 load(1, XDATA, add(CFA_XSP16, literal(-14)))
          CFI V7 load(1, XDATA, add(CFA_XSP16, literal(-13)))
          CFI V8 load(1, XDATA, add(CFA_XSP16, literal(-12)))
          CFI V9 load(1, XDATA, add(CFA_XSP16, literal(-11)))
          CFI V10 load(1, XDATA, add(CFA_XSP16, literal(-10)))
          CFI V11 load(1, XDATA, add(CFA_XSP16, literal(-9)))
          CFI V12 load(1, XDATA, add(CFA_XSP16, literal(-8)))
          CFI V13 load(1, XDATA, add(CFA_XSP16, literal(-7)))
          CFI R7 load(1, XDATA, add(CFA_XSP16, literal(-6)))
          CFI ?RET_LOW load(1, XDATA, add(CFA_XSP16, literal(-5)))
          CFI ?RET_HIGH load(1, XDATA, add(CFA_XSP16, literal(-4)))
          CFI ?BRET_EXT load(1, XDATA, add(CFA_XSP16, literal(-3)))
          CFI DPL0 load(1, XDATA, add(CFA_XSP16, literal(-2)))
          CFI DPH0 load(1, XDATA, add(CFA_XSP16, literal(-1)))
          CFI CFA_SP SP+-2
          CFI CFA_XSP16 add(XSP16, 23)
          CFI Block cfiCond363 Using cfiCommon0
          CFI (cfiCond363) Function ZDP_MgmtLqiRsp
          CFI (cfiCond363) Conditional ??CrossCallReturnLabel_29
          CFI (cfiCond363) R6 load(1, XDATA, add(CFA_XSP16, literal(-21)))
          CFI (cfiCond363) VB load(1, XDATA, add(CFA_XSP16, literal(-20)))
          CFI (cfiCond363) V0 load(1, XDATA, add(CFA_XSP16, literal(-19)))
          CFI (cfiCond363) V1 load(1, XDATA, add(CFA_XSP16, literal(-18)))
          CFI (cfiCond363) V2 load(1, XDATA, add(CFA_XSP16, literal(-17)))
          CFI (cfiCond363) V3 load(1, XDATA, add(CFA_XSP16, literal(-16)))
          CFI (cfiCond363) V4 load(1, XDATA, add(CFA_XSP16, literal(-15)))
          CFI (cfiCond363) V5 load(1, XDATA, add(CFA_XSP16, literal(-14)))
          CFI (cfiCond363) V6 load(1, XDATA, add(CFA_XSP16, literal(-13)))
          CFI (cfiCond363) V7 load(1, XDATA, add(CFA_XSP16, literal(-12)))
          CFI (cfiCond363) V8 load(1, XDATA, add(CFA_XSP16, literal(-11)))
          CFI (cfiCond363) V9 load(1, XDATA, add(CFA_XSP16, literal(-10)))
          CFI (cfiCond363) V10 load(1, XDATA, add(CFA_XSP16, literal(-9)))
          CFI (cfiCond363) V11 load(1, XDATA, add(CFA_XSP16, literal(-8)))
          CFI (cfiCond363) V12 load(1, XDATA, add(CFA_XSP16, literal(-7)))
          CFI (cfiCond363) R7 load(1, XDATA, add(CFA_XSP16, literal(-6)))
          CFI (cfiCond363) ?RET_LOW load(1, XDATA, add(CFA_XSP16, literal(-5)))
          CFI (cfiCond363) ?RET_HIGH load(1, XDATA, add(CFA_XSP16, literal(-4)))
          CFI (cfiCond363) ?BRET_EXT load(1, XDATA, add(CFA_XSP16, literal(-3)))
          CFI (cfiCond363) DPL0 load(1, XDATA, add(CFA_XSP16, literal(-2)))
          CFI (cfiCond363) DPH0 load(1, XDATA, add(CFA_XSP16, literal(-1)))
          CFI (cfiCond363) CFA_SP SP+-2
          CFI (cfiCond363) CFA_XSP16 add(XSP16, 22)
          CFI Block cfiCond364 Using cfiCommon0
          CFI (cfiCond364) Function ZDP_MgmtBindRsp
          CFI (cfiCond364) Conditional ??CrossCallReturnLabel_30
          CFI (cfiCond364) R6 load(1, XDATA, add(CFA_XSP16, literal(-22)))
          CFI (cfiCond364) VB load(1, XDATA, add(CFA_XSP16, literal(-21)))
          CFI (cfiCond364) V0 load(1, XDATA, add(CFA_XSP16, literal(-20)))
          CFI (cfiCond364) V1 load(1, XDATA, add(CFA_XSP16, literal(-19)))
          CFI (cfiCond364) V2 load(1, XDATA, add(CFA_XSP16, literal(-18)))
          CFI (cfiCond364) V3 load(1, XDATA, add(CFA_XSP16, literal(-17)))
          CFI (cfiCond364) V4 load(1, XDATA, add(CFA_XSP16, literal(-16)))
          CFI (cfiCond364) V5 load(1, XDATA, add(CFA_XSP16, literal(-15)))
          CFI (cfiCond364) V6 load(1, XDATA, add(CFA_XSP16, literal(-14)))
          CFI (cfiCond364) V7 load(1, XDATA, add(CFA_XSP16, literal(-13)))
          CFI (cfiCond364) V8 load(1, XDATA, add(CFA_XSP16, literal(-12)))
          CFI (cfiCond364) V9 load(1, XDATA, add(CFA_XSP16, literal(-11)))
          CFI (cfiCond364) V10 load(1, XDATA, add(CFA_XSP16, literal(-10)))
          CFI (cfiCond364) V11 load(1, XDATA, add(CFA_XSP16, literal(-9)))
          CFI (cfiCond364) V12 load(1, XDATA, add(CFA_XSP16, literal(-8)))
          CFI (cfiCond364) V13 load(1, XDATA, add(CFA_XSP16, literal(-7)))
          CFI (cfiCond364) R7 load(1, XDATA, add(CFA_XSP16, literal(-6)))
          CFI (cfiCond364) ?RET_LOW load(1, XDATA, add(CFA_XSP16, literal(-5)))
          CFI (cfiCond364) ?RET_HIGH load(1, XDATA, add(CFA_XSP16, literal(-4)))
          CFI (cfiCond364) ?BRET_EXT load(1, XDATA, add(CFA_XSP16, literal(-3)))
          CFI (cfiCond364) DPL0 load(1, XDATA, add(CFA_XSP16, literal(-2)))
          CFI (cfiCond364) DPH0 load(1, XDATA, add(CFA_XSP16, literal(-1)))
          CFI (cfiCond364) CFA_SP SP+-2
          CFI (cfiCond364) CFA_XSP16 add(XSP16, 23)
          CFI Block cfiPicker365 Using cfiCommon1
          CFI (cfiPicker365) NoFunction
          CFI (cfiPicker365) Picker
        MOV       DPTR,#ZDP_TmpBuf
        MOV       A,#(ZDP_Buf + 1) & 0xff
        MOVX      @DPTR,A
        INC       DPTR
        MOV       A,#((ZDP_Buf + 1) >> 8) & 0xff
        MOVX      @DPTR,A
        MOV       A,R6
        MOV       R1,A
        RET
          CFI EndBlock cfiCond362
          CFI EndBlock cfiCond363
          CFI EndBlock cfiCond364
          CFI EndBlock cfiPicker365
// 1614 
// 1615 /*********************************************************************
// 1616  * @fn          ZDP_MgmtRtgRsp
// 1617  *
// 1618  * @brief       This builds and send a Mgmt_Rtg_rsp message. This
// 1619  *              function sends a unicast message.
// 1620  *
// 1621  * @param       dstAddr - destination address of the message
// 1622  * @param       Status - message status (ZDP_SUCCESS or other)
// 1623  * @param       RoutingTableEntries - Total number of entries
// 1624  * @param       StartIndex - Starting index within the reporting list
// 1625  * @param       RoutingTableListCount - number of entries included
// 1626  *                                      in this message
// 1627  * @param       RoutingTableList - List of Routing Table entries
// 1628  * @param       SecurityEnable - true to enable security for this message
// 1629  *
// 1630  * @return      ZStatus_t
// 1631  */

        RSEG BANKED_CODE:HUGECODE:NOROOT(0)
// 1632 ZStatus_t ZDP_MgmtRtgRsp( byte TransSeq, zAddrType_t *dstAddr,
ZDP_MgmtRtgRsp:
          CFI Block cfiBlock366 Using cfiCommon0
          CFI Function ZDP_MgmtRtgRsp
        CODE
// 1633                             byte Status,
// 1634                             byte RoutingTableEntries,
// 1635                             byte StartIndex,
// 1636                             byte RoutingListCount,
// 1637                             rtgItem_t *RoutingTableList,
// 1638                             byte SecurityEnable )
// 1639 {
        FUNCALL ZDP_MgmtRtgRsp, osal_mem_alloc
        LOCFRAME ISTACK, 0, STACK
        LOCFRAME PSTACK, 0, STACK
        LOCFRAME XSTACK, 21, STACK
        LOCFRAME IOVERLAY, 0, STATIC
        LOCFRAME DOVERLAY, 0, STATIC
        ARGFRAME ISTACK, 0, STACK
        ARGFRAME PSTACK, 0, STACK
        ARGFRAME XSTACK, 21, STACK
        ARGFRAME IOVERLAY, 0, STATIC
        ARGFRAME DOVERLAY, 0, STATIC
        FUNCALL ZDP_MgmtRtgRsp, fillAndSend
        LOCFRAME ISTACK, 0, STACK
        LOCFRAME PSTACK, 0, STACK
        LOCFRAME XSTACK, 23, STACK
        LOCFRAME IOVERLAY, 0, STATIC
        LOCFRAME DOVERLAY, 0, STATIC
        ARGFRAME ISTACK, 0, STACK
        ARGFRAME PSTACK, 0, STACK
        ARGFRAME XSTACK, 23, STACK
        ARGFRAME IOVERLAY, 0, STATIC
        ARGFRAME DOVERLAY, 0, STATIC
        FUNCALL ZDP_MgmtRtgRsp, osal_mem_free
        LOCFRAME ISTACK, 0, STACK
        LOCFRAME PSTACK, 0, STACK
        LOCFRAME XSTACK, 21, STACK
        LOCFRAME IOVERLAY, 0, STATIC
        LOCFRAME DOVERLAY, 0, STATIC
        ARGFRAME ISTACK, 0, STACK
        ARGFRAME PSTACK, 0, STACK
        ARGFRAME XSTACK, 21, STACK
        ARGFRAME IOVERLAY, 0, STATIC
        ARGFRAME DOVERLAY, 0, STATIC
        REQUIRE ?V0
        REQUIRE ?V1
        REQUIRE ?V2
        REQUIRE ?V3
        REQUIRE ?V4
        REQUIRE ?V5
        REQUIRE ?V6
        REQUIRE ?V7
        REQUIRE ?V8
        REQUIRE ?V9
        REQUIRE ?V10
        REQUIRE ?V11
        MOV       A,#-0x14
        LCALL     ?BANKED_ENTER_XDATA
          CFI DPH0 load(1, XDATA, add(CFA_XSP16, literal(-1)))
          CFI DPL0 load(1, XDATA, add(CFA_XSP16, literal(-2)))
          CFI ?BRET_EXT load(1, XDATA, add(CFA_XSP16, literal(-3)))
          CFI ?RET_HIGH load(1, XDATA, add(CFA_XSP16, literal(-4)))
          CFI ?RET_LOW load(1, XDATA, add(CFA_XSP16, literal(-5)))
          CFI R7 load(1, XDATA, add(CFA_XSP16, literal(-6)))
          CFI V11 load(1, XDATA, add(CFA_XSP16, literal(-7)))
          CFI V10 load(1, XDATA, add(CFA_XSP16, literal(-8)))
          CFI V9 load(1, XDATA, add(CFA_XSP16, literal(-9)))
          CFI V8 load(1, XDATA, add(CFA_XSP16, literal(-10)))
          CFI V7 load(1, XDATA, add(CFA_XSP16, literal(-11)))
          CFI V6 load(1, XDATA, add(CFA_XSP16, literal(-12)))
          CFI V5 load(1, XDATA, add(CFA_XSP16, literal(-13)))
          CFI V4 load(1, XDATA, add(CFA_XSP16, literal(-14)))
          CFI V3 load(1, XDATA, add(CFA_XSP16, literal(-15)))
          CFI V2 load(1, XDATA, add(CFA_XSP16, literal(-16)))
          CFI V1 load(1, XDATA, add(CFA_XSP16, literal(-17)))
          CFI V0 load(1, XDATA, add(CFA_XSP16, literal(-18)))
          CFI VB load(1, XDATA, add(CFA_XSP16, literal(-19)))
          CFI R6 load(1, XDATA, add(CFA_XSP16, literal(-20)))
          CFI CFA_SP SP+0
          CFI CFA_XSP16 add(XSP16, 20)
        ; Saved register size: 20
        ; Auto size: 1
        MOV       A,#-0x1
        LCALL     ?ALLOC_XSTACK8
          CFI CFA_XSP16 add(XSP16, 21)
        MOV       A,R1
        MOV       DPL,?XSP + 0
        MOV       DPH,?XSP + 1
        MOVX      @DPTR,A
        MOV       ?V2,R2
        MOV       ?V3,R3
        MOV       ?V1,R4
        MOV       ?V0,R5
        MOV       A,#0x16
        LCALL     ?XSTACK_DISP0_8
        MOVX      A,@DPTR
        MOV       ?V5,A
// 1640   uint8 *buf;
// 1641   uint8 *pBuf;
// 1642   // Status + RoutingTableEntries + StartIndex + RoutingListCount.
// 1643   byte len = 1 + 1 + 1 + 1;
// 1644   byte x;
// 1645 
// 1646   (void)SecurityEnable;  // Intentionally unreferenced parameter
// 1647 
// 1648   // Add an array for Routing List data
// 1649   len += (RoutingListCount * ZDP_ROUTINGENTRY_SIZE);
        MOV       B,#0x5
        MUL       AB
        ADD       A,#0x4
        MOV       ?V4,A
// 1650 
// 1651   buf = osal_mem_alloc( (short)(len+1) );
        ; Setup parameters for call to function osal_mem_alloc
        LCALL     ?Subroutine66 & 0xFFFF
??CrossCallReturnLabel_103:
        LCALL     `??osal_mem_alloc::?relay`; Banked call to: osal_mem_alloc
        MOV       ?V6,R2
        MOV       ?V7,R3
        MOV       R6,?V6
        MOV       R7,?V7
// 1652   if ( buf == NULL )
        MOV       A,R6
        ORL       A,R7
        JNZ       ??ZDP_MgmtRtgRsp_0
// 1653   {
// 1654     return afStatus_MEM_FAIL;
        MOV       R1,#0x10
        LJMP      ??ZDP_MgmtRtgRsp_1 & 0xFFFF
// 1655   }
// 1656 
// 1657   pBuf = buf+1;
??ZDP_MgmtRtgRsp_0:
        MOV       DPL,R6
        MOV       DPH,R7
        INC       DPTR
        MOV       R0,DPL
        MOV       R1,DPH
        MOV       A,R0
        MOV       R2,A
        MOV       A,R1
        MOV       R3,A
// 1658 
// 1659   *pBuf++ = Status;
        MOV       A,?V1
        MOVX      @DPTR,A
// 1660   *pBuf++ = RoutingTableEntries;
        INC       DPTR
        MOV       A,?V0
        MOVX      @DPTR,A
// 1661   *pBuf++ = StartIndex;
        MOV       A,#0x15
        LCALL     ?XSTACK_DISP0_8
        LCALL     ?Subroutine37 & 0xFFFF
// 1662   *pBuf++ = RoutingListCount;
??CrossCallReturnLabel_50:
        MOV       A,?V5
        LCALL     ??Subroutine113_0 & 0xFFFF
??CrossCallReturnLabel_212:
        JNC       ??ZDP_MgmtRtgRsp_2
        INC       R3
// 1663 
// 1664   for ( x = 0; x < RoutingListCount; x++ )
??ZDP_MgmtRtgRsp_2:
        MOV       ?V6,#0x0
        MOV       A,#0x17
        LCALL     ?XSTACK_DISP0_8
        LCALL     ?Subroutine44 & 0xFFFF
??CrossCallReturnLabel_67:
        LJMP      ??ZDP_MgmtRtgRsp_3 & 0xFFFF
// 1665   {
// 1666     *pBuf++ = LO_UINT16( RoutingTableList->dstAddress );  // Destination Address
??ZDP_MgmtRtgRsp_4:
        LCALL     ?Subroutine14 & 0xFFFF
// 1667     *pBuf++ = HI_UINT16( RoutingTableList->dstAddress );
// 1668 
// 1669     *pBuf = (RoutingTableList->status & 0x07);
??CrossCallReturnLabel_8:
        MOV       ?V8,A
        CLR       A
        ADDC      A,R3
        MOV       ?V9,A
        MOV       DPL,R4
        MOV       DPH,R5
        INC       DPTR
        INC       DPTR
        INC       DPTR
        INC       DPTR
        INC       DPTR
        MOVX      A,@DPTR
        ANL       A,#0x7
        MOV       DPL,?V8
        MOV       DPH,?V9
        MOVX      @DPTR,A
// 1670     if ( RoutingTableList->options & (ZP_MTO_ROUTE_RC | ZP_MTO_ROUTE_NRC) )
        MOV       A,R4
        ADD       A,#0x6
        MOV       DPL,A
        CLR       A
        ADDC      A,R5
        MOV       DPH,A
        MOVX      A,@DPTR
        ANL       A,#0x18
        JZ        ??ZDP_MgmtRtgRsp_5
// 1671     {
// 1672       uint8 options = 0;
// 1673       options |= ZDO_MGMT_RTG_ENTRY_MANYTOONE;
        MOV       ?V7,#0x2
// 1674 
// 1675       if ( RoutingTableList->options & ZP_RTG_RECORD )
        MOVX      A,@DPTR
        MOV       C,0xE0 /* A   */.2
        JNC       ??ZDP_MgmtRtgRsp_6
// 1676       {
// 1677         options |= ZDO_MGMT_RTG_ENTRY_ROUTE_RECORD_REQUIRED;
        MOV       ?V7,#0x6
// 1678       }
// 1679 
// 1680       if ( RoutingTableList->options & ZP_MTO_ROUTE_NRC )
??ZDP_MgmtRtgRsp_6:
        MOV       C,0xE0 /* A   */.4
        JNC       ??ZDP_MgmtRtgRsp_7
// 1681       {
// 1682         options |= ZDO_MGMT_RTG_ENTRY_MEMORY_CONSTRAINED;
        SETB      C
        MOV       A,?V7
        SETB      0xE0 /* A   */.0
        MOV       ?V7,A
// 1683       }
// 1684 
// 1685       *pBuf |= (options << 3);
??ZDP_MgmtRtgRsp_7:
        MOV       A,?V7
        RLC       A
        RLC       A
        RLC       A
        ANL       A,#0xf8
        MOV       ?V7,A
        MOV       DPL,?V8
        MOV       DPH,?V9
        MOVX      A,@DPTR
        ORL       A,?V7
        MOVX      @DPTR,A
// 1686     }
// 1687     pBuf++;
// 1688 
// 1689     *pBuf++ = LO_UINT16( RoutingTableList->nextHopAddress );  // Next hop
??ZDP_MgmtRtgRsp_5:
        MOV       A,R4
        ADD       A,#0x2
        MOV       ?V8,A
        CLR       A
        ADDC      A,R5
        MOV       ?V9,A
        MOV       DPL,?V8
        MOV       DPH,A
        LCALL     ?Subroutine64 & 0xFFFF
??CrossCallReturnLabel_99:
        MOVX      @DPTR,A
// 1690     *pBuf++ = HI_UINT16( RoutingTableList->nextHopAddress );
        MOV       DPL,?V8
        MOV       DPH,?V9
        INC       DPTR
        LCALL     ?Subroutine64 & 0xFFFF
??CrossCallReturnLabel_100:
        INC       DPTR
        MOVX      @DPTR,A
        MOV       A,R2
        ADD       A,#0x5
        MOV       R2,A
        JNC       ??ZDP_MgmtRtgRsp_8
        INC       R3
// 1691     RoutingTableList++;    // Move to next list entry
??ZDP_MgmtRtgRsp_8:
        MOV       A,R4
        ADD       A,#0x7
        MOV       R4,A
        JNC       ??ZDP_MgmtRtgRsp_9
        INC       R5
// 1692   }
??ZDP_MgmtRtgRsp_9:
        INC       ?V6
??ZDP_MgmtRtgRsp_3:
        MOV       A,?V6
        CLR       C
        SUBB      A,?V5
        JNC       $+5
        LJMP      ??ZDP_MgmtRtgRsp_4 & 0xFFFF
// 1693 
// 1694   FillAndSendBuffer( &TransSeq, dstAddr, Mgmt_Rtg_rsp, len, buf );
        MOV       DPTR,#ZDP_TmpBuf
        LCALL     ?Subroutine28 & 0xFFFF
??CrossCallReturnLabel_34:
        ; Setup parameters for call to function fillAndSend
        MOV       ?V6,#0x32
        MOV       ?V7,#-0x80
        MOV       R0,#?V6
        LCALL     ?PUSH_XSTACK_I_TWO
          CFI CFA_XSP16 add(XSP16, 23)
        MOV       R1,?V4
        MOV       R4,?V2
        MOV       R5,?V3
        MOV       A,#0x2
        LCALL     ?XSTACK_DISP101_8
        LCALL     `??fillAndSend::?relay`; Banked call to: fillAndSend
        MOV       A,#0x2
        LCALL     ?DEALLOC_XSTACK8
          CFI CFA_XSP16 add(XSP16, 21)
        MOV       A,R1
        MOV       ?V2,A
        ; Setup parameters for call to function osal_mem_free
        MOV       A,R6
        MOV       R2,A
        MOV       A,R7
        MOV       R3,A
        LCALL     `??osal_mem_free::?relay`; Banked call to: osal_mem_free
        MOV       DPTR,#ZDP_TmpBuf
        MOV       A,#(ZDP_Buf + 1) & 0xff
        MOVX      @DPTR,A
        INC       DPTR
        MOV       A,#((ZDP_Buf + 1) >> 8) & 0xff
        MOVX      @DPTR,A
        MOV       R1,?V2
??ZDP_MgmtRtgRsp_1:
        MOV       A,#0x1
        LCALL     ?DEALLOC_XSTACK8
          CFI CFA_XSP16 add(XSP16, 20)
        LJMP      ?Subroutine4 & 0xFFFF
// 1695 }
          CFI EndBlock cfiBlock366

        RSEG BANKED_CODE:HUGECODE:NOROOT(0)
?Subroutine66:
          CFI Block cfiCond367 Using cfiCommon0
          CFI Function ZDP_MgmtNwkDiscRsp
          CFI Conditional ??CrossCallReturnLabel_101
          CFI R6 load(1, XDATA, add(CFA_XSP16, literal(-22)))
          CFI VB load(1, XDATA, add(CFA_XSP16, literal(-21)))
          CFI V0 load(1, XDATA, add(CFA_XSP16, literal(-20)))
          CFI V1 load(1, XDATA, add(CFA_XSP16, literal(-19)))
          CFI V2 load(1, XDATA, add(CFA_XSP16, literal(-18)))
          CFI V3 load(1, XDATA, add(CFA_XSP16, literal(-17)))
          CFI V4 load(1, XDATA, add(CFA_XSP16, literal(-16)))
          CFI V5 load(1, XDATA, add(CFA_XSP16, literal(-15)))
          CFI V6 load(1, XDATA, add(CFA_XSP16, literal(-14)))
          CFI V7 load(1, XDATA, add(CFA_XSP16, literal(-13)))
          CFI V8 load(1, XDATA, add(CFA_XSP16, literal(-12)))
          CFI V9 load(1, XDATA, add(CFA_XSP16, literal(-11)))
          CFI V10 load(1, XDATA, add(CFA_XSP16, literal(-10)))
          CFI V11 load(1, XDATA, add(CFA_XSP16, literal(-9)))
          CFI V12 load(1, XDATA, add(CFA_XSP16, literal(-8)))
          CFI V13 load(1, XDATA, add(CFA_XSP16, literal(-7)))
          CFI R7 load(1, XDATA, add(CFA_XSP16, literal(-6)))
          CFI ?RET_LOW load(1, XDATA, add(CFA_XSP16, literal(-5)))
          CFI ?RET_HIGH load(1, XDATA, add(CFA_XSP16, literal(-4)))
          CFI ?BRET_EXT load(1, XDATA, add(CFA_XSP16, literal(-3)))
          CFI DPL0 load(1, XDATA, add(CFA_XSP16, literal(-2)))
          CFI DPH0 load(1, XDATA, add(CFA_XSP16, literal(-1)))
          CFI CFA_SP SP+-2
          CFI CFA_XSP16 add(XSP16, 23)
          CFI Block cfiCond368 Using cfiCommon0
          CFI (cfiCond368) Function ZDP_MgmtLqiRsp
          CFI (cfiCond368) Conditional ??CrossCallReturnLabel_102
          CFI (cfiCond368) R6 load(1, XDATA, add(CFA_XSP16, literal(-21)))
          CFI (cfiCond368) VB load(1, XDATA, add(CFA_XSP16, literal(-20)))
          CFI (cfiCond368) V0 load(1, XDATA, add(CFA_XSP16, literal(-19)))
          CFI (cfiCond368) V1 load(1, XDATA, add(CFA_XSP16, literal(-18)))
          CFI (cfiCond368) V2 load(1, XDATA, add(CFA_XSP16, literal(-17)))
          CFI (cfiCond368) V3 load(1, XDATA, add(CFA_XSP16, literal(-16)))
          CFI (cfiCond368) V4 load(1, XDATA, add(CFA_XSP16, literal(-15)))
          CFI (cfiCond368) V5 load(1, XDATA, add(CFA_XSP16, literal(-14)))
          CFI (cfiCond368) V6 load(1, XDATA, add(CFA_XSP16, literal(-13)))
          CFI (cfiCond368) V7 load(1, XDATA, add(CFA_XSP16, literal(-12)))
          CFI (cfiCond368) V8 load(1, XDATA, add(CFA_XSP16, literal(-11)))
          CFI (cfiCond368) V9 load(1, XDATA, add(CFA_XSP16, literal(-10)))
          CFI (cfiCond368) V10 load(1, XDATA, add(CFA_XSP16, literal(-9)))
          CFI (cfiCond368) V11 load(1, XDATA, add(CFA_XSP16, literal(-8)))
          CFI (cfiCond368) V12 load(1, XDATA, add(CFA_XSP16, literal(-7)))
          CFI (cfiCond368) R7 load(1, XDATA, add(CFA_XSP16, literal(-6)))
          CFI (cfiCond368) ?RET_LOW load(1, XDATA, add(CFA_XSP16, literal(-5)))
          CFI (cfiCond368) ?RET_HIGH load(1, XDATA, add(CFA_XSP16, literal(-4)))
          CFI (cfiCond368) ?BRET_EXT load(1, XDATA, add(CFA_XSP16, literal(-3)))
          CFI (cfiCond368) DPL0 load(1, XDATA, add(CFA_XSP16, literal(-2)))
          CFI (cfiCond368) DPH0 load(1, XDATA, add(CFA_XSP16, literal(-1)))
          CFI (cfiCond368) CFA_SP SP+-2
          CFI (cfiCond368) CFA_XSP16 add(XSP16, 22)
          CFI Block cfiCond369 Using cfiCommon0
          CFI (cfiCond369) Function ZDP_MgmtRtgRsp
          CFI (cfiCond369) Conditional ??CrossCallReturnLabel_103
          CFI (cfiCond369) R6 load(1, XDATA, add(CFA_XSP16, literal(-20)))
          CFI (cfiCond369) VB load(1, XDATA, add(CFA_XSP16, literal(-19)))
          CFI (cfiCond369) V0 load(1, XDATA, add(CFA_XSP16, literal(-18)))
          CFI (cfiCond369) V1 load(1, XDATA, add(CFA_XSP16, literal(-17)))
          CFI (cfiCond369) V2 load(1, XDATA, add(CFA_XSP16, literal(-16)))
          CFI (cfiCond369) V3 load(1, XDATA, add(CFA_XSP16, literal(-15)))
          CFI (cfiCond369) V4 load(1, XDATA, add(CFA_XSP16, literal(-14)))
          CFI (cfiCond369) V5 load(1, XDATA, add(CFA_XSP16, literal(-13)))
          CFI (cfiCond369) V6 load(1, XDATA, add(CFA_XSP16, literal(-12)))
          CFI (cfiCond369) V7 load(1, XDATA, add(CFA_XSP16, literal(-11)))
          CFI (cfiCond369) V8 load(1, XDATA, add(CFA_XSP16, literal(-10)))
          CFI (cfiCond369) V9 load(1, XDATA, add(CFA_XSP16, literal(-9)))
          CFI (cfiCond369) V10 load(1, XDATA, add(CFA_XSP16, literal(-8)))
          CFI (cfiCond369) V11 load(1, XDATA, add(CFA_XSP16, literal(-7)))
          CFI (cfiCond369) R7 load(1, XDATA, add(CFA_XSP16, literal(-6)))
          CFI (cfiCond369) ?RET_LOW load(1, XDATA, add(CFA_XSP16, literal(-5)))
          CFI (cfiCond369) ?RET_HIGH load(1, XDATA, add(CFA_XSP16, literal(-4)))
          CFI (cfiCond369) ?BRET_EXT load(1, XDATA, add(CFA_XSP16, literal(-3)))
          CFI (cfiCond369) DPL0 load(1, XDATA, add(CFA_XSP16, literal(-2)))
          CFI (cfiCond369) DPH0 load(1, XDATA, add(CFA_XSP16, literal(-1)))
          CFI (cfiCond369) CFA_SP SP+-2
          CFI (cfiCond369) CFA_XSP16 add(XSP16, 21)
          CFI Block cfiCond370 Using cfiCommon0
          CFI (cfiCond370) Function ZDP_MgmtBindRsp
          CFI (cfiCond370) Conditional ??CrossCallReturnLabel_104
          CFI (cfiCond370) R6 load(1, XDATA, add(CFA_XSP16, literal(-22)))
          CFI (cfiCond370) VB load(1, XDATA, add(CFA_XSP16, literal(-21)))
          CFI (cfiCond370) V0 load(1, XDATA, add(CFA_XSP16, literal(-20)))
          CFI (cfiCond370) V1 load(1, XDATA, add(CFA_XSP16, literal(-19)))
          CFI (cfiCond370) V2 load(1, XDATA, add(CFA_XSP16, literal(-18)))
          CFI (cfiCond370) V3 load(1, XDATA, add(CFA_XSP16, literal(-17)))
          CFI (cfiCond370) V4 load(1, XDATA, add(CFA_XSP16, literal(-16)))
          CFI (cfiCond370) V5 load(1, XDATA, add(CFA_XSP16, literal(-15)))
          CFI (cfiCond370) V6 load(1, XDATA, add(CFA_XSP16, literal(-14)))
          CFI (cfiCond370) V7 load(1, XDATA, add(CFA_XSP16, literal(-13)))
          CFI (cfiCond370) V8 load(1, XDATA, add(CFA_XSP16, literal(-12)))
          CFI (cfiCond370) V9 load(1, XDATA, add(CFA_XSP16, literal(-11)))
          CFI (cfiCond370) V10 load(1, XDATA, add(CFA_XSP16, literal(-10)))
          CFI (cfiCond370) V11 load(1, XDATA, add(CFA_XSP16, literal(-9)))
          CFI (cfiCond370) V12 load(1, XDATA, add(CFA_XSP16, literal(-8)))
          CFI (cfiCond370) V13 load(1, XDATA, add(CFA_XSP16, literal(-7)))
          CFI (cfiCond370) R7 load(1, XDATA, add(CFA_XSP16, literal(-6)))
          CFI (cfiCond370) ?RET_LOW load(1, XDATA, add(CFA_XSP16, literal(-5)))
          CFI (cfiCond370) ?RET_HIGH load(1, XDATA, add(CFA_XSP16, literal(-4)))
          CFI (cfiCond370) ?BRET_EXT load(1, XDATA, add(CFA_XSP16, literal(-3)))
          CFI (cfiCond370) DPL0 load(1, XDATA, add(CFA_XSP16, literal(-2)))
          CFI (cfiCond370) DPH0 load(1, XDATA, add(CFA_XSP16, literal(-1)))
          CFI (cfiCond370) CFA_SP SP+-2
          CFI (cfiCond370) CFA_XSP16 add(XSP16, 23)
          CFI Block cfiCond371 Using cfiCommon0
          CFI (cfiCond371) Function ZDP_MgmtNwkUpdateNotify
          CFI (cfiCond371) Conditional ??CrossCallReturnLabel_105
          CFI (cfiCond371) R6 load(1, XDATA, add(CFA_XSP16, literal(-18)))
          CFI (cfiCond371) VB load(1, XDATA, add(CFA_XSP16, literal(-17)))
          CFI (cfiCond371) V0 load(1, XDATA, add(CFA_XSP16, literal(-16)))
          CFI (cfiCond371) V1 load(1, XDATA, add(CFA_XSP16, literal(-15)))
          CFI (cfiCond371) V2 load(1, XDATA, add(CFA_XSP16, literal(-14)))
          CFI (cfiCond371) V3 load(1, XDATA, add(CFA_XSP16, literal(-13)))
          CFI (cfiCond371) V4 load(1, XDATA, add(CFA_XSP16, literal(-12)))
          CFI (cfiCond371) V5 load(1, XDATA, add(CFA_XSP16, literal(-11)))
          CFI (cfiCond371) V6 load(1, XDATA, add(CFA_XSP16, literal(-10)))
          CFI (cfiCond371) V7 load(1, XDATA, add(CFA_XSP16, literal(-9)))
          CFI (cfiCond371) V8 load(1, XDATA, add(CFA_XSP16, literal(-8)))
          CFI (cfiCond371) V9 load(1, XDATA, add(CFA_XSP16, literal(-7)))
          CFI (cfiCond371) R7 load(1, XDATA, add(CFA_XSP16, literal(-6)))
          CFI (cfiCond371) ?RET_LOW load(1, XDATA, add(CFA_XSP16, literal(-5)))
          CFI (cfiCond371) ?RET_HIGH load(1, XDATA, add(CFA_XSP16, literal(-4)))
          CFI (cfiCond371) ?BRET_EXT load(1, XDATA, add(CFA_XSP16, literal(-3)))
          CFI (cfiCond371) DPL0 load(1, XDATA, add(CFA_XSP16, literal(-2)))
          CFI (cfiCond371) DPH0 load(1, XDATA, add(CFA_XSP16, literal(-1)))
          CFI (cfiCond371) CFA_SP SP+-2
          CFI (cfiCond371) CFA_XSP16 add(XSP16, 19)
          CFI Block cfiPicker372 Using cfiCommon1
          CFI (cfiPicker372) NoFunction
          CFI (cfiPicker372) Picker
        ADD       A,#0x1
        MOV       R2,A
        CLR       A
        ADDC      A,#0x0
        MOV       R3,A
        RET
          CFI EndBlock cfiCond367
          CFI EndBlock cfiCond368
          CFI EndBlock cfiCond369
          CFI EndBlock cfiCond370
          CFI EndBlock cfiCond371
          CFI EndBlock cfiPicker372

        RSEG BANKED_CODE:HUGECODE:NOROOT(0)
?Subroutine64:
          CFI Block cfiCond373 Using cfiCommon0
          CFI Function ZDP_MgmtRtgRsp
          CFI Conditional ??CrossCallReturnLabel_99
          CFI R6 load(1, XDATA, add(CFA_XSP16, literal(-20)))
          CFI VB load(1, XDATA, add(CFA_XSP16, literal(-19)))
          CFI V0 load(1, XDATA, add(CFA_XSP16, literal(-18)))
          CFI V1 load(1, XDATA, add(CFA_XSP16, literal(-17)))
          CFI V2 load(1, XDATA, add(CFA_XSP16, literal(-16)))
          CFI V3 load(1, XDATA, add(CFA_XSP16, literal(-15)))
          CFI V4 load(1, XDATA, add(CFA_XSP16, literal(-14)))
          CFI V5 load(1, XDATA, add(CFA_XSP16, literal(-13)))
          CFI V6 load(1, XDATA, add(CFA_XSP16, literal(-12)))
          CFI V7 load(1, XDATA, add(CFA_XSP16, literal(-11)))
          CFI V8 load(1, XDATA, add(CFA_XSP16, literal(-10)))
          CFI V9 load(1, XDATA, add(CFA_XSP16, literal(-9)))
          CFI V10 load(1, XDATA, add(CFA_XSP16, literal(-8)))
          CFI V11 load(1, XDATA, add(CFA_XSP16, literal(-7)))
          CFI R7 load(1, XDATA, add(CFA_XSP16, literal(-6)))
          CFI ?RET_LOW load(1, XDATA, add(CFA_XSP16, literal(-5)))
          CFI ?RET_HIGH load(1, XDATA, add(CFA_XSP16, literal(-4)))
          CFI ?BRET_EXT load(1, XDATA, add(CFA_XSP16, literal(-3)))
          CFI DPL0 load(1, XDATA, add(CFA_XSP16, literal(-2)))
          CFI DPH0 load(1, XDATA, add(CFA_XSP16, literal(-1)))
          CFI CFA_SP SP+-2
          CFI CFA_XSP16 add(XSP16, 21)
          CFI Block cfiCond374 Using cfiCommon0
          CFI (cfiCond374) Function ZDP_MgmtRtgRsp
          CFI (cfiCond374) Conditional ??CrossCallReturnLabel_100
          CFI (cfiCond374) R6 load(1, XDATA, add(CFA_XSP16, literal(-20)))
          CFI (cfiCond374) VB load(1, XDATA, add(CFA_XSP16, literal(-19)))
          CFI (cfiCond374) V0 load(1, XDATA, add(CFA_XSP16, literal(-18)))
          CFI (cfiCond374) V1 load(1, XDATA, add(CFA_XSP16, literal(-17)))
          CFI (cfiCond374) V2 load(1, XDATA, add(CFA_XSP16, literal(-16)))
          CFI (cfiCond374) V3 load(1, XDATA, add(CFA_XSP16, literal(-15)))
          CFI (cfiCond374) V4 load(1, XDATA, add(CFA_XSP16, literal(-14)))
          CFI (cfiCond374) V5 load(1, XDATA, add(CFA_XSP16, literal(-13)))
          CFI (cfiCond374) V6 load(1, XDATA, add(CFA_XSP16, literal(-12)))
          CFI (cfiCond374) V7 load(1, XDATA, add(CFA_XSP16, literal(-11)))
          CFI (cfiCond374) V8 load(1, XDATA, add(CFA_XSP16, literal(-10)))
          CFI (cfiCond374) V9 load(1, XDATA, add(CFA_XSP16, literal(-9)))
          CFI (cfiCond374) V10 load(1, XDATA, add(CFA_XSP16, literal(-8)))
          CFI (cfiCond374) V11 load(1, XDATA, add(CFA_XSP16, literal(-7)))
          CFI (cfiCond374) R7 load(1, XDATA, add(CFA_XSP16, literal(-6)))
          CFI (cfiCond374) ?RET_LOW load(1, XDATA, add(CFA_XSP16, literal(-5)))
          CFI (cfiCond374) ?RET_HIGH load(1, XDATA, add(CFA_XSP16, literal(-4)))
          CFI (cfiCond374) ?BRET_EXT load(1, XDATA, add(CFA_XSP16, literal(-3)))
          CFI (cfiCond374) DPL0 load(1, XDATA, add(CFA_XSP16, literal(-2)))
          CFI (cfiCond374) DPH0 load(1, XDATA, add(CFA_XSP16, literal(-1)))
          CFI (cfiCond374) CFA_SP SP+-2
          CFI (cfiCond374) CFA_XSP16 add(XSP16, 21)
          CFI Block cfiPicker375 Using cfiCommon1
          CFI (cfiPicker375) NoFunction
          CFI (cfiPicker375) Picker
        LCALL     ?Subroutine78 & 0xFFFF
??CrossCallReturnLabel_122:
        RET
          CFI EndBlock cfiCond373
          CFI EndBlock cfiCond374
          CFI EndBlock cfiPicker375

        RSEG BANKED_CODE:HUGECODE:NOROOT(0)
?Subroutine78:
          CFI Block cfiCond376 Using cfiCommon0
          CFI Function ZDP_MgmtRtgRsp
          CFI Conditional ??CrossCallReturnLabel_122, ??CrossCallReturnLabel_99
          CFI R6 load(1, XDATA, add(CFA_XSP16, literal(-20)))
          CFI VB load(1, XDATA, add(CFA_XSP16, literal(-19)))
          CFI V0 load(1, XDATA, add(CFA_XSP16, literal(-18)))
          CFI V1 load(1, XDATA, add(CFA_XSP16, literal(-17)))
          CFI V2 load(1, XDATA, add(CFA_XSP16, literal(-16)))
          CFI V3 load(1, XDATA, add(CFA_XSP16, literal(-15)))
          CFI V4 load(1, XDATA, add(CFA_XSP16, literal(-14)))
          CFI V5 load(1, XDATA, add(CFA_XSP16, literal(-13)))
          CFI V6 load(1, XDATA, add(CFA_XSP16, literal(-12)))
          CFI V7 load(1, XDATA, add(CFA_XSP16, literal(-11)))
          CFI V8 load(1, XDATA, add(CFA_XSP16, literal(-10)))
          CFI V9 load(1, XDATA, add(CFA_XSP16, literal(-9)))
          CFI V10 load(1, XDATA, add(CFA_XSP16, literal(-8)))
          CFI V11 load(1, XDATA, add(CFA_XSP16, literal(-7)))
          CFI R7 load(1, XDATA, add(CFA_XSP16, literal(-6)))
          CFI ?RET_LOW load(1, XDATA, add(CFA_XSP16, literal(-5)))
          CFI ?RET_HIGH load(1, XDATA, add(CFA_XSP16, literal(-4)))
          CFI ?BRET_EXT load(1, XDATA, add(CFA_XSP16, literal(-3)))
          CFI DPL0 load(1, XDATA, add(CFA_XSP16, literal(-2)))
          CFI DPH0 load(1, XDATA, add(CFA_XSP16, literal(-1)))
          CFI CFA_SP SP+-4
          CFI CFA_XSP16 add(XSP16, 21)
          CFI Block cfiCond377 Using cfiCommon0
          CFI (cfiCond377) Function ZDP_MgmtRtgRsp
          CFI (cfiCond377) Conditional ??CrossCallReturnLabel_122, ??CrossCallReturnLabel_100
          CFI (cfiCond377) R6 load(1, XDATA, add(CFA_XSP16, literal(-20)))
          CFI (cfiCond377) VB load(1, XDATA, add(CFA_XSP16, literal(-19)))
          CFI (cfiCond377) V0 load(1, XDATA, add(CFA_XSP16, literal(-18)))
          CFI (cfiCond377) V1 load(1, XDATA, add(CFA_XSP16, literal(-17)))
          CFI (cfiCond377) V2 load(1, XDATA, add(CFA_XSP16, literal(-16)))
          CFI (cfiCond377) V3 load(1, XDATA, add(CFA_XSP16, literal(-15)))
          CFI (cfiCond377) V4 load(1, XDATA, add(CFA_XSP16, literal(-14)))
          CFI (cfiCond377) V5 load(1, XDATA, add(CFA_XSP16, literal(-13)))
          CFI (cfiCond377) V6 load(1, XDATA, add(CFA_XSP16, literal(-12)))
          CFI (cfiCond377) V7 load(1, XDATA, add(CFA_XSP16, literal(-11)))
          CFI (cfiCond377) V8 load(1, XDATA, add(CFA_XSP16, literal(-10)))
          CFI (cfiCond377) V9 load(1, XDATA, add(CFA_XSP16, literal(-9)))
          CFI (cfiCond377) V10 load(1, XDATA, add(CFA_XSP16, literal(-8)))
          CFI (cfiCond377) V11 load(1, XDATA, add(CFA_XSP16, literal(-7)))
          CFI (cfiCond377) R7 load(1, XDATA, add(CFA_XSP16, literal(-6)))
          CFI (cfiCond377) ?RET_LOW load(1, XDATA, add(CFA_XSP16, literal(-5)))
          CFI (cfiCond377) ?RET_HIGH load(1, XDATA, add(CFA_XSP16, literal(-4)))
          CFI (cfiCond377) ?BRET_EXT load(1, XDATA, add(CFA_XSP16, literal(-3)))
          CFI (cfiCond377) DPL0 load(1, XDATA, add(CFA_XSP16, literal(-2)))
          CFI (cfiCond377) DPH0 load(1, XDATA, add(CFA_XSP16, literal(-1)))
          CFI (cfiCond377) CFA_SP SP+-4
          CFI (cfiCond377) CFA_XSP16 add(XSP16, 21)
          CFI Block cfiCond378 Using cfiCommon0
          CFI (cfiCond378) Function ZDP_BindUnbindReq
          CFI (cfiCond378) Conditional ??CrossCallReturnLabel_121, ??CrossCallReturnLabel_214
          CFI (cfiCond378) R6 load(1, XDATA, add(CFA_XSP16, literal(-18)))
          CFI (cfiCond378) VB load(1, XDATA, add(CFA_XSP16, literal(-17)))
          CFI (cfiCond378) V0 load(1, XDATA, add(CFA_XSP16, literal(-16)))
          CFI (cfiCond378) V1 load(1, XDATA, add(CFA_XSP16, literal(-15)))
          CFI (cfiCond378) V2 load(1, XDATA, add(CFA_XSP16, literal(-14)))
          CFI (cfiCond378) V3 load(1, XDATA, add(CFA_XSP16, literal(-13)))
          CFI (cfiCond378) V4 load(1, XDATA, add(CFA_XSP16, literal(-12)))
          CFI (cfiCond378) V5 load(1, XDATA, add(CFA_XSP16, literal(-11)))
          CFI (cfiCond378) V6 load(1, XDATA, add(CFA_XSP16, literal(-10)))
          CFI (cfiCond378) V7 load(1, XDATA, add(CFA_XSP16, literal(-9)))
          CFI (cfiCond378) V8 load(1, XDATA, add(CFA_XSP16, literal(-8)))
          CFI (cfiCond378) V9 load(1, XDATA, add(CFA_XSP16, literal(-7)))
          CFI (cfiCond378) R7 load(1, XDATA, add(CFA_XSP16, literal(-6)))
          CFI (cfiCond378) ?RET_LOW load(1, XDATA, add(CFA_XSP16, literal(-5)))
          CFI (cfiCond378) ?RET_HIGH load(1, XDATA, add(CFA_XSP16, literal(-4)))
          CFI (cfiCond378) ?BRET_EXT load(1, XDATA, add(CFA_XSP16, literal(-3)))
          CFI (cfiCond378) DPL0 load(1, XDATA, add(CFA_XSP16, literal(-2)))
          CFI (cfiCond378) DPH0 load(1, XDATA, add(CFA_XSP16, literal(-1)))
          CFI (cfiCond378) CFA_SP SP+-4
          CFI (cfiCond378) CFA_XSP16 add(XSP16, 18)
          CFI Block cfiCond379 Using cfiCommon0
          CFI (cfiCond379) Function ZDP_MgmtBindRsp
          CFI (cfiCond379) Conditional ??CrossCallReturnLabel_121, ??CrossCallReturnLabel_215
          CFI (cfiCond379) R6 load(1, XDATA, add(CFA_XSP16, literal(-22)))
          CFI (cfiCond379) VB load(1, XDATA, add(CFA_XSP16, literal(-21)))
          CFI (cfiCond379) V0 load(1, XDATA, add(CFA_XSP16, literal(-20)))
          CFI (cfiCond379) V1 load(1, XDATA, add(CFA_XSP16, literal(-19)))
          CFI (cfiCond379) V2 load(1, XDATA, add(CFA_XSP16, literal(-18)))
          CFI (cfiCond379) V3 load(1, XDATA, add(CFA_XSP16, literal(-17)))
          CFI (cfiCond379) V4 load(1, XDATA, add(CFA_XSP16, literal(-16)))
          CFI (cfiCond379) V5 load(1, XDATA, add(CFA_XSP16, literal(-15)))
          CFI (cfiCond379) V6 load(1, XDATA, add(CFA_XSP16, literal(-14)))
          CFI (cfiCond379) V7 load(1, XDATA, add(CFA_XSP16, literal(-13)))
          CFI (cfiCond379) V8 load(1, XDATA, add(CFA_XSP16, literal(-12)))
          CFI (cfiCond379) V9 load(1, XDATA, add(CFA_XSP16, literal(-11)))
          CFI (cfiCond379) V10 load(1, XDATA, add(CFA_XSP16, literal(-10)))
          CFI (cfiCond379) V11 load(1, XDATA, add(CFA_XSP16, literal(-9)))
          CFI (cfiCond379) V12 load(1, XDATA, add(CFA_XSP16, literal(-8)))
          CFI (cfiCond379) V13 load(1, XDATA, add(CFA_XSP16, literal(-7)))
          CFI (cfiCond379) R7 load(1, XDATA, add(CFA_XSP16, literal(-6)))
          CFI (cfiCond379) ?RET_LOW load(1, XDATA, add(CFA_XSP16, literal(-5)))
          CFI (cfiCond379) ?RET_HIGH load(1, XDATA, add(CFA_XSP16, literal(-4)))
          CFI (cfiCond379) ?BRET_EXT load(1, XDATA, add(CFA_XSP16, literal(-3)))
          CFI (cfiCond379) DPL0 load(1, XDATA, add(CFA_XSP16, literal(-2)))
          CFI (cfiCond379) DPH0 load(1, XDATA, add(CFA_XSP16, literal(-1)))
          CFI (cfiCond379) CFA_SP SP+-4
          CFI (cfiCond379) CFA_XSP16 add(XSP16, 23)
          CFI Block cfiPicker380 Using cfiCommon1
          CFI (cfiPicker380) NoFunction
          CFI (cfiPicker380) Picker
        MOVX      A,@DPTR
        MOV       DPL,R2
        MOV       DPH,R3
        INC       DPTR
        INC       DPTR
        INC       DPTR
        RET
          CFI EndBlock cfiCond376
          CFI EndBlock cfiCond377
          CFI EndBlock cfiCond378
          CFI EndBlock cfiCond379
          CFI EndBlock cfiPicker380
// 1696 
// 1697 /*********************************************************************
// 1698  * @fn          ZDP_MgmtBindRsp
// 1699  *
// 1700  * @brief       This builds and send a Mgmt_Bind_rsp message. This
// 1701  *              function sends a unicast message.
// 1702  *
// 1703  * @param       dstAddr - destination address of the message
// 1704  * @param       Status - message status (ZDP_SUCCESS or other)
// 1705  * @param       BindingTableEntries - Total number of entries
// 1706  * @param       StartIndex - Starting index within the reporting list
// 1707  * @param       BindingTableListCount - number of entries included
// 1708  *                                 in this message
// 1709  * @param       BindingTableList - List of Binding Table entries
// 1710  * @param       SecurityEnable - Security Options
// 1711  *
// 1712  * @return      ZStatus_t
// 1713  */

        RSEG BANKED_CODE:HUGECODE:NOROOT(0)
// 1714 ZStatus_t ZDP_MgmtBindRsp( byte TransSeq, zAddrType_t *dstAddr,
ZDP_MgmtBindRsp:
          CFI Block cfiBlock381 Using cfiCommon0
          CFI Function ZDP_MgmtBindRsp
        CODE
// 1715                             byte Status,
// 1716                             byte BindingTableEntries,
// 1717                             byte StartIndex,
// 1718                             byte BindingTableListCount,
// 1719                             apsBindingItem_t *BindingTableList,
// 1720                             byte SecurityEnable )
// 1721 {
        FUNCALL ZDP_MgmtBindRsp, osal_mem_alloc
        LOCFRAME ISTACK, 0, STACK
        LOCFRAME PSTACK, 0, STACK
        LOCFRAME XSTACK, 23, STACK
        LOCFRAME IOVERLAY, 0, STATIC
        LOCFRAME DOVERLAY, 0, STATIC
        ARGFRAME ISTACK, 0, STACK
        ARGFRAME PSTACK, 0, STACK
        ARGFRAME XSTACK, 23, STACK
        ARGFRAME IOVERLAY, 0, STATIC
        ARGFRAME DOVERLAY, 0, STATIC
        FUNCALL ZDP_MgmtBindRsp, sAddrExtCpy
        LOCFRAME ISTACK, 0, STACK
        LOCFRAME PSTACK, 0, STACK
        LOCFRAME XSTACK, 23, STACK
        LOCFRAME IOVERLAY, 0, STATIC
        LOCFRAME DOVERLAY, 0, STATIC
        ARGFRAME ISTACK, 0, STACK
        ARGFRAME PSTACK, 0, STACK
        ARGFRAME XSTACK, 23, STACK
        ARGFRAME IOVERLAY, 0, STATIC
        ARGFRAME DOVERLAY, 0, STATIC
        FUNCALL ZDP_MgmtBindRsp, sAddrExtCpy
        LOCFRAME ISTACK, 0, STACK
        LOCFRAME PSTACK, 0, STACK
        LOCFRAME XSTACK, 23, STACK
        LOCFRAME IOVERLAY, 0, STATIC
        LOCFRAME DOVERLAY, 0, STATIC
        ARGFRAME ISTACK, 0, STACK
        ARGFRAME PSTACK, 0, STACK
        ARGFRAME XSTACK, 23, STACK
        ARGFRAME IOVERLAY, 0, STATIC
        ARGFRAME DOVERLAY, 0, STATIC
        FUNCALL ZDP_MgmtBindRsp, fillAndSend
        LOCFRAME ISTACK, 0, STACK
        LOCFRAME PSTACK, 0, STACK
        LOCFRAME XSTACK, 25, STACK
        LOCFRAME IOVERLAY, 0, STATIC
        LOCFRAME DOVERLAY, 0, STATIC
        ARGFRAME ISTACK, 0, STACK
        ARGFRAME PSTACK, 0, STACK
        ARGFRAME XSTACK, 25, STACK
        ARGFRAME IOVERLAY, 0, STATIC
        ARGFRAME DOVERLAY, 0, STATIC
        FUNCALL ZDP_MgmtBindRsp, osal_mem_free
        LOCFRAME ISTACK, 0, STACK
        LOCFRAME PSTACK, 0, STACK
        LOCFRAME XSTACK, 23, STACK
        LOCFRAME IOVERLAY, 0, STATIC
        LOCFRAME DOVERLAY, 0, STATIC
        ARGFRAME ISTACK, 0, STACK
        ARGFRAME PSTACK, 0, STACK
        ARGFRAME XSTACK, 23, STACK
        ARGFRAME IOVERLAY, 0, STATIC
        ARGFRAME DOVERLAY, 0, STATIC
        REQUIRE ?V0
        REQUIRE ?V1
        REQUIRE ?V2
        REQUIRE ?V3
        REQUIRE ?V4
        REQUIRE ?V5
        REQUIRE ?V6
        REQUIRE ?V7
        REQUIRE ?V8
        REQUIRE ?V9
        REQUIRE ?V10
        REQUIRE ?V12
        REQUIRE ?V13
        MOV       A,#-0x16
        LCALL     ?BANKED_ENTER_XDATA
          CFI DPH0 load(1, XDATA, add(CFA_XSP16, literal(-1)))
          CFI DPL0 load(1, XDATA, add(CFA_XSP16, literal(-2)))
          CFI ?BRET_EXT load(1, XDATA, add(CFA_XSP16, literal(-3)))
          CFI ?RET_HIGH load(1, XDATA, add(CFA_XSP16, literal(-4)))
          CFI ?RET_LOW load(1, XDATA, add(CFA_XSP16, literal(-5)))
          CFI R7 load(1, XDATA, add(CFA_XSP16, literal(-6)))
          CFI V13 load(1, XDATA, add(CFA_XSP16, literal(-7)))
          CFI V12 load(1, XDATA, add(CFA_XSP16, literal(-8)))
          CFI V11 load(1, XDATA, add(CFA_XSP16, literal(-9)))
          CFI V10 load(1, XDATA, add(CFA_XSP16, literal(-10)))
          CFI V9 load(1, XDATA, add(CFA_XSP16, literal(-11)))
          CFI V8 load(1, XDATA, add(CFA_XSP16, literal(-12)))
          CFI V7 load(1, XDATA, add(CFA_XSP16, literal(-13)))
          CFI V6 load(1, XDATA, add(CFA_XSP16, literal(-14)))
          CFI V5 load(1, XDATA, add(CFA_XSP16, literal(-15)))
          CFI V4 load(1, XDATA, add(CFA_XSP16, literal(-16)))
          CFI V3 load(1, XDATA, add(CFA_XSP16, literal(-17)))
          CFI V2 load(1, XDATA, add(CFA_XSP16, literal(-18)))
          CFI V1 load(1, XDATA, add(CFA_XSP16, literal(-19)))
          CFI V0 load(1, XDATA, add(CFA_XSP16, literal(-20)))
          CFI VB load(1, XDATA, add(CFA_XSP16, literal(-21)))
          CFI R6 load(1, XDATA, add(CFA_XSP16, literal(-22)))
          CFI CFA_SP SP+0
          CFI CFA_XSP16 add(XSP16, 22)
        ; Saved register size: 22
        ; Auto size: 1
        MOV       A,#-0x1
        LCALL     ?ALLOC_XSTACK8
          CFI CFA_XSP16 add(XSP16, 23)
        MOV       A,R1
        MOV       DPL,?XSP + 0
        MOV       DPH,?XSP + 1
        MOVX      @DPTR,A
        MOV       ?V12,R2
        MOV       ?V13,R3
        MOV       ?V10,R4
        MOV       ?V5,R5
        MOV       A,#0x18
        LCALL     ?XSTACK_DISP0_8
        MOVX      A,@DPTR
        MOV       ?V4,A
// 1722   uint8 *buf;
// 1723   uint8 *pBuf;
// 1724   uint8 maxLen; // maxLen is the maximum packet length to allocate enough memory space
// 1725   uint8 len;    // Actual length varies due to different addrMode
// 1726   uint8 x;
// 1727   byte extZdpBindEntrySize = ZDP_BINDINGENTRY_SIZE + 1 + 1; // One more byte for cluserID and DstAddrMode
// 1728   byte shortZdpBindEntrySize = ZDP_BINDINGENTRY_SIZE + 1 + 1 + 2 - 8 - 1; // clusterID + DstAddrMode + shortAddr - ExtAddr - DstEndpoint
// 1729 
// 1730   (void)SecurityEnable;  // Intentionally unreferenced parameter
// 1731 
// 1732   // Status + BindingTableEntries + StartIndex + BindingTableListCount.
// 1733   maxLen = 1 + 1 + 1 + 1;
// 1734   maxLen += (BindingTableListCount * extZdpBindEntrySize );  //max length
// 1735   buf = osal_mem_alloc( maxLen + 1 );  // +1 for transaction ID
        ; Setup parameters for call to function osal_mem_alloc
        MOV       B,#0x15
        MUL       AB
        ADD       A,#0x4
        LCALL     ?Subroutine66 & 0xFFFF
??CrossCallReturnLabel_104:
        LCALL     `??osal_mem_alloc::?relay`; Banked call to: osal_mem_alloc
        MOV       ?V2,R2
        MOV       ?V3,R3
// 1736 
// 1737   if ( buf == NULL )
        MOV       A,R2
        ORL       A,?V3
        JNZ       ??ZDP_MgmtBindRsp_0
// 1738   {
// 1739     return afStatus_MEM_FAIL;
        MOV       R1,#0x10
        LJMP      ??CrossCallReturnLabel_30 & 0xFFFF
// 1740   }
// 1741 
// 1742   pBuf = buf+1;
??ZDP_MgmtBindRsp_0:
        MOV       DPL,R2
        MOV       DPH,R3
        INC       DPTR
        MOV       ?V6,DPL
        MOV       ?V7,DPH
        MOV       R2,?V6
        MOV       R3,?V7
// 1743 
// 1744   *pBuf++ = Status;
        MOV       A,?V10
        MOVX      @DPTR,A
// 1745   *pBuf++ = BindingTableEntries;
        INC       DPTR
        MOV       A,?V5
        MOVX      @DPTR,A
// 1746   *pBuf++ = StartIndex;
        MOV       A,#0x17
        LCALL     ?XSTACK_DISP0_8
        LCALL     ?Subroutine37 & 0xFFFF
// 1747   *pBuf++ = BindingTableListCount;
??CrossCallReturnLabel_51:
        MOV       A,?V4
        LCALL     ??Subroutine113_0 & 0xFFFF
??CrossCallReturnLabel_213:
        JNC       ??ZDP_MgmtBindRsp_1
        INC       R3
// 1748 
// 1749   // Initial length = Status + BindingTableEntries + StartIndex + BindingTableListCount.
// 1750   // length += ZDP_BINDINGENTRY_SIZE   -- Version 1.0
// 1751   //           extZdpBindEntrySize     -- Version 1.1 extended address mode
// 1752   //           shortZdpBindEntrySize   -- Version 1.1 group address mode
// 1753 
// 1754   len = 1 + 1 + 1 + 1;
??ZDP_MgmtBindRsp_1:
        MOV       ?V0,#0x4
// 1755   for ( x = 0; x < BindingTableListCount; x++ )
        MOV       ?V1,#0x0
        MOV       A,#0x19
        LCALL     ?XSTACK_DISP0_8
        LCALL     ??Subroutine112_0 & 0xFFFF
??CrossCallReturnLabel_208:
        SJMP      ??ZDP_MgmtBindRsp_2
// 1756   {
// 1757     pBuf = osal_cpyExtAddr( pBuf, BindingTableList->srcAddr );
// 1758     *pBuf++ = BindingTableList->srcEP;
// 1759 
// 1760     // Cluster ID
// 1761     *pBuf++ = LO_UINT16( BindingTableList->clusterID );
// 1762     *pBuf++ = HI_UINT16( BindingTableList->clusterID );
// 1763 
// 1764     *pBuf++ = BindingTableList->dstAddr.addrMode;
// 1765     if ( BindingTableList->dstAddr.addrMode == Addr64Bit )
// 1766     {
// 1767       len += extZdpBindEntrySize;
// 1768       pBuf = osal_cpyExtAddr( pBuf, BindingTableList->dstAddr.addr.extAddr );
// 1769       *pBuf++ = BindingTableList->dstEP;
// 1770     }
// 1771     else
// 1772     {
// 1773       len += shortZdpBindEntrySize;
??ZDP_MgmtBindRsp_3:
        MOV       A,#0xe
        ADD       A,?V0
        MOV       ?V0,A
// 1774       *pBuf++ = LO_UINT16( BindingTableList->dstAddr.addr.shortAddr );
        LCALL     ?Subroutine14 & 0xFFFF
// 1775       *pBuf++ = HI_UINT16( BindingTableList->dstAddr.addr.shortAddr );
// 1776     }
??CrossCallReturnLabel_9:
        MOV       R2,A
        JNC       ??ZDP_MgmtBindRsp_4
        INC       R3
// 1777     BindingTableList++;    // Move to next list entry
??ZDP_MgmtBindRsp_4:
        MOV       A,R6
        ADD       A,#0x15
        MOV       R6,A
        JNC       ??ZDP_MgmtBindRsp_5
        INC       R7
??ZDP_MgmtBindRsp_5:
        INC       ?V1
??ZDP_MgmtBindRsp_2:
        MOV       A,?V1
        CLR       C
        SUBB      A,?V4
        JNC       ??ZDP_MgmtBindRsp_6
        ; Setup parameters for call to function sAddrExtCpy
        MOV       A,R6
        MOV       R4,A
        MOV       A,R7
        MOV       R5,A
        LCALL     `??sAddrExtCpy::?relay`; Banked call to: sAddrExtCpy
        MOV       DPL,R6
        MOV       DPH,R7
        INC       DPTR
        INC       DPTR
        INC       DPTR
        INC       DPTR
        INC       DPTR
        INC       DPTR
        INC       DPTR
        LCALL     ?Subroutine65 & 0xFFFF
??CrossCallReturnLabel_176:
        LCALL     ?Subroutine36 & 0xFFFF
??CrossCallReturnLabel_49:
        MOV       DPL,R0
        MOV       DPH,R1
        LCALL     ??Subroutine106_0 & 0xFFFF
??CrossCallReturnLabel_173:
        LCALL     ??Subroutine114_0 & 0xFFFF
??CrossCallReturnLabel_218:
        LCALL     ??Subroutine106_0 & 0xFFFF
??CrossCallReturnLabel_174:
        INC       DPTR
        INC       DPTR
        MOVX      @DPTR,A
        MOV       A,R6
        ADD       A,#0x13
        MOV       R0,A
        CLR       A
        ADDC      A,R7
        MOV       R1,A
        MOV       DPL,R0
        MOV       DPH,R1
        LCALL     ?Subroutine29 & 0xFFFF
??CrossCallReturnLabel_215:
        JNC       ??ZDP_MgmtBindRsp_7
        INC       R3
??ZDP_MgmtBindRsp_7:
        MOV       A,R6
        ADD       A,#0xb
        MOV       R4,A
        CLR       A
        ADDC      A,R7
        MOV       R5,A
        MOV       DPL,R0
        MOV       DPH,R1
        MOVX      A,@DPTR
        XRL       A,#0x3
        JNZ       ??ZDP_MgmtBindRsp_3
        MOV       A,#0x15
        ADD       A,?V0
        MOV       ?V0,A
        ; Setup parameters for call to function sAddrExtCpy
        LCALL     `??sAddrExtCpy::?relay`; Banked call to: sAddrExtCpy
        LCALL     ?Subroutine69 & 0xFFFF
// 1778   }
??CrossCallReturnLabel_111:
        MOVX      A,@DPTR
        LCALL     ?Subroutine22 & 0xFFFF
??CrossCallReturnLabel_145:
        SJMP      ??ZDP_MgmtBindRsp_4
// 1779 
// 1780   FillAndSendBuffer( &TransSeq, dstAddr, Mgmt_Bind_rsp, len, buf );
??ZDP_MgmtBindRsp_6:
        MOV       DPTR,#ZDP_TmpBuf
        MOV       A,?V6
        MOVX      @DPTR,A
        INC       DPTR
        MOV       A,?V7
        MOVX      @DPTR,A
        ; Setup parameters for call to function fillAndSend
        MOV       ?V6,#0x33
        MOV       ?V7,#-0x80
        MOV       R0,#?V6
        LCALL     ?PUSH_XSTACK_I_TWO
          CFI CFA_XSP16 add(XSP16, 25)
        MOV       R1,?V0
        MOV       R4,?V12
        MOV       R5,?V13
        MOV       A,#0x2
        LCALL     ?XSTACK_DISP101_8
        LCALL     `??fillAndSend::?relay`; Banked call to: fillAndSend
        MOV       A,#0x2
        LCALL     ?DEALLOC_XSTACK8
          CFI CFA_XSP16 add(XSP16, 23)
        MOV       A,R1
        MOV       R6,A
        ; Setup parameters for call to function osal_mem_free
        MOV       R2,?V2
        MOV       R3,?V3
        LCALL     `??osal_mem_free::?relay`; Banked call to: osal_mem_free
        LCALL     ?Subroutine24 & 0xFFFF
??CrossCallReturnLabel_30:
        LJMP      ?Subroutine7 & 0xFFFF
// 1781 }
          CFI EndBlock cfiBlock381

        RSEG BANKED_CODE:HUGECODE:NOROOT(0)
?Subroutine69:
          CFI Block cfiCond382 Using cfiCommon0
          CFI Function ZDP_MgmtLqiRsp
          CFI Conditional ??CrossCallReturnLabel_110
          CFI R6 load(1, XDATA, add(CFA_XSP16, literal(-21)))
          CFI VB load(1, XDATA, add(CFA_XSP16, literal(-20)))
          CFI V0 load(1, XDATA, add(CFA_XSP16, literal(-19)))
          CFI V1 load(1, XDATA, add(CFA_XSP16, literal(-18)))
          CFI V2 load(1, XDATA, add(CFA_XSP16, literal(-17)))
          CFI V3 load(1, XDATA, add(CFA_XSP16, literal(-16)))
          CFI V4 load(1, XDATA, add(CFA_XSP16, literal(-15)))
          CFI V5 load(1, XDATA, add(CFA_XSP16, literal(-14)))
          CFI V6 load(1, XDATA, add(CFA_XSP16, literal(-13)))
          CFI V7 load(1, XDATA, add(CFA_XSP16, literal(-12)))
          CFI V8 load(1, XDATA, add(CFA_XSP16, literal(-11)))
          CFI V9 load(1, XDATA, add(CFA_XSP16, literal(-10)))
          CFI V10 load(1, XDATA, add(CFA_XSP16, literal(-9)))
          CFI V11 load(1, XDATA, add(CFA_XSP16, literal(-8)))
          CFI V12 load(1, XDATA, add(CFA_XSP16, literal(-7)))
          CFI R7 load(1, XDATA, add(CFA_XSP16, literal(-6)))
          CFI ?RET_LOW load(1, XDATA, add(CFA_XSP16, literal(-5)))
          CFI ?RET_HIGH load(1, XDATA, add(CFA_XSP16, literal(-4)))
          CFI ?BRET_EXT load(1, XDATA, add(CFA_XSP16, literal(-3)))
          CFI DPL0 load(1, XDATA, add(CFA_XSP16, literal(-2)))
          CFI DPH0 load(1, XDATA, add(CFA_XSP16, literal(-1)))
          CFI CFA_SP SP+-2
          CFI CFA_XSP16 add(XSP16, 22)
          CFI Block cfiCond383 Using cfiCommon0
          CFI (cfiCond383) Function ZDP_MgmtBindRsp
          CFI (cfiCond383) Conditional ??CrossCallReturnLabel_111
          CFI (cfiCond383) R6 load(1, XDATA, add(CFA_XSP16, literal(-22)))
          CFI (cfiCond383) VB load(1, XDATA, add(CFA_XSP16, literal(-21)))
          CFI (cfiCond383) V0 load(1, XDATA, add(CFA_XSP16, literal(-20)))
          CFI (cfiCond383) V1 load(1, XDATA, add(CFA_XSP16, literal(-19)))
          CFI (cfiCond383) V2 load(1, XDATA, add(CFA_XSP16, literal(-18)))
          CFI (cfiCond383) V3 load(1, XDATA, add(CFA_XSP16, literal(-17)))
          CFI (cfiCond383) V4 load(1, XDATA, add(CFA_XSP16, literal(-16)))
          CFI (cfiCond383) V5 load(1, XDATA, add(CFA_XSP16, literal(-15)))
          CFI (cfiCond383) V6 load(1, XDATA, add(CFA_XSP16, literal(-14)))
          CFI (cfiCond383) V7 load(1, XDATA, add(CFA_XSP16, literal(-13)))
          CFI (cfiCond383) V8 load(1, XDATA, add(CFA_XSP16, literal(-12)))
          CFI (cfiCond383) V9 load(1, XDATA, add(CFA_XSP16, literal(-11)))
          CFI (cfiCond383) V10 load(1, XDATA, add(CFA_XSP16, literal(-10)))
          CFI (cfiCond383) V11 load(1, XDATA, add(CFA_XSP16, literal(-9)))
          CFI (cfiCond383) V12 load(1, XDATA, add(CFA_XSP16, literal(-8)))
          CFI (cfiCond383) V13 load(1, XDATA, add(CFA_XSP16, literal(-7)))
          CFI (cfiCond383) R7 load(1, XDATA, add(CFA_XSP16, literal(-6)))
          CFI (cfiCond383) ?RET_LOW load(1, XDATA, add(CFA_XSP16, literal(-5)))
          CFI (cfiCond383) ?RET_HIGH load(1, XDATA, add(CFA_XSP16, literal(-4)))
          CFI (cfiCond383) ?BRET_EXT load(1, XDATA, add(CFA_XSP16, literal(-3)))
          CFI (cfiCond383) DPL0 load(1, XDATA, add(CFA_XSP16, literal(-2)))
          CFI (cfiCond383) DPH0 load(1, XDATA, add(CFA_XSP16, literal(-1)))
          CFI (cfiCond383) CFA_SP SP+-2
          CFI (cfiCond383) CFA_XSP16 add(XSP16, 23)
          CFI Block cfiPicker384 Using cfiCommon1
          CFI (cfiPicker384) NoFunction
          CFI (cfiPicker384) Picker
        MOV       A,R6
        ADD       A,#0x14
        MOV       DPL,A
        CLR       A
        ADDC      A,R7
        MOV       DPH,A
        RET
          CFI EndBlock cfiCond382
          CFI EndBlock cfiCond383
          CFI EndBlock cfiPicker384

        RSEG BANKED_CODE:HUGECODE:NOROOT(0)
?Subroutine46:
          CFI Block cfiCond385 Using cfiCommon0
          CFI Function zdpProcessAddrReq
          CFI Conditional ??CrossCallReturnLabel_210
          CFI R6 load(1, XDATA, add(CFA_XSP16, literal(-15)))
          CFI VB load(1, XDATA, add(CFA_XSP16, literal(-14)))
          CFI V0 load(1, XDATA, add(CFA_XSP16, literal(-13)))
          CFI V1 load(1, XDATA, add(CFA_XSP16, literal(-12)))
          CFI V2 load(1, XDATA, add(CFA_XSP16, literal(-11)))
          CFI V3 load(1, XDATA, add(CFA_XSP16, literal(-10)))
          CFI V4 load(1, XDATA, add(CFA_XSP16, literal(-9)))
          CFI V5 load(1, XDATA, add(CFA_XSP16, literal(-8)))
          CFI V6 load(1, XDATA, add(CFA_XSP16, literal(-7)))
          CFI R7 load(1, XDATA, add(CFA_XSP16, literal(-6)))
          CFI ?RET_LOW load(1, XDATA, add(CFA_XSP16, literal(-5)))
          CFI ?RET_HIGH load(1, XDATA, add(CFA_XSP16, literal(-4)))
          CFI ?BRET_EXT load(1, XDATA, add(CFA_XSP16, literal(-3)))
          CFI DPL0 load(1, XDATA, add(CFA_XSP16, literal(-2)))
          CFI DPH0 load(1, XDATA, add(CFA_XSP16, literal(-1)))
          CFI CFA_SP SP+-2
          CFI CFA_XSP16 add(XSP16, 15)
          CFI Block cfiCond386 Using cfiCommon0
          CFI (cfiCond386) Function zdpProcessAddrReq
          CFI (cfiCond386) Conditional ??CrossCallReturnLabel_211
          CFI (cfiCond386) R6 load(1, XDATA, add(CFA_XSP16, literal(-15)))
          CFI (cfiCond386) VB load(1, XDATA, add(CFA_XSP16, literal(-14)))
          CFI (cfiCond386) V0 load(1, XDATA, add(CFA_XSP16, literal(-13)))
          CFI (cfiCond386) V1 load(1, XDATA, add(CFA_XSP16, literal(-12)))
          CFI (cfiCond386) V2 load(1, XDATA, add(CFA_XSP16, literal(-11)))
          CFI (cfiCond386) V3 load(1, XDATA, add(CFA_XSP16, literal(-10)))
          CFI (cfiCond386) V4 load(1, XDATA, add(CFA_XSP16, literal(-9)))
          CFI (cfiCond386) V5 load(1, XDATA, add(CFA_XSP16, literal(-8)))
          CFI (cfiCond386) V6 load(1, XDATA, add(CFA_XSP16, literal(-7)))
          CFI (cfiCond386) R7 load(1, XDATA, add(CFA_XSP16, literal(-6)))
          CFI (cfiCond386) ?RET_LOW load(1, XDATA, add(CFA_XSP16, literal(-5)))
          CFI (cfiCond386) ?RET_HIGH load(1, XDATA, add(CFA_XSP16, literal(-4)))
          CFI (cfiCond386) ?BRET_EXT load(1, XDATA, add(CFA_XSP16, literal(-3)))
          CFI (cfiCond386) DPL0 load(1, XDATA, add(CFA_XSP16, literal(-2)))
          CFI (cfiCond386) DPH0 load(1, XDATA, add(CFA_XSP16, literal(-1)))
          CFI (cfiCond386) CFA_SP SP+-2
          CFI (cfiCond386) CFA_XSP16 add(XSP16, 15)
          CFI Block cfiPicker387 Using cfiCommon1
          CFI (cfiPicker387) NoFunction
          CFI (cfiPicker387) Picker
        MOV       DPTR,#ZDAppNwkAddr
          CFI EndBlock cfiCond385
          CFI EndBlock cfiCond386
          CFI EndBlock cfiPicker387
        REQUIRE ??Subroutine112_0
        ; // Fall through to label ??Subroutine112_0

        RSEG BANKED_CODE:HUGECODE:NOROOT(0)
??Subroutine112_0:
          CFI Block cfiCond388 Using cfiCommon0
          CFI Function ZDP_BindUnbindReq
          CFI Conditional ??CrossCallReturnLabel_206
          CFI R6 load(1, XDATA, add(CFA_XSP16, literal(-18)))
          CFI VB load(1, XDATA, add(CFA_XSP16, literal(-17)))
          CFI V0 load(1, XDATA, add(CFA_XSP16, literal(-16)))
          CFI V1 load(1, XDATA, add(CFA_XSP16, literal(-15)))
          CFI V2 load(1, XDATA, add(CFA_XSP16, literal(-14)))
          CFI V3 load(1, XDATA, add(CFA_XSP16, literal(-13)))
          CFI V4 load(1, XDATA, add(CFA_XSP16, literal(-12)))
          CFI V5 load(1, XDATA, add(CFA_XSP16, literal(-11)))
          CFI V6 load(1, XDATA, add(CFA_XSP16, literal(-10)))
          CFI V7 load(1, XDATA, add(CFA_XSP16, literal(-9)))
          CFI V8 load(1, XDATA, add(CFA_XSP16, literal(-8)))
          CFI V9 load(1, XDATA, add(CFA_XSP16, literal(-7)))
          CFI R7 load(1, XDATA, add(CFA_XSP16, literal(-6)))
          CFI ?RET_LOW load(1, XDATA, add(CFA_XSP16, literal(-5)))
          CFI ?RET_HIGH load(1, XDATA, add(CFA_XSP16, literal(-4)))
          CFI ?BRET_EXT load(1, XDATA, add(CFA_XSP16, literal(-3)))
          CFI DPL0 load(1, XDATA, add(CFA_XSP16, literal(-2)))
          CFI DPH0 load(1, XDATA, add(CFA_XSP16, literal(-1)))
          CFI CFA_SP SP+-2
          CFI CFA_XSP16 add(XSP16, 18)
          CFI Block cfiCond389 Using cfiCommon0
          CFI (cfiCond389) Function ZDP_MgmtLqiRsp
          CFI (cfiCond389) Conditional ??CrossCallReturnLabel_207
          CFI (cfiCond389) R6 load(1, XDATA, add(CFA_XSP16, literal(-21)))
          CFI (cfiCond389) VB load(1, XDATA, add(CFA_XSP16, literal(-20)))
          CFI (cfiCond389) V0 load(1, XDATA, add(CFA_XSP16, literal(-19)))
          CFI (cfiCond389) V1 load(1, XDATA, add(CFA_XSP16, literal(-18)))
          CFI (cfiCond389) V2 load(1, XDATA, add(CFA_XSP16, literal(-17)))
          CFI (cfiCond389) V3 load(1, XDATA, add(CFA_XSP16, literal(-16)))
          CFI (cfiCond389) V4 load(1, XDATA, add(CFA_XSP16, literal(-15)))
          CFI (cfiCond389) V5 load(1, XDATA, add(CFA_XSP16, literal(-14)))
          CFI (cfiCond389) V6 load(1, XDATA, add(CFA_XSP16, literal(-13)))
          CFI (cfiCond389) V7 load(1, XDATA, add(CFA_XSP16, literal(-12)))
          CFI (cfiCond389) V8 load(1, XDATA, add(CFA_XSP16, literal(-11)))
          CFI (cfiCond389) V9 load(1, XDATA, add(CFA_XSP16, literal(-10)))
          CFI (cfiCond389) V10 load(1, XDATA, add(CFA_XSP16, literal(-9)))
          CFI (cfiCond389) V11 load(1, XDATA, add(CFA_XSP16, literal(-8)))
          CFI (cfiCond389) V12 load(1, XDATA, add(CFA_XSP16, literal(-7)))
          CFI (cfiCond389) R7 load(1, XDATA, add(CFA_XSP16, literal(-6)))
          CFI (cfiCond389) ?RET_LOW load(1, XDATA, add(CFA_XSP16, literal(-5)))
          CFI (cfiCond389) ?RET_HIGH load(1, XDATA, add(CFA_XSP16, literal(-4)))
          CFI (cfiCond389) ?BRET_EXT load(1, XDATA, add(CFA_XSP16, literal(-3)))
          CFI (cfiCond389) DPL0 load(1, XDATA, add(CFA_XSP16, literal(-2)))
          CFI (cfiCond389) DPH0 load(1, XDATA, add(CFA_XSP16, literal(-1)))
          CFI (cfiCond389) CFA_SP SP+-2
          CFI (cfiCond389) CFA_XSP16 add(XSP16, 22)
          CFI Block cfiCond390 Using cfiCommon0
          CFI (cfiCond390) Function ZDP_MgmtBindRsp
          CFI (cfiCond390) Conditional ??CrossCallReturnLabel_208
          CFI (cfiCond390) R6 load(1, XDATA, add(CFA_XSP16, literal(-22)))
          CFI (cfiCond390) VB load(1, XDATA, add(CFA_XSP16, literal(-21)))
          CFI (cfiCond390) V0 load(1, XDATA, add(CFA_XSP16, literal(-20)))
          CFI (cfiCond390) V1 load(1, XDATA, add(CFA_XSP16, literal(-19)))
          CFI (cfiCond390) V2 load(1, XDATA, add(CFA_XSP16, literal(-18)))
          CFI (cfiCond390) V3 load(1, XDATA, add(CFA_XSP16, literal(-17)))
          CFI (cfiCond390) V4 load(1, XDATA, add(CFA_XSP16, literal(-16)))
          CFI (cfiCond390) V5 load(1, XDATA, add(CFA_XSP16, literal(-15)))
          CFI (cfiCond390) V6 load(1, XDATA, add(CFA_XSP16, literal(-14)))
          CFI (cfiCond390) V7 load(1, XDATA, add(CFA_XSP16, literal(-13)))
          CFI (cfiCond390) V8 load(1, XDATA, add(CFA_XSP16, literal(-12)))
          CFI (cfiCond390) V9 load(1, XDATA, add(CFA_XSP16, literal(-11)))
          CFI (cfiCond390) V10 load(1, XDATA, add(CFA_XSP16, literal(-10)))
          CFI (cfiCond390) V11 load(1, XDATA, add(CFA_XSP16, literal(-9)))
          CFI (cfiCond390) V12 load(1, XDATA, add(CFA_XSP16, literal(-8)))
          CFI (cfiCond390) V13 load(1, XDATA, add(CFA_XSP16, literal(-7)))
          CFI (cfiCond390) R7 load(1, XDATA, add(CFA_XSP16, literal(-6)))
          CFI (cfiCond390) ?RET_LOW load(1, XDATA, add(CFA_XSP16, literal(-5)))
          CFI (cfiCond390) ?RET_HIGH load(1, XDATA, add(CFA_XSP16, literal(-4)))
          CFI (cfiCond390) ?BRET_EXT load(1, XDATA, add(CFA_XSP16, literal(-3)))
          CFI (cfiCond390) DPL0 load(1, XDATA, add(CFA_XSP16, literal(-2)))
          CFI (cfiCond390) DPH0 load(1, XDATA, add(CFA_XSP16, literal(-1)))
          CFI (cfiCond390) CFA_SP SP+-2
          CFI (cfiCond390) CFA_XSP16 add(XSP16, 23)
          CFI Block cfiCond391 Using cfiCommon0
          CFI (cfiCond391) Function ZDO_RegisterForZDOMsg
          CFI (cfiCond391) Conditional ??CrossCallReturnLabel_209
          CFI (cfiCond391) R6 load(1, XDATA, add(CFA_XSP16, literal(-14)))
          CFI (cfiCond391) VB load(1, XDATA, add(CFA_XSP16, literal(-13)))
          CFI (cfiCond391) V0 load(1, XDATA, add(CFA_XSP16, literal(-12)))
          CFI (cfiCond391) V1 load(1, XDATA, add(CFA_XSP16, literal(-11)))
          CFI (cfiCond391) V2 load(1, XDATA, add(CFA_XSP16, literal(-10)))
          CFI (cfiCond391) V3 load(1, XDATA, add(CFA_XSP16, literal(-9)))
          CFI (cfiCond391) V4 load(1, XDATA, add(CFA_XSP16, literal(-8)))
          CFI (cfiCond391) V5 load(1, XDATA, add(CFA_XSP16, literal(-7)))
          CFI (cfiCond391) R7 load(1, XDATA, add(CFA_XSP16, literal(-6)))
          CFI (cfiCond391) ?RET_LOW load(1, XDATA, add(CFA_XSP16, literal(-5)))
          CFI (cfiCond391) ?RET_HIGH load(1, XDATA, add(CFA_XSP16, literal(-4)))
          CFI (cfiCond391) ?BRET_EXT load(1, XDATA, add(CFA_XSP16, literal(-3)))
          CFI (cfiCond391) DPL0 load(1, XDATA, add(CFA_XSP16, literal(-2)))
          CFI (cfiCond391) DPH0 load(1, XDATA, add(CFA_XSP16, literal(-1)))
          CFI (cfiCond391) CFA_SP SP+-2
          CFI (cfiCond391) CFA_XSP16 add(XSP16, 14)
          CFI Block cfiCond392 Using cfiCommon0
          CFI (cfiCond392) Function zdpProcessAddrReq
          CFI (cfiCond392) Conditional ??CrossCallReturnLabel_210
          CFI (cfiCond392) R6 load(1, XDATA, add(CFA_XSP16, literal(-15)))
          CFI (cfiCond392) VB load(1, XDATA, add(CFA_XSP16, literal(-14)))
          CFI (cfiCond392) V0 load(1, XDATA, add(CFA_XSP16, literal(-13)))
          CFI (cfiCond392) V1 load(1, XDATA, add(CFA_XSP16, literal(-12)))
          CFI (cfiCond392) V2 load(1, XDATA, add(CFA_XSP16, literal(-11)))
          CFI (cfiCond392) V3 load(1, XDATA, add(CFA_XSP16, literal(-10)))
          CFI (cfiCond392) V4 load(1, XDATA, add(CFA_XSP16, literal(-9)))
          CFI (cfiCond392) V5 load(1, XDATA, add(CFA_XSP16, literal(-8)))
          CFI (cfiCond392) V6 load(1, XDATA, add(CFA_XSP16, literal(-7)))
          CFI (cfiCond392) R7 load(1, XDATA, add(CFA_XSP16, literal(-6)))
          CFI (cfiCond392) ?RET_LOW load(1, XDATA, add(CFA_XSP16, literal(-5)))
          CFI (cfiCond392) ?RET_HIGH load(1, XDATA, add(CFA_XSP16, literal(-4)))
          CFI (cfiCond392) ?BRET_EXT load(1, XDATA, add(CFA_XSP16, literal(-3)))
          CFI (cfiCond392) DPL0 load(1, XDATA, add(CFA_XSP16, literal(-2)))
          CFI (cfiCond392) DPH0 load(1, XDATA, add(CFA_XSP16, literal(-1)))
          CFI (cfiCond392) CFA_SP SP+-2
          CFI (cfiCond392) CFA_XSP16 add(XSP16, 15)
          CFI Block cfiCond393 Using cfiCommon0
          CFI (cfiCond393) Function zdpProcessAddrReq
          CFI (cfiCond393) Conditional ??CrossCallReturnLabel_211
          CFI (cfiCond393) R6 load(1, XDATA, add(CFA_XSP16, literal(-15)))
          CFI (cfiCond393) VB load(1, XDATA, add(CFA_XSP16, literal(-14)))
          CFI (cfiCond393) V0 load(1, XDATA, add(CFA_XSP16, literal(-13)))
          CFI (cfiCond393) V1 load(1, XDATA, add(CFA_XSP16, literal(-12)))
          CFI (cfiCond393) V2 load(1, XDATA, add(CFA_XSP16, literal(-11)))
          CFI (cfiCond393) V3 load(1, XDATA, add(CFA_XSP16, literal(-10)))
          CFI (cfiCond393) V4 load(1, XDATA, add(CFA_XSP16, literal(-9)))
          CFI (cfiCond393) V5 load(1, XDATA, add(CFA_XSP16, literal(-8)))
          CFI (cfiCond393) V6 load(1, XDATA, add(CFA_XSP16, literal(-7)))
          CFI (cfiCond393) R7 load(1, XDATA, add(CFA_XSP16, literal(-6)))
          CFI (cfiCond393) ?RET_LOW load(1, XDATA, add(CFA_XSP16, literal(-5)))
          CFI (cfiCond393) ?RET_HIGH load(1, XDATA, add(CFA_XSP16, literal(-4)))
          CFI (cfiCond393) ?BRET_EXT load(1, XDATA, add(CFA_XSP16, literal(-3)))
          CFI (cfiCond393) DPL0 load(1, XDATA, add(CFA_XSP16, literal(-2)))
          CFI (cfiCond393) DPH0 load(1, XDATA, add(CFA_XSP16, literal(-1)))
          CFI (cfiCond393) CFA_SP SP+-2
          CFI (cfiCond393) CFA_XSP16 add(XSP16, 15)
          CFI Block cfiPicker394 Using cfiCommon1
          CFI (cfiPicker394) NoFunction
          CFI (cfiPicker394) Picker
        MOVX      A,@DPTR
        MOV       R6,A
        INC       DPTR
        MOVX      A,@DPTR
        MOV       R7,A
        RET
          CFI EndBlock cfiCond388
          CFI EndBlock cfiCond389
          CFI EndBlock cfiCond390
          CFI EndBlock cfiCond391
          CFI EndBlock cfiCond392
          CFI EndBlock cfiCond393
          CFI EndBlock cfiPicker394

        RSEG BANKED_CODE:HUGECODE:NOROOT(0)
?Subroutine37:
          CFI Block cfiCond395 Using cfiCommon0
          CFI Function ZDP_MgmtRtgRsp
          CFI Conditional ??CrossCallReturnLabel_50
          CFI R6 load(1, XDATA, add(CFA_XSP16, literal(-20)))
          CFI VB load(1, XDATA, add(CFA_XSP16, literal(-19)))
          CFI V0 load(1, XDATA, add(CFA_XSP16, literal(-18)))
          CFI V1 load(1, XDATA, add(CFA_XSP16, literal(-17)))
          CFI V2 load(1, XDATA, add(CFA_XSP16, literal(-16)))
          CFI V3 load(1, XDATA, add(CFA_XSP16, literal(-15)))
          CFI V4 load(1, XDATA, add(CFA_XSP16, literal(-14)))
          CFI V5 load(1, XDATA, add(CFA_XSP16, literal(-13)))
          CFI V6 load(1, XDATA, add(CFA_XSP16, literal(-12)))
          CFI V7 load(1, XDATA, add(CFA_XSP16, literal(-11)))
          CFI V8 load(1, XDATA, add(CFA_XSP16, literal(-10)))
          CFI V9 load(1, XDATA, add(CFA_XSP16, literal(-9)))
          CFI V10 load(1, XDATA, add(CFA_XSP16, literal(-8)))
          CFI V11 load(1, XDATA, add(CFA_XSP16, literal(-7)))
          CFI R7 load(1, XDATA, add(CFA_XSP16, literal(-6)))
          CFI ?RET_LOW load(1, XDATA, add(CFA_XSP16, literal(-5)))
          CFI ?RET_HIGH load(1, XDATA, add(CFA_XSP16, literal(-4)))
          CFI ?BRET_EXT load(1, XDATA, add(CFA_XSP16, literal(-3)))
          CFI DPL0 load(1, XDATA, add(CFA_XSP16, literal(-2)))
          CFI DPH0 load(1, XDATA, add(CFA_XSP16, literal(-1)))
          CFI CFA_SP SP+-2
          CFI CFA_XSP16 add(XSP16, 21)
          CFI Block cfiCond396 Using cfiCommon0
          CFI (cfiCond396) Function ZDP_MgmtBindRsp
          CFI (cfiCond396) Conditional ??CrossCallReturnLabel_51
          CFI (cfiCond396) R6 load(1, XDATA, add(CFA_XSP16, literal(-22)))
          CFI (cfiCond396) VB load(1, XDATA, add(CFA_XSP16, literal(-21)))
          CFI (cfiCond396) V0 load(1, XDATA, add(CFA_XSP16, literal(-20)))
          CFI (cfiCond396) V1 load(1, XDATA, add(CFA_XSP16, literal(-19)))
          CFI (cfiCond396) V2 load(1, XDATA, add(CFA_XSP16, literal(-18)))
          CFI (cfiCond396) V3 load(1, XDATA, add(CFA_XSP16, literal(-17)))
          CFI (cfiCond396) V4 load(1, XDATA, add(CFA_XSP16, literal(-16)))
          CFI (cfiCond396) V5 load(1, XDATA, add(CFA_XSP16, literal(-15)))
          CFI (cfiCond396) V6 load(1, XDATA, add(CFA_XSP16, literal(-14)))
          CFI (cfiCond396) V7 load(1, XDATA, add(CFA_XSP16, literal(-13)))
          CFI (cfiCond396) V8 load(1, XDATA, add(CFA_XSP16, literal(-12)))
          CFI (cfiCond396) V9 load(1, XDATA, add(CFA_XSP16, literal(-11)))
          CFI (cfiCond396) V10 load(1, XDATA, add(CFA_XSP16, literal(-10)))
          CFI (cfiCond396) V11 load(1, XDATA, add(CFA_XSP16, literal(-9)))
          CFI (cfiCond396) V12 load(1, XDATA, add(CFA_XSP16, literal(-8)))
          CFI (cfiCond396) V13 load(1, XDATA, add(CFA_XSP16, literal(-7)))
          CFI (cfiCond396) R7 load(1, XDATA, add(CFA_XSP16, literal(-6)))
          CFI (cfiCond396) ?RET_LOW load(1, XDATA, add(CFA_XSP16, literal(-5)))
          CFI (cfiCond396) ?RET_HIGH load(1, XDATA, add(CFA_XSP16, literal(-4)))
          CFI (cfiCond396) ?BRET_EXT load(1, XDATA, add(CFA_XSP16, literal(-3)))
          CFI (cfiCond396) DPL0 load(1, XDATA, add(CFA_XSP16, literal(-2)))
          CFI (cfiCond396) DPH0 load(1, XDATA, add(CFA_XSP16, literal(-1)))
          CFI (cfiCond396) CFA_SP SP+-2
          CFI (cfiCond396) CFA_XSP16 add(XSP16, 23)
          CFI Block cfiPicker397 Using cfiCommon1
          CFI (cfiPicker397) NoFunction
          CFI (cfiPicker397) Picker
        LCALL     ?Subroutine79 & 0xFFFF
??CrossCallReturnLabel_179:
        INC       DPTR
        INC       DPTR
        LCALL     ?Subroutine86 & 0xFFFF
??CrossCallReturnLabel_133:
        RET
          CFI EndBlock cfiCond395
          CFI EndBlock cfiCond396
          CFI EndBlock cfiPicker397

        RSEG BANKED_CODE:HUGECODE:NOROOT(0)
?Subroutine86:
          CFI Block cfiCond398 Using cfiCommon0
          CFI Function ZDP_MgmtRtgRsp
          CFI Conditional ??CrossCallReturnLabel_133, ??CrossCallReturnLabel_50
          CFI R6 load(1, XDATA, add(CFA_XSP16, literal(-20)))
          CFI VB load(1, XDATA, add(CFA_XSP16, literal(-19)))
          CFI V0 load(1, XDATA, add(CFA_XSP16, literal(-18)))
          CFI V1 load(1, XDATA, add(CFA_XSP16, literal(-17)))
          CFI V2 load(1, XDATA, add(CFA_XSP16, literal(-16)))
          CFI V3 load(1, XDATA, add(CFA_XSP16, literal(-15)))
          CFI V4 load(1, XDATA, add(CFA_XSP16, literal(-14)))
          CFI V5 load(1, XDATA, add(CFA_XSP16, literal(-13)))
          CFI V6 load(1, XDATA, add(CFA_XSP16, literal(-12)))
          CFI V7 load(1, XDATA, add(CFA_XSP16, literal(-11)))
          CFI V8 load(1, XDATA, add(CFA_XSP16, literal(-10)))
          CFI V9 load(1, XDATA, add(CFA_XSP16, literal(-9)))
          CFI V10 load(1, XDATA, add(CFA_XSP16, literal(-8)))
          CFI V11 load(1, XDATA, add(CFA_XSP16, literal(-7)))
          CFI R7 load(1, XDATA, add(CFA_XSP16, literal(-6)))
          CFI ?RET_LOW load(1, XDATA, add(CFA_XSP16, literal(-5)))
          CFI ?RET_HIGH load(1, XDATA, add(CFA_XSP16, literal(-4)))
          CFI ?BRET_EXT load(1, XDATA, add(CFA_XSP16, literal(-3)))
          CFI DPL0 load(1, XDATA, add(CFA_XSP16, literal(-2)))
          CFI DPH0 load(1, XDATA, add(CFA_XSP16, literal(-1)))
          CFI CFA_SP SP+-4
          CFI CFA_XSP16 add(XSP16, 21)
          CFI Block cfiCond399 Using cfiCommon0
          CFI (cfiCond399) Function ZDP_MgmtBindRsp
          CFI (cfiCond399) Conditional ??CrossCallReturnLabel_133, ??CrossCallReturnLabel_51
          CFI (cfiCond399) R6 load(1, XDATA, add(CFA_XSP16, literal(-22)))
          CFI (cfiCond399) VB load(1, XDATA, add(CFA_XSP16, literal(-21)))
          CFI (cfiCond399) V0 load(1, XDATA, add(CFA_XSP16, literal(-20)))
          CFI (cfiCond399) V1 load(1, XDATA, add(CFA_XSP16, literal(-19)))
          CFI (cfiCond399) V2 load(1, XDATA, add(CFA_XSP16, literal(-18)))
          CFI (cfiCond399) V3 load(1, XDATA, add(CFA_XSP16, literal(-17)))
          CFI (cfiCond399) V4 load(1, XDATA, add(CFA_XSP16, literal(-16)))
          CFI (cfiCond399) V5 load(1, XDATA, add(CFA_XSP16, literal(-15)))
          CFI (cfiCond399) V6 load(1, XDATA, add(CFA_XSP16, literal(-14)))
          CFI (cfiCond399) V7 load(1, XDATA, add(CFA_XSP16, literal(-13)))
          CFI (cfiCond399) V8 load(1, XDATA, add(CFA_XSP16, literal(-12)))
          CFI (cfiCond399) V9 load(1, XDATA, add(CFA_XSP16, literal(-11)))
          CFI (cfiCond399) V10 load(1, XDATA, add(CFA_XSP16, literal(-10)))
          CFI (cfiCond399) V11 load(1, XDATA, add(CFA_XSP16, literal(-9)))
          CFI (cfiCond399) V12 load(1, XDATA, add(CFA_XSP16, literal(-8)))
          CFI (cfiCond399) V13 load(1, XDATA, add(CFA_XSP16, literal(-7)))
          CFI (cfiCond399) R7 load(1, XDATA, add(CFA_XSP16, literal(-6)))
          CFI (cfiCond399) ?RET_LOW load(1, XDATA, add(CFA_XSP16, literal(-5)))
          CFI (cfiCond399) ?RET_HIGH load(1, XDATA, add(CFA_XSP16, literal(-4)))
          CFI (cfiCond399) ?BRET_EXT load(1, XDATA, add(CFA_XSP16, literal(-3)))
          CFI (cfiCond399) DPL0 load(1, XDATA, add(CFA_XSP16, literal(-2)))
          CFI (cfiCond399) DPH0 load(1, XDATA, add(CFA_XSP16, literal(-1)))
          CFI (cfiCond399) CFA_SP SP+-4
          CFI (cfiCond399) CFA_XSP16 add(XSP16, 23)
          CFI Block cfiCond400 Using cfiCommon0
          CFI (cfiCond400) Function ZDP_MgmtNwkUpdateNotify
          CFI (cfiCond400) Conditional ??CrossCallReturnLabel_134, ??CrossCallReturnLabel_13
          CFI (cfiCond400) R6 load(1, XDATA, add(CFA_XSP16, literal(-18)))
          CFI (cfiCond400) VB load(1, XDATA, add(CFA_XSP16, literal(-17)))
          CFI (cfiCond400) V0 load(1, XDATA, add(CFA_XSP16, literal(-16)))
          CFI (cfiCond400) V1 load(1, XDATA, add(CFA_XSP16, literal(-15)))
          CFI (cfiCond400) V2 load(1, XDATA, add(CFA_XSP16, literal(-14)))
          CFI (cfiCond400) V3 load(1, XDATA, add(CFA_XSP16, literal(-13)))
          CFI (cfiCond400) V4 load(1, XDATA, add(CFA_XSP16, literal(-12)))
          CFI (cfiCond400) V5 load(1, XDATA, add(CFA_XSP16, literal(-11)))
          CFI (cfiCond400) V6 load(1, XDATA, add(CFA_XSP16, literal(-10)))
          CFI (cfiCond400) V7 load(1, XDATA, add(CFA_XSP16, literal(-9)))
          CFI (cfiCond400) V8 load(1, XDATA, add(CFA_XSP16, literal(-8)))
          CFI (cfiCond400) V9 load(1, XDATA, add(CFA_XSP16, literal(-7)))
          CFI (cfiCond400) R7 load(1, XDATA, add(CFA_XSP16, literal(-6)))
          CFI (cfiCond400) ?RET_LOW load(1, XDATA, add(CFA_XSP16, literal(-5)))
          CFI (cfiCond400) ?RET_HIGH load(1, XDATA, add(CFA_XSP16, literal(-4)))
          CFI (cfiCond400) ?BRET_EXT load(1, XDATA, add(CFA_XSP16, literal(-3)))
          CFI (cfiCond400) DPL0 load(1, XDATA, add(CFA_XSP16, literal(-2)))
          CFI (cfiCond400) DPH0 load(1, XDATA, add(CFA_XSP16, literal(-1)))
          CFI (cfiCond400) CFA_SP SP+-4
          CFI (cfiCond400) CFA_XSP16 add(XSP16, 19)
          CFI Block cfiCond401 Using cfiCommon0
          CFI (cfiCond401) Function ZDP_IncomingData
          CFI (cfiCond401) Conditional ??CrossCallReturnLabel_134, ??CrossCallReturnLabel_14
          CFI (cfiCond401) R6 load(1, XDATA, add(CFA_XSP16, literal(-10)))
          CFI (cfiCond401) VB load(1, XDATA, add(CFA_XSP16, literal(-9)))
          CFI (cfiCond401) V0 load(1, XDATA, add(CFA_XSP16, literal(-8)))
          CFI (cfiCond401) V1 load(1, XDATA, add(CFA_XSP16, literal(-7)))
          CFI (cfiCond401) R7 load(1, XDATA, add(CFA_XSP16, literal(-6)))
          CFI (cfiCond401) ?RET_LOW load(1, XDATA, add(CFA_XSP16, literal(-5)))
          CFI (cfiCond401) ?RET_HIGH load(1, XDATA, add(CFA_XSP16, literal(-4)))
          CFI (cfiCond401) ?BRET_EXT load(1, XDATA, add(CFA_XSP16, literal(-3)))
          CFI (cfiCond401) DPL0 load(1, XDATA, add(CFA_XSP16, literal(-2)))
          CFI (cfiCond401) DPH0 load(1, XDATA, add(CFA_XSP16, literal(-1)))
          CFI (cfiCond401) CFA_SP SP+-4
          CFI (cfiCond401) CFA_XSP16 add(XSP16, 33)
          CFI Block cfiCond402 Using cfiCommon0
          CFI (cfiCond402) Function ZDP_IncomingData
          CFI (cfiCond402) Conditional ??CrossCallReturnLabel_134, ??CrossCallReturnLabel_15
          CFI (cfiCond402) R6 load(1, XDATA, add(CFA_XSP16, literal(-10)))
          CFI (cfiCond402) VB load(1, XDATA, add(CFA_XSP16, literal(-9)))
          CFI (cfiCond402) V0 load(1, XDATA, add(CFA_XSP16, literal(-8)))
          CFI (cfiCond402) V1 load(1, XDATA, add(CFA_XSP16, literal(-7)))
          CFI (cfiCond402) R7 load(1, XDATA, add(CFA_XSP16, literal(-6)))
          CFI (cfiCond402) ?RET_LOW load(1, XDATA, add(CFA_XSP16, literal(-5)))
          CFI (cfiCond402) ?RET_HIGH load(1, XDATA, add(CFA_XSP16, literal(-4)))
          CFI (cfiCond402) ?BRET_EXT load(1, XDATA, add(CFA_XSP16, literal(-3)))
          CFI (cfiCond402) DPL0 load(1, XDATA, add(CFA_XSP16, literal(-2)))
          CFI (cfiCond402) DPH0 load(1, XDATA, add(CFA_XSP16, literal(-1)))
          CFI (cfiCond402) CFA_SP SP+-4
          CFI (cfiCond402) CFA_XSP16 add(XSP16, 33)
          CFI Block cfiPicker403 Using cfiCommon1
          CFI (cfiPicker403) NoFunction
          CFI (cfiPicker403) Picker
        MOVX      @DPTR,A
        MOV       DPL,R2
        MOV       DPH,R3
        INC       DPTR
        INC       DPTR
        INC       DPTR
        RET
          CFI EndBlock cfiCond398
          CFI EndBlock cfiCond399
          CFI EndBlock cfiCond400
          CFI EndBlock cfiCond401
          CFI EndBlock cfiCond402
          CFI EndBlock cfiPicker403

        RSEG BANKED_CODE:HUGECODE:NOROOT(0)
?Subroutine36:
          CFI Block cfiCond404 Using cfiCommon0
          CFI Function ZDP_MgmtNwkDiscRsp
          CFI Conditional ??CrossCallReturnLabel_48
          CFI R6 load(1, XDATA, add(CFA_XSP16, literal(-22)))
          CFI VB load(1, XDATA, add(CFA_XSP16, literal(-21)))
          CFI V0 load(1, XDATA, add(CFA_XSP16, literal(-20)))
          CFI V1 load(1, XDATA, add(CFA_XSP16, literal(-19)))
          CFI V2 load(1, XDATA, add(CFA_XSP16, literal(-18)))
          CFI V3 load(1, XDATA, add(CFA_XSP16, literal(-17)))
          CFI V4 load(1, XDATA, add(CFA_XSP16, literal(-16)))
          CFI V5 load(1, XDATA, add(CFA_XSP16, literal(-15)))
          CFI V6 load(1, XDATA, add(CFA_XSP16, literal(-14)))
          CFI V7 load(1, XDATA, add(CFA_XSP16, literal(-13)))
          CFI V8 load(1, XDATA, add(CFA_XSP16, literal(-12)))
          CFI V9 load(1, XDATA, add(CFA_XSP16, literal(-11)))
          CFI V10 load(1, XDATA, add(CFA_XSP16, literal(-10)))
          CFI V11 load(1, XDATA, add(CFA_XSP16, literal(-9)))
          CFI V12 load(1, XDATA, add(CFA_XSP16, literal(-8)))
          CFI V13 load(1, XDATA, add(CFA_XSP16, literal(-7)))
          CFI R7 load(1, XDATA, add(CFA_XSP16, literal(-6)))
          CFI ?RET_LOW load(1, XDATA, add(CFA_XSP16, literal(-5)))
          CFI ?RET_HIGH load(1, XDATA, add(CFA_XSP16, literal(-4)))
          CFI ?BRET_EXT load(1, XDATA, add(CFA_XSP16, literal(-3)))
          CFI DPL0 load(1, XDATA, add(CFA_XSP16, literal(-2)))
          CFI DPH0 load(1, XDATA, add(CFA_XSP16, literal(-1)))
          CFI CFA_SP SP+-2
          CFI CFA_XSP16 add(XSP16, 23)
          CFI Block cfiCond405 Using cfiCommon0
          CFI (cfiCond405) Function ZDP_MgmtBindRsp
          CFI (cfiCond405) Conditional ??CrossCallReturnLabel_49
          CFI (cfiCond405) R6 load(1, XDATA, add(CFA_XSP16, literal(-22)))
          CFI (cfiCond405) VB load(1, XDATA, add(CFA_XSP16, literal(-21)))
          CFI (cfiCond405) V0 load(1, XDATA, add(CFA_XSP16, literal(-20)))
          CFI (cfiCond405) V1 load(1, XDATA, add(CFA_XSP16, literal(-19)))
          CFI (cfiCond405) V2 load(1, XDATA, add(CFA_XSP16, literal(-18)))
          CFI (cfiCond405) V3 load(1, XDATA, add(CFA_XSP16, literal(-17)))
          CFI (cfiCond405) V4 load(1, XDATA, add(CFA_XSP16, literal(-16)))
          CFI (cfiCond405) V5 load(1, XDATA, add(CFA_XSP16, literal(-15)))
          CFI (cfiCond405) V6 load(1, XDATA, add(CFA_XSP16, literal(-14)))
          CFI (cfiCond405) V7 load(1, XDATA, add(CFA_XSP16, literal(-13)))
          CFI (cfiCond405) V8 load(1, XDATA, add(CFA_XSP16, literal(-12)))
          CFI (cfiCond405) V9 load(1, XDATA, add(CFA_XSP16, literal(-11)))
          CFI (cfiCond405) V10 load(1, XDATA, add(CFA_XSP16, literal(-10)))
          CFI (cfiCond405) V11 load(1, XDATA, add(CFA_XSP16, literal(-9)))
          CFI (cfiCond405) V12 load(1, XDATA, add(CFA_XSP16, literal(-8)))
          CFI (cfiCond405) V13 load(1, XDATA, add(CFA_XSP16, literal(-7)))
          CFI (cfiCond405) R7 load(1, XDATA, add(CFA_XSP16, literal(-6)))
          CFI (cfiCond405) ?RET_LOW load(1, XDATA, add(CFA_XSP16, literal(-5)))
          CFI (cfiCond405) ?RET_HIGH load(1, XDATA, add(CFA_XSP16, literal(-4)))
          CFI (cfiCond405) ?BRET_EXT load(1, XDATA, add(CFA_XSP16, literal(-3)))
          CFI (cfiCond405) DPL0 load(1, XDATA, add(CFA_XSP16, literal(-2)))
          CFI (cfiCond405) DPH0 load(1, XDATA, add(CFA_XSP16, literal(-1)))
          CFI (cfiCond405) CFA_SP SP+-2
          CFI (cfiCond405) CFA_XSP16 add(XSP16, 23)
          CFI Block cfiPicker406 Using cfiCommon1
          CFI (cfiPicker406) NoFunction
          CFI (cfiPicker406) Picker
        MOVX      @DPTR,A
        MOV       A,R6
        ADD       A,#0x9
        MOV       R0,A
        CLR       A
        ADDC      A,R7
        MOV       R1,A
        RET
          CFI EndBlock cfiCond404
          CFI EndBlock cfiCond405
          CFI EndBlock cfiPicker406

        RSEG BANKED_CODE:HUGECODE:NOROOT(0)
?Subroutine29:
          CFI Block cfiCond407 Using cfiCommon0
          CFI Function ZDP_BindUnbindReq
          CFI Conditional ??CrossCallReturnLabel_214
          CFI R6 load(1, XDATA, add(CFA_XSP16, literal(-18)))
          CFI VB load(1, XDATA, add(CFA_XSP16, literal(-17)))
          CFI V0 load(1, XDATA, add(CFA_XSP16, literal(-16)))
          CFI V1 load(1, XDATA, add(CFA_XSP16, literal(-15)))
          CFI V2 load(1, XDATA, add(CFA_XSP16, literal(-14)))
          CFI V3 load(1, XDATA, add(CFA_XSP16, literal(-13)))
          CFI V4 load(1, XDATA, add(CFA_XSP16, literal(-12)))
          CFI V5 load(1, XDATA, add(CFA_XSP16, literal(-11)))
          CFI V6 load(1, XDATA, add(CFA_XSP16, literal(-10)))
          CFI V7 load(1, XDATA, add(CFA_XSP16, literal(-9)))
          CFI V8 load(1, XDATA, add(CFA_XSP16, literal(-8)))
          CFI V9 load(1, XDATA, add(CFA_XSP16, literal(-7)))
          CFI R7 load(1, XDATA, add(CFA_XSP16, literal(-6)))
          CFI ?RET_LOW load(1, XDATA, add(CFA_XSP16, literal(-5)))
          CFI ?RET_HIGH load(1, XDATA, add(CFA_XSP16, literal(-4)))
          CFI ?BRET_EXT load(1, XDATA, add(CFA_XSP16, literal(-3)))
          CFI DPL0 load(1, XDATA, add(CFA_XSP16, literal(-2)))
          CFI DPH0 load(1, XDATA, add(CFA_XSP16, literal(-1)))
          CFI CFA_SP SP+-2
          CFI CFA_XSP16 add(XSP16, 18)
          CFI Block cfiCond408 Using cfiCommon0
          CFI (cfiCond408) Function ZDP_MgmtBindRsp
          CFI (cfiCond408) Conditional ??CrossCallReturnLabel_215
          CFI (cfiCond408) R6 load(1, XDATA, add(CFA_XSP16, literal(-22)))
          CFI (cfiCond408) VB load(1, XDATA, add(CFA_XSP16, literal(-21)))
          CFI (cfiCond408) V0 load(1, XDATA, add(CFA_XSP16, literal(-20)))
          CFI (cfiCond408) V1 load(1, XDATA, add(CFA_XSP16, literal(-19)))
          CFI (cfiCond408) V2 load(1, XDATA, add(CFA_XSP16, literal(-18)))
          CFI (cfiCond408) V3 load(1, XDATA, add(CFA_XSP16, literal(-17)))
          CFI (cfiCond408) V4 load(1, XDATA, add(CFA_XSP16, literal(-16)))
          CFI (cfiCond408) V5 load(1, XDATA, add(CFA_XSP16, literal(-15)))
          CFI (cfiCond408) V6 load(1, XDATA, add(CFA_XSP16, literal(-14)))
          CFI (cfiCond408) V7 load(1, XDATA, add(CFA_XSP16, literal(-13)))
          CFI (cfiCond408) V8 load(1, XDATA, add(CFA_XSP16, literal(-12)))
          CFI (cfiCond408) V9 load(1, XDATA, add(CFA_XSP16, literal(-11)))
          CFI (cfiCond408) V10 load(1, XDATA, add(CFA_XSP16, literal(-10)))
          CFI (cfiCond408) V11 load(1, XDATA, add(CFA_XSP16, literal(-9)))
          CFI (cfiCond408) V12 load(1, XDATA, add(CFA_XSP16, literal(-8)))
          CFI (cfiCond408) V13 load(1, XDATA, add(CFA_XSP16, literal(-7)))
          CFI (cfiCond408) R7 load(1, XDATA, add(CFA_XSP16, literal(-6)))
          CFI (cfiCond408) ?RET_LOW load(1, XDATA, add(CFA_XSP16, literal(-5)))
          CFI (cfiCond408) ?RET_HIGH load(1, XDATA, add(CFA_XSP16, literal(-4)))
          CFI (cfiCond408) ?BRET_EXT load(1, XDATA, add(CFA_XSP16, literal(-3)))
          CFI (cfiCond408) DPL0 load(1, XDATA, add(CFA_XSP16, literal(-2)))
          CFI (cfiCond408) DPH0 load(1, XDATA, add(CFA_XSP16, literal(-1)))
          CFI (cfiCond408) CFA_SP SP+-2
          CFI (cfiCond408) CFA_XSP16 add(XSP16, 23)
          CFI Block cfiPicker409 Using cfiCommon1
          CFI (cfiPicker409) NoFunction
          CFI (cfiPicker409) Picker
        LCALL     ?Subroutine78 & 0xFFFF
??CrossCallReturnLabel_121:
          CFI EndBlock cfiCond407
          CFI EndBlock cfiCond408
          CFI EndBlock cfiPicker409
        REQUIRE ??Subroutine113_0
        ; // Fall through to label ??Subroutine113_0

        RSEG BANKED_CODE:HUGECODE:NOROOT(0)
??Subroutine113_0:
          CFI Block cfiCond410 Using cfiCommon0
          CFI Function ZDP_MgmtRtgRsp
          CFI Conditional ??CrossCallReturnLabel_212
          CFI R6 load(1, XDATA, add(CFA_XSP16, literal(-20)))
          CFI VB load(1, XDATA, add(CFA_XSP16, literal(-19)))
          CFI V0 load(1, XDATA, add(CFA_XSP16, literal(-18)))
          CFI V1 load(1, XDATA, add(CFA_XSP16, literal(-17)))
          CFI V2 load(1, XDATA, add(CFA_XSP16, literal(-16)))
          CFI V3 load(1, XDATA, add(CFA_XSP16, literal(-15)))
          CFI V4 load(1, XDATA, add(CFA_XSP16, literal(-14)))
          CFI V5 load(1, XDATA, add(CFA_XSP16, literal(-13)))
          CFI V6 load(1, XDATA, add(CFA_XSP16, literal(-12)))
          CFI V7 load(1, XDATA, add(CFA_XSP16, literal(-11)))
          CFI V8 load(1, XDATA, add(CFA_XSP16, literal(-10)))
          CFI V9 load(1, XDATA, add(CFA_XSP16, literal(-9)))
          CFI V10 load(1, XDATA, add(CFA_XSP16, literal(-8)))
          CFI V11 load(1, XDATA, add(CFA_XSP16, literal(-7)))
          CFI R7 load(1, XDATA, add(CFA_XSP16, literal(-6)))
          CFI ?RET_LOW load(1, XDATA, add(CFA_XSP16, literal(-5)))
          CFI ?RET_HIGH load(1, XDATA, add(CFA_XSP16, literal(-4)))
          CFI ?BRET_EXT load(1, XDATA, add(CFA_XSP16, literal(-3)))
          CFI DPL0 load(1, XDATA, add(CFA_XSP16, literal(-2)))
          CFI DPH0 load(1, XDATA, add(CFA_XSP16, literal(-1)))
          CFI CFA_SP SP+-2
          CFI CFA_XSP16 add(XSP16, 21)
          CFI Block cfiCond411 Using cfiCommon0
          CFI (cfiCond411) Function ZDP_MgmtBindRsp
          CFI (cfiCond411) Conditional ??CrossCallReturnLabel_213
          CFI (cfiCond411) R6 load(1, XDATA, add(CFA_XSP16, literal(-22)))
          CFI (cfiCond411) VB load(1, XDATA, add(CFA_XSP16, literal(-21)))
          CFI (cfiCond411) V0 load(1, XDATA, add(CFA_XSP16, literal(-20)))
          CFI (cfiCond411) V1 load(1, XDATA, add(CFA_XSP16, literal(-19)))
          CFI (cfiCond411) V2 load(1, XDATA, add(CFA_XSP16, literal(-18)))
          CFI (cfiCond411) V3 load(1, XDATA, add(CFA_XSP16, literal(-17)))
          CFI (cfiCond411) V4 load(1, XDATA, add(CFA_XSP16, literal(-16)))
          CFI (cfiCond411) V5 load(1, XDATA, add(CFA_XSP16, literal(-15)))
          CFI (cfiCond411) V6 load(1, XDATA, add(CFA_XSP16, literal(-14)))
          CFI (cfiCond411) V7 load(1, XDATA, add(CFA_XSP16, literal(-13)))
          CFI (cfiCond411) V8 load(1, XDATA, add(CFA_XSP16, literal(-12)))
          CFI (cfiCond411) V9 load(1, XDATA, add(CFA_XSP16, literal(-11)))
          CFI (cfiCond411) V10 load(1, XDATA, add(CFA_XSP16, literal(-10)))
          CFI (cfiCond411) V11 load(1, XDATA, add(CFA_XSP16, literal(-9)))
          CFI (cfiCond411) V12 load(1, XDATA, add(CFA_XSP16, literal(-8)))
          CFI (cfiCond411) V13 load(1, XDATA, add(CFA_XSP16, literal(-7)))
          CFI (cfiCond411) R7 load(1, XDATA, add(CFA_XSP16, literal(-6)))
          CFI (cfiCond411) ?RET_LOW load(1, XDATA, add(CFA_XSP16, literal(-5)))
          CFI (cfiCond411) ?RET_HIGH load(1, XDATA, add(CFA_XSP16, literal(-4)))
          CFI (cfiCond411) ?BRET_EXT load(1, XDATA, add(CFA_XSP16, literal(-3)))
          CFI (cfiCond411) DPL0 load(1, XDATA, add(CFA_XSP16, literal(-2)))
          CFI (cfiCond411) DPH0 load(1, XDATA, add(CFA_XSP16, literal(-1)))
          CFI (cfiCond411) CFA_SP SP+-2
          CFI (cfiCond411) CFA_XSP16 add(XSP16, 23)
          CFI Block cfiCond412 Using cfiCommon0
          CFI (cfiCond412) Function ZDP_BindUnbindReq
          CFI (cfiCond412) Conditional ??CrossCallReturnLabel_214
          CFI (cfiCond412) R6 load(1, XDATA, add(CFA_XSP16, literal(-18)))
          CFI (cfiCond412) VB load(1, XDATA, add(CFA_XSP16, literal(-17)))
          CFI (cfiCond412) V0 load(1, XDATA, add(CFA_XSP16, literal(-16)))
          CFI (cfiCond412) V1 load(1, XDATA, add(CFA_XSP16, literal(-15)))
          CFI (cfiCond412) V2 load(1, XDATA, add(CFA_XSP16, literal(-14)))
          CFI (cfiCond412) V3 load(1, XDATA, add(CFA_XSP16, literal(-13)))
          CFI (cfiCond412) V4 load(1, XDATA, add(CFA_XSP16, literal(-12)))
          CFI (cfiCond412) V5 load(1, XDATA, add(CFA_XSP16, literal(-11)))
          CFI (cfiCond412) V6 load(1, XDATA, add(CFA_XSP16, literal(-10)))
          CFI (cfiCond412) V7 load(1, XDATA, add(CFA_XSP16, literal(-9)))
          CFI (cfiCond412) V8 load(1, XDATA, add(CFA_XSP16, literal(-8)))
          CFI (cfiCond412) V9 load(1, XDATA, add(CFA_XSP16, literal(-7)))
          CFI (cfiCond412) R7 load(1, XDATA, add(CFA_XSP16, literal(-6)))
          CFI (cfiCond412) ?RET_LOW load(1, XDATA, add(CFA_XSP16, literal(-5)))
          CFI (cfiCond412) ?RET_HIGH load(1, XDATA, add(CFA_XSP16, literal(-4)))
          CFI (cfiCond412) ?BRET_EXT load(1, XDATA, add(CFA_XSP16, literal(-3)))
          CFI (cfiCond412) DPL0 load(1, XDATA, add(CFA_XSP16, literal(-2)))
          CFI (cfiCond412) DPH0 load(1, XDATA, add(CFA_XSP16, literal(-1)))
          CFI (cfiCond412) CFA_SP SP+-2
          CFI (cfiCond412) CFA_XSP16 add(XSP16, 18)
          CFI Block cfiCond413 Using cfiCommon0
          CFI (cfiCond413) Function ZDP_MgmtBindRsp
          CFI (cfiCond413) Conditional ??CrossCallReturnLabel_215
          CFI (cfiCond413) R6 load(1, XDATA, add(CFA_XSP16, literal(-22)))
          CFI (cfiCond413) VB load(1, XDATA, add(CFA_XSP16, literal(-21)))
          CFI (cfiCond413) V0 load(1, XDATA, add(CFA_XSP16, literal(-20)))
          CFI (cfiCond413) V1 load(1, XDATA, add(CFA_XSP16, literal(-19)))
          CFI (cfiCond413) V2 load(1, XDATA, add(CFA_XSP16, literal(-18)))
          CFI (cfiCond413) V3 load(1, XDATA, add(CFA_XSP16, literal(-17)))
          CFI (cfiCond413) V4 load(1, XDATA, add(CFA_XSP16, literal(-16)))
          CFI (cfiCond413) V5 load(1, XDATA, add(CFA_XSP16, literal(-15)))
          CFI (cfiCond413) V6 load(1, XDATA, add(CFA_XSP16, literal(-14)))
          CFI (cfiCond413) V7 load(1, XDATA, add(CFA_XSP16, literal(-13)))
          CFI (cfiCond413) V8 load(1, XDATA, add(CFA_XSP16, literal(-12)))
          CFI (cfiCond413) V9 load(1, XDATA, add(CFA_XSP16, literal(-11)))
          CFI (cfiCond413) V10 load(1, XDATA, add(CFA_XSP16, literal(-10)))
          CFI (cfiCond413) V11 load(1, XDATA, add(CFA_XSP16, literal(-9)))
          CFI (cfiCond413) V12 load(1, XDATA, add(CFA_XSP16, literal(-8)))
          CFI (cfiCond413) V13 load(1, XDATA, add(CFA_XSP16, literal(-7)))
          CFI (cfiCond413) R7 load(1, XDATA, add(CFA_XSP16, literal(-6)))
          CFI (cfiCond413) ?RET_LOW load(1, XDATA, add(CFA_XSP16, literal(-5)))
          CFI (cfiCond413) ?RET_HIGH load(1, XDATA, add(CFA_XSP16, literal(-4)))
          CFI (cfiCond413) ?BRET_EXT load(1, XDATA, add(CFA_XSP16, literal(-3)))
          CFI (cfiCond413) DPL0 load(1, XDATA, add(CFA_XSP16, literal(-2)))
          CFI (cfiCond413) DPH0 load(1, XDATA, add(CFA_XSP16, literal(-1)))
          CFI (cfiCond413) CFA_SP SP+-2
          CFI (cfiCond413) CFA_XSP16 add(XSP16, 23)
          CFI Block cfiPicker414 Using cfiCommon1
          CFI (cfiPicker414) NoFunction
          CFI (cfiPicker414) Picker
        MOVX      @DPTR,A
        MOV       A,R2
        ADD       A,#0x4
        MOV       R2,A
        RET
          CFI EndBlock cfiCond410
          CFI EndBlock cfiCond411
          CFI EndBlock cfiCond412
          CFI EndBlock cfiCond413
          CFI EndBlock cfiPicker414

        RSEG BANKED_CODE:HUGECODE:NOROOT(0)
?Subroutine27:
          CFI Block cfiCond415 Using cfiCommon0
          CFI Function ZDP_NodeDescMsg
          CFI Conditional ??CrossCallReturnLabel_216
          CFI R6 load(1, XDATA, add(CFA_XSP16, literal(-10)))
          CFI VB load(1, XDATA, add(CFA_XSP16, literal(-9)))
          CFI V0 load(1, XDATA, add(CFA_XSP16, literal(-8)))
          CFI V1 load(1, XDATA, add(CFA_XSP16, literal(-7)))
          CFI R7 load(1, XDATA, add(CFA_XSP16, literal(-6)))
          CFI ?RET_LOW load(1, XDATA, add(CFA_XSP16, literal(-5)))
          CFI ?RET_HIGH load(1, XDATA, add(CFA_XSP16, literal(-4)))
          CFI ?BRET_EXT load(1, XDATA, add(CFA_XSP16, literal(-3)))
          CFI DPL0 load(1, XDATA, add(CFA_XSP16, literal(-2)))
          CFI DPH0 load(1, XDATA, add(CFA_XSP16, literal(-1)))
          CFI CFA_SP SP+-2
          CFI CFA_XSP16 add(XSP16, 10)
          CFI Block cfiCond416 Using cfiCommon0
          CFI (cfiCond416) Function ZDP_NodeDescMsg
          CFI (cfiCond416) Conditional ??CrossCallReturnLabel_217
          CFI (cfiCond416) R6 load(1, XDATA, add(CFA_XSP16, literal(-10)))
          CFI (cfiCond416) VB load(1, XDATA, add(CFA_XSP16, literal(-9)))
          CFI (cfiCond416) V0 load(1, XDATA, add(CFA_XSP16, literal(-8)))
          CFI (cfiCond416) V1 load(1, XDATA, add(CFA_XSP16, literal(-7)))
          CFI (cfiCond416) R7 load(1, XDATA, add(CFA_XSP16, literal(-6)))
          CFI (cfiCond416) ?RET_LOW load(1, XDATA, add(CFA_XSP16, literal(-5)))
          CFI (cfiCond416) ?RET_HIGH load(1, XDATA, add(CFA_XSP16, literal(-4)))
          CFI (cfiCond416) ?BRET_EXT load(1, XDATA, add(CFA_XSP16, literal(-3)))
          CFI (cfiCond416) DPL0 load(1, XDATA, add(CFA_XSP16, literal(-2)))
          CFI (cfiCond416) DPH0 load(1, XDATA, add(CFA_XSP16, literal(-1)))
          CFI (cfiCond416) CFA_SP SP+-2
          CFI (cfiCond416) CFA_XSP16 add(XSP16, 10)
          CFI Block cfiPicker417 Using cfiCommon1
          CFI (cfiPicker417) NoFunction
          CFI (cfiPicker417) Picker
        INC       DPTR
        INC       DPTR
          CFI EndBlock cfiCond415
          CFI EndBlock cfiCond416
          CFI EndBlock cfiPicker417
        REQUIRE ??Subroutine114_0
        ; // Fall through to label ??Subroutine114_0

        RSEG BANKED_CODE:HUGECODE:NOROOT(0)
??Subroutine114_0:
          CFI Block cfiCond418 Using cfiCommon0
          CFI Function ZDP_MgmtBindRsp
          CFI Conditional ??CrossCallReturnLabel_218
          CFI R6 load(1, XDATA, add(CFA_XSP16, literal(-22)))
          CFI VB load(1, XDATA, add(CFA_XSP16, literal(-21)))
          CFI V0 load(1, XDATA, add(CFA_XSP16, literal(-20)))
          CFI V1 load(1, XDATA, add(CFA_XSP16, literal(-19)))
          CFI V2 load(1, XDATA, add(CFA_XSP16, literal(-18)))
          CFI V3 load(1, XDATA, add(CFA_XSP16, literal(-17)))
          CFI V4 load(1, XDATA, add(CFA_XSP16, literal(-16)))
          CFI V5 load(1, XDATA, add(CFA_XSP16, literal(-15)))
          CFI V6 load(1, XDATA, add(CFA_XSP16, literal(-14)))
          CFI V7 load(1, XDATA, add(CFA_XSP16, literal(-13)))
          CFI V8 load(1, XDATA, add(CFA_XSP16, literal(-12)))
          CFI V9 load(1, XDATA, add(CFA_XSP16, literal(-11)))
          CFI V10 load(1, XDATA, add(CFA_XSP16, literal(-10)))
          CFI V11 load(1, XDATA, add(CFA_XSP16, literal(-9)))
          CFI V12 load(1, XDATA, add(CFA_XSP16, literal(-8)))
          CFI V13 load(1, XDATA, add(CFA_XSP16, literal(-7)))
          CFI R7 load(1, XDATA, add(CFA_XSP16, literal(-6)))
          CFI ?RET_LOW load(1, XDATA, add(CFA_XSP16, literal(-5)))
          CFI ?RET_HIGH load(1, XDATA, add(CFA_XSP16, literal(-4)))
          CFI ?BRET_EXT load(1, XDATA, add(CFA_XSP16, literal(-3)))
          CFI DPL0 load(1, XDATA, add(CFA_XSP16, literal(-2)))
          CFI DPH0 load(1, XDATA, add(CFA_XSP16, literal(-1)))
          CFI CFA_SP SP+-2
          CFI CFA_XSP16 add(XSP16, 23)
          CFI Block cfiCond419 Using cfiCommon0
          CFI (cfiCond419) Function ZDP_NodeDescMsg
          CFI (cfiCond419) Conditional ??CrossCallReturnLabel_216
          CFI (cfiCond419) R6 load(1, XDATA, add(CFA_XSP16, literal(-10)))
          CFI (cfiCond419) VB load(1, XDATA, add(CFA_XSP16, literal(-9)))
          CFI (cfiCond419) V0 load(1, XDATA, add(CFA_XSP16, literal(-8)))
          CFI (cfiCond419) V1 load(1, XDATA, add(CFA_XSP16, literal(-7)))
          CFI (cfiCond419) R7 load(1, XDATA, add(CFA_XSP16, literal(-6)))
          CFI (cfiCond419) ?RET_LOW load(1, XDATA, add(CFA_XSP16, literal(-5)))
          CFI (cfiCond419) ?RET_HIGH load(1, XDATA, add(CFA_XSP16, literal(-4)))
          CFI (cfiCond419) ?BRET_EXT load(1, XDATA, add(CFA_XSP16, literal(-3)))
          CFI (cfiCond419) DPL0 load(1, XDATA, add(CFA_XSP16, literal(-2)))
          CFI (cfiCond419) DPH0 load(1, XDATA, add(CFA_XSP16, literal(-1)))
          CFI (cfiCond419) CFA_SP SP+-2
          CFI (cfiCond419) CFA_XSP16 add(XSP16, 10)
          CFI Block cfiCond420 Using cfiCommon0
          CFI (cfiCond420) Function ZDP_NodeDescMsg
          CFI (cfiCond420) Conditional ??CrossCallReturnLabel_217
          CFI (cfiCond420) R6 load(1, XDATA, add(CFA_XSP16, literal(-10)))
          CFI (cfiCond420) VB load(1, XDATA, add(CFA_XSP16, literal(-9)))
          CFI (cfiCond420) V0 load(1, XDATA, add(CFA_XSP16, literal(-8)))
          CFI (cfiCond420) V1 load(1, XDATA, add(CFA_XSP16, literal(-7)))
          CFI (cfiCond420) R7 load(1, XDATA, add(CFA_XSP16, literal(-6)))
          CFI (cfiCond420) ?RET_LOW load(1, XDATA, add(CFA_XSP16, literal(-5)))
          CFI (cfiCond420) ?RET_HIGH load(1, XDATA, add(CFA_XSP16, literal(-4)))
          CFI (cfiCond420) ?BRET_EXT load(1, XDATA, add(CFA_XSP16, literal(-3)))
          CFI (cfiCond420) DPL0 load(1, XDATA, add(CFA_XSP16, literal(-2)))
          CFI (cfiCond420) DPH0 load(1, XDATA, add(CFA_XSP16, literal(-1)))
          CFI (cfiCond420) CFA_SP SP+-2
          CFI (cfiCond420) CFA_XSP16 add(XSP16, 10)
          CFI Block cfiPicker421 Using cfiCommon1
          CFI (cfiPicker421) NoFunction
          CFI (cfiPicker421) Picker
        INC       DPTR
          CFI EndBlock cfiCond418
          CFI EndBlock cfiCond419
          CFI EndBlock cfiCond420
          CFI EndBlock cfiPicker421
        REQUIRE ??Subroutine115_0
        ; // Fall through to label ??Subroutine115_0

        RSEG BANKED_CODE:HUGECODE:NOROOT(0)
??Subroutine115_0:
          CFI Block cfiCond422 Using cfiCommon0
          CFI Function ZDP_SendData
          CFI Conditional ??CrossCallReturnLabel_219
          CFI R6 load(1, XDATA, add(CFA_XSP16, literal(-12)))
          CFI VB load(1, XDATA, add(CFA_XSP16, literal(-11)))
          CFI V0 load(1, XDATA, add(CFA_XSP16, literal(-10)))
          CFI V1 load(1, XDATA, add(CFA_XSP16, literal(-9)))
          CFI V2 load(1, XDATA, add(CFA_XSP16, literal(-8)))
          CFI V3 load(1, XDATA, add(CFA_XSP16, literal(-7)))
          CFI R7 load(1, XDATA, add(CFA_XSP16, literal(-6)))
          CFI ?RET_LOW load(1, XDATA, add(CFA_XSP16, literal(-5)))
          CFI ?RET_HIGH load(1, XDATA, add(CFA_XSP16, literal(-4)))
          CFI ?BRET_EXT load(1, XDATA, add(CFA_XSP16, literal(-3)))
          CFI DPL0 load(1, XDATA, add(CFA_XSP16, literal(-2)))
          CFI DPH0 load(1, XDATA, add(CFA_XSP16, literal(-1)))
          CFI CFA_SP SP+-2
          CFI CFA_XSP16 add(XSP16, 12)
          CFI Block cfiCond423 Using cfiCommon0
          CFI (cfiCond423) Function ZDP_MgmtBindRsp
          CFI (cfiCond423) Conditional ??CrossCallReturnLabel_218
          CFI (cfiCond423) R6 load(1, XDATA, add(CFA_XSP16, literal(-22)))
          CFI (cfiCond423) VB load(1, XDATA, add(CFA_XSP16, literal(-21)))
          CFI (cfiCond423) V0 load(1, XDATA, add(CFA_XSP16, literal(-20)))
          CFI (cfiCond423) V1 load(1, XDATA, add(CFA_XSP16, literal(-19)))
          CFI (cfiCond423) V2 load(1, XDATA, add(CFA_XSP16, literal(-18)))
          CFI (cfiCond423) V3 load(1, XDATA, add(CFA_XSP16, literal(-17)))
          CFI (cfiCond423) V4 load(1, XDATA, add(CFA_XSP16, literal(-16)))
          CFI (cfiCond423) V5 load(1, XDATA, add(CFA_XSP16, literal(-15)))
          CFI (cfiCond423) V6 load(1, XDATA, add(CFA_XSP16, literal(-14)))
          CFI (cfiCond423) V7 load(1, XDATA, add(CFA_XSP16, literal(-13)))
          CFI (cfiCond423) V8 load(1, XDATA, add(CFA_XSP16, literal(-12)))
          CFI (cfiCond423) V9 load(1, XDATA, add(CFA_XSP16, literal(-11)))
          CFI (cfiCond423) V10 load(1, XDATA, add(CFA_XSP16, literal(-10)))
          CFI (cfiCond423) V11 load(1, XDATA, add(CFA_XSP16, literal(-9)))
          CFI (cfiCond423) V12 load(1, XDATA, add(CFA_XSP16, literal(-8)))
          CFI (cfiCond423) V13 load(1, XDATA, add(CFA_XSP16, literal(-7)))
          CFI (cfiCond423) R7 load(1, XDATA, add(CFA_XSP16, literal(-6)))
          CFI (cfiCond423) ?RET_LOW load(1, XDATA, add(CFA_XSP16, literal(-5)))
          CFI (cfiCond423) ?RET_HIGH load(1, XDATA, add(CFA_XSP16, literal(-4)))
          CFI (cfiCond423) ?BRET_EXT load(1, XDATA, add(CFA_XSP16, literal(-3)))
          CFI (cfiCond423) DPL0 load(1, XDATA, add(CFA_XSP16, literal(-2)))
          CFI (cfiCond423) DPH0 load(1, XDATA, add(CFA_XSP16, literal(-1)))
          CFI (cfiCond423) CFA_SP SP+-2
          CFI (cfiCond423) CFA_XSP16 add(XSP16, 23)
          CFI Block cfiCond424 Using cfiCommon0
          CFI (cfiCond424) Function ZDP_NodeDescMsg
          CFI (cfiCond424) Conditional ??CrossCallReturnLabel_216
          CFI (cfiCond424) R6 load(1, XDATA, add(CFA_XSP16, literal(-10)))
          CFI (cfiCond424) VB load(1, XDATA, add(CFA_XSP16, literal(-9)))
          CFI (cfiCond424) V0 load(1, XDATA, add(CFA_XSP16, literal(-8)))
          CFI (cfiCond424) V1 load(1, XDATA, add(CFA_XSP16, literal(-7)))
          CFI (cfiCond424) R7 load(1, XDATA, add(CFA_XSP16, literal(-6)))
          CFI (cfiCond424) ?RET_LOW load(1, XDATA, add(CFA_XSP16, literal(-5)))
          CFI (cfiCond424) ?RET_HIGH load(1, XDATA, add(CFA_XSP16, literal(-4)))
          CFI (cfiCond424) ?BRET_EXT load(1, XDATA, add(CFA_XSP16, literal(-3)))
          CFI (cfiCond424) DPL0 load(1, XDATA, add(CFA_XSP16, literal(-2)))
          CFI (cfiCond424) DPH0 load(1, XDATA, add(CFA_XSP16, literal(-1)))
          CFI (cfiCond424) CFA_SP SP+-2
          CFI (cfiCond424) CFA_XSP16 add(XSP16, 10)
          CFI Block cfiCond425 Using cfiCommon0
          CFI (cfiCond425) Function ZDP_NodeDescMsg
          CFI (cfiCond425) Conditional ??CrossCallReturnLabel_217
          CFI (cfiCond425) R6 load(1, XDATA, add(CFA_XSP16, literal(-10)))
          CFI (cfiCond425) VB load(1, XDATA, add(CFA_XSP16, literal(-9)))
          CFI (cfiCond425) V0 load(1, XDATA, add(CFA_XSP16, literal(-8)))
          CFI (cfiCond425) V1 load(1, XDATA, add(CFA_XSP16, literal(-7)))
          CFI (cfiCond425) R7 load(1, XDATA, add(CFA_XSP16, literal(-6)))
          CFI (cfiCond425) ?RET_LOW load(1, XDATA, add(CFA_XSP16, literal(-5)))
          CFI (cfiCond425) ?RET_HIGH load(1, XDATA, add(CFA_XSP16, literal(-4)))
          CFI (cfiCond425) ?BRET_EXT load(1, XDATA, add(CFA_XSP16, literal(-3)))
          CFI (cfiCond425) DPL0 load(1, XDATA, add(CFA_XSP16, literal(-2)))
          CFI (cfiCond425) DPH0 load(1, XDATA, add(CFA_XSP16, literal(-1)))
          CFI (cfiCond425) CFA_SP SP+-2
          CFI (cfiCond425) CFA_XSP16 add(XSP16, 10)
          CFI Block cfiPicker426 Using cfiCommon1
          CFI (cfiPicker426) NoFunction
          CFI (cfiPicker426) Picker
        LCALL     ?Subroutine82 & 0xFFFF
??CrossCallReturnLabel_222:
        RET
          CFI EndBlock cfiCond422
          CFI EndBlock cfiCond423
          CFI EndBlock cfiCond424
          CFI EndBlock cfiCond425
          CFI EndBlock cfiPicker426

        RSEG BANKED_CODE:HUGECODE:NOROOT(0)
?Subroutine82:
          CFI Block cfiCond427 Using cfiCommon0
          CFI Function ZDP_NodeDescMsg
          CFI Conditional ??CrossCallReturnLabel_220, ??CrossCallReturnLabel_146
          CFI R6 load(1, XDATA, add(CFA_XSP16, literal(-10)))
          CFI VB load(1, XDATA, add(CFA_XSP16, literal(-9)))
          CFI V0 load(1, XDATA, add(CFA_XSP16, literal(-8)))
          CFI V1 load(1, XDATA, add(CFA_XSP16, literal(-7)))
          CFI R7 load(1, XDATA, add(CFA_XSP16, literal(-6)))
          CFI ?RET_LOW load(1, XDATA, add(CFA_XSP16, literal(-5)))
          CFI ?RET_HIGH load(1, XDATA, add(CFA_XSP16, literal(-4)))
          CFI ?BRET_EXT load(1, XDATA, add(CFA_XSP16, literal(-3)))
          CFI DPL0 load(1, XDATA, add(CFA_XSP16, literal(-2)))
          CFI DPH0 load(1, XDATA, add(CFA_XSP16, literal(-1)))
          CFI CFA_SP SP+-4
          CFI CFA_XSP16 add(XSP16, 10)
          CFI Block cfiCond428 Using cfiCommon0
          CFI (cfiCond428) Function ZDP_NodeDescMsg
          CFI (cfiCond428) Conditional ??CrossCallReturnLabel_220, ??CrossCallReturnLabel_147
          CFI (cfiCond428) R6 load(1, XDATA, add(CFA_XSP16, literal(-10)))
          CFI (cfiCond428) VB load(1, XDATA, add(CFA_XSP16, literal(-9)))
          CFI (cfiCond428) V0 load(1, XDATA, add(CFA_XSP16, literal(-8)))
          CFI (cfiCond428) V1 load(1, XDATA, add(CFA_XSP16, literal(-7)))
          CFI (cfiCond428) R7 load(1, XDATA, add(CFA_XSP16, literal(-6)))
          CFI (cfiCond428) ?RET_LOW load(1, XDATA, add(CFA_XSP16, literal(-5)))
          CFI (cfiCond428) ?RET_HIGH load(1, XDATA, add(CFA_XSP16, literal(-4)))
          CFI (cfiCond428) ?BRET_EXT load(1, XDATA, add(CFA_XSP16, literal(-3)))
          CFI (cfiCond428) DPL0 load(1, XDATA, add(CFA_XSP16, literal(-2)))
          CFI (cfiCond428) DPH0 load(1, XDATA, add(CFA_XSP16, literal(-1)))
          CFI (cfiCond428) CFA_SP SP+-4
          CFI (cfiCond428) CFA_XSP16 add(XSP16, 10)
          CFI Block cfiCond429 Using cfiCommon0
          CFI (cfiCond429) Function ZDO_RegisterForZDOMsg
          CFI (cfiCond429) Conditional ??CrossCallReturnLabel_220, ??CrossCallReturnLabel_148
          CFI (cfiCond429) R6 load(1, XDATA, add(CFA_XSP16, literal(-14)))
          CFI (cfiCond429) VB load(1, XDATA, add(CFA_XSP16, literal(-13)))
          CFI (cfiCond429) V0 load(1, XDATA, add(CFA_XSP16, literal(-12)))
          CFI (cfiCond429) V1 load(1, XDATA, add(CFA_XSP16, literal(-11)))
          CFI (cfiCond429) V2 load(1, XDATA, add(CFA_XSP16, literal(-10)))
          CFI (cfiCond429) V3 load(1, XDATA, add(CFA_XSP16, literal(-9)))
          CFI (cfiCond429) V4 load(1, XDATA, add(CFA_XSP16, literal(-8)))
          CFI (cfiCond429) V5 load(1, XDATA, add(CFA_XSP16, literal(-7)))
          CFI (cfiCond429) R7 load(1, XDATA, add(CFA_XSP16, literal(-6)))
          CFI (cfiCond429) ?RET_LOW load(1, XDATA, add(CFA_XSP16, literal(-5)))
          CFI (cfiCond429) ?RET_HIGH load(1, XDATA, add(CFA_XSP16, literal(-4)))
          CFI (cfiCond429) ?BRET_EXT load(1, XDATA, add(CFA_XSP16, literal(-3)))
          CFI (cfiCond429) DPL0 load(1, XDATA, add(CFA_XSP16, literal(-2)))
          CFI (cfiCond429) DPH0 load(1, XDATA, add(CFA_XSP16, literal(-1)))
          CFI (cfiCond429) CFA_SP SP+-4
          CFI (cfiCond429) CFA_XSP16 add(XSP16, 14)
          CFI Block cfiCond430 Using cfiCommon0
          CFI (cfiCond430) Function ZDP_UserDescSet
          CFI (cfiCond430) Conditional ??CrossCallReturnLabel_221, ??CrossCallReturnLabel_0
          CFI (cfiCond430) R6 load(1, XDATA, add(CFA_XSP16, literal(-15)))
          CFI (cfiCond430) VB load(1, XDATA, add(CFA_XSP16, literal(-14)))
          CFI (cfiCond430) V0 load(1, XDATA, add(CFA_XSP16, literal(-13)))
          CFI (cfiCond430) V1 load(1, XDATA, add(CFA_XSP16, literal(-12)))
          CFI (cfiCond430) V2 load(1, XDATA, add(CFA_XSP16, literal(-11)))
          CFI (cfiCond430) V3 load(1, XDATA, add(CFA_XSP16, literal(-10)))
          CFI (cfiCond430) V4 load(1, XDATA, add(CFA_XSP16, literal(-9)))
          CFI (cfiCond430) V5 load(1, XDATA, add(CFA_XSP16, literal(-8)))
          CFI (cfiCond430) V6 load(1, XDATA, add(CFA_XSP16, literal(-7)))
          CFI (cfiCond430) R7 load(1, XDATA, add(CFA_XSP16, literal(-6)))
          CFI (cfiCond430) ?RET_LOW load(1, XDATA, add(CFA_XSP16, literal(-5)))
          CFI (cfiCond430) ?RET_HIGH load(1, XDATA, add(CFA_XSP16, literal(-4)))
          CFI (cfiCond430) ?BRET_EXT load(1, XDATA, add(CFA_XSP16, literal(-3)))
          CFI (cfiCond430) DPL0 load(1, XDATA, add(CFA_XSP16, literal(-2)))
          CFI (cfiCond430) DPH0 load(1, XDATA, add(CFA_XSP16, literal(-1)))
          CFI (cfiCond430) CFA_SP SP+-4
          CFI (cfiCond430) CFA_XSP16 add(XSP16, 15)
          CFI Block cfiCond431 Using cfiCommon0
          CFI (cfiCond431) Function ZDP_UserDescRsp
          CFI (cfiCond431) Conditional ??CrossCallReturnLabel_221, ??CrossCallReturnLabel_1
          CFI (cfiCond431) R6 load(1, XDATA, add(CFA_XSP16, literal(-18)))
          CFI (cfiCond431) VB load(1, XDATA, add(CFA_XSP16, literal(-17)))
          CFI (cfiCond431) V0 load(1, XDATA, add(CFA_XSP16, literal(-16)))
          CFI (cfiCond431) V1 load(1, XDATA, add(CFA_XSP16, literal(-15)))
          CFI (cfiCond431) V2 load(1, XDATA, add(CFA_XSP16, literal(-14)))
          CFI (cfiCond431) V3 load(1, XDATA, add(CFA_XSP16, literal(-13)))
          CFI (cfiCond431) V4 load(1, XDATA, add(CFA_XSP16, literal(-12)))
          CFI (cfiCond431) V5 load(1, XDATA, add(CFA_XSP16, literal(-11)))
          CFI (cfiCond431) V6 load(1, XDATA, add(CFA_XSP16, literal(-10)))
          CFI (cfiCond431) V7 load(1, XDATA, add(CFA_XSP16, literal(-9)))
          CFI (cfiCond431) V8 load(1, XDATA, add(CFA_XSP16, literal(-8)))
          CFI (cfiCond431) V9 load(1, XDATA, add(CFA_XSP16, literal(-7)))
          CFI (cfiCond431) R7 load(1, XDATA, add(CFA_XSP16, literal(-6)))
          CFI (cfiCond431) ?RET_LOW load(1, XDATA, add(CFA_XSP16, literal(-5)))
          CFI (cfiCond431) ?RET_HIGH load(1, XDATA, add(CFA_XSP16, literal(-4)))
          CFI (cfiCond431) ?BRET_EXT load(1, XDATA, add(CFA_XSP16, literal(-3)))
          CFI (cfiCond431) DPL0 load(1, XDATA, add(CFA_XSP16, literal(-2)))
          CFI (cfiCond431) DPH0 load(1, XDATA, add(CFA_XSP16, literal(-1)))
          CFI (cfiCond431) CFA_SP SP+-4
          CFI (cfiCond431) CFA_XSP16 add(XSP16, 19)
          CFI Block cfiCond432 Using cfiCommon0
          CFI (cfiCond432) Function ZDP_NodeDescMsg
          CFI (cfiCond432) Conditional ??CrossCallReturnLabel_222, ??CrossCallReturnLabel_216
          CFI (cfiCond432) R6 load(1, XDATA, add(CFA_XSP16, literal(-10)))
          CFI (cfiCond432) VB load(1, XDATA, add(CFA_XSP16, literal(-9)))
          CFI (cfiCond432) V0 load(1, XDATA, add(CFA_XSP16, literal(-8)))
          CFI (cfiCond432) V1 load(1, XDATA, add(CFA_XSP16, literal(-7)))
          CFI (cfiCond432) R7 load(1, XDATA, add(CFA_XSP16, literal(-6)))
          CFI (cfiCond432) ?RET_LOW load(1, XDATA, add(CFA_XSP16, literal(-5)))
          CFI (cfiCond432) ?RET_HIGH load(1, XDATA, add(CFA_XSP16, literal(-4)))
          CFI (cfiCond432) ?BRET_EXT load(1, XDATA, add(CFA_XSP16, literal(-3)))
          CFI (cfiCond432) DPL0 load(1, XDATA, add(CFA_XSP16, literal(-2)))
          CFI (cfiCond432) DPH0 load(1, XDATA, add(CFA_XSP16, literal(-1)))
          CFI (cfiCond432) CFA_SP SP+-4
          CFI (cfiCond432) CFA_XSP16 add(XSP16, 10)
          CFI Block cfiCond433 Using cfiCommon0
          CFI (cfiCond433) Function ZDP_NodeDescMsg
          CFI (cfiCond433) Conditional ??CrossCallReturnLabel_222, ??CrossCallReturnLabel_217
          CFI (cfiCond433) R6 load(1, XDATA, add(CFA_XSP16, literal(-10)))
          CFI (cfiCond433) VB load(1, XDATA, add(CFA_XSP16, literal(-9)))
          CFI (cfiCond433) V0 load(1, XDATA, add(CFA_XSP16, literal(-8)))
          CFI (cfiCond433) V1 load(1, XDATA, add(CFA_XSP16, literal(-7)))
          CFI (cfiCond433) R7 load(1, XDATA, add(CFA_XSP16, literal(-6)))
          CFI (cfiCond433) ?RET_LOW load(1, XDATA, add(CFA_XSP16, literal(-5)))
          CFI (cfiCond433) ?RET_HIGH load(1, XDATA, add(CFA_XSP16, literal(-4)))
          CFI (cfiCond433) ?BRET_EXT load(1, XDATA, add(CFA_XSP16, literal(-3)))
          CFI (cfiCond433) DPL0 load(1, XDATA, add(CFA_XSP16, literal(-2)))
          CFI (cfiCond433) DPH0 load(1, XDATA, add(CFA_XSP16, literal(-1)))
          CFI (cfiCond433) CFA_SP SP+-4
          CFI (cfiCond433) CFA_XSP16 add(XSP16, 10)
          CFI Block cfiCond434 Using cfiCommon0
          CFI (cfiCond434) Function ZDP_MgmtBindRsp
          CFI (cfiCond434) Conditional ??CrossCallReturnLabel_222, ??CrossCallReturnLabel_218
          CFI (cfiCond434) R6 load(1, XDATA, add(CFA_XSP16, literal(-22)))
          CFI (cfiCond434) VB load(1, XDATA, add(CFA_XSP16, literal(-21)))
          CFI (cfiCond434) V0 load(1, XDATA, add(CFA_XSP16, literal(-20)))
          CFI (cfiCond434) V1 load(1, XDATA, add(CFA_XSP16, literal(-19)))
          CFI (cfiCond434) V2 load(1, XDATA, add(CFA_XSP16, literal(-18)))
          CFI (cfiCond434) V3 load(1, XDATA, add(CFA_XSP16, literal(-17)))
          CFI (cfiCond434) V4 load(1, XDATA, add(CFA_XSP16, literal(-16)))
          CFI (cfiCond434) V5 load(1, XDATA, add(CFA_XSP16, literal(-15)))
          CFI (cfiCond434) V6 load(1, XDATA, add(CFA_XSP16, literal(-14)))
          CFI (cfiCond434) V7 load(1, XDATA, add(CFA_XSP16, literal(-13)))
          CFI (cfiCond434) V8 load(1, XDATA, add(CFA_XSP16, literal(-12)))
          CFI (cfiCond434) V9 load(1, XDATA, add(CFA_XSP16, literal(-11)))
          CFI (cfiCond434) V10 load(1, XDATA, add(CFA_XSP16, literal(-10)))
          CFI (cfiCond434) V11 load(1, XDATA, add(CFA_XSP16, literal(-9)))
          CFI (cfiCond434) V12 load(1, XDATA, add(CFA_XSP16, literal(-8)))
          CFI (cfiCond434) V13 load(1, XDATA, add(CFA_XSP16, literal(-7)))
          CFI (cfiCond434) R7 load(1, XDATA, add(CFA_XSP16, literal(-6)))
          CFI (cfiCond434) ?RET_LOW load(1, XDATA, add(CFA_XSP16, literal(-5)))
          CFI (cfiCond434) ?RET_HIGH load(1, XDATA, add(CFA_XSP16, literal(-4)))
          CFI (cfiCond434) ?BRET_EXT load(1, XDATA, add(CFA_XSP16, literal(-3)))
          CFI (cfiCond434) DPL0 load(1, XDATA, add(CFA_XSP16, literal(-2)))
          CFI (cfiCond434) DPH0 load(1, XDATA, add(CFA_XSP16, literal(-1)))
          CFI (cfiCond434) CFA_SP SP+-4
          CFI (cfiCond434) CFA_XSP16 add(XSP16, 23)
          CFI Block cfiCond435 Using cfiCommon0
          CFI (cfiCond435) Function ZDP_SendData
          CFI (cfiCond435) Conditional ??CrossCallReturnLabel_222, ??CrossCallReturnLabel_219
          CFI (cfiCond435) R6 load(1, XDATA, add(CFA_XSP16, literal(-12)))
          CFI (cfiCond435) VB load(1, XDATA, add(CFA_XSP16, literal(-11)))
          CFI (cfiCond435) V0 load(1, XDATA, add(CFA_XSP16, literal(-10)))
          CFI (cfiCond435) V1 load(1, XDATA, add(CFA_XSP16, literal(-9)))
          CFI (cfiCond435) V2 load(1, XDATA, add(CFA_XSP16, literal(-8)))
          CFI (cfiCond435) V3 load(1, XDATA, add(CFA_XSP16, literal(-7)))
          CFI (cfiCond435) R7 load(1, XDATA, add(CFA_XSP16, literal(-6)))
          CFI (cfiCond435) ?RET_LOW load(1, XDATA, add(CFA_XSP16, literal(-5)))
          CFI (cfiCond435) ?RET_HIGH load(1, XDATA, add(CFA_XSP16, literal(-4)))
          CFI (cfiCond435) ?BRET_EXT load(1, XDATA, add(CFA_XSP16, literal(-3)))
          CFI (cfiCond435) DPL0 load(1, XDATA, add(CFA_XSP16, literal(-2)))
          CFI (cfiCond435) DPH0 load(1, XDATA, add(CFA_XSP16, literal(-1)))
          CFI (cfiCond435) CFA_SP SP+-4
          CFI (cfiCond435) CFA_XSP16 add(XSP16, 12)
          CFI Block cfiPicker436 Using cfiCommon1
          CFI (cfiPicker436) NoFunction
          CFI (cfiPicker436) Picker
        LCALL     ?Subroutine88 & 0xFFFF
??CrossCallReturnLabel_225:
        INC       DPTR
        RET
          CFI EndBlock cfiCond427
          CFI EndBlock cfiCond428
          CFI EndBlock cfiCond429
          CFI EndBlock cfiCond430
          CFI EndBlock cfiCond431
          CFI EndBlock cfiCond432
          CFI EndBlock cfiCond433
          CFI EndBlock cfiCond434
          CFI EndBlock cfiCond435
          CFI EndBlock cfiPicker436

        RSEG BANKED_CODE:HUGECODE:NOROOT(0)
?Subroutine88:
          CFI Block cfiCond437 Using cfiCommon0
          CFI Function ZDP_NodeDescMsg
          CFI Conditional ??CrossCallReturnLabel_223, ??CrossCallReturnLabel_125, ??CrossCallReturnLabel_31
          CFI R6 load(1, XDATA, add(CFA_XSP16, literal(-10)))
          CFI VB load(1, XDATA, add(CFA_XSP16, literal(-9)))
          CFI V0 load(1, XDATA, add(CFA_XSP16, literal(-8)))
          CFI V1 load(1, XDATA, add(CFA_XSP16, literal(-7)))
          CFI R7 load(1, XDATA, add(CFA_XSP16, literal(-6)))
          CFI ?RET_LOW load(1, XDATA, add(CFA_XSP16, literal(-5)))
          CFI ?RET_HIGH load(1, XDATA, add(CFA_XSP16, literal(-4)))
          CFI ?BRET_EXT load(1, XDATA, add(CFA_XSP16, literal(-3)))
          CFI DPL0 load(1, XDATA, add(CFA_XSP16, literal(-2)))
          CFI DPH0 load(1, XDATA, add(CFA_XSP16, literal(-1)))
          CFI CFA_SP SP+-6
          CFI CFA_XSP16 add(XSP16, 10)
          CFI Block cfiCond438 Using cfiCommon0
          CFI (cfiCond438) Function ZDP_NodeDescMsg
          CFI (cfiCond438) Conditional ??CrossCallReturnLabel_223, ??CrossCallReturnLabel_125, ??CrossCallReturnLabel_32
          CFI (cfiCond438) R6 load(1, XDATA, add(CFA_XSP16, literal(-10)))
          CFI (cfiCond438) VB load(1, XDATA, add(CFA_XSP16, literal(-9)))
          CFI (cfiCond438) V0 load(1, XDATA, add(CFA_XSP16, literal(-8)))
          CFI (cfiCond438) V1 load(1, XDATA, add(CFA_XSP16, literal(-7)))
          CFI (cfiCond438) R7 load(1, XDATA, add(CFA_XSP16, literal(-6)))
          CFI (cfiCond438) ?RET_LOW load(1, XDATA, add(CFA_XSP16, literal(-5)))
          CFI (cfiCond438) ?RET_HIGH load(1, XDATA, add(CFA_XSP16, literal(-4)))
          CFI (cfiCond438) ?BRET_EXT load(1, XDATA, add(CFA_XSP16, literal(-3)))
          CFI (cfiCond438) DPL0 load(1, XDATA, add(CFA_XSP16, literal(-2)))
          CFI (cfiCond438) DPH0 load(1, XDATA, add(CFA_XSP16, literal(-1)))
          CFI (cfiCond438) CFA_SP SP+-6
          CFI (cfiCond438) CFA_XSP16 add(XSP16, 10)
          CFI Block cfiCond439 Using cfiCommon0
          CFI (cfiCond439) Function ZDP_NodeDescMsg
          CFI (cfiCond439) Conditional ??CrossCallReturnLabel_223, ??CrossCallReturnLabel_126, ??CrossCallReturnLabel_26
          CFI (cfiCond439) R6 load(1, XDATA, add(CFA_XSP16, literal(-10)))
          CFI (cfiCond439) VB load(1, XDATA, add(CFA_XSP16, literal(-9)))
          CFI (cfiCond439) V0 load(1, XDATA, add(CFA_XSP16, literal(-8)))
          CFI (cfiCond439) V1 load(1, XDATA, add(CFA_XSP16, literal(-7)))
          CFI (cfiCond439) R7 load(1, XDATA, add(CFA_XSP16, literal(-6)))
          CFI (cfiCond439) ?RET_LOW load(1, XDATA, add(CFA_XSP16, literal(-5)))
          CFI (cfiCond439) ?RET_HIGH load(1, XDATA, add(CFA_XSP16, literal(-4)))
          CFI (cfiCond439) ?BRET_EXT load(1, XDATA, add(CFA_XSP16, literal(-3)))
          CFI (cfiCond439) DPL0 load(1, XDATA, add(CFA_XSP16, literal(-2)))
          CFI (cfiCond439) DPH0 load(1, XDATA, add(CFA_XSP16, literal(-1)))
          CFI (cfiCond439) CFA_SP SP+-6
          CFI (cfiCond439) CFA_XSP16 add(XSP16, 10)
          CFI Block cfiCond440 Using cfiCommon0
          CFI (cfiCond440) Function ZDP_NodeDescMsg
          CFI (cfiCond440) Conditional ??CrossCallReturnLabel_223, ??CrossCallReturnLabel_126, ??CrossCallReturnLabel_27
          CFI (cfiCond440) R6 load(1, XDATA, add(CFA_XSP16, literal(-10)))
          CFI (cfiCond440) VB load(1, XDATA, add(CFA_XSP16, literal(-9)))
          CFI (cfiCond440) V0 load(1, XDATA, add(CFA_XSP16, literal(-8)))
          CFI (cfiCond440) V1 load(1, XDATA, add(CFA_XSP16, literal(-7)))
          CFI (cfiCond440) R7 load(1, XDATA, add(CFA_XSP16, literal(-6)))
          CFI (cfiCond440) ?RET_LOW load(1, XDATA, add(CFA_XSP16, literal(-5)))
          CFI (cfiCond440) ?RET_HIGH load(1, XDATA, add(CFA_XSP16, literal(-4)))
          CFI (cfiCond440) ?BRET_EXT load(1, XDATA, add(CFA_XSP16, literal(-3)))
          CFI (cfiCond440) DPL0 load(1, XDATA, add(CFA_XSP16, literal(-2)))
          CFI (cfiCond440) DPH0 load(1, XDATA, add(CFA_XSP16, literal(-1)))
          CFI (cfiCond440) CFA_SP SP+-6
          CFI (cfiCond440) CFA_XSP16 add(XSP16, 10)
          CFI Block cfiCond441 Using cfiCommon0
          CFI (cfiCond441) Function ZDP_PowerDescMsg
          CFI (cfiCond441) Conditional ??CrossCallReturnLabel_224, ??CrossCallReturnLabel_156
          CFI (cfiCond441) R6 load(1, XDATA, add(CFA_XSP16, literal(-10)))
          CFI (cfiCond441) VB load(1, XDATA, add(CFA_XSP16, literal(-9)))
          CFI (cfiCond441) V0 load(1, XDATA, add(CFA_XSP16, literal(-8)))
          CFI (cfiCond441) V1 load(1, XDATA, add(CFA_XSP16, literal(-7)))
          CFI (cfiCond441) R7 load(1, XDATA, add(CFA_XSP16, literal(-6)))
          CFI (cfiCond441) ?RET_LOW load(1, XDATA, add(CFA_XSP16, literal(-5)))
          CFI (cfiCond441) ?RET_HIGH load(1, XDATA, add(CFA_XSP16, literal(-4)))
          CFI (cfiCond441) ?BRET_EXT load(1, XDATA, add(CFA_XSP16, literal(-3)))
          CFI (cfiCond441) DPL0 load(1, XDATA, add(CFA_XSP16, literal(-2)))
          CFI (cfiCond441) DPH0 load(1, XDATA, add(CFA_XSP16, literal(-1)))
          CFI (cfiCond441) CFA_SP SP+-4
          CFI (cfiCond441) CFA_XSP16 add(XSP16, 10)
          CFI Block cfiCond442 Using cfiCommon0
          CFI (cfiCond442) Function ZDP_UserDescRsp
          CFI (cfiCond442) Conditional ??CrossCallReturnLabel_224, ??CrossCallReturnLabel_157
          CFI (cfiCond442) R6 load(1, XDATA, add(CFA_XSP16, literal(-18)))
          CFI (cfiCond442) VB load(1, XDATA, add(CFA_XSP16, literal(-17)))
          CFI (cfiCond442) V0 load(1, XDATA, add(CFA_XSP16, literal(-16)))
          CFI (cfiCond442) V1 load(1, XDATA, add(CFA_XSP16, literal(-15)))
          CFI (cfiCond442) V2 load(1, XDATA, add(CFA_XSP16, literal(-14)))
          CFI (cfiCond442) V3 load(1, XDATA, add(CFA_XSP16, literal(-13)))
          CFI (cfiCond442) V4 load(1, XDATA, add(CFA_XSP16, literal(-12)))
          CFI (cfiCond442) V5 load(1, XDATA, add(CFA_XSP16, literal(-11)))
          CFI (cfiCond442) V6 load(1, XDATA, add(CFA_XSP16, literal(-10)))
          CFI (cfiCond442) V7 load(1, XDATA, add(CFA_XSP16, literal(-9)))
          CFI (cfiCond442) V8 load(1, XDATA, add(CFA_XSP16, literal(-8)))
          CFI (cfiCond442) V9 load(1, XDATA, add(CFA_XSP16, literal(-7)))
          CFI (cfiCond442) R7 load(1, XDATA, add(CFA_XSP16, literal(-6)))
          CFI (cfiCond442) ?RET_LOW load(1, XDATA, add(CFA_XSP16, literal(-5)))
          CFI (cfiCond442) ?RET_HIGH load(1, XDATA, add(CFA_XSP16, literal(-4)))
          CFI (cfiCond442) ?BRET_EXT load(1, XDATA, add(CFA_XSP16, literal(-3)))
          CFI (cfiCond442) DPL0 load(1, XDATA, add(CFA_XSP16, literal(-2)))
          CFI (cfiCond442) DPH0 load(1, XDATA, add(CFA_XSP16, literal(-1)))
          CFI (cfiCond442) CFA_SP SP+-4
          CFI (cfiCond442) CFA_XSP16 add(XSP16, 19)
          CFI Block cfiCond443 Using cfiCommon0
          CFI (cfiCond443) Function ZDP_IncomingData
          CFI (cfiCond443) Conditional ??CrossCallReturnLabel_224, ??CrossCallReturnLabel_158
          CFI (cfiCond443) R6 load(1, XDATA, add(CFA_XSP16, literal(-10)))
          CFI (cfiCond443) VB load(1, XDATA, add(CFA_XSP16, literal(-9)))
          CFI (cfiCond443) V0 load(1, XDATA, add(CFA_XSP16, literal(-8)))
          CFI (cfiCond443) V1 load(1, XDATA, add(CFA_XSP16, literal(-7)))
          CFI (cfiCond443) R7 load(1, XDATA, add(CFA_XSP16, literal(-6)))
          CFI (cfiCond443) ?RET_LOW load(1, XDATA, add(CFA_XSP16, literal(-5)))
          CFI (cfiCond443) ?RET_HIGH load(1, XDATA, add(CFA_XSP16, literal(-4)))
          CFI (cfiCond443) ?BRET_EXT load(1, XDATA, add(CFA_XSP16, literal(-3)))
          CFI (cfiCond443) DPL0 load(1, XDATA, add(CFA_XSP16, literal(-2)))
          CFI (cfiCond443) DPH0 load(1, XDATA, add(CFA_XSP16, literal(-1)))
          CFI (cfiCond443) CFA_SP SP+-4
          CFI (cfiCond443) CFA_XSP16 add(XSP16, 33)
          CFI Block cfiCond444 Using cfiCommon0
          CFI (cfiCond444) Function ZDP_NodeDescMsg
          CFI (cfiCond444) Conditional ??CrossCallReturnLabel_225, ??CrossCallReturnLabel_220, ??CrossCallReturnLabel_146
          CFI (cfiCond444) R6 load(1, XDATA, add(CFA_XSP16, literal(-10)))
          CFI (cfiCond444) VB load(1, XDATA, add(CFA_XSP16, literal(-9)))
          CFI (cfiCond444) V0 load(1, XDATA, add(CFA_XSP16, literal(-8)))
          CFI (cfiCond444) V1 load(1, XDATA, add(CFA_XSP16, literal(-7)))
          CFI (cfiCond444) R7 load(1, XDATA, add(CFA_XSP16, literal(-6)))
          CFI (cfiCond444) ?RET_LOW load(1, XDATA, add(CFA_XSP16, literal(-5)))
          CFI (cfiCond444) ?RET_HIGH load(1, XDATA, add(CFA_XSP16, literal(-4)))
          CFI (cfiCond444) ?BRET_EXT load(1, XDATA, add(CFA_XSP16, literal(-3)))
          CFI (cfiCond444) DPL0 load(1, XDATA, add(CFA_XSP16, literal(-2)))
          CFI (cfiCond444) DPH0 load(1, XDATA, add(CFA_XSP16, literal(-1)))
          CFI (cfiCond444) CFA_SP SP+-6
          CFI (cfiCond444) CFA_XSP16 add(XSP16, 10)
          CFI Block cfiCond445 Using cfiCommon0
          CFI (cfiCond445) Function ZDP_NodeDescMsg
          CFI (cfiCond445) Conditional ??CrossCallReturnLabel_225, ??CrossCallReturnLabel_220, ??CrossCallReturnLabel_147
          CFI (cfiCond445) R6 load(1, XDATA, add(CFA_XSP16, literal(-10)))
          CFI (cfiCond445) VB load(1, XDATA, add(CFA_XSP16, literal(-9)))
          CFI (cfiCond445) V0 load(1, XDATA, add(CFA_XSP16, literal(-8)))
          CFI (cfiCond445) V1 load(1, XDATA, add(CFA_XSP16, literal(-7)))
          CFI (cfiCond445) R7 load(1, XDATA, add(CFA_XSP16, literal(-6)))
          CFI (cfiCond445) ?RET_LOW load(1, XDATA, add(CFA_XSP16, literal(-5)))
          CFI (cfiCond445) ?RET_HIGH load(1, XDATA, add(CFA_XSP16, literal(-4)))
          CFI (cfiCond445) ?BRET_EXT load(1, XDATA, add(CFA_XSP16, literal(-3)))
          CFI (cfiCond445) DPL0 load(1, XDATA, add(CFA_XSP16, literal(-2)))
          CFI (cfiCond445) DPH0 load(1, XDATA, add(CFA_XSP16, literal(-1)))
          CFI (cfiCond445) CFA_SP SP+-6
          CFI (cfiCond445) CFA_XSP16 add(XSP16, 10)
          CFI Block cfiCond446 Using cfiCommon0
          CFI (cfiCond446) Function ZDO_RegisterForZDOMsg
          CFI (cfiCond446) Conditional ??CrossCallReturnLabel_225, ??CrossCallReturnLabel_220, ??CrossCallReturnLabel_148
          CFI (cfiCond446) R6 load(1, XDATA, add(CFA_XSP16, literal(-14)))
          CFI (cfiCond446) VB load(1, XDATA, add(CFA_XSP16, literal(-13)))
          CFI (cfiCond446) V0 load(1, XDATA, add(CFA_XSP16, literal(-12)))
          CFI (cfiCond446) V1 load(1, XDATA, add(CFA_XSP16, literal(-11)))
          CFI (cfiCond446) V2 load(1, XDATA, add(CFA_XSP16, literal(-10)))
          CFI (cfiCond446) V3 load(1, XDATA, add(CFA_XSP16, literal(-9)))
          CFI (cfiCond446) V4 load(1, XDATA, add(CFA_XSP16, literal(-8)))
          CFI (cfiCond446) V5 load(1, XDATA, add(CFA_XSP16, literal(-7)))
          CFI (cfiCond446) R7 load(1, XDATA, add(CFA_XSP16, literal(-6)))
          CFI (cfiCond446) ?RET_LOW load(1, XDATA, add(CFA_XSP16, literal(-5)))
          CFI (cfiCond446) ?RET_HIGH load(1, XDATA, add(CFA_XSP16, literal(-4)))
          CFI (cfiCond446) ?BRET_EXT load(1, XDATA, add(CFA_XSP16, literal(-3)))
          CFI (cfiCond446) DPL0 load(1, XDATA, add(CFA_XSP16, literal(-2)))
          CFI (cfiCond446) DPH0 load(1, XDATA, add(CFA_XSP16, literal(-1)))
          CFI (cfiCond446) CFA_SP SP+-6
          CFI (cfiCond446) CFA_XSP16 add(XSP16, 14)
          CFI Block cfiCond447 Using cfiCommon0
          CFI (cfiCond447) Function ZDP_UserDescSet
          CFI (cfiCond447) Conditional ??CrossCallReturnLabel_225, ??CrossCallReturnLabel_221, ??CrossCallReturnLabel_0
          CFI (cfiCond447) R6 load(1, XDATA, add(CFA_XSP16, literal(-15)))
          CFI (cfiCond447) VB load(1, XDATA, add(CFA_XSP16, literal(-14)))
          CFI (cfiCond447) V0 load(1, XDATA, add(CFA_XSP16, literal(-13)))
          CFI (cfiCond447) V1 load(1, XDATA, add(CFA_XSP16, literal(-12)))
          CFI (cfiCond447) V2 load(1, XDATA, add(CFA_XSP16, literal(-11)))
          CFI (cfiCond447) V3 load(1, XDATA, add(CFA_XSP16, literal(-10)))
          CFI (cfiCond447) V4 load(1, XDATA, add(CFA_XSP16, literal(-9)))
          CFI (cfiCond447) V5 load(1, XDATA, add(CFA_XSP16, literal(-8)))
          CFI (cfiCond447) V6 load(1, XDATA, add(CFA_XSP16, literal(-7)))
          CFI (cfiCond447) R7 load(1, XDATA, add(CFA_XSP16, literal(-6)))
          CFI (cfiCond447) ?RET_LOW load(1, XDATA, add(CFA_XSP16, literal(-5)))
          CFI (cfiCond447) ?RET_HIGH load(1, XDATA, add(CFA_XSP16, literal(-4)))
          CFI (cfiCond447) ?BRET_EXT load(1, XDATA, add(CFA_XSP16, literal(-3)))
          CFI (cfiCond447) DPL0 load(1, XDATA, add(CFA_XSP16, literal(-2)))
          CFI (cfiCond447) DPH0 load(1, XDATA, add(CFA_XSP16, literal(-1)))
          CFI (cfiCond447) CFA_SP SP+-6
          CFI (cfiCond447) CFA_XSP16 add(XSP16, 15)
          CFI Block cfiCond448 Using cfiCommon0
          CFI (cfiCond448) Function ZDP_UserDescRsp
          CFI (cfiCond448) Conditional ??CrossCallReturnLabel_225, ??CrossCallReturnLabel_221, ??CrossCallReturnLabel_1
          CFI (cfiCond448) R6 load(1, XDATA, add(CFA_XSP16, literal(-18)))
          CFI (cfiCond448) VB load(1, XDATA, add(CFA_XSP16, literal(-17)))
          CFI (cfiCond448) V0 load(1, XDATA, add(CFA_XSP16, literal(-16)))
          CFI (cfiCond448) V1 load(1, XDATA, add(CFA_XSP16, literal(-15)))
          CFI (cfiCond448) V2 load(1, XDATA, add(CFA_XSP16, literal(-14)))
          CFI (cfiCond448) V3 load(1, XDATA, add(CFA_XSP16, literal(-13)))
          CFI (cfiCond448) V4 load(1, XDATA, add(CFA_XSP16, literal(-12)))
          CFI (cfiCond448) V5 load(1, XDATA, add(CFA_XSP16, literal(-11)))
          CFI (cfiCond448) V6 load(1, XDATA, add(CFA_XSP16, literal(-10)))
          CFI (cfiCond448) V7 load(1, XDATA, add(CFA_XSP16, literal(-9)))
          CFI (cfiCond448) V8 load(1, XDATA, add(CFA_XSP16, literal(-8)))
          CFI (cfiCond448) V9 load(1, XDATA, add(CFA_XSP16, literal(-7)))
          CFI (cfiCond448) R7 load(1, XDATA, add(CFA_XSP16, literal(-6)))
          CFI (cfiCond448) ?RET_LOW load(1, XDATA, add(CFA_XSP16, literal(-5)))
          CFI (cfiCond448) ?RET_HIGH load(1, XDATA, add(CFA_XSP16, literal(-4)))
          CFI (cfiCond448) ?BRET_EXT load(1, XDATA, add(CFA_XSP16, literal(-3)))
          CFI (cfiCond448) DPL0 load(1, XDATA, add(CFA_XSP16, literal(-2)))
          CFI (cfiCond448) DPH0 load(1, XDATA, add(CFA_XSP16, literal(-1)))
          CFI (cfiCond448) CFA_SP SP+-6
          CFI (cfiCond448) CFA_XSP16 add(XSP16, 19)
          CFI Block cfiCond449 Using cfiCommon0
          CFI (cfiCond449) Function ZDP_NodeDescMsg
          CFI (cfiCond449) Conditional ??CrossCallReturnLabel_225, ??CrossCallReturnLabel_222, ??CrossCallReturnLabel_216
          CFI (cfiCond449) R6 load(1, XDATA, add(CFA_XSP16, literal(-10)))
          CFI (cfiCond449) VB load(1, XDATA, add(CFA_XSP16, literal(-9)))
          CFI (cfiCond449) V0 load(1, XDATA, add(CFA_XSP16, literal(-8)))
          CFI (cfiCond449) V1 load(1, XDATA, add(CFA_XSP16, literal(-7)))
          CFI (cfiCond449) R7 load(1, XDATA, add(CFA_XSP16, literal(-6)))
          CFI (cfiCond449) ?RET_LOW load(1, XDATA, add(CFA_XSP16, literal(-5)))
          CFI (cfiCond449) ?RET_HIGH load(1, XDATA, add(CFA_XSP16, literal(-4)))
          CFI (cfiCond449) ?BRET_EXT load(1, XDATA, add(CFA_XSP16, literal(-3)))
          CFI (cfiCond449) DPL0 load(1, XDATA, add(CFA_XSP16, literal(-2)))
          CFI (cfiCond449) DPH0 load(1, XDATA, add(CFA_XSP16, literal(-1)))
          CFI (cfiCond449) CFA_SP SP+-6
          CFI (cfiCond449) CFA_XSP16 add(XSP16, 10)
          CFI Block cfiCond450 Using cfiCommon0
          CFI (cfiCond450) Function ZDP_NodeDescMsg
          CFI (cfiCond450) Conditional ??CrossCallReturnLabel_225, ??CrossCallReturnLabel_222, ??CrossCallReturnLabel_217
          CFI (cfiCond450) R6 load(1, XDATA, add(CFA_XSP16, literal(-10)))
          CFI (cfiCond450) VB load(1, XDATA, add(CFA_XSP16, literal(-9)))
          CFI (cfiCond450) V0 load(1, XDATA, add(CFA_XSP16, literal(-8)))
          CFI (cfiCond450) V1 load(1, XDATA, add(CFA_XSP16, literal(-7)))
          CFI (cfiCond450) R7 load(1, XDATA, add(CFA_XSP16, literal(-6)))
          CFI (cfiCond450) ?RET_LOW load(1, XDATA, add(CFA_XSP16, literal(-5)))
          CFI (cfiCond450) ?RET_HIGH load(1, XDATA, add(CFA_XSP16, literal(-4)))
          CFI (cfiCond450) ?BRET_EXT load(1, XDATA, add(CFA_XSP16, literal(-3)))
          CFI (cfiCond450) DPL0 load(1, XDATA, add(CFA_XSP16, literal(-2)))
          CFI (cfiCond450) DPH0 load(1, XDATA, add(CFA_XSP16, literal(-1)))
          CFI (cfiCond450) CFA_SP SP+-6
          CFI (cfiCond450) CFA_XSP16 add(XSP16, 10)
          CFI Block cfiCond451 Using cfiCommon0
          CFI (cfiCond451) Function ZDP_MgmtBindRsp
          CFI (cfiCond451) Conditional ??CrossCallReturnLabel_225, ??CrossCallReturnLabel_222, ??CrossCallReturnLabel_218
          CFI (cfiCond451) R6 load(1, XDATA, add(CFA_XSP16, literal(-22)))
          CFI (cfiCond451) VB load(1, XDATA, add(CFA_XSP16, literal(-21)))
          CFI (cfiCond451) V0 load(1, XDATA, add(CFA_XSP16, literal(-20)))
          CFI (cfiCond451) V1 load(1, XDATA, add(CFA_XSP16, literal(-19)))
          CFI (cfiCond451) V2 load(1, XDATA, add(CFA_XSP16, literal(-18)))
          CFI (cfiCond451) V3 load(1, XDATA, add(CFA_XSP16, literal(-17)))
          CFI (cfiCond451) V4 load(1, XDATA, add(CFA_XSP16, literal(-16)))
          CFI (cfiCond451) V5 load(1, XDATA, add(CFA_XSP16, literal(-15)))
          CFI (cfiCond451) V6 load(1, XDATA, add(CFA_XSP16, literal(-14)))
          CFI (cfiCond451) V7 load(1, XDATA, add(CFA_XSP16, literal(-13)))
          CFI (cfiCond451) V8 load(1, XDATA, add(CFA_XSP16, literal(-12)))
          CFI (cfiCond451) V9 load(1, XDATA, add(CFA_XSP16, literal(-11)))
          CFI (cfiCond451) V10 load(1, XDATA, add(CFA_XSP16, literal(-10)))
          CFI (cfiCond451) V11 load(1, XDATA, add(CFA_XSP16, literal(-9)))
          CFI (cfiCond451) V12 load(1, XDATA, add(CFA_XSP16, literal(-8)))
          CFI (cfiCond451) V13 load(1, XDATA, add(CFA_XSP16, literal(-7)))
          CFI (cfiCond451) R7 load(1, XDATA, add(CFA_XSP16, literal(-6)))
          CFI (cfiCond451) ?RET_LOW load(1, XDATA, add(CFA_XSP16, literal(-5)))
          CFI (cfiCond451) ?RET_HIGH load(1, XDATA, add(CFA_XSP16, literal(-4)))
          CFI (cfiCond451) ?BRET_EXT load(1, XDATA, add(CFA_XSP16, literal(-3)))
          CFI (cfiCond451) DPL0 load(1, XDATA, add(CFA_XSP16, literal(-2)))
          CFI (cfiCond451) DPH0 load(1, XDATA, add(CFA_XSP16, literal(-1)))
          CFI (cfiCond451) CFA_SP SP+-6
          CFI (cfiCond451) CFA_XSP16 add(XSP16, 23)
          CFI Block cfiCond452 Using cfiCommon0
          CFI (cfiCond452) Function ZDP_SendData
          CFI (cfiCond452) Conditional ??CrossCallReturnLabel_225, ??CrossCallReturnLabel_222, ??CrossCallReturnLabel_219
          CFI (cfiCond452) R6 load(1, XDATA, add(CFA_XSP16, literal(-12)))
          CFI (cfiCond452) VB load(1, XDATA, add(CFA_XSP16, literal(-11)))
          CFI (cfiCond452) V0 load(1, XDATA, add(CFA_XSP16, literal(-10)))
          CFI (cfiCond452) V1 load(1, XDATA, add(CFA_XSP16, literal(-9)))
          CFI (cfiCond452) V2 load(1, XDATA, add(CFA_XSP16, literal(-8)))
          CFI (cfiCond452) V3 load(1, XDATA, add(CFA_XSP16, literal(-7)))
          CFI (cfiCond452) R7 load(1, XDATA, add(CFA_XSP16, literal(-6)))
          CFI (cfiCond452) ?RET_LOW load(1, XDATA, add(CFA_XSP16, literal(-5)))
          CFI (cfiCond452) ?RET_HIGH load(1, XDATA, add(CFA_XSP16, literal(-4)))
          CFI (cfiCond452) ?BRET_EXT load(1, XDATA, add(CFA_XSP16, literal(-3)))
          CFI (cfiCond452) DPL0 load(1, XDATA, add(CFA_XSP16, literal(-2)))
          CFI (cfiCond452) DPH0 load(1, XDATA, add(CFA_XSP16, literal(-1)))
          CFI (cfiCond452) CFA_SP SP+-6
          CFI (cfiCond452) CFA_XSP16 add(XSP16, 12)
          CFI Block cfiCond453 Using cfiCommon0
          CFI (cfiCond453) Function ZDO_RegisterForZDOMsg
          CFI (cfiCond453) Conditional ??CrossCallReturnLabel_226
          CFI (cfiCond453) R6 load(1, XDATA, add(CFA_XSP16, literal(-14)))
          CFI (cfiCond453) VB load(1, XDATA, add(CFA_XSP16, literal(-13)))
          CFI (cfiCond453) V0 load(1, XDATA, add(CFA_XSP16, literal(-12)))
          CFI (cfiCond453) V1 load(1, XDATA, add(CFA_XSP16, literal(-11)))
          CFI (cfiCond453) V2 load(1, XDATA, add(CFA_XSP16, literal(-10)))
          CFI (cfiCond453) V3 load(1, XDATA, add(CFA_XSP16, literal(-9)))
          CFI (cfiCond453) V4 load(1, XDATA, add(CFA_XSP16, literal(-8)))
          CFI (cfiCond453) V5 load(1, XDATA, add(CFA_XSP16, literal(-7)))
          CFI (cfiCond453) R7 load(1, XDATA, add(CFA_XSP16, literal(-6)))
          CFI (cfiCond453) ?RET_LOW load(1, XDATA, add(CFA_XSP16, literal(-5)))
          CFI (cfiCond453) ?RET_HIGH load(1, XDATA, add(CFA_XSP16, literal(-4)))
          CFI (cfiCond453) ?BRET_EXT load(1, XDATA, add(CFA_XSP16, literal(-3)))
          CFI (cfiCond453) DPL0 load(1, XDATA, add(CFA_XSP16, literal(-2)))
          CFI (cfiCond453) DPH0 load(1, XDATA, add(CFA_XSP16, literal(-1)))
          CFI (cfiCond453) CFA_SP SP+-2
          CFI (cfiCond453) CFA_XSP16 add(XSP16, 14)
          CFI Block cfiPicker454 Using cfiCommon1
          CFI (cfiPicker454) NoFunction
          CFI (cfiPicker454) Picker
        MOVX      @DPTR,A
        ; Setup parameters for call to function osal_memcpy
        ; Setup parameters for call to function osal_memcpy
        MOV       DPL,R0
        MOV       DPH,R1
        RET
          CFI EndBlock cfiCond437
          CFI EndBlock cfiCond438
          CFI EndBlock cfiCond439
          CFI EndBlock cfiCond440
          CFI EndBlock cfiCond441
          CFI EndBlock cfiCond442
          CFI EndBlock cfiCond443
          CFI EndBlock cfiCond444
          CFI EndBlock cfiCond445
          CFI EndBlock cfiCond446
          CFI EndBlock cfiCond447
          CFI EndBlock cfiCond448
          CFI EndBlock cfiCond449
          CFI EndBlock cfiCond450
          CFI EndBlock cfiCond451
          CFI EndBlock cfiCond452
          CFI EndBlock cfiCond453
          CFI EndBlock cfiPicker454

        RSEG BANKED_CODE:HUGECODE:NOROOT(0)
?Subroutine14:
          CFI Block cfiCond455 Using cfiCommon0
          CFI Function ZDP_MgmtRtgRsp
          CFI Conditional ??CrossCallReturnLabel_8
          CFI R6 load(1, XDATA, add(CFA_XSP16, literal(-20)))
          CFI VB load(1, XDATA, add(CFA_XSP16, literal(-19)))
          CFI V0 load(1, XDATA, add(CFA_XSP16, literal(-18)))
          CFI V1 load(1, XDATA, add(CFA_XSP16, literal(-17)))
          CFI V2 load(1, XDATA, add(CFA_XSP16, literal(-16)))
          CFI V3 load(1, XDATA, add(CFA_XSP16, literal(-15)))
          CFI V4 load(1, XDATA, add(CFA_XSP16, literal(-14)))
          CFI V5 load(1, XDATA, add(CFA_XSP16, literal(-13)))
          CFI V6 load(1, XDATA, add(CFA_XSP16, literal(-12)))
          CFI V7 load(1, XDATA, add(CFA_XSP16, literal(-11)))
          CFI V8 load(1, XDATA, add(CFA_XSP16, literal(-10)))
          CFI V9 load(1, XDATA, add(CFA_XSP16, literal(-9)))
          CFI V10 load(1, XDATA, add(CFA_XSP16, literal(-8)))
          CFI V11 load(1, XDATA, add(CFA_XSP16, literal(-7)))
          CFI R7 load(1, XDATA, add(CFA_XSP16, literal(-6)))
          CFI ?RET_LOW load(1, XDATA, add(CFA_XSP16, literal(-5)))
          CFI ?RET_HIGH load(1, XDATA, add(CFA_XSP16, literal(-4)))
          CFI ?BRET_EXT load(1, XDATA, add(CFA_XSP16, literal(-3)))
          CFI DPL0 load(1, XDATA, add(CFA_XSP16, literal(-2)))
          CFI DPH0 load(1, XDATA, add(CFA_XSP16, literal(-1)))
          CFI CFA_SP SP+-2
          CFI CFA_XSP16 add(XSP16, 21)
          CFI Block cfiCond456 Using cfiCommon0
          CFI (cfiCond456) Function ZDP_MgmtBindRsp
          CFI (cfiCond456) Conditional ??CrossCallReturnLabel_9
          CFI (cfiCond456) R6 load(1, XDATA, add(CFA_XSP16, literal(-22)))
          CFI (cfiCond456) VB load(1, XDATA, add(CFA_XSP16, literal(-21)))
          CFI (cfiCond456) V0 load(1, XDATA, add(CFA_XSP16, literal(-20)))
          CFI (cfiCond456) V1 load(1, XDATA, add(CFA_XSP16, literal(-19)))
          CFI (cfiCond456) V2 load(1, XDATA, add(CFA_XSP16, literal(-18)))
          CFI (cfiCond456) V3 load(1, XDATA, add(CFA_XSP16, literal(-17)))
          CFI (cfiCond456) V4 load(1, XDATA, add(CFA_XSP16, literal(-16)))
          CFI (cfiCond456) V5 load(1, XDATA, add(CFA_XSP16, literal(-15)))
          CFI (cfiCond456) V6 load(1, XDATA, add(CFA_XSP16, literal(-14)))
          CFI (cfiCond456) V7 load(1, XDATA, add(CFA_XSP16, literal(-13)))
          CFI (cfiCond456) V8 load(1, XDATA, add(CFA_XSP16, literal(-12)))
          CFI (cfiCond456) V9 load(1, XDATA, add(CFA_XSP16, literal(-11)))
          CFI (cfiCond456) V10 load(1, XDATA, add(CFA_XSP16, literal(-10)))
          CFI (cfiCond456) V11 load(1, XDATA, add(CFA_XSP16, literal(-9)))
          CFI (cfiCond456) V12 load(1, XDATA, add(CFA_XSP16, literal(-8)))
          CFI (cfiCond456) V13 load(1, XDATA, add(CFA_XSP16, literal(-7)))
          CFI (cfiCond456) R7 load(1, XDATA, add(CFA_XSP16, literal(-6)))
          CFI (cfiCond456) ?RET_LOW load(1, XDATA, add(CFA_XSP16, literal(-5)))
          CFI (cfiCond456) ?RET_HIGH load(1, XDATA, add(CFA_XSP16, literal(-4)))
          CFI (cfiCond456) ?BRET_EXT load(1, XDATA, add(CFA_XSP16, literal(-3)))
          CFI (cfiCond456) DPL0 load(1, XDATA, add(CFA_XSP16, literal(-2)))
          CFI (cfiCond456) DPH0 load(1, XDATA, add(CFA_XSP16, literal(-1)))
          CFI (cfiCond456) CFA_SP SP+-2
          CFI (cfiCond456) CFA_XSP16 add(XSP16, 23)
          CFI Block cfiPicker457 Using cfiCommon1
          CFI (cfiPicker457) NoFunction
          CFI (cfiPicker457) Picker
        MOV       DPL,R4
        MOV       DPH,R5
        LCALL     ?Subroutine79 & 0xFFFF
??CrossCallReturnLabel_177:
        MOVX      @DPTR,A
        MOV       DPL,R4
        MOV       DPH,R5
        INC       DPTR
        LCALL     ?Subroutine79 & 0xFFFF
??CrossCallReturnLabel_178:
        INC       DPTR
        MOVX      @DPTR,A
        MOV       A,R2
        ADD       A,#0x2
        RET
          CFI EndBlock cfiCond455
          CFI EndBlock cfiCond456
          CFI EndBlock cfiPicker457
// 1782 
// 1783 /*********************************************************************
// 1784  * @fn          ZDP_MgmtNwkUpdateNotify
// 1785  *
// 1786  * @brief       This builds and send a Mgmt_NWK_Update_notify message. This
// 1787  *              function sends a unicast message.
// 1788  *
// 1789  * @param       dstAddr - destination address of the message
// 1790  * @param       status - message status (ZDP_SUCCESS or other)
// 1791  * @param       scannedChannels - List of channels scanned by the request
// 1792  * @param       totalTransmissions - Total transmissions
// 1793  * @param       transmissionFailures - Sum of transmission failures
// 1794  * @param       listCount - Number of records contained in the energyValues list
// 1795  * @param       energyValues - List of descriptors, one for each of ListCount,
// 1796  *                             of the enegry detect descriptors
// 1797  * @param       txOptions - Transmit options
// 1798  * @param       securityEnable - Security options
// 1799  *
// 1800  * @return      afStatus_t
// 1801  */

        RSEG BANKED_CODE:HUGECODE:NOROOT(0)
// 1802 afStatus_t ZDP_MgmtNwkUpdateNotify( uint8 TransSeq, zAddrType_t *dstAddr,
ZDP_MgmtNwkUpdateNotify:
          CFI Block cfiBlock458 Using cfiCommon0
          CFI Function ZDP_MgmtNwkUpdateNotify
        CODE
// 1803                                     uint8 status, uint32 scannedChannels,
// 1804                                     uint16 totalTransmissions, uint16 transmissionFailures,
// 1805                                     uint8 listCount, uint8 *energyValues, uint8 txOptions,
// 1806                                     uint8 securityEnable )
// 1807 {
        FUNCALL ZDP_MgmtNwkUpdateNotify, osal_mem_alloc
        LOCFRAME ISTACK, 0, STACK
        LOCFRAME PSTACK, 0, STACK
        LOCFRAME XSTACK, 19, STACK
        LOCFRAME IOVERLAY, 0, STATIC
        LOCFRAME DOVERLAY, 0, STATIC
        ARGFRAME ISTACK, 0, STACK
        ARGFRAME PSTACK, 0, STACK
        ARGFRAME XSTACK, 19, STACK
        ARGFRAME IOVERLAY, 0, STATIC
        ARGFRAME DOVERLAY, 0, STATIC
        FUNCALL ZDP_MgmtNwkUpdateNotify, osal_buffer_uint32
        LOCFRAME ISTACK, 0, STACK
        LOCFRAME PSTACK, 0, STACK
        LOCFRAME XSTACK, 23, STACK
        LOCFRAME IOVERLAY, 0, STATIC
        LOCFRAME DOVERLAY, 0, STATIC
        ARGFRAME ISTACK, 0, STACK
        ARGFRAME PSTACK, 0, STACK
        ARGFRAME XSTACK, 23, STACK
        ARGFRAME IOVERLAY, 0, STATIC
        ARGFRAME DOVERLAY, 0, STATIC
        FUNCALL ZDP_MgmtNwkUpdateNotify, osal_memcpy
        LOCFRAME ISTACK, 0, STACK
        LOCFRAME PSTACK, 0, STACK
        LOCFRAME XSTACK, 22, STACK
        LOCFRAME IOVERLAY, 0, STATIC
        LOCFRAME DOVERLAY, 0, STATIC
        ARGFRAME ISTACK, 0, STACK
        ARGFRAME PSTACK, 0, STACK
        ARGFRAME XSTACK, 22, STACK
        ARGFRAME IOVERLAY, 0, STATIC
        ARGFRAME DOVERLAY, 0, STATIC
        FUNCALL ZDP_MgmtNwkUpdateNotify, fillAndSend
        LOCFRAME ISTACK, 0, STACK
        LOCFRAME PSTACK, 0, STACK
        LOCFRAME XSTACK, 21, STACK
        LOCFRAME IOVERLAY, 0, STATIC
        LOCFRAME DOVERLAY, 0, STATIC
        ARGFRAME ISTACK, 0, STACK
        ARGFRAME PSTACK, 0, STACK
        ARGFRAME XSTACK, 21, STACK
        ARGFRAME IOVERLAY, 0, STATIC
        ARGFRAME DOVERLAY, 0, STATIC
        FUNCALL ZDP_MgmtNwkUpdateNotify, osal_mem_free
        LOCFRAME ISTACK, 0, STACK
        LOCFRAME PSTACK, 0, STACK
        LOCFRAME XSTACK, 19, STACK
        LOCFRAME IOVERLAY, 0, STATIC
        LOCFRAME DOVERLAY, 0, STATIC
        ARGFRAME ISTACK, 0, STACK
        ARGFRAME PSTACK, 0, STACK
        ARGFRAME XSTACK, 19, STACK
        ARGFRAME IOVERLAY, 0, STATIC
        ARGFRAME DOVERLAY, 0, STATIC
        REQUIRE ?V0
        REQUIRE ?V1
        REQUIRE ?V2
        REQUIRE ?V3
        REQUIRE ?V4
        REQUIRE ?V5
        REQUIRE ?V6
        REQUIRE ?V7
        REQUIRE ?V8
        REQUIRE ?V9
        MOV       A,#-0x12
        LCALL     ?BANKED_ENTER_XDATA
          CFI DPH0 load(1, XDATA, add(CFA_XSP16, literal(-1)))
          CFI DPL0 load(1, XDATA, add(CFA_XSP16, literal(-2)))
          CFI ?BRET_EXT load(1, XDATA, add(CFA_XSP16, literal(-3)))
          CFI ?RET_HIGH load(1, XDATA, add(CFA_XSP16, literal(-4)))
          CFI ?RET_LOW load(1, XDATA, add(CFA_XSP16, literal(-5)))
          CFI R7 load(1, XDATA, add(CFA_XSP16, literal(-6)))
          CFI V9 load(1, XDATA, add(CFA_XSP16, literal(-7)))
          CFI V8 load(1, XDATA, add(CFA_XSP16, literal(-8)))
          CFI V7 load(1, XDATA, add(CFA_XSP16, literal(-9)))
          CFI V6 load(1, XDATA, add(CFA_XSP16, literal(-10)))
          CFI V5 load(1, XDATA, add(CFA_XSP16, literal(-11)))
          CFI V4 load(1, XDATA, add(CFA_XSP16, literal(-12)))
          CFI V3 load(1, XDATA, add(CFA_XSP16, literal(-13)))
          CFI V2 load(1, XDATA, add(CFA_XSP16, literal(-14)))
          CFI V1 load(1, XDATA, add(CFA_XSP16, literal(-15)))
          CFI V0 load(1, XDATA, add(CFA_XSP16, literal(-16)))
          CFI VB load(1, XDATA, add(CFA_XSP16, literal(-17)))
          CFI R6 load(1, XDATA, add(CFA_XSP16, literal(-18)))
          CFI CFA_SP SP+0
          CFI CFA_XSP16 add(XSP16, 18)
        ; Saved register size: 18
        ; Auto size: 1
        MOV       A,#-0x1
        LCALL     ?ALLOC_XSTACK8
          CFI CFA_XSP16 add(XSP16, 19)
        MOV       A,R1
        MOV       DPL,?XSP + 0
        MOV       DPH,?XSP + 1
        MOVX      @DPTR,A
        MOV       ?V8,R2
        MOV       ?V9,R3
        MOV       ?V7,R4
        MOV       ?V0,R5
// 1808   uint8 *buf;
// 1809   uint8 *pBuf;
// 1810   uint8 len;
// 1811 
// 1812   (void)securityEnable;  // Intentionally unreferenced parameter
// 1813 
// 1814   // Status + ScannedChannels + totalTransmissions + transmissionFailures + ListCount + energyValues
// 1815   len = 1 + 4 + 2 + 2 + 1 + listCount;
        MOV       A,#0xa
        ADD       A,R5
        MOV       ?V1,A
// 1816 
// 1817   buf = osal_mem_alloc( len+1 ); // +1 for transaction ID
        ; Setup parameters for call to function osal_mem_alloc
        LCALL     ?Subroutine66 & 0xFFFF
??CrossCallReturnLabel_105:
        LCALL     `??osal_mem_alloc::?relay`; Banked call to: osal_mem_alloc
        MOV       ?V2,R2
        MOV       ?V3,R3
        MOV       R6,?V2
        MOV       R7,?V3
// 1818   if ( buf == NULL )
        MOV       A,R6
        ORL       A,R7
        JNZ       ??ZDP_MgmtNwkUpdateNotify_0
// 1819   {
// 1820     return afStatus_MEM_FAIL;
        MOV       R1,#0x10
        LJMP      ??ZDP_MgmtNwkUpdateNotify_1 & 0xFFFF
// 1821   }
// 1822 
// 1823   pBuf = buf+1;
??ZDP_MgmtNwkUpdateNotify_0:
        MOV       DPL,R6
        MOV       DPH,R7
        INC       DPTR
        MOV       ?V2,DPL
        MOV       ?V3,DPH
// 1824 
// 1825   *pBuf++ = status;
        MOV       A,?V7
        LCALL     ??Subroutine97_0 & 0xFFFF
// 1826 
// 1827   pBuf = osal_buffer_uint32( pBuf, scannedChannels );
??CrossCallReturnLabel_143:
        ; Setup parameters for call to function osal_buffer_uint32
        MOV       A,#0x13
        LCALL     ?XSTACK_DISP0_8
        LCALL     ?PUSH_XSTACK8_X_FOUR
          CFI CFA_XSP16 add(XSP16, 23)
        LCALL     `??osal_buffer_uint32::?relay`; Banked call to: osal_buffer_uint32
        MOV       A,#0x4
        LCALL     ?DEALLOC_XSTACK8
          CFI CFA_XSP16 add(XSP16, 19)
        MOV       A,#0x17
        LCALL     ?XSTACK_DISP0_8
        LCALL     ?Subroutine52 & 0xFFFF
// 1828 
// 1829   *pBuf++ = LO_UINT16( totalTransmissions );
??CrossCallReturnLabel_79:
        MOVX      @DPTR,A
// 1830   *pBuf++ = HI_UINT16( totalTransmissions );
        MOV       A,R1
        INC       DPTR
        MOVX      @DPTR,A
        MOV       A,#0x19
        LCALL     ?XSTACK_DISP0_8
        LCALL     ?Subroutine52 & 0xFFFF
// 1831 
// 1832   *pBuf++ = LO_UINT16( transmissionFailures );
??CrossCallReturnLabel_80:
        INC       DPTR
        INC       DPTR
        LCALL     ?Subroutine33 & 0xFFFF
// 1833   *pBuf++ = HI_UINT16( transmissionFailures );
??CrossCallReturnLabel_43:
        LCALL     ?Subroutine16 & 0xFFFF
// 1834 
// 1835   *pBuf++ = listCount;
??CrossCallReturnLabel_13:
        MOV       A,?V0
        MOVX      @DPTR,A
// 1836 
// 1837   if ( listCount > 0 )
        JZ        ??ZDP_MgmtNwkUpdateNotify_2
// 1838     osal_memcpy( pBuf, energyValues, listCount );
        ; Setup parameters for call to function osal_memcpy
        MOV       A,#0x1b
        LCALL     ?XSTACK_DISP0_8
        LCALL     ?Subroutine47 & 0xFFFF
??CrossCallReturnLabel_69:
        LCALL     ?PUSH_XSTACK_I_THREE
          CFI CFA_XSP16 add(XSP16, 22)
        MOV       R4,?V0
        MOV       R5,#0x0
        MOV       A,R2
        ADD       A,#0x5
        MOV       R2,A
        JNC       ??ZDP_MgmtNwkUpdateNotify_3
        INC       R3
??ZDP_MgmtNwkUpdateNotify_3:
        LCALL     `??osal_memcpy::?relay`; Banked call to: osal_memcpy
        MOV       A,#0x3
        LCALL     ?DEALLOC_XSTACK8
          CFI CFA_XSP16 add(XSP16, 19)
// 1839 
// 1840   FillAndSendBufferTxOptions( &TransSeq, dstAddr, Mgmt_NWK_Update_notify, len, buf, txOptions );
??ZDP_MgmtNwkUpdateNotify_2:
        MOV       DPTR,#ZDP_TmpBuf
        MOV       A,?V2
        MOVX      @DPTR,A
        INC       DPTR
        MOV       A,?V3
        MOVX      @DPTR,A
        MOV       A,#0x1d
        LCALL     ?XSTACK_DISP0_8
        MOVX      A,@DPTR
        MOV       DPTR,#ZDP_TxOptions
        MOVX      @DPTR,A
        ; Setup parameters for call to function fillAndSend
        MOV       ?V2,#0x38
        MOV       ?V3,#-0x80
        MOV       R0,#?V2
        LCALL     ?PUSH_XSTACK_I_TWO
          CFI CFA_XSP16 add(XSP16, 21)
        MOV       R1,?V1
        MOV       R4,?V8
        MOV       R5,?V9
        MOV       A,#0x2
        LCALL     ?XSTACK_DISP101_8
        LCALL     `??fillAndSend::?relay`; Banked call to: fillAndSend
        MOV       A,#0x2
        LCALL     ?DEALLOC_XSTACK8
          CFI CFA_XSP16 add(XSP16, 19)
        MOV       A,R1
        MOV       ?V1,A
        ; Setup parameters for call to function osal_mem_free
        MOV       A,R6
        MOV       R2,A
        MOV       A,R7
        MOV       R3,A
        LCALL     `??osal_mem_free::?relay`; Banked call to: osal_mem_free
        MOV       DPTR,#ZDP_TmpBuf
        MOV       A,#(ZDP_Buf + 1) & 0xff
        MOVX      @DPTR,A
        INC       DPTR
        MOV       A,#((ZDP_Buf + 1) >> 8) & 0xff
        MOVX      @DPTR,A
        MOV       DPTR,#ZDP_TxOptions
        CLR       A
        MOVX      @DPTR,A
        MOV       R1,?V1
??ZDP_MgmtNwkUpdateNotify_1:
        LJMP      ?Subroutine5 & 0xFFFF
// 1841 }
          CFI EndBlock cfiBlock458

        RSEG BANKED_CODE:HUGECODE:NOROOT(0)
?Subroutine52:
          CFI Block cfiCond459 Using cfiCommon0
          CFI Function ZDP_MgmtNwkUpdateNotify
          CFI Conditional ??CrossCallReturnLabel_79
          CFI R6 load(1, XDATA, add(CFA_XSP16, literal(-18)))
          CFI VB load(1, XDATA, add(CFA_XSP16, literal(-17)))
          CFI V0 load(1, XDATA, add(CFA_XSP16, literal(-16)))
          CFI V1 load(1, XDATA, add(CFA_XSP16, literal(-15)))
          CFI V2 load(1, XDATA, add(CFA_XSP16, literal(-14)))
          CFI V3 load(1, XDATA, add(CFA_XSP16, literal(-13)))
          CFI V4 load(1, XDATA, add(CFA_XSP16, literal(-12)))
          CFI V5 load(1, XDATA, add(CFA_XSP16, literal(-11)))
          CFI V6 load(1, XDATA, add(CFA_XSP16, literal(-10)))
          CFI V7 load(1, XDATA, add(CFA_XSP16, literal(-9)))
          CFI V8 load(1, XDATA, add(CFA_XSP16, literal(-8)))
          CFI V9 load(1, XDATA, add(CFA_XSP16, literal(-7)))
          CFI R7 load(1, XDATA, add(CFA_XSP16, literal(-6)))
          CFI ?RET_LOW load(1, XDATA, add(CFA_XSP16, literal(-5)))
          CFI ?RET_HIGH load(1, XDATA, add(CFA_XSP16, literal(-4)))
          CFI ?BRET_EXT load(1, XDATA, add(CFA_XSP16, literal(-3)))
          CFI DPL0 load(1, XDATA, add(CFA_XSP16, literal(-2)))
          CFI DPH0 load(1, XDATA, add(CFA_XSP16, literal(-1)))
          CFI CFA_SP SP+-2
          CFI CFA_XSP16 add(XSP16, 19)
          CFI Block cfiCond460 Using cfiCommon0
          CFI (cfiCond460) Function ZDP_MgmtNwkUpdateNotify
          CFI (cfiCond460) Conditional ??CrossCallReturnLabel_80
          CFI (cfiCond460) R6 load(1, XDATA, add(CFA_XSP16, literal(-18)))
          CFI (cfiCond460) VB load(1, XDATA, add(CFA_XSP16, literal(-17)))
          CFI (cfiCond460) V0 load(1, XDATA, add(CFA_XSP16, literal(-16)))
          CFI (cfiCond460) V1 load(1, XDATA, add(CFA_XSP16, literal(-15)))
          CFI (cfiCond460) V2 load(1, XDATA, add(CFA_XSP16, literal(-14)))
          CFI (cfiCond460) V3 load(1, XDATA, add(CFA_XSP16, literal(-13)))
          CFI (cfiCond460) V4 load(1, XDATA, add(CFA_XSP16, literal(-12)))
          CFI (cfiCond460) V5 load(1, XDATA, add(CFA_XSP16, literal(-11)))
          CFI (cfiCond460) V6 load(1, XDATA, add(CFA_XSP16, literal(-10)))
          CFI (cfiCond460) V7 load(1, XDATA, add(CFA_XSP16, literal(-9)))
          CFI (cfiCond460) V8 load(1, XDATA, add(CFA_XSP16, literal(-8)))
          CFI (cfiCond460) V9 load(1, XDATA, add(CFA_XSP16, literal(-7)))
          CFI (cfiCond460) R7 load(1, XDATA, add(CFA_XSP16, literal(-6)))
          CFI (cfiCond460) ?RET_LOW load(1, XDATA, add(CFA_XSP16, literal(-5)))
          CFI (cfiCond460) ?RET_HIGH load(1, XDATA, add(CFA_XSP16, literal(-4)))
          CFI (cfiCond460) ?BRET_EXT load(1, XDATA, add(CFA_XSP16, literal(-3)))
          CFI (cfiCond460) DPL0 load(1, XDATA, add(CFA_XSP16, literal(-2)))
          CFI (cfiCond460) DPH0 load(1, XDATA, add(CFA_XSP16, literal(-1)))
          CFI (cfiCond460) CFA_SP SP+-2
          CFI (cfiCond460) CFA_XSP16 add(XSP16, 19)
          CFI Block cfiPicker461 Using cfiCommon1
          CFI (cfiPicker461) NoFunction
          CFI (cfiPicker461) Picker
        LCALL     ?Subroutine72 & 0xFFFF
??CrossCallReturnLabel_118:
        RET
          CFI EndBlock cfiCond459
          CFI EndBlock cfiCond460
          CFI EndBlock cfiPicker461

        RSEG BANKED_CODE:HUGECODE:NOROOT(0)
?Subroutine72:
          CFI Block cfiCond462 Using cfiCommon0
          CFI Function ZDP_EPRsp
          CFI Conditional ??CrossCallReturnLabel_117, ??CrossCallReturnLabel_10
          CFI R6 load(1, XDATA, add(CFA_XSP16, literal(-15)))
          CFI VB load(1, XDATA, add(CFA_XSP16, literal(-14)))
          CFI V0 load(1, XDATA, add(CFA_XSP16, literal(-13)))
          CFI V1 load(1, XDATA, add(CFA_XSP16, literal(-12)))
          CFI V2 load(1, XDATA, add(CFA_XSP16, literal(-11)))
          CFI V3 load(1, XDATA, add(CFA_XSP16, literal(-10)))
          CFI V4 load(1, XDATA, add(CFA_XSP16, literal(-9)))
          CFI V5 load(1, XDATA, add(CFA_XSP16, literal(-8)))
          CFI V6 load(1, XDATA, add(CFA_XSP16, literal(-7)))
          CFI R7 load(1, XDATA, add(CFA_XSP16, literal(-6)))
          CFI ?RET_LOW load(1, XDATA, add(CFA_XSP16, literal(-5)))
          CFI ?RET_HIGH load(1, XDATA, add(CFA_XSP16, literal(-4)))
          CFI ?BRET_EXT load(1, XDATA, add(CFA_XSP16, literal(-3)))
          CFI DPL0 load(1, XDATA, add(CFA_XSP16, literal(-2)))
          CFI DPH0 load(1, XDATA, add(CFA_XSP16, literal(-1)))
          CFI CFA_SP SP+-4
          CFI CFA_XSP16 add(XSP16, 16)
          CFI Block cfiCond463 Using cfiCommon0
          CFI (cfiCond463) Function ZDP_EndDeviceBindReq
          CFI (cfiCond463) Conditional ??CrossCallReturnLabel_117, ??CrossCallReturnLabel_11
          CFI (cfiCond463) R6 load(1, XDATA, add(CFA_XSP16, literal(-18)))
          CFI (cfiCond463) VB load(1, XDATA, add(CFA_XSP16, literal(-17)))
          CFI (cfiCond463) V0 load(1, XDATA, add(CFA_XSP16, literal(-16)))
          CFI (cfiCond463) V1 load(1, XDATA, add(CFA_XSP16, literal(-15)))
          CFI (cfiCond463) V2 load(1, XDATA, add(CFA_XSP16, literal(-14)))
          CFI (cfiCond463) V3 load(1, XDATA, add(CFA_XSP16, literal(-13)))
          CFI (cfiCond463) V4 load(1, XDATA, add(CFA_XSP16, literal(-12)))
          CFI (cfiCond463) V5 load(1, XDATA, add(CFA_XSP16, literal(-11)))
          CFI (cfiCond463) V6 load(1, XDATA, add(CFA_XSP16, literal(-10)))
          CFI (cfiCond463) V7 load(1, XDATA, add(CFA_XSP16, literal(-9)))
          CFI (cfiCond463) V8 load(1, XDATA, add(CFA_XSP16, literal(-8)))
          CFI (cfiCond463) V9 load(1, XDATA, add(CFA_XSP16, literal(-7)))
          CFI (cfiCond463) R7 load(1, XDATA, add(CFA_XSP16, literal(-6)))
          CFI (cfiCond463) ?RET_LOW load(1, XDATA, add(CFA_XSP16, literal(-5)))
          CFI (cfiCond463) ?RET_HIGH load(1, XDATA, add(CFA_XSP16, literal(-4)))
          CFI (cfiCond463) ?BRET_EXT load(1, XDATA, add(CFA_XSP16, literal(-3)))
          CFI (cfiCond463) DPL0 load(1, XDATA, add(CFA_XSP16, literal(-2)))
          CFI (cfiCond463) DPH0 load(1, XDATA, add(CFA_XSP16, literal(-1)))
          CFI (cfiCond463) CFA_SP SP+-4
          CFI (cfiCond463) CFA_XSP16 add(XSP16, 18)
          CFI Block cfiCond464 Using cfiCommon0
          CFI (cfiCond464) Function ZDP_BindUnbindReq
          CFI (cfiCond464) Conditional ??CrossCallReturnLabel_117, ??CrossCallReturnLabel_12
          CFI (cfiCond464) R6 load(1, XDATA, add(CFA_XSP16, literal(-18)))
          CFI (cfiCond464) VB load(1, XDATA, add(CFA_XSP16, literal(-17)))
          CFI (cfiCond464) V0 load(1, XDATA, add(CFA_XSP16, literal(-16)))
          CFI (cfiCond464) V1 load(1, XDATA, add(CFA_XSP16, literal(-15)))
          CFI (cfiCond464) V2 load(1, XDATA, add(CFA_XSP16, literal(-14)))
          CFI (cfiCond464) V3 load(1, XDATA, add(CFA_XSP16, literal(-13)))
          CFI (cfiCond464) V4 load(1, XDATA, add(CFA_XSP16, literal(-12)))
          CFI (cfiCond464) V5 load(1, XDATA, add(CFA_XSP16, literal(-11)))
          CFI (cfiCond464) V6 load(1, XDATA, add(CFA_XSP16, literal(-10)))
          CFI (cfiCond464) V7 load(1, XDATA, add(CFA_XSP16, literal(-9)))
          CFI (cfiCond464) V8 load(1, XDATA, add(CFA_XSP16, literal(-8)))
          CFI (cfiCond464) V9 load(1, XDATA, add(CFA_XSP16, literal(-7)))
          CFI (cfiCond464) R7 load(1, XDATA, add(CFA_XSP16, literal(-6)))
          CFI (cfiCond464) ?RET_LOW load(1, XDATA, add(CFA_XSP16, literal(-5)))
          CFI (cfiCond464) ?RET_HIGH load(1, XDATA, add(CFA_XSP16, literal(-4)))
          CFI (cfiCond464) ?BRET_EXT load(1, XDATA, add(CFA_XSP16, literal(-3)))
          CFI (cfiCond464) DPL0 load(1, XDATA, add(CFA_XSP16, literal(-2)))
          CFI (cfiCond464) DPH0 load(1, XDATA, add(CFA_XSP16, literal(-1)))
          CFI (cfiCond464) CFA_SP SP+-4
          CFI (cfiCond464) CFA_XSP16 add(XSP16, 18)
          CFI Block cfiCond465 Using cfiCommon0
          CFI (cfiCond465) Function ZDP_MgmtNwkUpdateNotify
          CFI (cfiCond465) Conditional ??CrossCallReturnLabel_118, ??CrossCallReturnLabel_79
          CFI (cfiCond465) R6 load(1, XDATA, add(CFA_XSP16, literal(-18)))
          CFI (cfiCond465) VB load(1, XDATA, add(CFA_XSP16, literal(-17)))
          CFI (cfiCond465) V0 load(1, XDATA, add(CFA_XSP16, literal(-16)))
          CFI (cfiCond465) V1 load(1, XDATA, add(CFA_XSP16, literal(-15)))
          CFI (cfiCond465) V2 load(1, XDATA, add(CFA_XSP16, literal(-14)))
          CFI (cfiCond465) V3 load(1, XDATA, add(CFA_XSP16, literal(-13)))
          CFI (cfiCond465) V4 load(1, XDATA, add(CFA_XSP16, literal(-12)))
          CFI (cfiCond465) V5 load(1, XDATA, add(CFA_XSP16, literal(-11)))
          CFI (cfiCond465) V6 load(1, XDATA, add(CFA_XSP16, literal(-10)))
          CFI (cfiCond465) V7 load(1, XDATA, add(CFA_XSP16, literal(-9)))
          CFI (cfiCond465) V8 load(1, XDATA, add(CFA_XSP16, literal(-8)))
          CFI (cfiCond465) V9 load(1, XDATA, add(CFA_XSP16, literal(-7)))
          CFI (cfiCond465) R7 load(1, XDATA, add(CFA_XSP16, literal(-6)))
          CFI (cfiCond465) ?RET_LOW load(1, XDATA, add(CFA_XSP16, literal(-5)))
          CFI (cfiCond465) ?RET_HIGH load(1, XDATA, add(CFA_XSP16, literal(-4)))
          CFI (cfiCond465) ?BRET_EXT load(1, XDATA, add(CFA_XSP16, literal(-3)))
          CFI (cfiCond465) DPL0 load(1, XDATA, add(CFA_XSP16, literal(-2)))
          CFI (cfiCond465) DPH0 load(1, XDATA, add(CFA_XSP16, literal(-1)))
          CFI (cfiCond465) CFA_SP SP+-4
          CFI (cfiCond465) CFA_XSP16 add(XSP16, 19)
          CFI Block cfiCond466 Using cfiCommon0
          CFI (cfiCond466) Function ZDP_MgmtNwkUpdateNotify
          CFI (cfiCond466) Conditional ??CrossCallReturnLabel_118, ??CrossCallReturnLabel_80
          CFI (cfiCond466) R6 load(1, XDATA, add(CFA_XSP16, literal(-18)))
          CFI (cfiCond466) VB load(1, XDATA, add(CFA_XSP16, literal(-17)))
          CFI (cfiCond466) V0 load(1, XDATA, add(CFA_XSP16, literal(-16)))
          CFI (cfiCond466) V1 load(1, XDATA, add(CFA_XSP16, literal(-15)))
          CFI (cfiCond466) V2 load(1, XDATA, add(CFA_XSP16, literal(-14)))
          CFI (cfiCond466) V3 load(1, XDATA, add(CFA_XSP16, literal(-13)))
          CFI (cfiCond466) V4 load(1, XDATA, add(CFA_XSP16, literal(-12)))
          CFI (cfiCond466) V5 load(1, XDATA, add(CFA_XSP16, literal(-11)))
          CFI (cfiCond466) V6 load(1, XDATA, add(CFA_XSP16, literal(-10)))
          CFI (cfiCond466) V7 load(1, XDATA, add(CFA_XSP16, literal(-9)))
          CFI (cfiCond466) V8 load(1, XDATA, add(CFA_XSP16, literal(-8)))
          CFI (cfiCond466) V9 load(1, XDATA, add(CFA_XSP16, literal(-7)))
          CFI (cfiCond466) R7 load(1, XDATA, add(CFA_XSP16, literal(-6)))
          CFI (cfiCond466) ?RET_LOW load(1, XDATA, add(CFA_XSP16, literal(-5)))
          CFI (cfiCond466) ?RET_HIGH load(1, XDATA, add(CFA_XSP16, literal(-4)))
          CFI (cfiCond466) ?BRET_EXT load(1, XDATA, add(CFA_XSP16, literal(-3)))
          CFI (cfiCond466) DPL0 load(1, XDATA, add(CFA_XSP16, literal(-2)))
          CFI (cfiCond466) DPH0 load(1, XDATA, add(CFA_XSP16, literal(-1)))
          CFI (cfiCond466) CFA_SP SP+-4
          CFI (cfiCond466) CFA_XSP16 add(XSP16, 19)
          CFI Block cfiPicker467 Using cfiCommon1
          CFI (cfiPicker467) NoFunction
          CFI (cfiPicker467) Picker
        MOVX      A,@DPTR
        MOV       R0,A
        INC       DPTR
        MOVX      A,@DPTR
        MOV       R1,A
        MOV       A,R0
        MOV       DPL,R2
        MOV       DPH,R3
        RET
          CFI EndBlock cfiCond462
          CFI EndBlock cfiCond463
          CFI EndBlock cfiCond464
          CFI EndBlock cfiCond465
          CFI EndBlock cfiCond466
          CFI EndBlock cfiPicker467

        RSEG BANKED_CODE:HUGECODE:NOROOT(0)
?Subroutine47:
          CFI Block cfiCond468 Using cfiCommon0
          CFI Function ZDP_EPRsp
          CFI Conditional ??CrossCallReturnLabel_68
          CFI R6 load(1, XDATA, add(CFA_XSP16, literal(-15)))
          CFI VB load(1, XDATA, add(CFA_XSP16, literal(-14)))
          CFI V0 load(1, XDATA, add(CFA_XSP16, literal(-13)))
          CFI V1 load(1, XDATA, add(CFA_XSP16, literal(-12)))
          CFI V2 load(1, XDATA, add(CFA_XSP16, literal(-11)))
          CFI V3 load(1, XDATA, add(CFA_XSP16, literal(-10)))
          CFI V4 load(1, XDATA, add(CFA_XSP16, literal(-9)))
          CFI V5 load(1, XDATA, add(CFA_XSP16, literal(-8)))
          CFI V6 load(1, XDATA, add(CFA_XSP16, literal(-7)))
          CFI R7 load(1, XDATA, add(CFA_XSP16, literal(-6)))
          CFI ?RET_LOW load(1, XDATA, add(CFA_XSP16, literal(-5)))
          CFI ?RET_HIGH load(1, XDATA, add(CFA_XSP16, literal(-4)))
          CFI ?BRET_EXT load(1, XDATA, add(CFA_XSP16, literal(-3)))
          CFI DPL0 load(1, XDATA, add(CFA_XSP16, literal(-2)))
          CFI DPH0 load(1, XDATA, add(CFA_XSP16, literal(-1)))
          CFI CFA_SP SP+-2
          CFI CFA_XSP16 add(XSP16, 16)
          CFI Block cfiCond469 Using cfiCommon0
          CFI (cfiCond469) Function ZDP_MgmtNwkUpdateNotify
          CFI (cfiCond469) Conditional ??CrossCallReturnLabel_69
          CFI (cfiCond469) R6 load(1, XDATA, add(CFA_XSP16, literal(-18)))
          CFI (cfiCond469) VB load(1, XDATA, add(CFA_XSP16, literal(-17)))
          CFI (cfiCond469) V0 load(1, XDATA, add(CFA_XSP16, literal(-16)))
          CFI (cfiCond469) V1 load(1, XDATA, add(CFA_XSP16, literal(-15)))
          CFI (cfiCond469) V2 load(1, XDATA, add(CFA_XSP16, literal(-14)))
          CFI (cfiCond469) V3 load(1, XDATA, add(CFA_XSP16, literal(-13)))
          CFI (cfiCond469) V4 load(1, XDATA, add(CFA_XSP16, literal(-12)))
          CFI (cfiCond469) V5 load(1, XDATA, add(CFA_XSP16, literal(-11)))
          CFI (cfiCond469) V6 load(1, XDATA, add(CFA_XSP16, literal(-10)))
          CFI (cfiCond469) V7 load(1, XDATA, add(CFA_XSP16, literal(-9)))
          CFI (cfiCond469) V8 load(1, XDATA, add(CFA_XSP16, literal(-8)))
          CFI (cfiCond469) V9 load(1, XDATA, add(CFA_XSP16, literal(-7)))
          CFI (cfiCond469) R7 load(1, XDATA, add(CFA_XSP16, literal(-6)))
          CFI (cfiCond469) ?RET_LOW load(1, XDATA, add(CFA_XSP16, literal(-5)))
          CFI (cfiCond469) ?RET_HIGH load(1, XDATA, add(CFA_XSP16, literal(-4)))
          CFI (cfiCond469) ?BRET_EXT load(1, XDATA, add(CFA_XSP16, literal(-3)))
          CFI (cfiCond469) DPL0 load(1, XDATA, add(CFA_XSP16, literal(-2)))
          CFI (cfiCond469) DPH0 load(1, XDATA, add(CFA_XSP16, literal(-1)))
          CFI (cfiCond469) CFA_SP SP+-2
          CFI (cfiCond469) CFA_XSP16 add(XSP16, 19)
          CFI Block cfiPicker470 Using cfiCommon1
          CFI (cfiPicker470) NoFunction
          CFI (cfiPicker470) Picker
        MOVX      A,@DPTR
        MOV       ?V4,A
        INC       DPTR
        MOVX      A,@DPTR
        MOV       ?V5,A
        MOV       ?V6,#0x0
        MOV       R0,#?V4
        RET
          CFI EndBlock cfiCond468
          CFI EndBlock cfiCond469
          CFI EndBlock cfiPicker470

        RSEG BANKED_CODE:HUGECODE:NOROOT(0)
?Subroutine33:
          CFI Block cfiCond471 Using cfiCommon0
          CFI Function ZDP_MgmtNwkUpdateReq
          CFI Conditional ??CrossCallReturnLabel_42
          CFI R6 load(1, XDATA, add(CFA_XSP16, literal(-14)))
          CFI VB load(1, XDATA, add(CFA_XSP16, literal(-13)))
          CFI V0 load(1, XDATA, add(CFA_XSP16, literal(-12)))
          CFI V1 load(1, XDATA, add(CFA_XSP16, literal(-11)))
          CFI V2 load(1, XDATA, add(CFA_XSP16, literal(-10)))
          CFI V3 load(1, XDATA, add(CFA_XSP16, literal(-9)))
          CFI V4 load(1, XDATA, add(CFA_XSP16, literal(-8)))
          CFI V5 load(1, XDATA, add(CFA_XSP16, literal(-7)))
          CFI R7 load(1, XDATA, add(CFA_XSP16, literal(-6)))
          CFI ?RET_LOW load(1, XDATA, add(CFA_XSP16, literal(-5)))
          CFI ?RET_HIGH load(1, XDATA, add(CFA_XSP16, literal(-4)))
          CFI ?BRET_EXT load(1, XDATA, add(CFA_XSP16, literal(-3)))
          CFI DPL0 load(1, XDATA, add(CFA_XSP16, literal(-2)))
          CFI DPH0 load(1, XDATA, add(CFA_XSP16, literal(-1)))
          CFI CFA_SP SP+-2
          CFI CFA_XSP16 add(XSP16, 14)
          CFI Block cfiCond472 Using cfiCommon0
          CFI (cfiCond472) Function ZDP_MgmtNwkUpdateNotify
          CFI (cfiCond472) Conditional ??CrossCallReturnLabel_43
          CFI (cfiCond472) R6 load(1, XDATA, add(CFA_XSP16, literal(-18)))
          CFI (cfiCond472) VB load(1, XDATA, add(CFA_XSP16, literal(-17)))
          CFI (cfiCond472) V0 load(1, XDATA, add(CFA_XSP16, literal(-16)))
          CFI (cfiCond472) V1 load(1, XDATA, add(CFA_XSP16, literal(-15)))
          CFI (cfiCond472) V2 load(1, XDATA, add(CFA_XSP16, literal(-14)))
          CFI (cfiCond472) V3 load(1, XDATA, add(CFA_XSP16, literal(-13)))
          CFI (cfiCond472) V4 load(1, XDATA, add(CFA_XSP16, literal(-12)))
          CFI (cfiCond472) V5 load(1, XDATA, add(CFA_XSP16, literal(-11)))
          CFI (cfiCond472) V6 load(1, XDATA, add(CFA_XSP16, literal(-10)))
          CFI (cfiCond472) V7 load(1, XDATA, add(CFA_XSP16, literal(-9)))
          CFI (cfiCond472) V8 load(1, XDATA, add(CFA_XSP16, literal(-8)))
          CFI (cfiCond472) V9 load(1, XDATA, add(CFA_XSP16, literal(-7)))
          CFI (cfiCond472) R7 load(1, XDATA, add(CFA_XSP16, literal(-6)))
          CFI (cfiCond472) ?RET_LOW load(1, XDATA, add(CFA_XSP16, literal(-5)))
          CFI (cfiCond472) ?RET_HIGH load(1, XDATA, add(CFA_XSP16, literal(-4)))
          CFI (cfiCond472) ?BRET_EXT load(1, XDATA, add(CFA_XSP16, literal(-3)))
          CFI (cfiCond472) DPL0 load(1, XDATA, add(CFA_XSP16, literal(-2)))
          CFI (cfiCond472) DPH0 load(1, XDATA, add(CFA_XSP16, literal(-1)))
          CFI (cfiCond472) CFA_SP SP+-2
          CFI (cfiCond472) CFA_XSP16 add(XSP16, 19)
          CFI Block cfiPicker473 Using cfiCommon1
          CFI (cfiPicker473) NoFunction
          CFI (cfiPicker473) Picker
        LCALL     ?Subroutine85 & 0xFFFF
??CrossCallReturnLabel_132:
        INC       DPTR
        RET
          CFI EndBlock cfiCond471
          CFI EndBlock cfiCond472
          CFI EndBlock cfiPicker473

        RSEG BANKED_CODE:HUGECODE:NOROOT(0)
?Subroutine85:
          CFI Block cfiCond474 Using cfiCommon0
          CFI Function ZDP_EPRsp
          CFI Conditional ??CrossCallReturnLabel_131, ??CrossCallReturnLabel_10
          CFI R6 load(1, XDATA, add(CFA_XSP16, literal(-15)))
          CFI VB load(1, XDATA, add(CFA_XSP16, literal(-14)))
          CFI V0 load(1, XDATA, add(CFA_XSP16, literal(-13)))
          CFI V1 load(1, XDATA, add(CFA_XSP16, literal(-12)))
          CFI V2 load(1, XDATA, add(CFA_XSP16, literal(-11)))
          CFI V3 load(1, XDATA, add(CFA_XSP16, literal(-10)))
          CFI V4 load(1, XDATA, add(CFA_XSP16, literal(-9)))
          CFI V5 load(1, XDATA, add(CFA_XSP16, literal(-8)))
          CFI V6 load(1, XDATA, add(CFA_XSP16, literal(-7)))
          CFI R7 load(1, XDATA, add(CFA_XSP16, literal(-6)))
          CFI ?RET_LOW load(1, XDATA, add(CFA_XSP16, literal(-5)))
          CFI ?RET_HIGH load(1, XDATA, add(CFA_XSP16, literal(-4)))
          CFI ?BRET_EXT load(1, XDATA, add(CFA_XSP16, literal(-3)))
          CFI DPL0 load(1, XDATA, add(CFA_XSP16, literal(-2)))
          CFI DPH0 load(1, XDATA, add(CFA_XSP16, literal(-1)))
          CFI CFA_SP SP+-4
          CFI CFA_XSP16 add(XSP16, 16)
          CFI Block cfiCond475 Using cfiCommon0
          CFI (cfiCond475) Function ZDP_EndDeviceBindReq
          CFI (cfiCond475) Conditional ??CrossCallReturnLabel_131, ??CrossCallReturnLabel_11
          CFI (cfiCond475) R6 load(1, XDATA, add(CFA_XSP16, literal(-18)))
          CFI (cfiCond475) VB load(1, XDATA, add(CFA_XSP16, literal(-17)))
          CFI (cfiCond475) V0 load(1, XDATA, add(CFA_XSP16, literal(-16)))
          CFI (cfiCond475) V1 load(1, XDATA, add(CFA_XSP16, literal(-15)))
          CFI (cfiCond475) V2 load(1, XDATA, add(CFA_XSP16, literal(-14)))
          CFI (cfiCond475) V3 load(1, XDATA, add(CFA_XSP16, literal(-13)))
          CFI (cfiCond475) V4 load(1, XDATA, add(CFA_XSP16, literal(-12)))
          CFI (cfiCond475) V5 load(1, XDATA, add(CFA_XSP16, literal(-11)))
          CFI (cfiCond475) V6 load(1, XDATA, add(CFA_XSP16, literal(-10)))
          CFI (cfiCond475) V7 load(1, XDATA, add(CFA_XSP16, literal(-9)))
          CFI (cfiCond475) V8 load(1, XDATA, add(CFA_XSP16, literal(-8)))
          CFI (cfiCond475) V9 load(1, XDATA, add(CFA_XSP16, literal(-7)))
          CFI (cfiCond475) R7 load(1, XDATA, add(CFA_XSP16, literal(-6)))
          CFI (cfiCond475) ?RET_LOW load(1, XDATA, add(CFA_XSP16, literal(-5)))
          CFI (cfiCond475) ?RET_HIGH load(1, XDATA, add(CFA_XSP16, literal(-4)))
          CFI (cfiCond475) ?BRET_EXT load(1, XDATA, add(CFA_XSP16, literal(-3)))
          CFI (cfiCond475) DPL0 load(1, XDATA, add(CFA_XSP16, literal(-2)))
          CFI (cfiCond475) DPH0 load(1, XDATA, add(CFA_XSP16, literal(-1)))
          CFI (cfiCond475) CFA_SP SP+-4
          CFI (cfiCond475) CFA_XSP16 add(XSP16, 18)
          CFI Block cfiCond476 Using cfiCommon0
          CFI (cfiCond476) Function ZDP_BindUnbindReq
          CFI (cfiCond476) Conditional ??CrossCallReturnLabel_131, ??CrossCallReturnLabel_12
          CFI (cfiCond476) R6 load(1, XDATA, add(CFA_XSP16, literal(-18)))
          CFI (cfiCond476) VB load(1, XDATA, add(CFA_XSP16, literal(-17)))
          CFI (cfiCond476) V0 load(1, XDATA, add(CFA_XSP16, literal(-16)))
          CFI (cfiCond476) V1 load(1, XDATA, add(CFA_XSP16, literal(-15)))
          CFI (cfiCond476) V2 load(1, XDATA, add(CFA_XSP16, literal(-14)))
          CFI (cfiCond476) V3 load(1, XDATA, add(CFA_XSP16, literal(-13)))
          CFI (cfiCond476) V4 load(1, XDATA, add(CFA_XSP16, literal(-12)))
          CFI (cfiCond476) V5 load(1, XDATA, add(CFA_XSP16, literal(-11)))
          CFI (cfiCond476) V6 load(1, XDATA, add(CFA_XSP16, literal(-10)))
          CFI (cfiCond476) V7 load(1, XDATA, add(CFA_XSP16, literal(-9)))
          CFI (cfiCond476) V8 load(1, XDATA, add(CFA_XSP16, literal(-8)))
          CFI (cfiCond476) V9 load(1, XDATA, add(CFA_XSP16, literal(-7)))
          CFI (cfiCond476) R7 load(1, XDATA, add(CFA_XSP16, literal(-6)))
          CFI (cfiCond476) ?RET_LOW load(1, XDATA, add(CFA_XSP16, literal(-5)))
          CFI (cfiCond476) ?RET_HIGH load(1, XDATA, add(CFA_XSP16, literal(-4)))
          CFI (cfiCond476) ?BRET_EXT load(1, XDATA, add(CFA_XSP16, literal(-3)))
          CFI (cfiCond476) DPL0 load(1, XDATA, add(CFA_XSP16, literal(-2)))
          CFI (cfiCond476) DPH0 load(1, XDATA, add(CFA_XSP16, literal(-1)))
          CFI (cfiCond476) CFA_SP SP+-4
          CFI (cfiCond476) CFA_XSP16 add(XSP16, 18)
          CFI Block cfiCond477 Using cfiCommon0
          CFI (cfiCond477) Function ZDP_MgmtNwkUpdateReq
          CFI (cfiCond477) Conditional ??CrossCallReturnLabel_132, ??CrossCallReturnLabel_42
          CFI (cfiCond477) R6 load(1, XDATA, add(CFA_XSP16, literal(-14)))
          CFI (cfiCond477) VB load(1, XDATA, add(CFA_XSP16, literal(-13)))
          CFI (cfiCond477) V0 load(1, XDATA, add(CFA_XSP16, literal(-12)))
          CFI (cfiCond477) V1 load(1, XDATA, add(CFA_XSP16, literal(-11)))
          CFI (cfiCond477) V2 load(1, XDATA, add(CFA_XSP16, literal(-10)))
          CFI (cfiCond477) V3 load(1, XDATA, add(CFA_XSP16, literal(-9)))
          CFI (cfiCond477) V4 load(1, XDATA, add(CFA_XSP16, literal(-8)))
          CFI (cfiCond477) V5 load(1, XDATA, add(CFA_XSP16, literal(-7)))
          CFI (cfiCond477) R7 load(1, XDATA, add(CFA_XSP16, literal(-6)))
          CFI (cfiCond477) ?RET_LOW load(1, XDATA, add(CFA_XSP16, literal(-5)))
          CFI (cfiCond477) ?RET_HIGH load(1, XDATA, add(CFA_XSP16, literal(-4)))
          CFI (cfiCond477) ?BRET_EXT load(1, XDATA, add(CFA_XSP16, literal(-3)))
          CFI (cfiCond477) DPL0 load(1, XDATA, add(CFA_XSP16, literal(-2)))
          CFI (cfiCond477) DPH0 load(1, XDATA, add(CFA_XSP16, literal(-1)))
          CFI (cfiCond477) CFA_SP SP+-4
          CFI (cfiCond477) CFA_XSP16 add(XSP16, 14)
          CFI Block cfiCond478 Using cfiCommon0
          CFI (cfiCond478) Function ZDP_MgmtNwkUpdateNotify
          CFI (cfiCond478) Conditional ??CrossCallReturnLabel_132, ??CrossCallReturnLabel_43
          CFI (cfiCond478) R6 load(1, XDATA, add(CFA_XSP16, literal(-18)))
          CFI (cfiCond478) VB load(1, XDATA, add(CFA_XSP16, literal(-17)))
          CFI (cfiCond478) V0 load(1, XDATA, add(CFA_XSP16, literal(-16)))
          CFI (cfiCond478) V1 load(1, XDATA, add(CFA_XSP16, literal(-15)))
          CFI (cfiCond478) V2 load(1, XDATA, add(CFA_XSP16, literal(-14)))
          CFI (cfiCond478) V3 load(1, XDATA, add(CFA_XSP16, literal(-13)))
          CFI (cfiCond478) V4 load(1, XDATA, add(CFA_XSP16, literal(-12)))
          CFI (cfiCond478) V5 load(1, XDATA, add(CFA_XSP16, literal(-11)))
          CFI (cfiCond478) V6 load(1, XDATA, add(CFA_XSP16, literal(-10)))
          CFI (cfiCond478) V7 load(1, XDATA, add(CFA_XSP16, literal(-9)))
          CFI (cfiCond478) V8 load(1, XDATA, add(CFA_XSP16, literal(-8)))
          CFI (cfiCond478) V9 load(1, XDATA, add(CFA_XSP16, literal(-7)))
          CFI (cfiCond478) R7 load(1, XDATA, add(CFA_XSP16, literal(-6)))
          CFI (cfiCond478) ?RET_LOW load(1, XDATA, add(CFA_XSP16, literal(-5)))
          CFI (cfiCond478) ?RET_HIGH load(1, XDATA, add(CFA_XSP16, literal(-4)))
          CFI (cfiCond478) ?BRET_EXT load(1, XDATA, add(CFA_XSP16, literal(-3)))
          CFI (cfiCond478) DPL0 load(1, XDATA, add(CFA_XSP16, literal(-2)))
          CFI (cfiCond478) DPH0 load(1, XDATA, add(CFA_XSP16, literal(-1)))
          CFI (cfiCond478) CFA_SP SP+-4
          CFI (cfiCond478) CFA_XSP16 add(XSP16, 19)
          CFI Block cfiPicker479 Using cfiCommon1
          CFI (cfiPicker479) NoFunction
          CFI (cfiPicker479) Picker
        MOVX      @DPTR,A
        MOV       A,R1
        MOV       DPL,R2
        MOV       DPH,R3
        INC       DPTR
        INC       DPTR
        RET
          CFI EndBlock cfiCond474
          CFI EndBlock cfiCond475
          CFI EndBlock cfiCond476
          CFI EndBlock cfiCond477
          CFI EndBlock cfiCond478
          CFI EndBlock cfiPicker479
// 1842 
// 1843 /*********************************************************************
// 1844  * Functions to register for ZDO Over-the-air messages
// 1845  */
// 1846 
// 1847 /*********************************************************************
// 1848  * @fn          ZDO_RegisterForZDOMsg
// 1849  *
// 1850  * @brief       Call this function to register of an incoming over
// 1851  *              the air ZDO message - probably a response message
// 1852  *              but requests can also be received.
// 1853  *              Messages are delivered to the task with ZDO_CB_MSG
// 1854  *              as the message ID.
// 1855  *
// 1856  * @param       taskID - Where you would like the message delivered
// 1857  * @param       clusterID - What message?
// 1858  *                          ZDO_ALL_MSGS_CLUSTERID - all responses
// 1859  *                          and device announce
// 1860  *
// 1861  * @return      ZSuccess - successful, ZMemError if not
// 1862  */

        RSEG BANKED_CODE:HUGECODE:NOROOT(0)
// 1863 ZStatus_t ZDO_RegisterForZDOMsg( uint8 taskID, uint16 clusterID )
ZDO_RegisterForZDOMsg:
          CFI Block cfiBlock480 Using cfiCommon0
          CFI Function ZDO_RegisterForZDOMsg
        CODE
// 1864 {
        FUNCALL ZDO_RegisterForZDOMsg, osal_mem_alloc
        LOCFRAME ISTACK, 0, STACK
        LOCFRAME PSTACK, 0, STACK
        LOCFRAME XSTACK, 14, STACK
        LOCFRAME IOVERLAY, 0, STATIC
        LOCFRAME DOVERLAY, 0, STATIC
        ARGFRAME ISTACK, 0, STACK
        ARGFRAME PSTACK, 0, STACK
        ARGFRAME XSTACK, 14, STACK
        ARGFRAME IOVERLAY, 0, STATIC
        ARGFRAME DOVERLAY, 0, STATIC
        REQUIRE ?V0
        REQUIRE ?V1
        REQUIRE ?V2
        REQUIRE ?V4
        REQUIRE ?V5
        MOV       A,#-0xe
        LCALL     ?BANKED_ENTER_XDATA
          CFI DPH0 load(1, XDATA, add(CFA_XSP16, literal(-1)))
          CFI DPL0 load(1, XDATA, add(CFA_XSP16, literal(-2)))
          CFI ?BRET_EXT load(1, XDATA, add(CFA_XSP16, literal(-3)))
          CFI ?RET_HIGH load(1, XDATA, add(CFA_XSP16, literal(-4)))
          CFI ?RET_LOW load(1, XDATA, add(CFA_XSP16, literal(-5)))
          CFI R7 load(1, XDATA, add(CFA_XSP16, literal(-6)))
          CFI V5 load(1, XDATA, add(CFA_XSP16, literal(-7)))
          CFI V4 load(1, XDATA, add(CFA_XSP16, literal(-8)))
          CFI V3 load(1, XDATA, add(CFA_XSP16, literal(-9)))
          CFI V2 load(1, XDATA, add(CFA_XSP16, literal(-10)))
          CFI V1 load(1, XDATA, add(CFA_XSP16, literal(-11)))
          CFI V0 load(1, XDATA, add(CFA_XSP16, literal(-12)))
          CFI VB load(1, XDATA, add(CFA_XSP16, literal(-13)))
          CFI R6 load(1, XDATA, add(CFA_XSP16, literal(-14)))
          CFI CFA_SP SP+0
          CFI CFA_XSP16 add(XSP16, 14)
        ; Saved register size: 14
        ; Auto size: 0
        MOV       ?V2,R1
        MOV       ?V0,R2
        MOV       ?V1,R3
// 1865   ZDO_MsgCB_t *pList;
// 1866   ZDO_MsgCB_t *pLast;
// 1867   ZDO_MsgCB_t *pNew;
// 1868 
// 1869   // Look for duplicate
// 1870   pList = pLast = zdoMsgCBs;
        MOV       DPTR,#zdoMsgCBs
        LCALL     ??Subroutine112_0 & 0xFFFF
??CrossCallReturnLabel_209:
        MOV       A,R6
        MOV       R0,A
        MOV       A,R7
        SJMP      ??CrossCallReturnLabel_243
// 1871   while ( pList )
// 1872   {
// 1873     if ( pList->taskID == taskID && pList->clusterID == clusterID )
??ZDO_RegisterForZDOMsg_0:
        MOV       DPL,R0
        MOV       DPH,R1
        INC       DPTR
        INC       DPTR
        MOVX      A,@DPTR
        XRL       A,?V2
        JNZ       ??ZDO_RegisterForZDOMsg_1
        MOV       DPL,R0
        MOV       DPH,R1
        INC       DPTR
        INC       DPTR
        INC       DPTR
        MOVX      A,@DPTR
        XRL       A,?V0
        JNZ       ??ZDO_RegisterForZDOMsg_2
        INC       DPTR
        MOVX      A,@DPTR
        XRL       A,?V1
??ZDO_RegisterForZDOMsg_2:
        JZ        ??CrossCallReturnLabel_35
// 1874       return ( ZSuccess );
// 1875     pLast = pList;
??ZDO_RegisterForZDOMsg_1:
        MOV       A,R0
        MOV       R6,A
        MOV       A,R1
        MOV       R7,A
// 1876     pList = (ZDO_MsgCB_t *)pList->next;
        MOV       DPL,R0
        MOV       DPH,R1
        LCALL     ??Subroutine119_0 & 0xFFFF
// 1877   }
??CrossCallReturnLabel_243:
        MOV       R1,A
        MOV       A,R0
        ORL       A,R1
        JNZ       ??ZDO_RegisterForZDOMsg_0
// 1878 
// 1879   // Add to the list
// 1880   pNew = (ZDO_MsgCB_t *)osal_mem_alloc( sizeof ( ZDO_MsgCB_t ) );
        ; Setup parameters for call to function osal_mem_alloc
        MOV       R2,#0x5
        MOV       R3,#0x0
        LCALL     `??osal_mem_alloc::?relay`; Banked call to: osal_mem_alloc
        MOV       ?V4,R2
        MOV       ?V5,R3
        MOV       R0,?V4
        MOV       R1,?V5
// 1881   if ( pNew )
        MOV       A,R0
        ORL       A,R1
        JZ        ??ZDO_RegisterForZDOMsg_3
// 1882   {
// 1883     pNew->taskID = taskID;
        MOV       DPL,R0
        MOV       DPH,R1
        INC       DPTR
        INC       DPTR
        MOV       A,?V2
        LCALL     ??Subroutine98_0 & 0xFFFF
// 1884     pNew->clusterID = clusterID;
??CrossCallReturnLabel_148:
        MOV       A,?V0
        MOVX      @DPTR,A
        INC       DPTR
        MOV       A,?V1
        LCALL     ?Subroutine88 & 0xFFFF
// 1885     pNew->next = NULL;
??CrossCallReturnLabel_226:
        CLR       A
        MOVX      @DPTR,A
        INC       DPTR
        MOVX      @DPTR,A
// 1886     if ( zdoMsgCBs )
        MOV       DPTR,#zdoMsgCBs
        LCALL     ??Subroutine108_0 & 0xFFFF
??CrossCallReturnLabel_185:
        MOV       A,R2
        ORL       A,R3
        JZ        ??ZDO_RegisterForZDOMsg_4
// 1887     {
// 1888       pLast->next = pNew;
        MOV       DPL,R6
        MOV       DPH,R7
        SJMP      ??ZDO_RegisterForZDOMsg_5
// 1889     }
// 1890     else
// 1891       zdoMsgCBs = pNew;
??ZDO_RegisterForZDOMsg_4:
        MOV       DPTR,#zdoMsgCBs
??ZDO_RegisterForZDOMsg_5:
        LCALL     ?Subroutine28 & 0xFFFF
// 1892     return ( ZSuccess );
??CrossCallReturnLabel_35:
        MOV       R1,#0x0
        SJMP      ??ZDO_RegisterForZDOMsg_6
// 1893   }
// 1894   else
// 1895     return ( ZMemError );
??ZDO_RegisterForZDOMsg_3:
        MOV       R1,#0x10
??ZDO_RegisterForZDOMsg_6:
        LJMP      ??Subroutine93_0 & 0xFFFF
// 1896 }
          CFI EndBlock cfiBlock480

        RSEG BANKED_CODE:HUGECODE:NOROOT(0)
?Subroutine28:
          CFI Block cfiCond481 Using cfiCommon0
          CFI Function fillAndSend
          CFI Conditional ??CrossCallReturnLabel_33
          CFI R6 load(1, XDATA, add(CFA_XSP16, literal(-14)))
          CFI VB load(1, XDATA, add(CFA_XSP16, literal(-13)))
          CFI V0 load(1, XDATA, add(CFA_XSP16, literal(-12)))
          CFI V1 load(1, XDATA, add(CFA_XSP16, literal(-11)))
          CFI V2 load(1, XDATA, add(CFA_XSP16, literal(-10)))
          CFI V3 load(1, XDATA, add(CFA_XSP16, literal(-9)))
          CFI V4 load(1, XDATA, add(CFA_XSP16, literal(-8)))
          CFI V5 load(1, XDATA, add(CFA_XSP16, literal(-7)))
          CFI R7 load(1, XDATA, add(CFA_XSP16, literal(-6)))
          CFI ?RET_LOW load(1, XDATA, add(CFA_XSP16, literal(-5)))
          CFI ?RET_HIGH load(1, XDATA, add(CFA_XSP16, literal(-4)))
          CFI ?BRET_EXT load(1, XDATA, add(CFA_XSP16, literal(-3)))
          CFI DPL0 load(1, XDATA, add(CFA_XSP16, literal(-2)))
          CFI DPH0 load(1, XDATA, add(CFA_XSP16, literal(-1)))
          CFI CFA_SP SP+-2
          CFI CFA_XSP16 add(XSP16, 26)
          CFI Block cfiCond482 Using cfiCommon0
          CFI (cfiCond482) Function ZDP_MgmtRtgRsp
          CFI (cfiCond482) Conditional ??CrossCallReturnLabel_34
          CFI (cfiCond482) R6 load(1, XDATA, add(CFA_XSP16, literal(-20)))
          CFI (cfiCond482) VB load(1, XDATA, add(CFA_XSP16, literal(-19)))
          CFI (cfiCond482) V0 load(1, XDATA, add(CFA_XSP16, literal(-18)))
          CFI (cfiCond482) V1 load(1, XDATA, add(CFA_XSP16, literal(-17)))
          CFI (cfiCond482) V2 load(1, XDATA, add(CFA_XSP16, literal(-16)))
          CFI (cfiCond482) V3 load(1, XDATA, add(CFA_XSP16, literal(-15)))
          CFI (cfiCond482) V4 load(1, XDATA, add(CFA_XSP16, literal(-14)))
          CFI (cfiCond482) V5 load(1, XDATA, add(CFA_XSP16, literal(-13)))
          CFI (cfiCond482) V6 load(1, XDATA, add(CFA_XSP16, literal(-12)))
          CFI (cfiCond482) V7 load(1, XDATA, add(CFA_XSP16, literal(-11)))
          CFI (cfiCond482) V8 load(1, XDATA, add(CFA_XSP16, literal(-10)))
          CFI (cfiCond482) V9 load(1, XDATA, add(CFA_XSP16, literal(-9)))
          CFI (cfiCond482) V10 load(1, XDATA, add(CFA_XSP16, literal(-8)))
          CFI (cfiCond482) V11 load(1, XDATA, add(CFA_XSP16, literal(-7)))
          CFI (cfiCond482) R7 load(1, XDATA, add(CFA_XSP16, literal(-6)))
          CFI (cfiCond482) ?RET_LOW load(1, XDATA, add(CFA_XSP16, literal(-5)))
          CFI (cfiCond482) ?RET_HIGH load(1, XDATA, add(CFA_XSP16, literal(-4)))
          CFI (cfiCond482) ?BRET_EXT load(1, XDATA, add(CFA_XSP16, literal(-3)))
          CFI (cfiCond482) DPL0 load(1, XDATA, add(CFA_XSP16, literal(-2)))
          CFI (cfiCond482) DPH0 load(1, XDATA, add(CFA_XSP16, literal(-1)))
          CFI (cfiCond482) CFA_SP SP+-2
          CFI (cfiCond482) CFA_XSP16 add(XSP16, 21)
          CFI Block cfiCond483 Using cfiCommon0
          CFI (cfiCond483) Function ZDO_RegisterForZDOMsg
          CFI (cfiCond483) Conditional ??CrossCallReturnLabel_35
          CFI (cfiCond483) R6 load(1, XDATA, add(CFA_XSP16, literal(-14)))
          CFI (cfiCond483) VB load(1, XDATA, add(CFA_XSP16, literal(-13)))
          CFI (cfiCond483) V0 load(1, XDATA, add(CFA_XSP16, literal(-12)))
          CFI (cfiCond483) V1 load(1, XDATA, add(CFA_XSP16, literal(-11)))
          CFI (cfiCond483) V2 load(1, XDATA, add(CFA_XSP16, literal(-10)))
          CFI (cfiCond483) V3 load(1, XDATA, add(CFA_XSP16, literal(-9)))
          CFI (cfiCond483) V4 load(1, XDATA, add(CFA_XSP16, literal(-8)))
          CFI (cfiCond483) V5 load(1, XDATA, add(CFA_XSP16, literal(-7)))
          CFI (cfiCond483) R7 load(1, XDATA, add(CFA_XSP16, literal(-6)))
          CFI (cfiCond483) ?RET_LOW load(1, XDATA, add(CFA_XSP16, literal(-5)))
          CFI (cfiCond483) ?RET_HIGH load(1, XDATA, add(CFA_XSP16, literal(-4)))
          CFI (cfiCond483) ?BRET_EXT load(1, XDATA, add(CFA_XSP16, literal(-3)))
          CFI (cfiCond483) DPL0 load(1, XDATA, add(CFA_XSP16, literal(-2)))
          CFI (cfiCond483) DPH0 load(1, XDATA, add(CFA_XSP16, literal(-1)))
          CFI (cfiCond483) CFA_SP SP+-2
          CFI (cfiCond483) CFA_XSP16 add(XSP16, 14)
          CFI Block cfiCond484 Using cfiCommon0
          CFI (cfiCond484) Function ZDP_IncomingData
          CFI (cfiCond484) Conditional ??CrossCallReturnLabel_36
          CFI (cfiCond484) R6 load(1, XDATA, add(CFA_XSP16, literal(-10)))
          CFI (cfiCond484) VB load(1, XDATA, add(CFA_XSP16, literal(-9)))
          CFI (cfiCond484) V0 load(1, XDATA, add(CFA_XSP16, literal(-8)))
          CFI (cfiCond484) V1 load(1, XDATA, add(CFA_XSP16, literal(-7)))
          CFI (cfiCond484) R7 load(1, XDATA, add(CFA_XSP16, literal(-6)))
          CFI (cfiCond484) ?RET_LOW load(1, XDATA, add(CFA_XSP16, literal(-5)))
          CFI (cfiCond484) ?RET_HIGH load(1, XDATA, add(CFA_XSP16, literal(-4)))
          CFI (cfiCond484) ?BRET_EXT load(1, XDATA, add(CFA_XSP16, literal(-3)))
          CFI (cfiCond484) DPL0 load(1, XDATA, add(CFA_XSP16, literal(-2)))
          CFI (cfiCond484) DPH0 load(1, XDATA, add(CFA_XSP16, literal(-1)))
          CFI (cfiCond484) CFA_SP SP+-2
          CFI (cfiCond484) CFA_XSP16 add(XSP16, 33)
          CFI Block cfiCond485 Using cfiCommon0
          CFI (cfiCond485) Function ZDP_IncomingData
          CFI (cfiCond485) Conditional ??CrossCallReturnLabel_37
          CFI (cfiCond485) R6 load(1, XDATA, add(CFA_XSP16, literal(-10)))
          CFI (cfiCond485) VB load(1, XDATA, add(CFA_XSP16, literal(-9)))
          CFI (cfiCond485) V0 load(1, XDATA, add(CFA_XSP16, literal(-8)))
          CFI (cfiCond485) V1 load(1, XDATA, add(CFA_XSP16, literal(-7)))
          CFI (cfiCond485) R7 load(1, XDATA, add(CFA_XSP16, literal(-6)))
          CFI (cfiCond485) ?RET_LOW load(1, XDATA, add(CFA_XSP16, literal(-5)))
          CFI (cfiCond485) ?RET_HIGH load(1, XDATA, add(CFA_XSP16, literal(-4)))
          CFI (cfiCond485) ?BRET_EXT load(1, XDATA, add(CFA_XSP16, literal(-3)))
          CFI (cfiCond485) DPL0 load(1, XDATA, add(CFA_XSP16, literal(-2)))
          CFI (cfiCond485) DPH0 load(1, XDATA, add(CFA_XSP16, literal(-1)))
          CFI (cfiCond485) CFA_SP SP+-2
          CFI (cfiCond485) CFA_XSP16 add(XSP16, 33)
          CFI Block cfiCond486 Using cfiCommon0
          CFI (cfiCond486) Function ZDP_IncomingData
          CFI (cfiCond486) Conditional ??CrossCallReturnLabel_38
          CFI (cfiCond486) R6 load(1, XDATA, add(CFA_XSP16, literal(-10)))
          CFI (cfiCond486) VB load(1, XDATA, add(CFA_XSP16, literal(-9)))
          CFI (cfiCond486) V0 load(1, XDATA, add(CFA_XSP16, literal(-8)))
          CFI (cfiCond486) V1 load(1, XDATA, add(CFA_XSP16, literal(-7)))
          CFI (cfiCond486) R7 load(1, XDATA, add(CFA_XSP16, literal(-6)))
          CFI (cfiCond486) ?RET_LOW load(1, XDATA, add(CFA_XSP16, literal(-5)))
          CFI (cfiCond486) ?RET_HIGH load(1, XDATA, add(CFA_XSP16, literal(-4)))
          CFI (cfiCond486) ?BRET_EXT load(1, XDATA, add(CFA_XSP16, literal(-3)))
          CFI (cfiCond486) DPL0 load(1, XDATA, add(CFA_XSP16, literal(-2)))
          CFI (cfiCond486) DPH0 load(1, XDATA, add(CFA_XSP16, literal(-1)))
          CFI (cfiCond486) CFA_SP SP+-2
          CFI (cfiCond486) CFA_XSP16 add(XSP16, 33)
          CFI Block cfiCond487 Using cfiCommon0
          CFI (cfiCond487) Function ZDP_IncomingData
          CFI (cfiCond487) Conditional ??CrossCallReturnLabel_39
          CFI (cfiCond487) R6 load(1, XDATA, add(CFA_XSP16, literal(-10)))
          CFI (cfiCond487) VB load(1, XDATA, add(CFA_XSP16, literal(-9)))
          CFI (cfiCond487) V0 load(1, XDATA, add(CFA_XSP16, literal(-8)))
          CFI (cfiCond487) V1 load(1, XDATA, add(CFA_XSP16, literal(-7)))
          CFI (cfiCond487) R7 load(1, XDATA, add(CFA_XSP16, literal(-6)))
          CFI (cfiCond487) ?RET_LOW load(1, XDATA, add(CFA_XSP16, literal(-5)))
          CFI (cfiCond487) ?RET_HIGH load(1, XDATA, add(CFA_XSP16, literal(-4)))
          CFI (cfiCond487) ?BRET_EXT load(1, XDATA, add(CFA_XSP16, literal(-3)))
          CFI (cfiCond487) DPL0 load(1, XDATA, add(CFA_XSP16, literal(-2)))
          CFI (cfiCond487) DPH0 load(1, XDATA, add(CFA_XSP16, literal(-1)))
          CFI (cfiCond487) CFA_SP SP+-2
          CFI (cfiCond487) CFA_XSP16 add(XSP16, 33)
          CFI Block cfiPicker488 Using cfiCommon1
          CFI (cfiPicker488) NoFunction
          CFI (cfiPicker488) Picker
        MOV       A,R0
        MOVX      @DPTR,A
        INC       DPTR
        MOV       A,R1
        MOVX      @DPTR,A
        RET
          CFI EndBlock cfiCond481
          CFI EndBlock cfiCond482
          CFI EndBlock cfiCond483
          CFI EndBlock cfiCond484
          CFI EndBlock cfiCond485
          CFI EndBlock cfiCond486
          CFI EndBlock cfiCond487
          CFI EndBlock cfiPicker488
// 1897 
// 1898 /*********************************************************************
// 1899  * @fn          ZDO_RemoveRegisteredCB
// 1900  *
// 1901  * @brief       Call this function if you don't want to receive the
// 1902  *              incoming message.
// 1903  *
// 1904  * @param       taskID - Where the messages are being delivered.
// 1905  * @param       clusterID - What message?
// 1906  *
// 1907  * @return      ZSuccess - successful, ZFailure if not found
// 1908  */

        RSEG BANKED_CODE:HUGECODE:NOROOT(0)
// 1909 ZStatus_t ZDO_RemoveRegisteredCB( uint8 taskID, uint16 clusterID )
ZDO_RemoveRegisteredCB:
          CFI Block cfiBlock489 Using cfiCommon0
          CFI Function ZDO_RemoveRegisteredCB
        CODE
// 1910 {
        FUNCALL ZDO_RemoveRegisteredCB, osal_mem_free
        LOCFRAME ISTACK, 0, STACK
        LOCFRAME PSTACK, 0, STACK
        LOCFRAME XSTACK, 9, STACK
        LOCFRAME IOVERLAY, 0, STATIC
        LOCFRAME DOVERLAY, 0, STATIC
        ARGFRAME ISTACK, 0, STACK
        ARGFRAME PSTACK, 0, STACK
        ARGFRAME XSTACK, 9, STACK
        ARGFRAME IOVERLAY, 0, STATIC
        ARGFRAME DOVERLAY, 0, STATIC
        MOV       A,#-0x9
        LCALL     ?BANKED_ENTER_XDATA
          CFI DPH0 load(1, XDATA, add(CFA_XSP16, literal(-1)))
          CFI DPL0 load(1, XDATA, add(CFA_XSP16, literal(-2)))
          CFI ?BRET_EXT load(1, XDATA, add(CFA_XSP16, literal(-3)))
          CFI ?RET_HIGH load(1, XDATA, add(CFA_XSP16, literal(-4)))
          CFI ?RET_LOW load(1, XDATA, add(CFA_XSP16, literal(-5)))
          CFI R7 load(1, XDATA, add(CFA_XSP16, literal(-6)))
          CFI V0 load(1, XDATA, add(CFA_XSP16, literal(-7)))
          CFI VB load(1, XDATA, add(CFA_XSP16, literal(-8)))
          CFI R6 load(1, XDATA, add(CFA_XSP16, literal(-9)))
          CFI CFA_SP SP+0
          CFI CFA_XSP16 add(XSP16, 9)
        ; Saved register size: 9
        ; Auto size: 0
        MOV       A,R1
        MOV       R6,A
// 1911   ZDO_MsgCB_t *pList;
// 1912   ZDO_MsgCB_t *pLast = NULL;
        MOV       R4,#0x0
        MOV       R5,#0x0
// 1913 
// 1914   pList = zdoMsgCBs;
        MOV       DPTR,#zdoMsgCBs
        SJMP      ??ZDO_RemoveRegisteredCB_0
// 1915   while ( pList )
// 1916   {
// 1917     if ( pList->taskID == taskID && pList->clusterID == clusterID )
// 1918     {
// 1919       if ( pLast )
// 1920       {
// 1921         // remove this one from the linked list
// 1922         pLast->next = pList->next;
// 1923       }
// 1924       else if ( pList->next )
// 1925       {
// 1926         // remove the first one from the linked list
// 1927         zdoMsgCBs = pList->next;
// 1928       }
// 1929       else
// 1930       {
// 1931         // remove the only item from the list
// 1932         zdoMsgCBs = (ZDO_MsgCB_t *)NULL;
// 1933       }
// 1934       osal_mem_free( pList );
// 1935       return ( ZSuccess );
// 1936     }
// 1937     pLast = pList;
??ZDO_RemoveRegisteredCB_1:
        MOV       A,R0
        MOV       R4,A
        MOV       A,R1
        MOV       R5,A
// 1938     pList = pList->next;
        MOV       DPL,R0
        MOV       DPH,R1
??ZDO_RemoveRegisteredCB_0:
        LCALL     ??Subroutine100_0 & 0xFFFF
??CrossCallReturnLabel_149:
        ORL       A,R1
        JZ        ??ZDO_RemoveRegisteredCB_2
        MOV       DPL,R0
        MOV       DPH,R1
        INC       DPTR
        INC       DPTR
        MOVX      A,@DPTR
        XRL       A,R6
        JNZ       ??ZDO_RemoveRegisteredCB_1
        MOV       DPL,R0
        MOV       DPH,R1
        INC       DPTR
        INC       DPTR
        INC       DPTR
        MOVX      A,@DPTR
        XRL       A,R2
        JNZ       ??ZDO_RemoveRegisteredCB_3
        INC       DPTR
        MOVX      A,@DPTR
        XRL       A,R3
??ZDO_RemoveRegisteredCB_3:
        JNZ       ??ZDO_RemoveRegisteredCB_1
        MOV       DPL,R0
        MOV       DPH,R1
        LCALL     ??Subroutine108_0 & 0xFFFF
??CrossCallReturnLabel_186:
        MOV       A,R4
        ORL       A,R5
        JZ        ??ZDO_RemoveRegisteredCB_4
        MOV       DPL,R4
        MOV       DPH,R5
        SJMP      ??ZDO_RemoveRegisteredCB_5
??ZDO_RemoveRegisteredCB_4:
        MOV       A,R2
        ORL       A,R3
        MOV       DPTR,#zdoMsgCBs
        JZ        ??ZDO_RemoveRegisteredCB_6
??ZDO_RemoveRegisteredCB_5:
        MOV       A,R2
        MOVX      @DPTR,A
        INC       DPTR
        MOV       A,R3
        SJMP      ??ZDO_RemoveRegisteredCB_7
??ZDO_RemoveRegisteredCB_6:
        CLR       A
        MOVX      @DPTR,A
        INC       DPTR
??ZDO_RemoveRegisteredCB_7:
        MOVX      @DPTR,A
        ; Setup parameters for call to function osal_mem_free
        MOV       A,R0
        MOV       R2,A
        MOV       A,R1
        MOV       R3,A
        LCALL     `??osal_mem_free::?relay`; Banked call to: osal_mem_free
        MOV       R1,#0x0
        SJMP      ??ZDO_RemoveRegisteredCB_8
// 1939   }
// 1940 
// 1941   return ( ZFailure );
??ZDO_RemoveRegisteredCB_2:
        MOV       R1,#0x1
??ZDO_RemoveRegisteredCB_8:
        LJMP      ?Subroutine6 & 0xFFFF
// 1942 }
          CFI EndBlock cfiBlock489
// 1943 
// 1944 /*********************************************************************
// 1945  * @fn          ZDO_SendMsgCBs
// 1946  *
// 1947  * @brief       This function sends messages to registered tasks.
// 1948  *              Local to ZDO and shouldn't be called outside of ZDO.
// 1949  *
// 1950  * @param       inMsg - incoming message
// 1951  *
// 1952  * @return      TRUE if sent to at least 1 task, FALSE if not
// 1953  */

        RSEG BANKED_CODE:HUGECODE:NOROOT(0)
// 1954 uint8 ZDO_SendMsgCBs( zdoIncomingMsg_t *inMsg )
ZDO_SendMsgCBs:
          CFI Block cfiBlock490 Using cfiCommon0
          CFI Function ZDO_SendMsgCBs
        CODE
// 1955 {
        FUNCALL ZDO_SendMsgCBs, osal_msg_allocate
        LOCFRAME ISTACK, 0, STACK
        LOCFRAME PSTACK, 0, STACK
        LOCFRAME XSTACK, 18, STACK
        LOCFRAME IOVERLAY, 0, STATIC
        LOCFRAME DOVERLAY, 0, STATIC
        ARGFRAME ISTACK, 0, STACK
        ARGFRAME PSTACK, 0, STACK
        ARGFRAME XSTACK, 18, STACK
        ARGFRAME IOVERLAY, 0, STATIC
        ARGFRAME DOVERLAY, 0, STATIC
        FUNCALL ZDO_SendMsgCBs, osal_memcpy
        LOCFRAME ISTACK, 0, STACK
        LOCFRAME PSTACK, 0, STACK
        LOCFRAME XSTACK, 21, STACK
        LOCFRAME IOVERLAY, 0, STATIC
        LOCFRAME DOVERLAY, 0, STATIC
        ARGFRAME ISTACK, 0, STACK
        ARGFRAME PSTACK, 0, STACK
        ARGFRAME XSTACK, 21, STACK
        ARGFRAME IOVERLAY, 0, STATIC
        ARGFRAME DOVERLAY, 0, STATIC
        FUNCALL ZDO_SendMsgCBs, osal_memcpy
        LOCFRAME ISTACK, 0, STACK
        LOCFRAME PSTACK, 0, STACK
        LOCFRAME XSTACK, 21, STACK
        LOCFRAME IOVERLAY, 0, STATIC
        LOCFRAME DOVERLAY, 0, STATIC
        ARGFRAME ISTACK, 0, STACK
        ARGFRAME PSTACK, 0, STACK
        ARGFRAME XSTACK, 21, STACK
        ARGFRAME IOVERLAY, 0, STATIC
        ARGFRAME DOVERLAY, 0, STATIC
        FUNCALL ZDO_SendMsgCBs, osal_msg_send
        LOCFRAME ISTACK, 0, STACK
        LOCFRAME PSTACK, 0, STACK
        LOCFRAME XSTACK, 18, STACK
        LOCFRAME IOVERLAY, 0, STATIC
        LOCFRAME DOVERLAY, 0, STATIC
        ARGFRAME ISTACK, 0, STACK
        ARGFRAME PSTACK, 0, STACK
        ARGFRAME XSTACK, 18, STACK
        ARGFRAME IOVERLAY, 0, STATIC
        ARGFRAME DOVERLAY, 0, STATIC
        REQUIRE ?V0
        REQUIRE ?V1
        REQUIRE ?V2
        REQUIRE ?V3
        REQUIRE ?V4
        REQUIRE ?V5
        REQUIRE ?V6
        REQUIRE ?V7
        REQUIRE ?V8
        REQUIRE ?V9
        MOV       A,#-0x12
        LCALL     ?BANKED_ENTER_XDATA
          CFI DPH0 load(1, XDATA, add(CFA_XSP16, literal(-1)))
          CFI DPL0 load(1, XDATA, add(CFA_XSP16, literal(-2)))
          CFI ?BRET_EXT load(1, XDATA, add(CFA_XSP16, literal(-3)))
          CFI ?RET_HIGH load(1, XDATA, add(CFA_XSP16, literal(-4)))
          CFI ?RET_LOW load(1, XDATA, add(CFA_XSP16, literal(-5)))
          CFI R7 load(1, XDATA, add(CFA_XSP16, literal(-6)))
          CFI V9 load(1, XDATA, add(CFA_XSP16, literal(-7)))
          CFI V8 load(1, XDATA, add(CFA_XSP16, literal(-8)))
          CFI V7 load(1, XDATA, add(CFA_XSP16, literal(-9)))
          CFI V6 load(1, XDATA, add(CFA_XSP16, literal(-10)))
          CFI V5 load(1, XDATA, add(CFA_XSP16, literal(-11)))
          CFI V4 load(1, XDATA, add(CFA_XSP16, literal(-12)))
          CFI V3 load(1, XDATA, add(CFA_XSP16, literal(-13)))
          CFI V2 load(1, XDATA, add(CFA_XSP16, literal(-14)))
          CFI V1 load(1, XDATA, add(CFA_XSP16, literal(-15)))
          CFI V0 load(1, XDATA, add(CFA_XSP16, literal(-16)))
          CFI VB load(1, XDATA, add(CFA_XSP16, literal(-17)))
          CFI R6 load(1, XDATA, add(CFA_XSP16, literal(-18)))
          CFI CFA_SP SP+0
          CFI CFA_XSP16 add(XSP16, 18)
        ; Saved register size: 18
        ; Auto size: 0
        MOV       ?V2,R2
        MOV       ?V3,R3
// 1956   uint8 ret = FALSE;
        MOV       ?V4,#0x0
// 1957   ZDO_MsgCB_t *pList = zdoMsgCBs;
        MOV       DPTR,#zdoMsgCBs
        LCALL     ??Subroutine89_0 & 0xFFFF
??CrossCallReturnLabel_138:
        MOV       A,R2
        ADD       A,#0x10
        MOV       ?V8,A
        CLR       A
        ADDC      A,?V3
        MOV       ?V9,A
        LJMP      ??CrossCallReturnLabel_139 & 0xFFFF
// 1958   while ( pList )
// 1959   {
// 1960     if ( (pList->clusterID == inMsg->clusterID)
// 1961        || ((pList->clusterID == ZDO_ALL_MSGS_CLUSTERID)
// 1962            && ((inMsg->clusterID & ZDO_RESPONSE_BIT) || (inMsg->clusterID == Device_annce))) )
??ZDO_SendMsgCBs_0:
        MOV       A,?V2
        ADD       A,#0xc
        MOV       DPL,A
        CLR       A
        ADDC      A,?V3
        MOV       DPH,A
        LCALL     ??Subroutine118_0 & 0xFFFF
??CrossCallReturnLabel_235:
        MOV       DPL,?V0
        MOV       DPH,?V1
        INC       DPTR
        INC       DPTR
        INC       DPTR
        LCALL     ??Subroutine108_0 & 0xFFFF
??CrossCallReturnLabel_187:
        MOV       A,R0
        XRL       A,R2
        JNZ       ??ZDO_SendMsgCBs_1
        MOV       A,R1
        XRL       A,R3
??ZDO_SendMsgCBs_1:
        JZ        ??ZDO_SendMsgCBs_2
        MOV       A,#-0x1
        XRL       A,R2
        JNZ       ??ZDO_SendMsgCBs_3
        MOV       A,#-0x1
        XRL       A,R3
??ZDO_SendMsgCBs_3:
        JZ        $+5
        LJMP      ??ZDO_SendMsgCBs_4 & 0xFFFF
        MOV       A,R1
        ANL       A,#0x80
        JNZ       ??ZDO_SendMsgCBs_2
        MOV       A,#0x13
        XRL       A,R0
        ORL       A,R1
        JZ        $+5
        LJMP      ??ZDO_SendMsgCBs_4 & 0xFFFF
// 1963     {
// 1964       zdoIncomingMsg_t *msgPtr;
// 1965 
// 1966       // Send the address to the task
// 1967       msgPtr = (zdoIncomingMsg_t *)osal_msg_allocate( sizeof( zdoIncomingMsg_t ) + inMsg->asduLen );
??ZDO_SendMsgCBs_2:
        ; Setup parameters for call to function osal_msg_allocate
        MOV       DPL,?V8
        MOV       DPH,?V9
        MOVX      A,@DPTR
        ADD       A,#0x17
        MOV       R2,A
        CLR       A
        ADDC      A,#0x0
        MOV       R3,A
        LCALL     `??osal_msg_allocate::?relay`; Banked call to: osal_msg_allocate
        MOV       ?V6,R2
        MOV       ?V7,R3
        MOV       R6,?V6
        MOV       R7,?V7
// 1968       if ( msgPtr )
        MOV       A,R6
        ORL       A,R7
        JZ        ??ZDO_SendMsgCBs_4
// 1969       {
// 1970         // copy struct
// 1971         osal_memcpy( msgPtr, inMsg, sizeof( zdoIncomingMsg_t ));
        ; Setup parameters for call to function osal_memcpy
        MOV       ?V4,?V2
        MOV       ?V5,?V3
        MOV       ?V6,#0x0
        MOV       R0,#?V4
        LCALL     ?PUSH_XSTACK_I_THREE
          CFI CFA_XSP16 add(XSP16, 21)
        MOV       R4,#0x17
        MOV       R5,#0x0
        LCALL     `??osal_memcpy::?relay`; Banked call to: osal_memcpy
        MOV       A,#0x3
        LCALL     ?DEALLOC_XSTACK8
          CFI CFA_XSP16 add(XSP16, 18)
// 1972 
// 1973         if ( inMsg->asduLen )
        MOV       DPL,?V8
        MOV       DPH,?V9
        MOVX      A,@DPTR
        JZ        ??ZDO_SendMsgCBs_5
// 1974         {
// 1975           msgPtr->asdu = (byte*)(((byte*)msgPtr) + sizeof( zdoIncomingMsg_t ));
        MOV       A,R6
        ADD       A,#0x17
        MOV       R2,A
        CLR       A
        ADDC      A,R7
        MOV       R3,A
        MOV       A,R6
        ADD       A,#0x13
        MOV       DPL,A
        CLR       A
        ADDC      A,R7
        MOV       DPH,A
        MOV       A,R2
        MOVX      @DPTR,A
        INC       DPTR
        MOV       A,R3
        MOVX      @DPTR,A
// 1976           osal_memcpy( msgPtr->asdu, inMsg->asdu, inMsg->asduLen );
        ; Setup parameters for call to function osal_memcpy
        MOV       A,?V2
        ADD       A,#0x13
        MOV       DPL,A
        CLR       A
        ADDC      A,?V3
        MOV       DPH,A
        MOVX      A,@DPTR
        MOV       ?V4,A
        INC       DPTR
        MOVX      A,@DPTR
        MOV       ?V5,A
        MOV       R0,#?V4
        LCALL     ?PUSH_XSTACK_I_THREE
          CFI CFA_XSP16 add(XSP16, 21)
        MOV       DPL,?V8
        MOV       DPH,?V9
        MOVX      A,@DPTR
        MOV       R4,A
        MOV       R5,#0x0
        LCALL     `??osal_memcpy::?relay`; Banked call to: osal_memcpy
        MOV       A,#0x3
        LCALL     ?DEALLOC_XSTACK8
          CFI CFA_XSP16 add(XSP16, 18)
// 1977         }
// 1978 
// 1979         msgPtr->hdr.event = ZDO_CB_MSG;
??ZDO_SendMsgCBs_5:
        MOV       DPL,R6
        MOV       DPH,R7
        MOV       A,#-0x2d
        MOVX      @DPTR,A
// 1980         osal_msg_send( pList->taskID, (uint8 *)msgPtr );
        ; Setup parameters for call to function osal_msg_send
        MOV       A,R6
        MOV       R2,A
        MOV       A,R7
        MOV       R3,A
        MOV       DPL,?V0
        MOV       DPH,?V1
        INC       DPTR
        INC       DPTR
        MOVX      A,@DPTR
        MOV       R1,A
        LCALL     `??osal_msg_send::?relay`; Banked call to: osal_msg_send
// 1981         ret = TRUE;
        MOV       ?V4,#0x1
// 1982       }
// 1983     }
// 1984     pList = (ZDO_MsgCB_t *)pList->next;
??ZDO_SendMsgCBs_4:
        MOV       DPL,?V0
        MOV       DPH,?V1
        LCALL     ??Subroutine89_0 & 0xFFFF
// 1985   }
??CrossCallReturnLabel_139:
        MOV       A,?V0
        ORL       A,?V1
        JZ        $+5
        LJMP      ??ZDO_SendMsgCBs_0 & 0xFFFF
// 1986   return ( ret );
        MOV       R1,?V4
        LJMP      ??Subroutine105_0 & 0xFFFF
// 1987 }
          CFI EndBlock cfiBlock490
// 1988 
// 1989 /*********************************************************************
// 1990  * Incoming message processor
// 1991  */
// 1992 
// 1993 /*********************************************************************
// 1994  * @fn          ZDP_IncomingData
// 1995  *
// 1996  * @brief       This function indicates the transfer of a data PDU (ASDU)
// 1997  *              from the APS sub-layer to the ZDO.
// 1998  *
// 1999  * @param       pData - Incoming Message
// 2000  *
// 2001  * @return      none
// 2002  */

        RSEG BANKED_CODE:HUGECODE:NOROOT(0)
// 2003 void ZDP_IncomingData( afIncomingMSGPacket_t *pData )
ZDP_IncomingData:
          CFI Block cfiBlock491 Using cfiCommon0
          CFI Function ZDP_IncomingData
        CODE
// 2004 {
        FUNCALL ZDP_IncomingData, ZDO_SendMsgCBs
        LOCFRAME ISTACK, 0, STACK
        LOCFRAME PSTACK, 0, STACK
        LOCFRAME XSTACK, 33, STACK
        LOCFRAME IOVERLAY, 0, STATIC
        LOCFRAME DOVERLAY, 0, STATIC
        ARGFRAME ISTACK, 0, STACK
        ARGFRAME PSTACK, 0, STACK
        ARGFRAME XSTACK, 33, STACK
        ARGFRAME IOVERLAY, 0, STATIC
        ARGFRAME DOVERLAY, 0, STATIC
        FUNCALL ZDP_IncomingData, ZDApp_InMsgCB
        LOCFRAME ISTACK, 0, STACK
        LOCFRAME PSTACK, 0, STACK
        LOCFRAME XSTACK, 33, STACK
        LOCFRAME IOVERLAY, 0, STATIC
        LOCFRAME DOVERLAY, 0, STATIC
        ARGFRAME ISTACK, 0, STACK
        ARGFRAME PSTACK, 0, STACK
        ARGFRAME XSTACK, 33, STACK
        ARGFRAME IOVERLAY, 0, STATIC
        ARGFRAME DOVERLAY, 0, STATIC
        REQUIRE ?V0
        REQUIRE ?V1
        MOV       A,#-0xa
        LCALL     ?BANKED_ENTER_XDATA
          CFI DPH0 load(1, XDATA, add(CFA_XSP16, literal(-1)))
          CFI DPL0 load(1, XDATA, add(CFA_XSP16, literal(-2)))
          CFI ?BRET_EXT load(1, XDATA, add(CFA_XSP16, literal(-3)))
          CFI ?RET_HIGH load(1, XDATA, add(CFA_XSP16, literal(-4)))
          CFI ?RET_LOW load(1, XDATA, add(CFA_XSP16, literal(-5)))
          CFI R7 load(1, XDATA, add(CFA_XSP16, literal(-6)))
          CFI V1 load(1, XDATA, add(CFA_XSP16, literal(-7)))
          CFI V0 load(1, XDATA, add(CFA_XSP16, literal(-8)))
          CFI VB load(1, XDATA, add(CFA_XSP16, literal(-9)))
          CFI R6 load(1, XDATA, add(CFA_XSP16, literal(-10)))
          CFI CFA_SP SP+0
          CFI CFA_XSP16 add(XSP16, 10)
        ; Saved register size: 10
        ; Auto size: 23
        MOV       A,#-0x17
        LCALL     ?ALLOC_XSTACK8
          CFI CFA_XSP16 add(XSP16, 33)
// 2005   uint8 x = 0;
        MOV       R6,#0x0
// 2006   uint8 handled;
// 2007   zdoIncomingMsg_t inMsg;
// 2008 
// 2009   inMsg.srcAddr.addrMode = Addr16Bit;
        MOV       A,#0xa
        LCALL     ?XSTACK_DISP0_8
        MOV       A,#0x2
        LCALL     ?Subroutine16 & 0xFFFF
// 2010   inMsg.srcAddr.addr.shortAddr = pData->srcAddr.addr.shortAddr;
??CrossCallReturnLabel_14:
        INC       DPTR
        INC       DPTR
        LCALL     ??Subroutine118_0 & 0xFFFF
??CrossCallReturnLabel_236:
        MOV       A,#0x2
        LCALL     ?XSTACK_DISP0_8
        LCALL     ?Subroutine28 & 0xFFFF
// 2011   inMsg.wasBroadcast = pData->wasBroadcast;
??CrossCallReturnLabel_36:
        MOV       A,R2
        ADD       A,#0x15
        MOV       DPL,A
        CLR       A
        ADDC      A,R3
        MOV       DPH,A
        MOVX      A,@DPTR
        PUSH      A
          CFI CFA_SP SP+-1
        MOV       A,#0xb
        LCALL     ?XSTACK_DISP0_8
        POP       A
          CFI CFA_SP SP+0
        LCALL     ?Subroutine16 & 0xFFFF
// 2012   inMsg.clusterID = pData->clusterId;
??CrossCallReturnLabel_15:
        LCALL     ??Subroutine118_0 & 0xFFFF
??CrossCallReturnLabel_237:
        MOV       A,#0xc
        LCALL     ?XSTACK_DISP0_8
        LCALL     ?Subroutine28 & 0xFFFF
// 2013   inMsg.SecurityUse = pData->SecurityUse;
??CrossCallReturnLabel_37:
        MOV       A,R2
        ADD       A,#0x19
        MOV       DPL,A
        CLR       A
        ADDC      A,R3
        MOV       DPH,A
        MOVX      A,@DPTR
        PUSH      A
          CFI CFA_SP SP+-1
        MOV       A,#0xe
        LCALL     ?XSTACK_DISP0_8
        POP       A
          CFI CFA_SP SP+0
        MOVX      @DPTR,A
// 2014 
// 2015   inMsg.asduLen = pData->cmd.DataLength-1;
        MOV       A,R2
        ADD       A,#0x20
        MOV       DPL,A
        CLR       A
        ADDC      A,R3
        MOV       DPH,A
        MOVX      A,@DPTR
        DEC       A
        PUSH      A
          CFI CFA_SP SP+-1
        MOV       A,#0x10
        LCALL     ?XSTACK_DISP0_8
        POP       A
          CFI CFA_SP SP+0
        MOVX      @DPTR,A
// 2016   inMsg.asdu = pData->cmd.Data+1;
        MOV       A,R2
        ADD       A,#0x22
        MOV       R0,A
        CLR       A
        ADDC      A,R3
        MOV       R1,A
        MOV       DPL,R0
        MOV       DPH,R1
        MOVX      A,@DPTR
        ADD       A,#0x1
        MOV       R4,A
        INC       DPTR
        MOVX      A,@DPTR
        ADDC      A,#0x0
        MOV       R5,A
        MOV       A,#0x13
        LCALL     ?XSTACK_DISP0_8
        MOV       A,R4
        MOVX      @DPTR,A
        INC       DPTR
        MOV       A,R5
        LCALL     ??Subroutine101_0 & 0xFFFF
// 2017   inMsg.TransSeq = pData->cmd.Data[0];
??CrossCallReturnLabel_158:
        LCALL     ??Subroutine103_0 & 0xFFFF
??CrossCallReturnLabel_162:
        MOVX      A,@DPTR
        PUSH      A
          CFI CFA_SP SP+-1
        MOV       A,#0xf
        LCALL     ?XSTACK_DISP0_8
        POP       A
          CFI CFA_SP SP+0
        MOVX      @DPTR,A
// 2018   inMsg.macDestAddr = pData->macDestAddr;
        MOV       A,R2
        ADD       A,#0x12
        MOV       DPL,A
        CLR       A
        ADDC      A,R3
        MOV       DPH,A
        LCALL     ??Subroutine118_0 & 0xFFFF
??CrossCallReturnLabel_238:
        MOV       A,#0x11
        LCALL     ?XSTACK_DISP0_8
        LCALL     ?Subroutine28 & 0xFFFF
// 2019   inMsg.macSrcAddr = pData->macSrcAddr;
??CrossCallReturnLabel_38:
        MOV       A,R2
        ADD       A,#0x24
        MOV       DPL,A
        CLR       A
        ADDC      A,R3
        MOV       DPH,A
        LCALL     ??Subroutine118_0 & 0xFFFF
??CrossCallReturnLabel_239:
        MOV       A,#0x15
        LCALL     ?XSTACK_DISP0_8
        LCALL     ?Subroutine28 & 0xFFFF
// 2020 
// 2021   handled = ZDO_SendMsgCBs( &inMsg );
??CrossCallReturnLabel_39:
        ; Setup parameters for call to function ZDO_SendMsgCBs
        MOV       R2,?XSP + 0
        MOV       R3,?XSP + 1
        LCALL     `??ZDO_SendMsgCBs::?relay`; Banked call to: ZDO_SendMsgCBs
        MOV       A,R1
        MOV       R4,A
        SJMP      ??ZDP_IncomingData_0
// 2022 
// 2023 #if (defined MT_ZDO_CB_FUNC)
// 2024 #if !defined MT_TASK
// 2025   if (zgZdoDirectCB)
// 2026 #endif
// 2027   {
// 2028     MT_ZdoDirectCB( pData, &inMsg );
// 2029   }
// 2030 #endif
// 2031 
// 2032   while ( zdpMsgProcs[x].clusterID != 0xFFFF )
// 2033   {
// 2034     if ( zdpMsgProcs[x].clusterID == inMsg.clusterID )
// 2035     {
// 2036       zdpMsgProcs[x].pFn( &inMsg );
// 2037       return;
// 2038     }
// 2039     x++;
??ZDP_IncomingData_1:
        INC       R6
??ZDP_IncomingData_0:
        MOV       A,R6
        MOV       ?V0,A
        MOV       ?V1,#0x0
        MOV       A,#0x2
        MOV       R0,#?V0
        LCALL     ?S_SHL
        MOV       A,#zdpMsgProcs & 0xff
        ADD       A,?V0
        MOV       R0,A
        MOV       A,#(zdpMsgProcs >> 8) & 0xff
        ADDC      A,?V1
        MOV       R1,A
        MOV       DPL,R0
        MOV       DPH,R1
        CLR       A
        MOVC      A,@A+DPTR
        PUSH      A
          CFI CFA_SP SP+-1
        MOV       A,#0x1
        MOVC      A,@A+DPTR
        MOV       DPH,A
        POP       DPL
          CFI CFA_SP SP+0
        MOV       R2,DPL
        MOV       R3,DPH
        MOV       A,#-0x1
        XRL       A,R2
        JNZ       ??ZDP_IncomingData_2
        MOV       A,#-0x1
        XRL       A,R3
??ZDP_IncomingData_2:
        JZ        ??ZDP_IncomingData_3
        MOV       A,#0xc
        LCALL     ?XSTACK_DISP0_8
        MOVX      A,@DPTR
        XRL       A,R2
        JNZ       ??ZDP_IncomingData_4
        INC       DPTR
        MOVX      A,@DPTR
        XRL       A,R3
??ZDP_IncomingData_4:
        JNZ       ??ZDP_IncomingData_1
        ; Setup parameters for indirect call
        MOV       R2,?XSP + 0
        MOV       R3,?XSP + 1
        MOV       DPL,R0
        MOV       DPH,R1
        INC       DPTR
        INC       DPTR
        CLR       A
        MOVC      A,@A+DPTR
        PUSH      A
          CFI CFA_SP SP+-1
        MOV       A,#0x1
        MOVC      A,@A+DPTR
        MOV       DPH,A
        POP       DPL
          CFI CFA_SP SP+0
        LCALL     ?CALL_IND
        SJMP      ??ZDP_IncomingData_5
// 2040   }
// 2041 
// 2042   // Handle unhandled messages
// 2043   if ( !handled )
??ZDP_IncomingData_3:
        MOV       A,R4
        JNZ       ??ZDP_IncomingData_5
// 2044     ZDApp_InMsgCB( &inMsg );
        ; Setup parameters for call to function ZDApp_InMsgCB
        MOV       R2,?XSP + 0
        MOV       R3,?XSP + 1
        LCALL     `??ZDApp_InMsgCB::?relay`; Banked call to: ZDApp_InMsgCB
// 2045 }
??ZDP_IncomingData_5:
        MOV       A,#0x17
        LJMP      ??Subroutine95_0 & 0xFFFF
          CFI EndBlock cfiBlock491

        RSEG BANKED_CODE:HUGECODE:NOROOT(0)
?Subroutine56:
          CFI Block cfiCond492 Using cfiCommon0
          CFI Function ZDP_UserDescSet
          CFI Conditional ??CrossCallReturnLabel_227
          CFI R6 load(1, XDATA, add(CFA_XSP16, literal(-15)))
          CFI VB load(1, XDATA, add(CFA_XSP16, literal(-14)))
          CFI V0 load(1, XDATA, add(CFA_XSP16, literal(-13)))
          CFI V1 load(1, XDATA, add(CFA_XSP16, literal(-12)))
          CFI V2 load(1, XDATA, add(CFA_XSP16, literal(-11)))
          CFI V3 load(1, XDATA, add(CFA_XSP16, literal(-10)))
          CFI V4 load(1, XDATA, add(CFA_XSP16, literal(-9)))
          CFI V5 load(1, XDATA, add(CFA_XSP16, literal(-8)))
          CFI V6 load(1, XDATA, add(CFA_XSP16, literal(-7)))
          CFI R7 load(1, XDATA, add(CFA_XSP16, literal(-6)))
          CFI ?RET_LOW load(1, XDATA, add(CFA_XSP16, literal(-5)))
          CFI ?RET_HIGH load(1, XDATA, add(CFA_XSP16, literal(-4)))
          CFI ?BRET_EXT load(1, XDATA, add(CFA_XSP16, literal(-3)))
          CFI DPL0 load(1, XDATA, add(CFA_XSP16, literal(-2)))
          CFI DPH0 load(1, XDATA, add(CFA_XSP16, literal(-1)))
          CFI CFA_SP SP+-2
          CFI CFA_XSP16 add(XSP16, 15)
          CFI Block cfiCond493 Using cfiCommon0
          CFI (cfiCond493) Function ZDP_UserDescRsp
          CFI (cfiCond493) Conditional ??CrossCallReturnLabel_228
          CFI (cfiCond493) R6 load(1, XDATA, add(CFA_XSP16, literal(-18)))
          CFI (cfiCond493) VB load(1, XDATA, add(CFA_XSP16, literal(-17)))
          CFI (cfiCond493) V0 load(1, XDATA, add(CFA_XSP16, literal(-16)))
          CFI (cfiCond493) V1 load(1, XDATA, add(CFA_XSP16, literal(-15)))
          CFI (cfiCond493) V2 load(1, XDATA, add(CFA_XSP16, literal(-14)))
          CFI (cfiCond493) V3 load(1, XDATA, add(CFA_XSP16, literal(-13)))
          CFI (cfiCond493) V4 load(1, XDATA, add(CFA_XSP16, literal(-12)))
          CFI (cfiCond493) V5 load(1, XDATA, add(CFA_XSP16, literal(-11)))
          CFI (cfiCond493) V6 load(1, XDATA, add(CFA_XSP16, literal(-10)))
          CFI (cfiCond493) V7 load(1, XDATA, add(CFA_XSP16, literal(-9)))
          CFI (cfiCond493) V8 load(1, XDATA, add(CFA_XSP16, literal(-8)))
          CFI (cfiCond493) V9 load(1, XDATA, add(CFA_XSP16, literal(-7)))
          CFI (cfiCond493) R7 load(1, XDATA, add(CFA_XSP16, literal(-6)))
          CFI (cfiCond493) ?RET_LOW load(1, XDATA, add(CFA_XSP16, literal(-5)))
          CFI (cfiCond493) ?RET_HIGH load(1, XDATA, add(CFA_XSP16, literal(-4)))
          CFI (cfiCond493) ?BRET_EXT load(1, XDATA, add(CFA_XSP16, literal(-3)))
          CFI (cfiCond493) DPL0 load(1, XDATA, add(CFA_XSP16, literal(-2)))
          CFI (cfiCond493) DPH0 load(1, XDATA, add(CFA_XSP16, literal(-1)))
          CFI (cfiCond493) CFA_SP SP+-2
          CFI (cfiCond493) CFA_XSP16 add(XSP16, 19)
          CFI Block cfiPicker494 Using cfiCommon1
          CFI (cfiPicker494) NoFunction
          CFI (cfiPicker494) Picker
        MOV       A,R2
        MOV       R6,A
        MOV       A,R3
          CFI EndBlock cfiCond492
          CFI EndBlock cfiCond493
          CFI EndBlock cfiPicker494
        REQUIRE ??Subroutine116_0
        ; // Fall through to label ??Subroutine116_0

        RSEG BANKED_CODE:HUGECODE:NOROOT(0)
??Subroutine116_0:
          CFI Block cfiCond495 Using cfiCommon0
          CFI Function ZDP_IEEEAddrReq
          CFI Conditional ??CrossCallReturnLabel_229
          CFI R6 load(1, XDATA, add(CFA_XSP16, literal(-10)))
          CFI VB load(1, XDATA, add(CFA_XSP16, literal(-9)))
          CFI V0 load(1, XDATA, add(CFA_XSP16, literal(-8)))
          CFI V1 load(1, XDATA, add(CFA_XSP16, literal(-7)))
          CFI R7 load(1, XDATA, add(CFA_XSP16, literal(-6)))
          CFI ?RET_LOW load(1, XDATA, add(CFA_XSP16, literal(-5)))
          CFI ?RET_HIGH load(1, XDATA, add(CFA_XSP16, literal(-4)))
          CFI ?BRET_EXT load(1, XDATA, add(CFA_XSP16, literal(-3)))
          CFI DPL0 load(1, XDATA, add(CFA_XSP16, literal(-2)))
          CFI DPH0 load(1, XDATA, add(CFA_XSP16, literal(-1)))
          CFI CFA_SP SP+-2
          CFI CFA_XSP16 add(XSP16, 19)
          CFI Block cfiCond496 Using cfiCommon0
          CFI (cfiCond496) Function ZDP_UserDescSet
          CFI (cfiCond496) Conditional ??CrossCallReturnLabel_227
          CFI (cfiCond496) R6 load(1, XDATA, add(CFA_XSP16, literal(-15)))
          CFI (cfiCond496) VB load(1, XDATA, add(CFA_XSP16, literal(-14)))
          CFI (cfiCond496) V0 load(1, XDATA, add(CFA_XSP16, literal(-13)))
          CFI (cfiCond496) V1 load(1, XDATA, add(CFA_XSP16, literal(-12)))
          CFI (cfiCond496) V2 load(1, XDATA, add(CFA_XSP16, literal(-11)))
          CFI (cfiCond496) V3 load(1, XDATA, add(CFA_XSP16, literal(-10)))
          CFI (cfiCond496) V4 load(1, XDATA, add(CFA_XSP16, literal(-9)))
          CFI (cfiCond496) V5 load(1, XDATA, add(CFA_XSP16, literal(-8)))
          CFI (cfiCond496) V6 load(1, XDATA, add(CFA_XSP16, literal(-7)))
          CFI (cfiCond496) R7 load(1, XDATA, add(CFA_XSP16, literal(-6)))
          CFI (cfiCond496) ?RET_LOW load(1, XDATA, add(CFA_XSP16, literal(-5)))
          CFI (cfiCond496) ?RET_HIGH load(1, XDATA, add(CFA_XSP16, literal(-4)))
          CFI (cfiCond496) ?BRET_EXT load(1, XDATA, add(CFA_XSP16, literal(-3)))
          CFI (cfiCond496) DPL0 load(1, XDATA, add(CFA_XSP16, literal(-2)))
          CFI (cfiCond496) DPH0 load(1, XDATA, add(CFA_XSP16, literal(-1)))
          CFI (cfiCond496) CFA_SP SP+-2
          CFI (cfiCond496) CFA_XSP16 add(XSP16, 15)
          CFI Block cfiCond497 Using cfiCommon0
          CFI (cfiCond497) Function ZDP_UserDescRsp
          CFI (cfiCond497) Conditional ??CrossCallReturnLabel_228
          CFI (cfiCond497) R6 load(1, XDATA, add(CFA_XSP16, literal(-18)))
          CFI (cfiCond497) VB load(1, XDATA, add(CFA_XSP16, literal(-17)))
          CFI (cfiCond497) V0 load(1, XDATA, add(CFA_XSP16, literal(-16)))
          CFI (cfiCond497) V1 load(1, XDATA, add(CFA_XSP16, literal(-15)))
          CFI (cfiCond497) V2 load(1, XDATA, add(CFA_XSP16, literal(-14)))
          CFI (cfiCond497) V3 load(1, XDATA, add(CFA_XSP16, literal(-13)))
          CFI (cfiCond497) V4 load(1, XDATA, add(CFA_XSP16, literal(-12)))
          CFI (cfiCond497) V5 load(1, XDATA, add(CFA_XSP16, literal(-11)))
          CFI (cfiCond497) V6 load(1, XDATA, add(CFA_XSP16, literal(-10)))
          CFI (cfiCond497) V7 load(1, XDATA, add(CFA_XSP16, literal(-9)))
          CFI (cfiCond497) V8 load(1, XDATA, add(CFA_XSP16, literal(-8)))
          CFI (cfiCond497) V9 load(1, XDATA, add(CFA_XSP16, literal(-7)))
          CFI (cfiCond497) R7 load(1, XDATA, add(CFA_XSP16, literal(-6)))
          CFI (cfiCond497) ?RET_LOW load(1, XDATA, add(CFA_XSP16, literal(-5)))
          CFI (cfiCond497) ?RET_HIGH load(1, XDATA, add(CFA_XSP16, literal(-4)))
          CFI (cfiCond497) ?BRET_EXT load(1, XDATA, add(CFA_XSP16, literal(-3)))
          CFI (cfiCond497) DPL0 load(1, XDATA, add(CFA_XSP16, literal(-2)))
          CFI (cfiCond497) DPH0 load(1, XDATA, add(CFA_XSP16, literal(-1)))
          CFI (cfiCond497) CFA_SP SP+-2
          CFI (cfiCond497) CFA_XSP16 add(XSP16, 19)
          CFI Block cfiPicker498 Using cfiCommon1
          CFI (cfiPicker498) NoFunction
          CFI (cfiPicker498) Picker
        MOV       R7,A
          CFI EndBlock cfiCond495
          CFI EndBlock cfiCond496
          CFI EndBlock cfiCond497
          CFI EndBlock cfiPicker498
        REQUIRE ??Subroutine117_0
        ; // Fall through to label ??Subroutine117_0

        RSEG BANKED_CODE:HUGECODE:NOROOT(0)
??Subroutine117_0:
          CFI Block cfiCond499 Using cfiCommon0
          CFI Function ZDP_MatchDescReq
          CFI Conditional ??CrossCallReturnLabel_240
          CFI R6 load(1, XDATA, add(CFA_XSP16, literal(-14)))
          CFI VB load(1, XDATA, add(CFA_XSP16, literal(-13)))
          CFI V0 load(1, XDATA, add(CFA_XSP16, literal(-12)))
          CFI V1 load(1, XDATA, add(CFA_XSP16, literal(-11)))
          CFI V2 load(1, XDATA, add(CFA_XSP16, literal(-10)))
          CFI V3 load(1, XDATA, add(CFA_XSP16, literal(-9)))
          CFI V4 load(1, XDATA, add(CFA_XSP16, literal(-8)))
          CFI V5 load(1, XDATA, add(CFA_XSP16, literal(-7)))
          CFI R7 load(1, XDATA, add(CFA_XSP16, literal(-6)))
          CFI ?RET_LOW load(1, XDATA, add(CFA_XSP16, literal(-5)))
          CFI ?RET_HIGH load(1, XDATA, add(CFA_XSP16, literal(-4)))
          CFI ?BRET_EXT load(1, XDATA, add(CFA_XSP16, literal(-3)))
          CFI DPL0 load(1, XDATA, add(CFA_XSP16, literal(-2)))
          CFI DPH0 load(1, XDATA, add(CFA_XSP16, literal(-1)))
          CFI CFA_SP SP+-2
          CFI CFA_XSP16 add(XSP16, 14)
          CFI Block cfiCond500 Using cfiCommon0
          CFI (cfiCond500) Function ZDP_ServerDiscReq
          CFI (cfiCond500) Conditional ??CrossCallReturnLabel_241
          CFI (cfiCond500) R6 load(1, XDATA, add(CFA_XSP16, literal(-10)))
          CFI (cfiCond500) VB load(1, XDATA, add(CFA_XSP16, literal(-9)))
          CFI (cfiCond500) V0 load(1, XDATA, add(CFA_XSP16, literal(-8)))
          CFI (cfiCond500) V1 load(1, XDATA, add(CFA_XSP16, literal(-7)))
          CFI (cfiCond500) R7 load(1, XDATA, add(CFA_XSP16, literal(-6)))
          CFI (cfiCond500) ?RET_LOW load(1, XDATA, add(CFA_XSP16, literal(-5)))
          CFI (cfiCond500) ?RET_HIGH load(1, XDATA, add(CFA_XSP16, literal(-4)))
          CFI (cfiCond500) ?BRET_EXT load(1, XDATA, add(CFA_XSP16, literal(-3)))
          CFI (cfiCond500) DPL0 load(1, XDATA, add(CFA_XSP16, literal(-2)))
          CFI (cfiCond500) DPH0 load(1, XDATA, add(CFA_XSP16, literal(-1)))
          CFI (cfiCond500) CFA_SP SP+-2
          CFI (cfiCond500) CFA_XSP16 add(XSP16, 19)
          CFI Block cfiCond501 Using cfiCommon0
          CFI (cfiCond501) Function ZDP_SimpleDescMsg
          CFI (cfiCond501) Conditional ??CrossCallReturnLabel_242
          CFI (cfiCond501) R6 load(1, XDATA, add(CFA_XSP16, literal(-20)))
          CFI (cfiCond501) VB load(1, XDATA, add(CFA_XSP16, literal(-19)))
          CFI (cfiCond501) V0 load(1, XDATA, add(CFA_XSP16, literal(-18)))
          CFI (cfiCond501) V1 load(1, XDATA, add(CFA_XSP16, literal(-17)))
          CFI (cfiCond501) V2 load(1, XDATA, add(CFA_XSP16, literal(-16)))
          CFI (cfiCond501) V3 load(1, XDATA, add(CFA_XSP16, literal(-15)))
          CFI (cfiCond501) V4 load(1, XDATA, add(CFA_XSP16, literal(-14)))
          CFI (cfiCond501) V5 load(1, XDATA, add(CFA_XSP16, literal(-13)))
          CFI (cfiCond501) V6 load(1, XDATA, add(CFA_XSP16, literal(-12)))
          CFI (cfiCond501) V7 load(1, XDATA, add(CFA_XSP16, literal(-11)))
          CFI (cfiCond501) V8 load(1, XDATA, add(CFA_XSP16, literal(-10)))
          CFI (cfiCond501) V9 load(1, XDATA, add(CFA_XSP16, literal(-9)))
          CFI (cfiCond501) V10 load(1, XDATA, add(CFA_XSP16, literal(-8)))
          CFI (cfiCond501) V11 load(1, XDATA, add(CFA_XSP16, literal(-7)))
          CFI (cfiCond501) R7 load(1, XDATA, add(CFA_XSP16, literal(-6)))
          CFI (cfiCond501) ?RET_LOW load(1, XDATA, add(CFA_XSP16, literal(-5)))
          CFI (cfiCond501) ?RET_HIGH load(1, XDATA, add(CFA_XSP16, literal(-4)))
          CFI (cfiCond501) ?BRET_EXT load(1, XDATA, add(CFA_XSP16, literal(-3)))
          CFI (cfiCond501) DPL0 load(1, XDATA, add(CFA_XSP16, literal(-2)))
          CFI (cfiCond501) DPH0 load(1, XDATA, add(CFA_XSP16, literal(-1)))
          CFI (cfiCond501) CFA_SP SP+-2
          CFI (cfiCond501) CFA_XSP16 add(XSP16, 20)
          CFI Block cfiCond502 Using cfiCommon0
          CFI (cfiCond502) Function ZDP_IEEEAddrReq
          CFI (cfiCond502) Conditional ??CrossCallReturnLabel_229
          CFI (cfiCond502) R6 load(1, XDATA, add(CFA_XSP16, literal(-10)))
          CFI (cfiCond502) VB load(1, XDATA, add(CFA_XSP16, literal(-9)))
          CFI (cfiCond502) V0 load(1, XDATA, add(CFA_XSP16, literal(-8)))
          CFI (cfiCond502) V1 load(1, XDATA, add(CFA_XSP16, literal(-7)))
          CFI (cfiCond502) R7 load(1, XDATA, add(CFA_XSP16, literal(-6)))
          CFI (cfiCond502) ?RET_LOW load(1, XDATA, add(CFA_XSP16, literal(-5)))
          CFI (cfiCond502) ?RET_HIGH load(1, XDATA, add(CFA_XSP16, literal(-4)))
          CFI (cfiCond502) ?BRET_EXT load(1, XDATA, add(CFA_XSP16, literal(-3)))
          CFI (cfiCond502) DPL0 load(1, XDATA, add(CFA_XSP16, literal(-2)))
          CFI (cfiCond502) DPH0 load(1, XDATA, add(CFA_XSP16, literal(-1)))
          CFI (cfiCond502) CFA_SP SP+-2
          CFI (cfiCond502) CFA_XSP16 add(XSP16, 19)
          CFI Block cfiCond503 Using cfiCommon0
          CFI (cfiCond503) Function ZDP_UserDescSet
          CFI (cfiCond503) Conditional ??CrossCallReturnLabel_227
          CFI (cfiCond503) R6 load(1, XDATA, add(CFA_XSP16, literal(-15)))
          CFI (cfiCond503) VB load(1, XDATA, add(CFA_XSP16, literal(-14)))
          CFI (cfiCond503) V0 load(1, XDATA, add(CFA_XSP16, literal(-13)))
          CFI (cfiCond503) V1 load(1, XDATA, add(CFA_XSP16, literal(-12)))
          CFI (cfiCond503) V2 load(1, XDATA, add(CFA_XSP16, literal(-11)))
          CFI (cfiCond503) V3 load(1, XDATA, add(CFA_XSP16, literal(-10)))
          CFI (cfiCond503) V4 load(1, XDATA, add(CFA_XSP16, literal(-9)))
          CFI (cfiCond503) V5 load(1, XDATA, add(CFA_XSP16, literal(-8)))
          CFI (cfiCond503) V6 load(1, XDATA, add(CFA_XSP16, literal(-7)))
          CFI (cfiCond503) R7 load(1, XDATA, add(CFA_XSP16, literal(-6)))
          CFI (cfiCond503) ?RET_LOW load(1, XDATA, add(CFA_XSP16, literal(-5)))
          CFI (cfiCond503) ?RET_HIGH load(1, XDATA, add(CFA_XSP16, literal(-4)))
          CFI (cfiCond503) ?BRET_EXT load(1, XDATA, add(CFA_XSP16, literal(-3)))
          CFI (cfiCond503) DPL0 load(1, XDATA, add(CFA_XSP16, literal(-2)))
          CFI (cfiCond503) DPH0 load(1, XDATA, add(CFA_XSP16, literal(-1)))
          CFI (cfiCond503) CFA_SP SP+-2
          CFI (cfiCond503) CFA_XSP16 add(XSP16, 15)
          CFI Block cfiCond504 Using cfiCommon0
          CFI (cfiCond504) Function ZDP_UserDescRsp
          CFI (cfiCond504) Conditional ??CrossCallReturnLabel_228
          CFI (cfiCond504) R6 load(1, XDATA, add(CFA_XSP16, literal(-18)))
          CFI (cfiCond504) VB load(1, XDATA, add(CFA_XSP16, literal(-17)))
          CFI (cfiCond504) V0 load(1, XDATA, add(CFA_XSP16, literal(-16)))
          CFI (cfiCond504) V1 load(1, XDATA, add(CFA_XSP16, literal(-15)))
          CFI (cfiCond504) V2 load(1, XDATA, add(CFA_XSP16, literal(-14)))
          CFI (cfiCond504) V3 load(1, XDATA, add(CFA_XSP16, literal(-13)))
          CFI (cfiCond504) V4 load(1, XDATA, add(CFA_XSP16, literal(-12)))
          CFI (cfiCond504) V5 load(1, XDATA, add(CFA_XSP16, literal(-11)))
          CFI (cfiCond504) V6 load(1, XDATA, add(CFA_XSP16, literal(-10)))
          CFI (cfiCond504) V7 load(1, XDATA, add(CFA_XSP16, literal(-9)))
          CFI (cfiCond504) V8 load(1, XDATA, add(CFA_XSP16, literal(-8)))
          CFI (cfiCond504) V9 load(1, XDATA, add(CFA_XSP16, literal(-7)))
          CFI (cfiCond504) R7 load(1, XDATA, add(CFA_XSP16, literal(-6)))
          CFI (cfiCond504) ?RET_LOW load(1, XDATA, add(CFA_XSP16, literal(-5)))
          CFI (cfiCond504) ?RET_HIGH load(1, XDATA, add(CFA_XSP16, literal(-4)))
          CFI (cfiCond504) ?BRET_EXT load(1, XDATA, add(CFA_XSP16, literal(-3)))
          CFI (cfiCond504) DPL0 load(1, XDATA, add(CFA_XSP16, literal(-2)))
          CFI (cfiCond504) DPH0 load(1, XDATA, add(CFA_XSP16, literal(-1)))
          CFI (cfiCond504) CFA_SP SP+-2
          CFI (cfiCond504) CFA_XSP16 add(XSP16, 19)
          CFI Block cfiPicker505 Using cfiCommon1
          CFI (cfiPicker505) NoFunction
          CFI (cfiPicker505) Picker
        MOV       DPTR,#ZDP_TmpBuf
          CFI EndBlock cfiCond499
          CFI EndBlock cfiCond500
          CFI EndBlock cfiCond501
          CFI EndBlock cfiCond502
          CFI EndBlock cfiCond503
          CFI EndBlock cfiCond504
          CFI EndBlock cfiPicker505
        REQUIRE ??Subroutine118_0
        ; // Fall through to label ??Subroutine118_0

        RSEG BANKED_CODE:HUGECODE:NOROOT(0)
??Subroutine118_0:
          CFI Block cfiCond506 Using cfiCommon0
          CFI Function ZDP_SendData
          CFI Conditional ??CrossCallReturnLabel_230
          CFI R6 load(1, XDATA, add(CFA_XSP16, literal(-12)))
          CFI VB load(1, XDATA, add(CFA_XSP16, literal(-11)))
          CFI V0 load(1, XDATA, add(CFA_XSP16, literal(-10)))
          CFI V1 load(1, XDATA, add(CFA_XSP16, literal(-9)))
          CFI V2 load(1, XDATA, add(CFA_XSP16, literal(-8)))
          CFI V3 load(1, XDATA, add(CFA_XSP16, literal(-7)))
          CFI R7 load(1, XDATA, add(CFA_XSP16, literal(-6)))
          CFI ?RET_LOW load(1, XDATA, add(CFA_XSP16, literal(-5)))
          CFI ?RET_HIGH load(1, XDATA, add(CFA_XSP16, literal(-4)))
          CFI ?BRET_EXT load(1, XDATA, add(CFA_XSP16, literal(-3)))
          CFI DPL0 load(1, XDATA, add(CFA_XSP16, literal(-2)))
          CFI DPH0 load(1, XDATA, add(CFA_XSP16, literal(-1)))
          CFI CFA_SP SP+-2
          CFI CFA_XSP16 add(XSP16, 12)
          CFI Block cfiCond507 Using cfiCommon0
          CFI (cfiCond507) Function ZDP_UserDescRsp
          CFI (cfiCond507) Conditional ??CrossCallReturnLabel_231
          CFI (cfiCond507) R6 load(1, XDATA, add(CFA_XSP16, literal(-18)))
          CFI (cfiCond507) VB load(1, XDATA, add(CFA_XSP16, literal(-17)))
          CFI (cfiCond507) V0 load(1, XDATA, add(CFA_XSP16, literal(-16)))
          CFI (cfiCond507) V1 load(1, XDATA, add(CFA_XSP16, literal(-15)))
          CFI (cfiCond507) V2 load(1, XDATA, add(CFA_XSP16, literal(-14)))
          CFI (cfiCond507) V3 load(1, XDATA, add(CFA_XSP16, literal(-13)))
          CFI (cfiCond507) V4 load(1, XDATA, add(CFA_XSP16, literal(-12)))
          CFI (cfiCond507) V5 load(1, XDATA, add(CFA_XSP16, literal(-11)))
          CFI (cfiCond507) V6 load(1, XDATA, add(CFA_XSP16, literal(-10)))
          CFI (cfiCond507) V7 load(1, XDATA, add(CFA_XSP16, literal(-9)))
          CFI (cfiCond507) V8 load(1, XDATA, add(CFA_XSP16, literal(-8)))
          CFI (cfiCond507) V9 load(1, XDATA, add(CFA_XSP16, literal(-7)))
          CFI (cfiCond507) R7 load(1, XDATA, add(CFA_XSP16, literal(-6)))
          CFI (cfiCond507) ?RET_LOW load(1, XDATA, add(CFA_XSP16, literal(-5)))
          CFI (cfiCond507) ?RET_HIGH load(1, XDATA, add(CFA_XSP16, literal(-4)))
          CFI (cfiCond507) ?BRET_EXT load(1, XDATA, add(CFA_XSP16, literal(-3)))
          CFI (cfiCond507) DPL0 load(1, XDATA, add(CFA_XSP16, literal(-2)))
          CFI (cfiCond507) DPH0 load(1, XDATA, add(CFA_XSP16, literal(-1)))
          CFI (cfiCond507) CFA_SP SP+-2
          CFI (cfiCond507) CFA_XSP16 add(XSP16, 19)
          CFI Block cfiCond508 Using cfiCommon0
          CFI (cfiCond508) Function ZDP_GenericRsp
          CFI (cfiCond508) Conditional ??CrossCallReturnLabel_232
          CFI (cfiCond508) R6 load(1, XDATA, add(CFA_XSP16, literal(-9)))
          CFI (cfiCond508) VB load(1, XDATA, add(CFA_XSP16, literal(-8)))
          CFI (cfiCond508) V0 load(1, XDATA, add(CFA_XSP16, literal(-7)))
          CFI (cfiCond508) R7 load(1, XDATA, add(CFA_XSP16, literal(-6)))
          CFI (cfiCond508) ?RET_LOW load(1, XDATA, add(CFA_XSP16, literal(-5)))
          CFI (cfiCond508) ?RET_HIGH load(1, XDATA, add(CFA_XSP16, literal(-4)))
          CFI (cfiCond508) ?BRET_EXT load(1, XDATA, add(CFA_XSP16, literal(-3)))
          CFI (cfiCond508) DPL0 load(1, XDATA, add(CFA_XSP16, literal(-2)))
          CFI (cfiCond508) DPH0 load(1, XDATA, add(CFA_XSP16, literal(-1)))
          CFI (cfiCond508) CFA_SP SP+-2
          CFI (cfiCond508) CFA_XSP16 add(XSP16, 10)
          CFI Block cfiCond509 Using cfiCommon0
          CFI (cfiCond509) Function ZDP_EndDeviceBindReq
          CFI (cfiCond509) Conditional ??CrossCallReturnLabel_233
          CFI (cfiCond509) R6 load(1, XDATA, add(CFA_XSP16, literal(-18)))
          CFI (cfiCond509) VB load(1, XDATA, add(CFA_XSP16, literal(-17)))
          CFI (cfiCond509) V0 load(1, XDATA, add(CFA_XSP16, literal(-16)))
          CFI (cfiCond509) V1 load(1, XDATA, add(CFA_XSP16, literal(-15)))
          CFI (cfiCond509) V2 load(1, XDATA, add(CFA_XSP16, literal(-14)))
          CFI (cfiCond509) V3 load(1, XDATA, add(CFA_XSP16, literal(-13)))
          CFI (cfiCond509) V4 load(1, XDATA, add(CFA_XSP16, literal(-12)))
          CFI (cfiCond509) V5 load(1, XDATA, add(CFA_XSP16, literal(-11)))
          CFI (cfiCond509) V6 load(1, XDATA, add(CFA_XSP16, literal(-10)))
          CFI (cfiCond509) V7 load(1, XDATA, add(CFA_XSP16, literal(-9)))
          CFI (cfiCond509) V8 load(1, XDATA, add(CFA_XSP16, literal(-8)))
          CFI (cfiCond509) V9 load(1, XDATA, add(CFA_XSP16, literal(-7)))
          CFI (cfiCond509) R7 load(1, XDATA, add(CFA_XSP16, literal(-6)))
          CFI (cfiCond509) ?RET_LOW load(1, XDATA, add(CFA_XSP16, literal(-5)))
          CFI (cfiCond509) ?RET_HIGH load(1, XDATA, add(CFA_XSP16, literal(-4)))
          CFI (cfiCond509) ?BRET_EXT load(1, XDATA, add(CFA_XSP16, literal(-3)))
          CFI (cfiCond509) DPL0 load(1, XDATA, add(CFA_XSP16, literal(-2)))
          CFI (cfiCond509) DPH0 load(1, XDATA, add(CFA_XSP16, literal(-1)))
          CFI (cfiCond509) CFA_SP SP+-2
          CFI (cfiCond509) CFA_XSP16 add(XSP16, 18)
          CFI Block cfiCond510 Using cfiCommon0
          CFI (cfiCond510) Function ZDP_MgmtPermitJoinReq
          CFI (cfiCond510) Conditional ??CrossCallReturnLabel_234
          CFI (cfiCond510) R6 load(1, XDATA, add(CFA_XSP16, literal(-12)))
          CFI (cfiCond510) VB load(1, XDATA, add(CFA_XSP16, literal(-11)))
          CFI (cfiCond510) V0 load(1, XDATA, add(CFA_XSP16, literal(-10)))
          CFI (cfiCond510) V1 load(1, XDATA, add(CFA_XSP16, literal(-9)))
          CFI (cfiCond510) V2 load(1, XDATA, add(CFA_XSP16, literal(-8)))
          CFI (cfiCond510) V3 load(1, XDATA, add(CFA_XSP16, literal(-7)))
          CFI (cfiCond510) R7 load(1, XDATA, add(CFA_XSP16, literal(-6)))
          CFI (cfiCond510) ?RET_LOW load(1, XDATA, add(CFA_XSP16, literal(-5)))
          CFI (cfiCond510) ?RET_HIGH load(1, XDATA, add(CFA_XSP16, literal(-4)))
          CFI (cfiCond510) ?BRET_EXT load(1, XDATA, add(CFA_XSP16, literal(-3)))
          CFI (cfiCond510) DPL0 load(1, XDATA, add(CFA_XSP16, literal(-2)))
          CFI (cfiCond510) DPH0 load(1, XDATA, add(CFA_XSP16, literal(-1)))
          CFI (cfiCond510) CFA_SP SP+-2
          CFI (cfiCond510) CFA_XSP16 add(XSP16, 21)
          CFI Block cfiCond511 Using cfiCommon0
          CFI (cfiCond511) Function ZDO_SendMsgCBs
          CFI (cfiCond511) Conditional ??CrossCallReturnLabel_235
          CFI (cfiCond511) R6 load(1, XDATA, add(CFA_XSP16, literal(-18)))
          CFI (cfiCond511) VB load(1, XDATA, add(CFA_XSP16, literal(-17)))
          CFI (cfiCond511) V0 load(1, XDATA, add(CFA_XSP16, literal(-16)))
          CFI (cfiCond511) V1 load(1, XDATA, add(CFA_XSP16, literal(-15)))
          CFI (cfiCond511) V2 load(1, XDATA, add(CFA_XSP16, literal(-14)))
          CFI (cfiCond511) V3 load(1, XDATA, add(CFA_XSP16, literal(-13)))
          CFI (cfiCond511) V4 load(1, XDATA, add(CFA_XSP16, literal(-12)))
          CFI (cfiCond511) V5 load(1, XDATA, add(CFA_XSP16, literal(-11)))
          CFI (cfiCond511) V6 load(1, XDATA, add(CFA_XSP16, literal(-10)))
          CFI (cfiCond511) V7 load(1, XDATA, add(CFA_XSP16, literal(-9)))
          CFI (cfiCond511) V8 load(1, XDATA, add(CFA_XSP16, literal(-8)))
          CFI (cfiCond511) V9 load(1, XDATA, add(CFA_XSP16, literal(-7)))
          CFI (cfiCond511) R7 load(1, XDATA, add(CFA_XSP16, literal(-6)))
          CFI (cfiCond511) ?RET_LOW load(1, XDATA, add(CFA_XSP16, literal(-5)))
          CFI (cfiCond511) ?RET_HIGH load(1, XDATA, add(CFA_XSP16, literal(-4)))
          CFI (cfiCond511) ?BRET_EXT load(1, XDATA, add(CFA_XSP16, literal(-3)))
          CFI (cfiCond511) DPL0 load(1, XDATA, add(CFA_XSP16, literal(-2)))
          CFI (cfiCond511) DPH0 load(1, XDATA, add(CFA_XSP16, literal(-1)))
          CFI (cfiCond511) CFA_SP SP+-2
          CFI (cfiCond511) CFA_XSP16 add(XSP16, 18)
          CFI Block cfiCond512 Using cfiCommon0
          CFI (cfiCond512) Function ZDP_IncomingData
          CFI (cfiCond512) Conditional ??CrossCallReturnLabel_236
          CFI (cfiCond512) R6 load(1, XDATA, add(CFA_XSP16, literal(-10)))
          CFI (cfiCond512) VB load(1, XDATA, add(CFA_XSP16, literal(-9)))
          CFI (cfiCond512) V0 load(1, XDATA, add(CFA_XSP16, literal(-8)))
          CFI (cfiCond512) V1 load(1, XDATA, add(CFA_XSP16, literal(-7)))
          CFI (cfiCond512) R7 load(1, XDATA, add(CFA_XSP16, literal(-6)))
          CFI (cfiCond512) ?RET_LOW load(1, XDATA, add(CFA_XSP16, literal(-5)))
          CFI (cfiCond512) ?RET_HIGH load(1, XDATA, add(CFA_XSP16, literal(-4)))
          CFI (cfiCond512) ?BRET_EXT load(1, XDATA, add(CFA_XSP16, literal(-3)))
          CFI (cfiCond512) DPL0 load(1, XDATA, add(CFA_XSP16, literal(-2)))
          CFI (cfiCond512) DPH0 load(1, XDATA, add(CFA_XSP16, literal(-1)))
          CFI (cfiCond512) CFA_SP SP+-2
          CFI (cfiCond512) CFA_XSP16 add(XSP16, 33)
          CFI Block cfiCond513 Using cfiCommon0
          CFI (cfiCond513) Function ZDP_IncomingData
          CFI (cfiCond513) Conditional ??CrossCallReturnLabel_237
          CFI (cfiCond513) R6 load(1, XDATA, add(CFA_XSP16, literal(-10)))
          CFI (cfiCond513) VB load(1, XDATA, add(CFA_XSP16, literal(-9)))
          CFI (cfiCond513) V0 load(1, XDATA, add(CFA_XSP16, literal(-8)))
          CFI (cfiCond513) V1 load(1, XDATA, add(CFA_XSP16, literal(-7)))
          CFI (cfiCond513) R7 load(1, XDATA, add(CFA_XSP16, literal(-6)))
          CFI (cfiCond513) ?RET_LOW load(1, XDATA, add(CFA_XSP16, literal(-5)))
          CFI (cfiCond513) ?RET_HIGH load(1, XDATA, add(CFA_XSP16, literal(-4)))
          CFI (cfiCond513) ?BRET_EXT load(1, XDATA, add(CFA_XSP16, literal(-3)))
          CFI (cfiCond513) DPL0 load(1, XDATA, add(CFA_XSP16, literal(-2)))
          CFI (cfiCond513) DPH0 load(1, XDATA, add(CFA_XSP16, literal(-1)))
          CFI (cfiCond513) CFA_SP SP+-2
          CFI (cfiCond513) CFA_XSP16 add(XSP16, 33)
          CFI Block cfiCond514 Using cfiCommon0
          CFI (cfiCond514) Function ZDP_IncomingData
          CFI (cfiCond514) Conditional ??CrossCallReturnLabel_238
          CFI (cfiCond514) R6 load(1, XDATA, add(CFA_XSP16, literal(-10)))
          CFI (cfiCond514) VB load(1, XDATA, add(CFA_XSP16, literal(-9)))
          CFI (cfiCond514) V0 load(1, XDATA, add(CFA_XSP16, literal(-8)))
          CFI (cfiCond514) V1 load(1, XDATA, add(CFA_XSP16, literal(-7)))
          CFI (cfiCond514) R7 load(1, XDATA, add(CFA_XSP16, literal(-6)))
          CFI (cfiCond514) ?RET_LOW load(1, XDATA, add(CFA_XSP16, literal(-5)))
          CFI (cfiCond514) ?RET_HIGH load(1, XDATA, add(CFA_XSP16, literal(-4)))
          CFI (cfiCond514) ?BRET_EXT load(1, XDATA, add(CFA_XSP16, literal(-3)))
          CFI (cfiCond514) DPL0 load(1, XDATA, add(CFA_XSP16, literal(-2)))
          CFI (cfiCond514) DPH0 load(1, XDATA, add(CFA_XSP16, literal(-1)))
          CFI (cfiCond514) CFA_SP SP+-2
          CFI (cfiCond514) CFA_XSP16 add(XSP16, 33)
          CFI Block cfiCond515 Using cfiCommon0
          CFI (cfiCond515) Function ZDP_IncomingData
          CFI (cfiCond515) Conditional ??CrossCallReturnLabel_239
          CFI (cfiCond515) R6 load(1, XDATA, add(CFA_XSP16, literal(-10)))
          CFI (cfiCond515) VB load(1, XDATA, add(CFA_XSP16, literal(-9)))
          CFI (cfiCond515) V0 load(1, XDATA, add(CFA_XSP16, literal(-8)))
          CFI (cfiCond515) V1 load(1, XDATA, add(CFA_XSP16, literal(-7)))
          CFI (cfiCond515) R7 load(1, XDATA, add(CFA_XSP16, literal(-6)))
          CFI (cfiCond515) ?RET_LOW load(1, XDATA, add(CFA_XSP16, literal(-5)))
          CFI (cfiCond515) ?RET_HIGH load(1, XDATA, add(CFA_XSP16, literal(-4)))
          CFI (cfiCond515) ?BRET_EXT load(1, XDATA, add(CFA_XSP16, literal(-3)))
          CFI (cfiCond515) DPL0 load(1, XDATA, add(CFA_XSP16, literal(-2)))
          CFI (cfiCond515) DPH0 load(1, XDATA, add(CFA_XSP16, literal(-1)))
          CFI (cfiCond515) CFA_SP SP+-2
          CFI (cfiCond515) CFA_XSP16 add(XSP16, 33)
          CFI Block cfiCond516 Using cfiCommon0
          CFI (cfiCond516) Function ZDP_MatchDescReq
          CFI (cfiCond516) Conditional ??CrossCallReturnLabel_240
          CFI (cfiCond516) R6 load(1, XDATA, add(CFA_XSP16, literal(-14)))
          CFI (cfiCond516) VB load(1, XDATA, add(CFA_XSP16, literal(-13)))
          CFI (cfiCond516) V0 load(1, XDATA, add(CFA_XSP16, literal(-12)))
          CFI (cfiCond516) V1 load(1, XDATA, add(CFA_XSP16, literal(-11)))
          CFI (cfiCond516) V2 load(1, XDATA, add(CFA_XSP16, literal(-10)))
          CFI (cfiCond516) V3 load(1, XDATA, add(CFA_XSP16, literal(-9)))
          CFI (cfiCond516) V4 load(1, XDATA, add(CFA_XSP16, literal(-8)))
          CFI (cfiCond516) V5 load(1, XDATA, add(CFA_XSP16, literal(-7)))
          CFI (cfiCond516) R7 load(1, XDATA, add(CFA_XSP16, literal(-6)))
          CFI (cfiCond516) ?RET_LOW load(1, XDATA, add(CFA_XSP16, literal(-5)))
          CFI (cfiCond516) ?RET_HIGH load(1, XDATA, add(CFA_XSP16, literal(-4)))
          CFI (cfiCond516) ?BRET_EXT load(1, XDATA, add(CFA_XSP16, literal(-3)))
          CFI (cfiCond516) DPL0 load(1, XDATA, add(CFA_XSP16, literal(-2)))
          CFI (cfiCond516) DPH0 load(1, XDATA, add(CFA_XSP16, literal(-1)))
          CFI (cfiCond516) CFA_SP SP+-2
          CFI (cfiCond516) CFA_XSP16 add(XSP16, 14)
          CFI Block cfiCond517 Using cfiCommon0
          CFI (cfiCond517) Function ZDP_ServerDiscReq
          CFI (cfiCond517) Conditional ??CrossCallReturnLabel_241
          CFI (cfiCond517) R6 load(1, XDATA, add(CFA_XSP16, literal(-10)))
          CFI (cfiCond517) VB load(1, XDATA, add(CFA_XSP16, literal(-9)))
          CFI (cfiCond517) V0 load(1, XDATA, add(CFA_XSP16, literal(-8)))
          CFI (cfiCond517) V1 load(1, XDATA, add(CFA_XSP16, literal(-7)))
          CFI (cfiCond517) R7 load(1, XDATA, add(CFA_XSP16, literal(-6)))
          CFI (cfiCond517) ?RET_LOW load(1, XDATA, add(CFA_XSP16, literal(-5)))
          CFI (cfiCond517) ?RET_HIGH load(1, XDATA, add(CFA_XSP16, literal(-4)))
          CFI (cfiCond517) ?BRET_EXT load(1, XDATA, add(CFA_XSP16, literal(-3)))
          CFI (cfiCond517) DPL0 load(1, XDATA, add(CFA_XSP16, literal(-2)))
          CFI (cfiCond517) DPH0 load(1, XDATA, add(CFA_XSP16, literal(-1)))
          CFI (cfiCond517) CFA_SP SP+-2
          CFI (cfiCond517) CFA_XSP16 add(XSP16, 19)
          CFI Block cfiCond518 Using cfiCommon0
          CFI (cfiCond518) Function ZDP_SimpleDescMsg
          CFI (cfiCond518) Conditional ??CrossCallReturnLabel_242
          CFI (cfiCond518) R6 load(1, XDATA, add(CFA_XSP16, literal(-20)))
          CFI (cfiCond518) VB load(1, XDATA, add(CFA_XSP16, literal(-19)))
          CFI (cfiCond518) V0 load(1, XDATA, add(CFA_XSP16, literal(-18)))
          CFI (cfiCond518) V1 load(1, XDATA, add(CFA_XSP16, literal(-17)))
          CFI (cfiCond518) V2 load(1, XDATA, add(CFA_XSP16, literal(-16)))
          CFI (cfiCond518) V3 load(1, XDATA, add(CFA_XSP16, literal(-15)))
          CFI (cfiCond518) V4 load(1, XDATA, add(CFA_XSP16, literal(-14)))
          CFI (cfiCond518) V5 load(1, XDATA, add(CFA_XSP16, literal(-13)))
          CFI (cfiCond518) V6 load(1, XDATA, add(CFA_XSP16, literal(-12)))
          CFI (cfiCond518) V7 load(1, XDATA, add(CFA_XSP16, literal(-11)))
          CFI (cfiCond518) V8 load(1, XDATA, add(CFA_XSP16, literal(-10)))
          CFI (cfiCond518) V9 load(1, XDATA, add(CFA_XSP16, literal(-9)))
          CFI (cfiCond518) V10 load(1, XDATA, add(CFA_XSP16, literal(-8)))
          CFI (cfiCond518) V11 load(1, XDATA, add(CFA_XSP16, literal(-7)))
          CFI (cfiCond518) R7 load(1, XDATA, add(CFA_XSP16, literal(-6)))
          CFI (cfiCond518) ?RET_LOW load(1, XDATA, add(CFA_XSP16, literal(-5)))
          CFI (cfiCond518) ?RET_HIGH load(1, XDATA, add(CFA_XSP16, literal(-4)))
          CFI (cfiCond518) ?BRET_EXT load(1, XDATA, add(CFA_XSP16, literal(-3)))
          CFI (cfiCond518) DPL0 load(1, XDATA, add(CFA_XSP16, literal(-2)))
          CFI (cfiCond518) DPH0 load(1, XDATA, add(CFA_XSP16, literal(-1)))
          CFI (cfiCond518) CFA_SP SP+-2
          CFI (cfiCond518) CFA_XSP16 add(XSP16, 20)
          CFI Block cfiCond519 Using cfiCommon0
          CFI (cfiCond519) Function ZDP_IEEEAddrReq
          CFI (cfiCond519) Conditional ??CrossCallReturnLabel_229
          CFI (cfiCond519) R6 load(1, XDATA, add(CFA_XSP16, literal(-10)))
          CFI (cfiCond519) VB load(1, XDATA, add(CFA_XSP16, literal(-9)))
          CFI (cfiCond519) V0 load(1, XDATA, add(CFA_XSP16, literal(-8)))
          CFI (cfiCond519) V1 load(1, XDATA, add(CFA_XSP16, literal(-7)))
          CFI (cfiCond519) R7 load(1, XDATA, add(CFA_XSP16, literal(-6)))
          CFI (cfiCond519) ?RET_LOW load(1, XDATA, add(CFA_XSP16, literal(-5)))
          CFI (cfiCond519) ?RET_HIGH load(1, XDATA, add(CFA_XSP16, literal(-4)))
          CFI (cfiCond519) ?BRET_EXT load(1, XDATA, add(CFA_XSP16, literal(-3)))
          CFI (cfiCond519) DPL0 load(1, XDATA, add(CFA_XSP16, literal(-2)))
          CFI (cfiCond519) DPH0 load(1, XDATA, add(CFA_XSP16, literal(-1)))
          CFI (cfiCond519) CFA_SP SP+-2
          CFI (cfiCond519) CFA_XSP16 add(XSP16, 19)
          CFI Block cfiCond520 Using cfiCommon0
          CFI (cfiCond520) Function ZDP_UserDescSet
          CFI (cfiCond520) Conditional ??CrossCallReturnLabel_227
          CFI (cfiCond520) R6 load(1, XDATA, add(CFA_XSP16, literal(-15)))
          CFI (cfiCond520) VB load(1, XDATA, add(CFA_XSP16, literal(-14)))
          CFI (cfiCond520) V0 load(1, XDATA, add(CFA_XSP16, literal(-13)))
          CFI (cfiCond520) V1 load(1, XDATA, add(CFA_XSP16, literal(-12)))
          CFI (cfiCond520) V2 load(1, XDATA, add(CFA_XSP16, literal(-11)))
          CFI (cfiCond520) V3 load(1, XDATA, add(CFA_XSP16, literal(-10)))
          CFI (cfiCond520) V4 load(1, XDATA, add(CFA_XSP16, literal(-9)))
          CFI (cfiCond520) V5 load(1, XDATA, add(CFA_XSP16, literal(-8)))
          CFI (cfiCond520) V6 load(1, XDATA, add(CFA_XSP16, literal(-7)))
          CFI (cfiCond520) R7 load(1, XDATA, add(CFA_XSP16, literal(-6)))
          CFI (cfiCond520) ?RET_LOW load(1, XDATA, add(CFA_XSP16, literal(-5)))
          CFI (cfiCond520) ?RET_HIGH load(1, XDATA, add(CFA_XSP16, literal(-4)))
          CFI (cfiCond520) ?BRET_EXT load(1, XDATA, add(CFA_XSP16, literal(-3)))
          CFI (cfiCond520) DPL0 load(1, XDATA, add(CFA_XSP16, literal(-2)))
          CFI (cfiCond520) DPH0 load(1, XDATA, add(CFA_XSP16, literal(-1)))
          CFI (cfiCond520) CFA_SP SP+-2
          CFI (cfiCond520) CFA_XSP16 add(XSP16, 15)
          CFI Block cfiCond521 Using cfiCommon0
          CFI (cfiCond521) Function ZDP_UserDescRsp
          CFI (cfiCond521) Conditional ??CrossCallReturnLabel_228
          CFI (cfiCond521) R6 load(1, XDATA, add(CFA_XSP16, literal(-18)))
          CFI (cfiCond521) VB load(1, XDATA, add(CFA_XSP16, literal(-17)))
          CFI (cfiCond521) V0 load(1, XDATA, add(CFA_XSP16, literal(-16)))
          CFI (cfiCond521) V1 load(1, XDATA, add(CFA_XSP16, literal(-15)))
          CFI (cfiCond521) V2 load(1, XDATA, add(CFA_XSP16, literal(-14)))
          CFI (cfiCond521) V3 load(1, XDATA, add(CFA_XSP16, literal(-13)))
          CFI (cfiCond521) V4 load(1, XDATA, add(CFA_XSP16, literal(-12)))
          CFI (cfiCond521) V5 load(1, XDATA, add(CFA_XSP16, literal(-11)))
          CFI (cfiCond521) V6 load(1, XDATA, add(CFA_XSP16, literal(-10)))
          CFI (cfiCond521) V7 load(1, XDATA, add(CFA_XSP16, literal(-9)))
          CFI (cfiCond521) V8 load(1, XDATA, add(CFA_XSP16, literal(-8)))
          CFI (cfiCond521) V9 load(1, XDATA, add(CFA_XSP16, literal(-7)))
          CFI (cfiCond521) R7 load(1, XDATA, add(CFA_XSP16, literal(-6)))
          CFI (cfiCond521) ?RET_LOW load(1, XDATA, add(CFA_XSP16, literal(-5)))
          CFI (cfiCond521) ?RET_HIGH load(1, XDATA, add(CFA_XSP16, literal(-4)))
          CFI (cfiCond521) ?BRET_EXT load(1, XDATA, add(CFA_XSP16, literal(-3)))
          CFI (cfiCond521) DPL0 load(1, XDATA, add(CFA_XSP16, literal(-2)))
          CFI (cfiCond521) DPH0 load(1, XDATA, add(CFA_XSP16, literal(-1)))
          CFI (cfiCond521) CFA_SP SP+-2
          CFI (cfiCond521) CFA_XSP16 add(XSP16, 19)
          CFI Block cfiPicker522 Using cfiCommon1
          CFI (cfiPicker522) NoFunction
          CFI (cfiPicker522) Picker
        LCALL     ??Subroutine119_0 & 0xFFFF
??CrossCallReturnLabel_249:
        MOV       R1,A
        RET
          CFI EndBlock cfiCond506
          CFI EndBlock cfiCond507
          CFI EndBlock cfiCond508
          CFI EndBlock cfiCond509
          CFI EndBlock cfiCond510
          CFI EndBlock cfiCond511
          CFI EndBlock cfiCond512
          CFI EndBlock cfiCond513
          CFI EndBlock cfiCond514
          CFI EndBlock cfiCond515
          CFI EndBlock cfiCond516
          CFI EndBlock cfiCond517
          CFI EndBlock cfiCond518
          CFI EndBlock cfiCond519
          CFI EndBlock cfiCond520
          CFI EndBlock cfiCond521
          CFI EndBlock cfiPicker522

        RSEG BANKED_CODE:HUGECODE:NOROOT(0)
?Subroutine76:
          CFI Block cfiCond523 Using cfiCommon0
          CFI Function ZDP_NWKAddrOfInterestReq
          CFI Conditional ??CrossCallReturnLabel_248, ??CrossCallReturnLabel_16
          CFI R6 load(1, XDATA, add(CFA_XSP16, literal(-10)))
          CFI VB load(1, XDATA, add(CFA_XSP16, literal(-9)))
          CFI V0 load(1, XDATA, add(CFA_XSP16, literal(-8)))
          CFI V1 load(1, XDATA, add(CFA_XSP16, literal(-7)))
          CFI R7 load(1, XDATA, add(CFA_XSP16, literal(-6)))
          CFI ?RET_LOW load(1, XDATA, add(CFA_XSP16, literal(-5)))
          CFI ?RET_HIGH load(1, XDATA, add(CFA_XSP16, literal(-4)))
          CFI ?BRET_EXT load(1, XDATA, add(CFA_XSP16, literal(-3)))
          CFI DPL0 load(1, XDATA, add(CFA_XSP16, literal(-2)))
          CFI DPH0 load(1, XDATA, add(CFA_XSP16, literal(-1)))
          CFI CFA_SP SP+-4
          CFI CFA_XSP16 add(XSP16, 10)
          CFI Block cfiCond524 Using cfiCommon0
          CFI (cfiCond524) Function ZDP_SimpleDescReq
          CFI (cfiCond524) Conditional ??CrossCallReturnLabel_248, ??CrossCallReturnLabel_17
          CFI (cfiCond524) R6 load(1, XDATA, add(CFA_XSP16, literal(-10)))
          CFI (cfiCond524) VB load(1, XDATA, add(CFA_XSP16, literal(-9)))
          CFI (cfiCond524) V0 load(1, XDATA, add(CFA_XSP16, literal(-8)))
          CFI (cfiCond524) V1 load(1, XDATA, add(CFA_XSP16, literal(-7)))
          CFI (cfiCond524) R7 load(1, XDATA, add(CFA_XSP16, literal(-6)))
          CFI (cfiCond524) ?RET_LOW load(1, XDATA, add(CFA_XSP16, literal(-5)))
          CFI (cfiCond524) ?RET_HIGH load(1, XDATA, add(CFA_XSP16, literal(-4)))
          CFI (cfiCond524) ?BRET_EXT load(1, XDATA, add(CFA_XSP16, literal(-3)))
          CFI (cfiCond524) DPL0 load(1, XDATA, add(CFA_XSP16, literal(-2)))
          CFI (cfiCond524) DPH0 load(1, XDATA, add(CFA_XSP16, literal(-1)))
          CFI (cfiCond524) CFA_SP SP+-4
          CFI (cfiCond524) CFA_XSP16 add(XSP16, 10)
          CFI Block cfiCond525 Using cfiCommon0
          CFI (cfiCond525) Function ZDP_DeviceAnnce
          CFI (cfiCond525) Conditional ??CrossCallReturnLabel_246
          CFI (cfiCond525) R6 load(1, XDATA, add(CFA_XSP16, literal(-10)))
          CFI (cfiCond525) VB load(1, XDATA, add(CFA_XSP16, literal(-9)))
          CFI (cfiCond525) V0 load(1, XDATA, add(CFA_XSP16, literal(-8)))
          CFI (cfiCond525) V1 load(1, XDATA, add(CFA_XSP16, literal(-7)))
          CFI (cfiCond525) R7 load(1, XDATA, add(CFA_XSP16, literal(-6)))
          CFI (cfiCond525) ?RET_LOW load(1, XDATA, add(CFA_XSP16, literal(-5)))
          CFI (cfiCond525) ?RET_HIGH load(1, XDATA, add(CFA_XSP16, literal(-4)))
          CFI (cfiCond525) ?BRET_EXT load(1, XDATA, add(CFA_XSP16, literal(-3)))
          CFI (cfiCond525) DPL0 load(1, XDATA, add(CFA_XSP16, literal(-2)))
          CFI (cfiCond525) DPH0 load(1, XDATA, add(CFA_XSP16, literal(-1)))
          CFI (cfiCond525) CFA_SP SP+-2
          CFI (cfiCond525) CFA_XSP16 add(XSP16, 19)
          CFI Block cfiCond526 Using cfiCommon0
          CFI (cfiCond526) Function ZDP_MgmtDirectJoinReq
          CFI (cfiCond526) Conditional ??CrossCallReturnLabel_247
          CFI (cfiCond526) R6 load(1, XDATA, add(CFA_XSP16, literal(-12)))
          CFI (cfiCond526) VB load(1, XDATA, add(CFA_XSP16, literal(-11)))
          CFI (cfiCond526) V0 load(1, XDATA, add(CFA_XSP16, literal(-10)))
          CFI (cfiCond526) V1 load(1, XDATA, add(CFA_XSP16, literal(-9)))
          CFI (cfiCond526) V2 load(1, XDATA, add(CFA_XSP16, literal(-8)))
          CFI (cfiCond526) V3 load(1, XDATA, add(CFA_XSP16, literal(-7)))
          CFI (cfiCond526) R7 load(1, XDATA, add(CFA_XSP16, literal(-6)))
          CFI (cfiCond526) ?RET_LOW load(1, XDATA, add(CFA_XSP16, literal(-5)))
          CFI (cfiCond526) ?RET_HIGH load(1, XDATA, add(CFA_XSP16, literal(-4)))
          CFI (cfiCond526) ?BRET_EXT load(1, XDATA, add(CFA_XSP16, literal(-3)))
          CFI (cfiCond526) DPL0 load(1, XDATA, add(CFA_XSP16, literal(-2)))
          CFI (cfiCond526) DPH0 load(1, XDATA, add(CFA_XSP16, literal(-1)))
          CFI (cfiCond526) CFA_SP SP+-2
          CFI (cfiCond526) CFA_XSP16 add(XSP16, 12)
          CFI Block cfiPicker527 Using cfiCommon1
          CFI (cfiPicker527) NoFunction
          CFI (cfiPicker527) Picker
        MOV       DPTR,#ZDP_TmpBuf
          CFI EndBlock cfiCond523
          CFI EndBlock cfiCond524
          CFI EndBlock cfiCond525
          CFI EndBlock cfiCond526
          CFI EndBlock cfiPicker527
        REQUIRE ??Subroutine119_0
        ; // Fall through to label ??Subroutine119_0

        RSEG BANKED_CODE:HUGECODE:NOROOT(0)
??Subroutine119_0:
          CFI Block cfiCond528 Using cfiCommon0
          CFI Function fillAndSend
          CFI Conditional ??CrossCallReturnLabel_245, ??CrossCallReturnLabel_70
          CFI R6 load(1, XDATA, add(CFA_XSP16, literal(-14)))
          CFI VB load(1, XDATA, add(CFA_XSP16, literal(-13)))
          CFI V0 load(1, XDATA, add(CFA_XSP16, literal(-12)))
          CFI V1 load(1, XDATA, add(CFA_XSP16, literal(-11)))
          CFI V2 load(1, XDATA, add(CFA_XSP16, literal(-10)))
          CFI V3 load(1, XDATA, add(CFA_XSP16, literal(-9)))
          CFI V4 load(1, XDATA, add(CFA_XSP16, literal(-8)))
          CFI V5 load(1, XDATA, add(CFA_XSP16, literal(-7)))
          CFI R7 load(1, XDATA, add(CFA_XSP16, literal(-6)))
          CFI ?RET_LOW load(1, XDATA, add(CFA_XSP16, literal(-5)))
          CFI ?RET_HIGH load(1, XDATA, add(CFA_XSP16, literal(-4)))
          CFI ?BRET_EXT load(1, XDATA, add(CFA_XSP16, literal(-3)))
          CFI DPL0 load(1, XDATA, add(CFA_XSP16, literal(-2)))
          CFI DPH0 load(1, XDATA, add(CFA_XSP16, literal(-1)))
          CFI CFA_SP SP+-4
          CFI CFA_XSP16 add(XSP16, 26)
          CFI Block cfiCond529 Using cfiCommon0
          CFI (cfiCond529) Function ZDP_NwkAddrReq
          CFI (cfiCond529) Conditional ??CrossCallReturnLabel_245, ??CrossCallReturnLabel_71
          CFI (cfiCond529) R6 load(1, XDATA, add(CFA_XSP16, literal(-12)))
          CFI (cfiCond529) VB load(1, XDATA, add(CFA_XSP16, literal(-11)))
          CFI (cfiCond529) V0 load(1, XDATA, add(CFA_XSP16, literal(-10)))
          CFI (cfiCond529) V1 load(1, XDATA, add(CFA_XSP16, literal(-9)))
          CFI (cfiCond529) V2 load(1, XDATA, add(CFA_XSP16, literal(-8)))
          CFI (cfiCond529) V3 load(1, XDATA, add(CFA_XSP16, literal(-7)))
          CFI (cfiCond529) R7 load(1, XDATA, add(CFA_XSP16, literal(-6)))
          CFI (cfiCond529) ?RET_LOW load(1, XDATA, add(CFA_XSP16, literal(-5)))
          CFI (cfiCond529) ?RET_HIGH load(1, XDATA, add(CFA_XSP16, literal(-4)))
          CFI (cfiCond529) ?BRET_EXT load(1, XDATA, add(CFA_XSP16, literal(-3)))
          CFI (cfiCond529) DPL0 load(1, XDATA, add(CFA_XSP16, literal(-2)))
          CFI (cfiCond529) DPH0 load(1, XDATA, add(CFA_XSP16, literal(-1)))
          CFI (cfiCond529) CFA_SP SP+-4
          CFI (cfiCond529) CFA_XSP16 add(XSP16, 21)
          CFI Block cfiCond530 Using cfiCommon0
          CFI (cfiCond530) Function ZDP_UserDescSet
          CFI (cfiCond530) Conditional ??CrossCallReturnLabel_244, ??CrossCallReturnLabel_52
          CFI (cfiCond530) R6 load(1, XDATA, add(CFA_XSP16, literal(-15)))
          CFI (cfiCond530) VB load(1, XDATA, add(CFA_XSP16, literal(-14)))
          CFI (cfiCond530) V0 load(1, XDATA, add(CFA_XSP16, literal(-13)))
          CFI (cfiCond530) V1 load(1, XDATA, add(CFA_XSP16, literal(-12)))
          CFI (cfiCond530) V2 load(1, XDATA, add(CFA_XSP16, literal(-11)))
          CFI (cfiCond530) V3 load(1, XDATA, add(CFA_XSP16, literal(-10)))
          CFI (cfiCond530) V4 load(1, XDATA, add(CFA_XSP16, literal(-9)))
          CFI (cfiCond530) V5 load(1, XDATA, add(CFA_XSP16, literal(-8)))
          CFI (cfiCond530) V6 load(1, XDATA, add(CFA_XSP16, literal(-7)))
          CFI (cfiCond530) R7 load(1, XDATA, add(CFA_XSP16, literal(-6)))
          CFI (cfiCond530) ?RET_LOW load(1, XDATA, add(CFA_XSP16, literal(-5)))
          CFI (cfiCond530) ?RET_HIGH load(1, XDATA, add(CFA_XSP16, literal(-4)))
          CFI (cfiCond530) ?BRET_EXT load(1, XDATA, add(CFA_XSP16, literal(-3)))
          CFI (cfiCond530) DPL0 load(1, XDATA, add(CFA_XSP16, literal(-2)))
          CFI (cfiCond530) DPH0 load(1, XDATA, add(CFA_XSP16, literal(-1)))
          CFI (cfiCond530) CFA_SP SP+-4
          CFI (cfiCond530) CFA_XSP16 add(XSP16, 15)
          CFI Block cfiCond531 Using cfiCommon0
          CFI (cfiCond531) Function ZDP_NodeDescMsg
          CFI (cfiCond531) Conditional ??CrossCallReturnLabel_244, ??CrossCallReturnLabel_53
          CFI (cfiCond531) R6 load(1, XDATA, add(CFA_XSP16, literal(-10)))
          CFI (cfiCond531) VB load(1, XDATA, add(CFA_XSP16, literal(-9)))
          CFI (cfiCond531) V0 load(1, XDATA, add(CFA_XSP16, literal(-8)))
          CFI (cfiCond531) V1 load(1, XDATA, add(CFA_XSP16, literal(-7)))
          CFI (cfiCond531) R7 load(1, XDATA, add(CFA_XSP16, literal(-6)))
          CFI (cfiCond531) ?RET_LOW load(1, XDATA, add(CFA_XSP16, literal(-5)))
          CFI (cfiCond531) ?RET_HIGH load(1, XDATA, add(CFA_XSP16, literal(-4)))
          CFI (cfiCond531) ?BRET_EXT load(1, XDATA, add(CFA_XSP16, literal(-3)))
          CFI (cfiCond531) DPL0 load(1, XDATA, add(CFA_XSP16, literal(-2)))
          CFI (cfiCond531) DPH0 load(1, XDATA, add(CFA_XSP16, literal(-1)))
          CFI (cfiCond531) CFA_SP SP+-4
          CFI (cfiCond531) CFA_XSP16 add(XSP16, 10)
          CFI Block cfiCond532 Using cfiCommon0
          CFI (cfiCond532) Function ZDP_PowerDescMsg
          CFI (cfiCond532) Conditional ??CrossCallReturnLabel_244, ??CrossCallReturnLabel_54
          CFI (cfiCond532) R6 load(1, XDATA, add(CFA_XSP16, literal(-10)))
          CFI (cfiCond532) VB load(1, XDATA, add(CFA_XSP16, literal(-9)))
          CFI (cfiCond532) V0 load(1, XDATA, add(CFA_XSP16, literal(-8)))
          CFI (cfiCond532) V1 load(1, XDATA, add(CFA_XSP16, literal(-7)))
          CFI (cfiCond532) R7 load(1, XDATA, add(CFA_XSP16, literal(-6)))
          CFI (cfiCond532) ?RET_LOW load(1, XDATA, add(CFA_XSP16, literal(-5)))
          CFI (cfiCond532) ?RET_HIGH load(1, XDATA, add(CFA_XSP16, literal(-4)))
          CFI (cfiCond532) ?BRET_EXT load(1, XDATA, add(CFA_XSP16, literal(-3)))
          CFI (cfiCond532) DPL0 load(1, XDATA, add(CFA_XSP16, literal(-2)))
          CFI (cfiCond532) DPH0 load(1, XDATA, add(CFA_XSP16, literal(-1)))
          CFI (cfiCond532) CFA_SP SP+-4
          CFI (cfiCond532) CFA_XSP16 add(XSP16, 10)
          CFI Block cfiCond533 Using cfiCommon0
          CFI (cfiCond533) Function ZDO_RegisterForZDOMsg
          CFI (cfiCond533) Conditional ??CrossCallReturnLabel_243
          CFI (cfiCond533) R6 load(1, XDATA, add(CFA_XSP16, literal(-14)))
          CFI (cfiCond533) VB load(1, XDATA, add(CFA_XSP16, literal(-13)))
          CFI (cfiCond533) V0 load(1, XDATA, add(CFA_XSP16, literal(-12)))
          CFI (cfiCond533) V1 load(1, XDATA, add(CFA_XSP16, literal(-11)))
          CFI (cfiCond533) V2 load(1, XDATA, add(CFA_XSP16, literal(-10)))
          CFI (cfiCond533) V3 load(1, XDATA, add(CFA_XSP16, literal(-9)))
          CFI (cfiCond533) V4 load(1, XDATA, add(CFA_XSP16, literal(-8)))
          CFI (cfiCond533) V5 load(1, XDATA, add(CFA_XSP16, literal(-7)))
          CFI (cfiCond533) R7 load(1, XDATA, add(CFA_XSP16, literal(-6)))
          CFI (cfiCond533) ?RET_LOW load(1, XDATA, add(CFA_XSP16, literal(-5)))
          CFI (cfiCond533) ?RET_HIGH load(1, XDATA, add(CFA_XSP16, literal(-4)))
          CFI (cfiCond533) ?BRET_EXT load(1, XDATA, add(CFA_XSP16, literal(-3)))
          CFI (cfiCond533) DPL0 load(1, XDATA, add(CFA_XSP16, literal(-2)))
          CFI (cfiCond533) DPH0 load(1, XDATA, add(CFA_XSP16, literal(-1)))
          CFI (cfiCond533) CFA_SP SP+-2
          CFI (cfiCond533) CFA_XSP16 add(XSP16, 14)
          CFI Block cfiCond534 Using cfiCommon0
          CFI (cfiCond534) Function ZDP_UserDescSet
          CFI (cfiCond534) Conditional ??CrossCallReturnLabel_249, ??CrossCallReturnLabel_227
          CFI (cfiCond534) R6 load(1, XDATA, add(CFA_XSP16, literal(-15)))
          CFI (cfiCond534) VB load(1, XDATA, add(CFA_XSP16, literal(-14)))
          CFI (cfiCond534) V0 load(1, XDATA, add(CFA_XSP16, literal(-13)))
          CFI (cfiCond534) V1 load(1, XDATA, add(CFA_XSP16, literal(-12)))
          CFI (cfiCond534) V2 load(1, XDATA, add(CFA_XSP16, literal(-11)))
          CFI (cfiCond534) V3 load(1, XDATA, add(CFA_XSP16, literal(-10)))
          CFI (cfiCond534) V4 load(1, XDATA, add(CFA_XSP16, literal(-9)))
          CFI (cfiCond534) V5 load(1, XDATA, add(CFA_XSP16, literal(-8)))
          CFI (cfiCond534) V6 load(1, XDATA, add(CFA_XSP16, literal(-7)))
          CFI (cfiCond534) R7 load(1, XDATA, add(CFA_XSP16, literal(-6)))
          CFI (cfiCond534) ?RET_LOW load(1, XDATA, add(CFA_XSP16, literal(-5)))
          CFI (cfiCond534) ?RET_HIGH load(1, XDATA, add(CFA_XSP16, literal(-4)))
          CFI (cfiCond534) ?BRET_EXT load(1, XDATA, add(CFA_XSP16, literal(-3)))
          CFI (cfiCond534) DPL0 load(1, XDATA, add(CFA_XSP16, literal(-2)))
          CFI (cfiCond534) DPH0 load(1, XDATA, add(CFA_XSP16, literal(-1)))
          CFI (cfiCond534) CFA_SP SP+-4
          CFI (cfiCond534) CFA_XSP16 add(XSP16, 15)
          CFI Block cfiCond535 Using cfiCommon0
          CFI (cfiCond535) Function ZDP_UserDescRsp
          CFI (cfiCond535) Conditional ??CrossCallReturnLabel_249, ??CrossCallReturnLabel_228
          CFI (cfiCond535) R6 load(1, XDATA, add(CFA_XSP16, literal(-18)))
          CFI (cfiCond535) VB load(1, XDATA, add(CFA_XSP16, literal(-17)))
          CFI (cfiCond535) V0 load(1, XDATA, add(CFA_XSP16, literal(-16)))
          CFI (cfiCond535) V1 load(1, XDATA, add(CFA_XSP16, literal(-15)))
          CFI (cfiCond535) V2 load(1, XDATA, add(CFA_XSP16, literal(-14)))
          CFI (cfiCond535) V3 load(1, XDATA, add(CFA_XSP16, literal(-13)))
          CFI (cfiCond535) V4 load(1, XDATA, add(CFA_XSP16, literal(-12)))
          CFI (cfiCond535) V5 load(1, XDATA, add(CFA_XSP16, literal(-11)))
          CFI (cfiCond535) V6 load(1, XDATA, add(CFA_XSP16, literal(-10)))
          CFI (cfiCond535) V7 load(1, XDATA, add(CFA_XSP16, literal(-9)))
          CFI (cfiCond535) V8 load(1, XDATA, add(CFA_XSP16, literal(-8)))
          CFI (cfiCond535) V9 load(1, XDATA, add(CFA_XSP16, literal(-7)))
          CFI (cfiCond535) R7 load(1, XDATA, add(CFA_XSP16, literal(-6)))
          CFI (cfiCond535) ?RET_LOW load(1, XDATA, add(CFA_XSP16, literal(-5)))
          CFI (cfiCond535) ?RET_HIGH load(1, XDATA, add(CFA_XSP16, literal(-4)))
          CFI (cfiCond535) ?BRET_EXT load(1, XDATA, add(CFA_XSP16, literal(-3)))
          CFI (cfiCond535) DPL0 load(1, XDATA, add(CFA_XSP16, literal(-2)))
          CFI (cfiCond535) DPH0 load(1, XDATA, add(CFA_XSP16, literal(-1)))
          CFI (cfiCond535) CFA_SP SP+-4
          CFI (cfiCond535) CFA_XSP16 add(XSP16, 19)
          CFI Block cfiCond536 Using cfiCommon0
          CFI (cfiCond536) Function ZDP_IEEEAddrReq
          CFI (cfiCond536) Conditional ??CrossCallReturnLabel_249, ??CrossCallReturnLabel_229
          CFI (cfiCond536) R6 load(1, XDATA, add(CFA_XSP16, literal(-10)))
          CFI (cfiCond536) VB load(1, XDATA, add(CFA_XSP16, literal(-9)))
          CFI (cfiCond536) V0 load(1, XDATA, add(CFA_XSP16, literal(-8)))
          CFI (cfiCond536) V1 load(1, XDATA, add(CFA_XSP16, literal(-7)))
          CFI (cfiCond536) R7 load(1, XDATA, add(CFA_XSP16, literal(-6)))
          CFI (cfiCond536) ?RET_LOW load(1, XDATA, add(CFA_XSP16, literal(-5)))
          CFI (cfiCond536) ?RET_HIGH load(1, XDATA, add(CFA_XSP16, literal(-4)))
          CFI (cfiCond536) ?BRET_EXT load(1, XDATA, add(CFA_XSP16, literal(-3)))
          CFI (cfiCond536) DPL0 load(1, XDATA, add(CFA_XSP16, literal(-2)))
          CFI (cfiCond536) DPH0 load(1, XDATA, add(CFA_XSP16, literal(-1)))
          CFI (cfiCond536) CFA_SP SP+-4
          CFI (cfiCond536) CFA_XSP16 add(XSP16, 19)
          CFI Block cfiCond537 Using cfiCommon0
          CFI (cfiCond537) Function ZDP_MatchDescReq
          CFI (cfiCond537) Conditional ??CrossCallReturnLabel_249, ??CrossCallReturnLabel_240
          CFI (cfiCond537) R6 load(1, XDATA, add(CFA_XSP16, literal(-14)))
          CFI (cfiCond537) VB load(1, XDATA, add(CFA_XSP16, literal(-13)))
          CFI (cfiCond537) V0 load(1, XDATA, add(CFA_XSP16, literal(-12)))
          CFI (cfiCond537) V1 load(1, XDATA, add(CFA_XSP16, literal(-11)))
          CFI (cfiCond537) V2 load(1, XDATA, add(CFA_XSP16, literal(-10)))
          CFI (cfiCond537) V3 load(1, XDATA, add(CFA_XSP16, literal(-9)))
          CFI (cfiCond537) V4 load(1, XDATA, add(CFA_XSP16, literal(-8)))
          CFI (cfiCond537) V5 load(1, XDATA, add(CFA_XSP16, literal(-7)))
          CFI (cfiCond537) R7 load(1, XDATA, add(CFA_XSP16, literal(-6)))
          CFI (cfiCond537) ?RET_LOW load(1, XDATA, add(CFA_XSP16, literal(-5)))
          CFI (cfiCond537) ?RET_HIGH load(1, XDATA, add(CFA_XSP16, literal(-4)))
          CFI (cfiCond537) ?BRET_EXT load(1, XDATA, add(CFA_XSP16, literal(-3)))
          CFI (cfiCond537) DPL0 load(1, XDATA, add(CFA_XSP16, literal(-2)))
          CFI (cfiCond537) DPH0 load(1, XDATA, add(CFA_XSP16, literal(-1)))
          CFI (cfiCond537) CFA_SP SP+-4
          CFI (cfiCond537) CFA_XSP16 add(XSP16, 14)
          CFI Block cfiCond538 Using cfiCommon0
          CFI (cfiCond538) Function ZDP_ServerDiscReq
          CFI (cfiCond538) Conditional ??CrossCallReturnLabel_249, ??CrossCallReturnLabel_241
          CFI (cfiCond538) R6 load(1, XDATA, add(CFA_XSP16, literal(-10)))
          CFI (cfiCond538) VB load(1, XDATA, add(CFA_XSP16, literal(-9)))
          CFI (cfiCond538) V0 load(1, XDATA, add(CFA_XSP16, literal(-8)))
          CFI (cfiCond538) V1 load(1, XDATA, add(CFA_XSP16, literal(-7)))
          CFI (cfiCond538) R7 load(1, XDATA, add(CFA_XSP16, literal(-6)))
          CFI (cfiCond538) ?RET_LOW load(1, XDATA, add(CFA_XSP16, literal(-5)))
          CFI (cfiCond538) ?RET_HIGH load(1, XDATA, add(CFA_XSP16, literal(-4)))
          CFI (cfiCond538) ?BRET_EXT load(1, XDATA, add(CFA_XSP16, literal(-3)))
          CFI (cfiCond538) DPL0 load(1, XDATA, add(CFA_XSP16, literal(-2)))
          CFI (cfiCond538) DPH0 load(1, XDATA, add(CFA_XSP16, literal(-1)))
          CFI (cfiCond538) CFA_SP SP+-4
          CFI (cfiCond538) CFA_XSP16 add(XSP16, 19)
          CFI Block cfiCond539 Using cfiCommon0
          CFI (cfiCond539) Function ZDP_SimpleDescMsg
          CFI (cfiCond539) Conditional ??CrossCallReturnLabel_249, ??CrossCallReturnLabel_242
          CFI (cfiCond539) R6 load(1, XDATA, add(CFA_XSP16, literal(-20)))
          CFI (cfiCond539) VB load(1, XDATA, add(CFA_XSP16, literal(-19)))
          CFI (cfiCond539) V0 load(1, XDATA, add(CFA_XSP16, literal(-18)))
          CFI (cfiCond539) V1 load(1, XDATA, add(CFA_XSP16, literal(-17)))
          CFI (cfiCond539) V2 load(1, XDATA, add(CFA_XSP16, literal(-16)))
          CFI (cfiCond539) V3 load(1, XDATA, add(CFA_XSP16, literal(-15)))
          CFI (cfiCond539) V4 load(1, XDATA, add(CFA_XSP16, literal(-14)))
          CFI (cfiCond539) V5 load(1, XDATA, add(CFA_XSP16, literal(-13)))
          CFI (cfiCond539) V6 load(1, XDATA, add(CFA_XSP16, literal(-12)))
          CFI (cfiCond539) V7 load(1, XDATA, add(CFA_XSP16, literal(-11)))
          CFI (cfiCond539) V8 load(1, XDATA, add(CFA_XSP16, literal(-10)))
          CFI (cfiCond539) V9 load(1, XDATA, add(CFA_XSP16, literal(-9)))
          CFI (cfiCond539) V10 load(1, XDATA, add(CFA_XSP16, literal(-8)))
          CFI (cfiCond539) V11 load(1, XDATA, add(CFA_XSP16, literal(-7)))
          CFI (cfiCond539) R7 load(1, XDATA, add(CFA_XSP16, literal(-6)))
          CFI (cfiCond539) ?RET_LOW load(1, XDATA, add(CFA_XSP16, literal(-5)))
          CFI (cfiCond539) ?RET_HIGH load(1, XDATA, add(CFA_XSP16, literal(-4)))
          CFI (cfiCond539) ?BRET_EXT load(1, XDATA, add(CFA_XSP16, literal(-3)))
          CFI (cfiCond539) DPL0 load(1, XDATA, add(CFA_XSP16, literal(-2)))
          CFI (cfiCond539) DPH0 load(1, XDATA, add(CFA_XSP16, literal(-1)))
          CFI (cfiCond539) CFA_SP SP+-4
          CFI (cfiCond539) CFA_XSP16 add(XSP16, 20)
          CFI Block cfiCond540 Using cfiCommon0
          CFI (cfiCond540) Function ZDP_SendData
          CFI (cfiCond540) Conditional ??CrossCallReturnLabel_249, ??CrossCallReturnLabel_230
          CFI (cfiCond540) R6 load(1, XDATA, add(CFA_XSP16, literal(-12)))
          CFI (cfiCond540) VB load(1, XDATA, add(CFA_XSP16, literal(-11)))
          CFI (cfiCond540) V0 load(1, XDATA, add(CFA_XSP16, literal(-10)))
          CFI (cfiCond540) V1 load(1, XDATA, add(CFA_XSP16, literal(-9)))
          CFI (cfiCond540) V2 load(1, XDATA, add(CFA_XSP16, literal(-8)))
          CFI (cfiCond540) V3 load(1, XDATA, add(CFA_XSP16, literal(-7)))
          CFI (cfiCond540) R7 load(1, XDATA, add(CFA_XSP16, literal(-6)))
          CFI (cfiCond540) ?RET_LOW load(1, XDATA, add(CFA_XSP16, literal(-5)))
          CFI (cfiCond540) ?RET_HIGH load(1, XDATA, add(CFA_XSP16, literal(-4)))
          CFI (cfiCond540) ?BRET_EXT load(1, XDATA, add(CFA_XSP16, literal(-3)))
          CFI (cfiCond540) DPL0 load(1, XDATA, add(CFA_XSP16, literal(-2)))
          CFI (cfiCond540) DPH0 load(1, XDATA, add(CFA_XSP16, literal(-1)))
          CFI (cfiCond540) CFA_SP SP+-4
          CFI (cfiCond540) CFA_XSP16 add(XSP16, 12)
          CFI Block cfiCond541 Using cfiCommon0
          CFI (cfiCond541) Function ZDP_UserDescRsp
          CFI (cfiCond541) Conditional ??CrossCallReturnLabel_249, ??CrossCallReturnLabel_231
          CFI (cfiCond541) R6 load(1, XDATA, add(CFA_XSP16, literal(-18)))
          CFI (cfiCond541) VB load(1, XDATA, add(CFA_XSP16, literal(-17)))
          CFI (cfiCond541) V0 load(1, XDATA, add(CFA_XSP16, literal(-16)))
          CFI (cfiCond541) V1 load(1, XDATA, add(CFA_XSP16, literal(-15)))
          CFI (cfiCond541) V2 load(1, XDATA, add(CFA_XSP16, literal(-14)))
          CFI (cfiCond541) V3 load(1, XDATA, add(CFA_XSP16, literal(-13)))
          CFI (cfiCond541) V4 load(1, XDATA, add(CFA_XSP16, literal(-12)))
          CFI (cfiCond541) V5 load(1, XDATA, add(CFA_XSP16, literal(-11)))
          CFI (cfiCond541) V6 load(1, XDATA, add(CFA_XSP16, literal(-10)))
          CFI (cfiCond541) V7 load(1, XDATA, add(CFA_XSP16, literal(-9)))
          CFI (cfiCond541) V8 load(1, XDATA, add(CFA_XSP16, literal(-8)))
          CFI (cfiCond541) V9 load(1, XDATA, add(CFA_XSP16, literal(-7)))
          CFI (cfiCond541) R7 load(1, XDATA, add(CFA_XSP16, literal(-6)))
          CFI (cfiCond541) ?RET_LOW load(1, XDATA, add(CFA_XSP16, literal(-5)))
          CFI (cfiCond541) ?RET_HIGH load(1, XDATA, add(CFA_XSP16, literal(-4)))
          CFI (cfiCond541) ?BRET_EXT load(1, XDATA, add(CFA_XSP16, literal(-3)))
          CFI (cfiCond541) DPL0 load(1, XDATA, add(CFA_XSP16, literal(-2)))
          CFI (cfiCond541) DPH0 load(1, XDATA, add(CFA_XSP16, literal(-1)))
          CFI (cfiCond541) CFA_SP SP+-4
          CFI (cfiCond541) CFA_XSP16 add(XSP16, 19)
          CFI Block cfiCond542 Using cfiCommon0
          CFI (cfiCond542) Function ZDP_GenericRsp
          CFI (cfiCond542) Conditional ??CrossCallReturnLabel_249, ??CrossCallReturnLabel_232
          CFI (cfiCond542) R6 load(1, XDATA, add(CFA_XSP16, literal(-9)))
          CFI (cfiCond542) VB load(1, XDATA, add(CFA_XSP16, literal(-8)))
          CFI (cfiCond542) V0 load(1, XDATA, add(CFA_XSP16, literal(-7)))
          CFI (cfiCond542) R7 load(1, XDATA, add(CFA_XSP16, literal(-6)))
          CFI (cfiCond542) ?RET_LOW load(1, XDATA, add(CFA_XSP16, literal(-5)))
          CFI (cfiCond542) ?RET_HIGH load(1, XDATA, add(CFA_XSP16, literal(-4)))
          CFI (cfiCond542) ?BRET_EXT load(1, XDATA, add(CFA_XSP16, literal(-3)))
          CFI (cfiCond542) DPL0 load(1, XDATA, add(CFA_XSP16, literal(-2)))
          CFI (cfiCond542) DPH0 load(1, XDATA, add(CFA_XSP16, literal(-1)))
          CFI (cfiCond542) CFA_SP SP+-4
          CFI (cfiCond542) CFA_XSP16 add(XSP16, 10)
          CFI Block cfiCond543 Using cfiCommon0
          CFI (cfiCond543) Function ZDP_EndDeviceBindReq
          CFI (cfiCond543) Conditional ??CrossCallReturnLabel_249, ??CrossCallReturnLabel_233
          CFI (cfiCond543) R6 load(1, XDATA, add(CFA_XSP16, literal(-18)))
          CFI (cfiCond543) VB load(1, XDATA, add(CFA_XSP16, literal(-17)))
          CFI (cfiCond543) V0 load(1, XDATA, add(CFA_XSP16, literal(-16)))
          CFI (cfiCond543) V1 load(1, XDATA, add(CFA_XSP16, literal(-15)))
          CFI (cfiCond543) V2 load(1, XDATA, add(CFA_XSP16, literal(-14)))
          CFI (cfiCond543) V3 load(1, XDATA, add(CFA_XSP16, literal(-13)))
          CFI (cfiCond543) V4 load(1, XDATA, add(CFA_XSP16, literal(-12)))
          CFI (cfiCond543) V5 load(1, XDATA, add(CFA_XSP16, literal(-11)))
          CFI (cfiCond543) V6 load(1, XDATA, add(CFA_XSP16, literal(-10)))
          CFI (cfiCond543) V7 load(1, XDATA, add(CFA_XSP16, literal(-9)))
          CFI (cfiCond543) V8 load(1, XDATA, add(CFA_XSP16, literal(-8)))
          CFI (cfiCond543) V9 load(1, XDATA, add(CFA_XSP16, literal(-7)))
          CFI (cfiCond543) R7 load(1, XDATA, add(CFA_XSP16, literal(-6)))
          CFI (cfiCond543) ?RET_LOW load(1, XDATA, add(CFA_XSP16, literal(-5)))
          CFI (cfiCond543) ?RET_HIGH load(1, XDATA, add(CFA_XSP16, literal(-4)))
          CFI (cfiCond543) ?BRET_EXT load(1, XDATA, add(CFA_XSP16, literal(-3)))
          CFI (cfiCond543) DPL0 load(1, XDATA, add(CFA_XSP16, literal(-2)))
          CFI (cfiCond543) DPH0 load(1, XDATA, add(CFA_XSP16, literal(-1)))
          CFI (cfiCond543) CFA_SP SP+-4
          CFI (cfiCond543) CFA_XSP16 add(XSP16, 18)
          CFI Block cfiCond544 Using cfiCommon0
          CFI (cfiCond544) Function ZDP_MgmtPermitJoinReq
          CFI (cfiCond544) Conditional ??CrossCallReturnLabel_249, ??CrossCallReturnLabel_234
          CFI (cfiCond544) R6 load(1, XDATA, add(CFA_XSP16, literal(-12)))
          CFI (cfiCond544) VB load(1, XDATA, add(CFA_XSP16, literal(-11)))
          CFI (cfiCond544) V0 load(1, XDATA, add(CFA_XSP16, literal(-10)))
          CFI (cfiCond544) V1 load(1, XDATA, add(CFA_XSP16, literal(-9)))
          CFI (cfiCond544) V2 load(1, XDATA, add(CFA_XSP16, literal(-8)))
          CFI (cfiCond544) V3 load(1, XDATA, add(CFA_XSP16, literal(-7)))
          CFI (cfiCond544) R7 load(1, XDATA, add(CFA_XSP16, literal(-6)))
          CFI (cfiCond544) ?RET_LOW load(1, XDATA, add(CFA_XSP16, literal(-5)))
          CFI (cfiCond544) ?RET_HIGH load(1, XDATA, add(CFA_XSP16, literal(-4)))
          CFI (cfiCond544) ?BRET_EXT load(1, XDATA, add(CFA_XSP16, literal(-3)))
          CFI (cfiCond544) DPL0 load(1, XDATA, add(CFA_XSP16, literal(-2)))
          CFI (cfiCond544) DPH0 load(1, XDATA, add(CFA_XSP16, literal(-1)))
          CFI (cfiCond544) CFA_SP SP+-4
          CFI (cfiCond544) CFA_XSP16 add(XSP16, 21)
          CFI Block cfiCond545 Using cfiCommon0
          CFI (cfiCond545) Function ZDO_SendMsgCBs
          CFI (cfiCond545) Conditional ??CrossCallReturnLabel_249, ??CrossCallReturnLabel_235
          CFI (cfiCond545) R6 load(1, XDATA, add(CFA_XSP16, literal(-18)))
          CFI (cfiCond545) VB load(1, XDATA, add(CFA_XSP16, literal(-17)))
          CFI (cfiCond545) V0 load(1, XDATA, add(CFA_XSP16, literal(-16)))
          CFI (cfiCond545) V1 load(1, XDATA, add(CFA_XSP16, literal(-15)))
          CFI (cfiCond545) V2 load(1, XDATA, add(CFA_XSP16, literal(-14)))
          CFI (cfiCond545) V3 load(1, XDATA, add(CFA_XSP16, literal(-13)))
          CFI (cfiCond545) V4 load(1, XDATA, add(CFA_XSP16, literal(-12)))
          CFI (cfiCond545) V5 load(1, XDATA, add(CFA_XSP16, literal(-11)))
          CFI (cfiCond545) V6 load(1, XDATA, add(CFA_XSP16, literal(-10)))
          CFI (cfiCond545) V7 load(1, XDATA, add(CFA_XSP16, literal(-9)))
          CFI (cfiCond545) V8 load(1, XDATA, add(CFA_XSP16, literal(-8)))
          CFI (cfiCond545) V9 load(1, XDATA, add(CFA_XSP16, literal(-7)))
          CFI (cfiCond545) R7 load(1, XDATA, add(CFA_XSP16, literal(-6)))
          CFI (cfiCond545) ?RET_LOW load(1, XDATA, add(CFA_XSP16, literal(-5)))
          CFI (cfiCond545) ?RET_HIGH load(1, XDATA, add(CFA_XSP16, literal(-4)))
          CFI (cfiCond545) ?BRET_EXT load(1, XDATA, add(CFA_XSP16, literal(-3)))
          CFI (cfiCond545) DPL0 load(1, XDATA, add(CFA_XSP16, literal(-2)))
          CFI (cfiCond545) DPH0 load(1, XDATA, add(CFA_XSP16, literal(-1)))
          CFI (cfiCond545) CFA_SP SP+-4
          CFI (cfiCond545) CFA_XSP16 add(XSP16, 18)
          CFI Block cfiCond546 Using cfiCommon0
          CFI (cfiCond546) Function ZDP_IncomingData
          CFI (cfiCond546) Conditional ??CrossCallReturnLabel_249, ??CrossCallReturnLabel_236
          CFI (cfiCond546) R6 load(1, XDATA, add(CFA_XSP16, literal(-10)))
          CFI (cfiCond546) VB load(1, XDATA, add(CFA_XSP16, literal(-9)))
          CFI (cfiCond546) V0 load(1, XDATA, add(CFA_XSP16, literal(-8)))
          CFI (cfiCond546) V1 load(1, XDATA, add(CFA_XSP16, literal(-7)))
          CFI (cfiCond546) R7 load(1, XDATA, add(CFA_XSP16, literal(-6)))
          CFI (cfiCond546) ?RET_LOW load(1, XDATA, add(CFA_XSP16, literal(-5)))
          CFI (cfiCond546) ?RET_HIGH load(1, XDATA, add(CFA_XSP16, literal(-4)))
          CFI (cfiCond546) ?BRET_EXT load(1, XDATA, add(CFA_XSP16, literal(-3)))
          CFI (cfiCond546) DPL0 load(1, XDATA, add(CFA_XSP16, literal(-2)))
          CFI (cfiCond546) DPH0 load(1, XDATA, add(CFA_XSP16, literal(-1)))
          CFI (cfiCond546) CFA_SP SP+-4
          CFI (cfiCond546) CFA_XSP16 add(XSP16, 33)
          CFI Block cfiCond547 Using cfiCommon0
          CFI (cfiCond547) Function ZDP_IncomingData
          CFI (cfiCond547) Conditional ??CrossCallReturnLabel_249, ??CrossCallReturnLabel_237
          CFI (cfiCond547) R6 load(1, XDATA, add(CFA_XSP16, literal(-10)))
          CFI (cfiCond547) VB load(1, XDATA, add(CFA_XSP16, literal(-9)))
          CFI (cfiCond547) V0 load(1, XDATA, add(CFA_XSP16, literal(-8)))
          CFI (cfiCond547) V1 load(1, XDATA, add(CFA_XSP16, literal(-7)))
          CFI (cfiCond547) R7 load(1, XDATA, add(CFA_XSP16, literal(-6)))
          CFI (cfiCond547) ?RET_LOW load(1, XDATA, add(CFA_XSP16, literal(-5)))
          CFI (cfiCond547) ?RET_HIGH load(1, XDATA, add(CFA_XSP16, literal(-4)))
          CFI (cfiCond547) ?BRET_EXT load(1, XDATA, add(CFA_XSP16, literal(-3)))
          CFI (cfiCond547) DPL0 load(1, XDATA, add(CFA_XSP16, literal(-2)))
          CFI (cfiCond547) DPH0 load(1, XDATA, add(CFA_XSP16, literal(-1)))
          CFI (cfiCond547) CFA_SP SP+-4
          CFI (cfiCond547) CFA_XSP16 add(XSP16, 33)
          CFI Block cfiCond548 Using cfiCommon0
          CFI (cfiCond548) Function ZDP_IncomingData
          CFI (cfiCond548) Conditional ??CrossCallReturnLabel_249, ??CrossCallReturnLabel_238
          CFI (cfiCond548) R6 load(1, XDATA, add(CFA_XSP16, literal(-10)))
          CFI (cfiCond548) VB load(1, XDATA, add(CFA_XSP16, literal(-9)))
          CFI (cfiCond548) V0 load(1, XDATA, add(CFA_XSP16, literal(-8)))
          CFI (cfiCond548) V1 load(1, XDATA, add(CFA_XSP16, literal(-7)))
          CFI (cfiCond548) R7 load(1, XDATA, add(CFA_XSP16, literal(-6)))
          CFI (cfiCond548) ?RET_LOW load(1, XDATA, add(CFA_XSP16, literal(-5)))
          CFI (cfiCond548) ?RET_HIGH load(1, XDATA, add(CFA_XSP16, literal(-4)))
          CFI (cfiCond548) ?BRET_EXT load(1, XDATA, add(CFA_XSP16, literal(-3)))
          CFI (cfiCond548) DPL0 load(1, XDATA, add(CFA_XSP16, literal(-2)))
          CFI (cfiCond548) DPH0 load(1, XDATA, add(CFA_XSP16, literal(-1)))
          CFI (cfiCond548) CFA_SP SP+-4
          CFI (cfiCond548) CFA_XSP16 add(XSP16, 33)
          CFI Block cfiCond549 Using cfiCommon0
          CFI (cfiCond549) Function ZDP_IncomingData
          CFI (cfiCond549) Conditional ??CrossCallReturnLabel_249, ??CrossCallReturnLabel_239
          CFI (cfiCond549) R6 load(1, XDATA, add(CFA_XSP16, literal(-10)))
          CFI (cfiCond549) VB load(1, XDATA, add(CFA_XSP16, literal(-9)))
          CFI (cfiCond549) V0 load(1, XDATA, add(CFA_XSP16, literal(-8)))
          CFI (cfiCond549) V1 load(1, XDATA, add(CFA_XSP16, literal(-7)))
          CFI (cfiCond549) R7 load(1, XDATA, add(CFA_XSP16, literal(-6)))
          CFI (cfiCond549) ?RET_LOW load(1, XDATA, add(CFA_XSP16, literal(-5)))
          CFI (cfiCond549) ?RET_HIGH load(1, XDATA, add(CFA_XSP16, literal(-4)))
          CFI (cfiCond549) ?BRET_EXT load(1, XDATA, add(CFA_XSP16, literal(-3)))
          CFI (cfiCond549) DPL0 load(1, XDATA, add(CFA_XSP16, literal(-2)))
          CFI (cfiCond549) DPH0 load(1, XDATA, add(CFA_XSP16, literal(-1)))
          CFI (cfiCond549) CFA_SP SP+-4
          CFI (cfiCond549) CFA_XSP16 add(XSP16, 33)
          CFI Block cfiCond550 Using cfiCommon0
          CFI (cfiCond550) Function ZDP_NWKAddrOfInterestReq
          CFI (cfiCond550) Conditional ??CrossCallReturnLabel_248, ??CrossCallReturnLabel_16
          CFI (cfiCond550) R6 load(1, XDATA, add(CFA_XSP16, literal(-10)))
          CFI (cfiCond550) VB load(1, XDATA, add(CFA_XSP16, literal(-9)))
          CFI (cfiCond550) V0 load(1, XDATA, add(CFA_XSP16, literal(-8)))
          CFI (cfiCond550) V1 load(1, XDATA, add(CFA_XSP16, literal(-7)))
          CFI (cfiCond550) R7 load(1, XDATA, add(CFA_XSP16, literal(-6)))
          CFI (cfiCond550) ?RET_LOW load(1, XDATA, add(CFA_XSP16, literal(-5)))
          CFI (cfiCond550) ?RET_HIGH load(1, XDATA, add(CFA_XSP16, literal(-4)))
          CFI (cfiCond550) ?BRET_EXT load(1, XDATA, add(CFA_XSP16, literal(-3)))
          CFI (cfiCond550) DPL0 load(1, XDATA, add(CFA_XSP16, literal(-2)))
          CFI (cfiCond550) DPH0 load(1, XDATA, add(CFA_XSP16, literal(-1)))
          CFI (cfiCond550) CFA_SP SP+-4
          CFI (cfiCond550) CFA_XSP16 add(XSP16, 10)
          CFI Block cfiCond551 Using cfiCommon0
          CFI (cfiCond551) Function ZDP_SimpleDescReq
          CFI (cfiCond551) Conditional ??CrossCallReturnLabel_248, ??CrossCallReturnLabel_17
          CFI (cfiCond551) R6 load(1, XDATA, add(CFA_XSP16, literal(-10)))
          CFI (cfiCond551) VB load(1, XDATA, add(CFA_XSP16, literal(-9)))
          CFI (cfiCond551) V0 load(1, XDATA, add(CFA_XSP16, literal(-8)))
          CFI (cfiCond551) V1 load(1, XDATA, add(CFA_XSP16, literal(-7)))
          CFI (cfiCond551) R7 load(1, XDATA, add(CFA_XSP16, literal(-6)))
          CFI (cfiCond551) ?RET_LOW load(1, XDATA, add(CFA_XSP16, literal(-5)))
          CFI (cfiCond551) ?RET_HIGH load(1, XDATA, add(CFA_XSP16, literal(-4)))
          CFI (cfiCond551) ?BRET_EXT load(1, XDATA, add(CFA_XSP16, literal(-3)))
          CFI (cfiCond551) DPL0 load(1, XDATA, add(CFA_XSP16, literal(-2)))
          CFI (cfiCond551) DPH0 load(1, XDATA, add(CFA_XSP16, literal(-1)))
          CFI (cfiCond551) CFA_SP SP+-4
          CFI (cfiCond551) CFA_XSP16 add(XSP16, 10)
          CFI Block cfiCond552 Using cfiCommon0
          CFI (cfiCond552) Function ZDP_DeviceAnnce
          CFI (cfiCond552) Conditional ??CrossCallReturnLabel_246
          CFI (cfiCond552) R6 load(1, XDATA, add(CFA_XSP16, literal(-10)))
          CFI (cfiCond552) VB load(1, XDATA, add(CFA_XSP16, literal(-9)))
          CFI (cfiCond552) V0 load(1, XDATA, add(CFA_XSP16, literal(-8)))
          CFI (cfiCond552) V1 load(1, XDATA, add(CFA_XSP16, literal(-7)))
          CFI (cfiCond552) R7 load(1, XDATA, add(CFA_XSP16, literal(-6)))
          CFI (cfiCond552) ?RET_LOW load(1, XDATA, add(CFA_XSP16, literal(-5)))
          CFI (cfiCond552) ?RET_HIGH load(1, XDATA, add(CFA_XSP16, literal(-4)))
          CFI (cfiCond552) ?BRET_EXT load(1, XDATA, add(CFA_XSP16, literal(-3)))
          CFI (cfiCond552) DPL0 load(1, XDATA, add(CFA_XSP16, literal(-2)))
          CFI (cfiCond552) DPH0 load(1, XDATA, add(CFA_XSP16, literal(-1)))
          CFI (cfiCond552) CFA_SP SP+-2
          CFI (cfiCond552) CFA_XSP16 add(XSP16, 19)
          CFI Block cfiCond553 Using cfiCommon0
          CFI (cfiCond553) Function ZDP_MgmtDirectJoinReq
          CFI (cfiCond553) Conditional ??CrossCallReturnLabel_247
          CFI (cfiCond553) R6 load(1, XDATA, add(CFA_XSP16, literal(-12)))
          CFI (cfiCond553) VB load(1, XDATA, add(CFA_XSP16, literal(-11)))
          CFI (cfiCond553) V0 load(1, XDATA, add(CFA_XSP16, literal(-10)))
          CFI (cfiCond553) V1 load(1, XDATA, add(CFA_XSP16, literal(-9)))
          CFI (cfiCond553) V2 load(1, XDATA, add(CFA_XSP16, literal(-8)))
          CFI (cfiCond553) V3 load(1, XDATA, add(CFA_XSP16, literal(-7)))
          CFI (cfiCond553) R7 load(1, XDATA, add(CFA_XSP16, literal(-6)))
          CFI (cfiCond553) ?RET_LOW load(1, XDATA, add(CFA_XSP16, literal(-5)))
          CFI (cfiCond553) ?RET_HIGH load(1, XDATA, add(CFA_XSP16, literal(-4)))
          CFI (cfiCond553) ?BRET_EXT load(1, XDATA, add(CFA_XSP16, literal(-3)))
          CFI (cfiCond553) DPL0 load(1, XDATA, add(CFA_XSP16, literal(-2)))
          CFI (cfiCond553) DPH0 load(1, XDATA, add(CFA_XSP16, literal(-1)))
          CFI (cfiCond553) CFA_SP SP+-2
          CFI (cfiCond553) CFA_XSP16 add(XSP16, 12)
          CFI Block cfiPicker554 Using cfiCommon1
          CFI (cfiPicker554) NoFunction
          CFI (cfiPicker554) Picker
        MOVX      A,@DPTR
        MOV       R0,A
        INC       DPTR
        MOVX      A,@DPTR
        RET
          CFI EndBlock cfiCond528
          CFI EndBlock cfiCond529
          CFI EndBlock cfiCond530
          CFI EndBlock cfiCond531
          CFI EndBlock cfiCond532
          CFI EndBlock cfiCond533
          CFI EndBlock cfiCond534
          CFI EndBlock cfiCond535
          CFI EndBlock cfiCond536
          CFI EndBlock cfiCond537
          CFI EndBlock cfiCond538
          CFI EndBlock cfiCond539
          CFI EndBlock cfiCond540
          CFI EndBlock cfiCond541
          CFI EndBlock cfiCond542
          CFI EndBlock cfiCond543
          CFI EndBlock cfiCond544
          CFI EndBlock cfiCond545
          CFI EndBlock cfiCond546
          CFI EndBlock cfiCond547
          CFI EndBlock cfiCond548
          CFI EndBlock cfiCond549
          CFI EndBlock cfiCond550
          CFI EndBlock cfiCond551
          CFI EndBlock cfiCond552
          CFI EndBlock cfiCond553
          CFI EndBlock cfiPicker554

        RSEG BANKED_CODE:HUGECODE:NOROOT(0)
?Subroutine16:
          CFI Block cfiCond555 Using cfiCommon0
          CFI Function ZDP_MgmtNwkUpdateNotify
          CFI Conditional ??CrossCallReturnLabel_13
          CFI R6 load(1, XDATA, add(CFA_XSP16, literal(-18)))
          CFI VB load(1, XDATA, add(CFA_XSP16, literal(-17)))
          CFI V0 load(1, XDATA, add(CFA_XSP16, literal(-16)))
          CFI V1 load(1, XDATA, add(CFA_XSP16, literal(-15)))
          CFI V2 load(1, XDATA, add(CFA_XSP16, literal(-14)))
          CFI V3 load(1, XDATA, add(CFA_XSP16, literal(-13)))
          CFI V4 load(1, XDATA, add(CFA_XSP16, literal(-12)))
          CFI V5 load(1, XDATA, add(CFA_XSP16, literal(-11)))
          CFI V6 load(1, XDATA, add(CFA_XSP16, literal(-10)))
          CFI V7 load(1, XDATA, add(CFA_XSP16, literal(-9)))
          CFI V8 load(1, XDATA, add(CFA_XSP16, literal(-8)))
          CFI V9 load(1, XDATA, add(CFA_XSP16, literal(-7)))
          CFI R7 load(1, XDATA, add(CFA_XSP16, literal(-6)))
          CFI ?RET_LOW load(1, XDATA, add(CFA_XSP16, literal(-5)))
          CFI ?RET_HIGH load(1, XDATA, add(CFA_XSP16, literal(-4)))
          CFI ?BRET_EXT load(1, XDATA, add(CFA_XSP16, literal(-3)))
          CFI DPL0 load(1, XDATA, add(CFA_XSP16, literal(-2)))
          CFI DPH0 load(1, XDATA, add(CFA_XSP16, literal(-1)))
          CFI CFA_SP SP+-2
          CFI CFA_XSP16 add(XSP16, 19)
          CFI Block cfiCond556 Using cfiCommon0
          CFI (cfiCond556) Function ZDP_IncomingData
          CFI (cfiCond556) Conditional ??CrossCallReturnLabel_14
          CFI (cfiCond556) R6 load(1, XDATA, add(CFA_XSP16, literal(-10)))
          CFI (cfiCond556) VB load(1, XDATA, add(CFA_XSP16, literal(-9)))
          CFI (cfiCond556) V0 load(1, XDATA, add(CFA_XSP16, literal(-8)))
          CFI (cfiCond556) V1 load(1, XDATA, add(CFA_XSP16, literal(-7)))
          CFI (cfiCond556) R7 load(1, XDATA, add(CFA_XSP16, literal(-6)))
          CFI (cfiCond556) ?RET_LOW load(1, XDATA, add(CFA_XSP16, literal(-5)))
          CFI (cfiCond556) ?RET_HIGH load(1, XDATA, add(CFA_XSP16, literal(-4)))
          CFI (cfiCond556) ?BRET_EXT load(1, XDATA, add(CFA_XSP16, literal(-3)))
          CFI (cfiCond556) DPL0 load(1, XDATA, add(CFA_XSP16, literal(-2)))
          CFI (cfiCond556) DPH0 load(1, XDATA, add(CFA_XSP16, literal(-1)))
          CFI (cfiCond556) CFA_SP SP+-2
          CFI (cfiCond556) CFA_XSP16 add(XSP16, 33)
          CFI Block cfiCond557 Using cfiCommon0
          CFI (cfiCond557) Function ZDP_IncomingData
          CFI (cfiCond557) Conditional ??CrossCallReturnLabel_15
          CFI (cfiCond557) R6 load(1, XDATA, add(CFA_XSP16, literal(-10)))
          CFI (cfiCond557) VB load(1, XDATA, add(CFA_XSP16, literal(-9)))
          CFI (cfiCond557) V0 load(1, XDATA, add(CFA_XSP16, literal(-8)))
          CFI (cfiCond557) V1 load(1, XDATA, add(CFA_XSP16, literal(-7)))
          CFI (cfiCond557) R7 load(1, XDATA, add(CFA_XSP16, literal(-6)))
          CFI (cfiCond557) ?RET_LOW load(1, XDATA, add(CFA_XSP16, literal(-5)))
          CFI (cfiCond557) ?RET_HIGH load(1, XDATA, add(CFA_XSP16, literal(-4)))
          CFI (cfiCond557) ?BRET_EXT load(1, XDATA, add(CFA_XSP16, literal(-3)))
          CFI (cfiCond557) DPL0 load(1, XDATA, add(CFA_XSP16, literal(-2)))
          CFI (cfiCond557) DPH0 load(1, XDATA, add(CFA_XSP16, literal(-1)))
          CFI (cfiCond557) CFA_SP SP+-2
          CFI (cfiCond557) CFA_XSP16 add(XSP16, 33)
          CFI Block cfiPicker558 Using cfiCommon1
          CFI (cfiPicker558) NoFunction
          CFI (cfiPicker558) Picker
        LCALL     ?Subroutine86 & 0xFFFF
??CrossCallReturnLabel_134:
        INC       DPTR
        RET
          CFI EndBlock cfiCond555
          CFI EndBlock cfiCond556
          CFI EndBlock cfiCond557
          CFI EndBlock cfiPicker558

        RSEG XDATA_ID:CODE:NOROOT(0)
`?<Initializer for ZDP_TmpBuf>`:
        DATA16
        DW ZDP_Buf + 1H

        RSEG BANK_RELAYS:CODE:REORDER:NOROOT(0)
`??fillAndSend::?relay`:
        CODE
        LCALL   ?BDISPATCH
        DATA24
        DC24    fillAndSend

        RSEG BANK_RELAYS:CODE:REORDER:NOROOT(0)
`??ZDP_SendData::?relay`:
        CODE
        LCALL   ?BDISPATCH
        DATA24
        DC24    ZDP_SendData

        RSEG BANK_RELAYS:CODE:REORDER:NOROOT(0)
`??ZDP_NWKAddrOfInterestReq::?relay`:
        CODE
        LCALL   ?BDISPATCH
        DATA24
        DC24    ZDP_NWKAddrOfInterestReq

        RSEG BANK_RELAYS:CODE:REORDER:NOROOT(0)
`??ZDP_NwkAddrReq::?relay`:
        CODE
        LCALL   ?BDISPATCH
        DATA24
        DC24    ZDP_NwkAddrReq

        RSEG BANK_RELAYS:CODE:REORDER:NOROOT(0)
`??ZDP_IEEEAddrReq::?relay`:
        CODE
        LCALL   ?BDISPATCH
        DATA24
        DC24    ZDP_IEEEAddrReq

        RSEG BANK_RELAYS:CODE:REORDER:NOROOT(0)
`??ZDP_MatchDescReq::?relay`:
        CODE
        LCALL   ?BDISPATCH
        DATA24
        DC24    ZDP_MatchDescReq

        RSEG BANK_RELAYS:CODE:REORDER:NOROOT(0)
`??ZDP_SimpleDescReq::?relay`:
        CODE
        LCALL   ?BDISPATCH
        DATA24
        DC24    ZDP_SimpleDescReq

        RSEG BANK_RELAYS:CODE:REORDER:NOROOT(0)
`??ZDP_UserDescSet::?relay`:
        CODE
        LCALL   ?BDISPATCH
        DATA24
        DC24    ZDP_UserDescSet

        RSEG BANK_RELAYS:CODE:REORDER:NOROOT(0)
`??ZDP_ServerDiscReq::?relay`:
        CODE
        LCALL   ?BDISPATCH
        DATA24
        DC24    ZDP_ServerDiscReq

        RSEG BANK_RELAYS:CODE:REORDER:NOROOT(0)
`??ZDP_DeviceAnnce::?relay`:
        CODE
        LCALL   ?BDISPATCH
        DATA24
        DC24    ZDP_DeviceAnnce

        RSEG BANK_RELAYS:CODE:REORDER:NOROOT(0)
`??ZDP_ParentAnnce::?relay`:
        CODE
        LCALL   ?BDISPATCH
        DATA24
        DC24    ZDP_ParentAnnce

        RSEG BANK_RELAYS:CODE:REORDER:NOROOT(0)
`??zdpProcessAddrReq::?relay`:
        CODE
        LCALL   ?BDISPATCH
        DATA24
        DC24    zdpProcessAddrReq

        RSEG BANK_RELAYS:CODE:REORDER:NOROOT(0)
`??ZDP_NodeDescMsg::?relay`:
        CODE
        LCALL   ?BDISPATCH
        DATA24
        DC24    ZDP_NodeDescMsg

        RSEG BANK_RELAYS:CODE:REORDER:NOROOT(0)
`??ZDP_PowerDescMsg::?relay`:
        CODE
        LCALL   ?BDISPATCH
        DATA24
        DC24    ZDP_PowerDescMsg

        RSEG BANK_RELAYS:CODE:REORDER:NOROOT(0)
`??ZDP_SimpleDescMsg::?relay`:
        CODE
        LCALL   ?BDISPATCH
        DATA24
        DC24    ZDP_SimpleDescMsg

        RSEG BANK_RELAYS:CODE:REORDER:NOROOT(0)
`??ZDP_EPRsp::?relay`:
        CODE
        LCALL   ?BDISPATCH
        DATA24
        DC24    ZDP_EPRsp

        RSEG BANK_RELAYS:CODE:REORDER:NOROOT(0)
`??ZDP_UserDescRsp::?relay`:
        CODE
        LCALL   ?BDISPATCH
        DATA24
        DC24    ZDP_UserDescRsp

        RSEG BANK_RELAYS:CODE:REORDER:NOROOT(0)
`??ZDP_ServerDiscRsp::?relay`:
        CODE
        LCALL   ?BDISPATCH
        DATA24
        DC24    ZDP_ServerDiscRsp

        RSEG BANK_RELAYS:CODE:REORDER:NOROOT(0)
`??ZDP_GenericRsp::?relay`:
        CODE
        LCALL   ?BDISPATCH
        DATA24
        DC24    ZDP_GenericRsp

        RSEG BANK_RELAYS:CODE:REORDER:NOROOT(0)
`??ZDP_EndDeviceBindReq::?relay`:
        CODE
        LCALL   ?BDISPATCH
        DATA24
        DC24    ZDP_EndDeviceBindReq

        RSEG BANK_RELAYS:CODE:REORDER:NOROOT(0)
`??ZDP_BindUnbindReq::?relay`:
        CODE
        LCALL   ?BDISPATCH
        DATA24
        DC24    ZDP_BindUnbindReq

        RSEG BANK_RELAYS:CODE:REORDER:NOROOT(0)
`??ZDP_MgmtNwkDiscReq::?relay`:
        CODE
        LCALL   ?BDISPATCH
        DATA24
        DC24    ZDP_MgmtNwkDiscReq

        RSEG BANK_RELAYS:CODE:REORDER:NOROOT(0)
`??ZDP_MgmtDirectJoinReq::?relay`:
        CODE
        LCALL   ?BDISPATCH
        DATA24
        DC24    ZDP_MgmtDirectJoinReq

        RSEG BANK_RELAYS:CODE:REORDER:NOROOT(0)
`??ZDP_MgmtPermitJoinReq::?relay`:
        CODE
        LCALL   ?BDISPATCH
        DATA24
        DC24    ZDP_MgmtPermitJoinReq

        RSEG BANK_RELAYS:CODE:REORDER:NOROOT(0)
`??ZDP_MgmtLeaveReq::?relay`:
        CODE
        LCALL   ?BDISPATCH
        DATA24
        DC24    ZDP_MgmtLeaveReq

        RSEG BANK_RELAYS:CODE:REORDER:NOROOT(0)
`??ZDP_MgmtNwkUpdateReq::?relay`:
        CODE
        LCALL   ?BDISPATCH
        DATA24
        DC24    ZDP_MgmtNwkUpdateReq

        RSEG BANK_RELAYS:CODE:REORDER:NOROOT(0)
`??ZDP_MgmtNwkDiscRsp::?relay`:
        CODE
        LCALL   ?BDISPATCH
        DATA24
        DC24    ZDP_MgmtNwkDiscRsp

        RSEG BANK_RELAYS:CODE:REORDER:NOROOT(0)
`??ZDP_MgmtLqiRsp::?relay`:
        CODE
        LCALL   ?BDISPATCH
        DATA24
        DC24    ZDP_MgmtLqiRsp

        RSEG BANK_RELAYS:CODE:REORDER:NOROOT(0)
`??ZDP_MgmtRtgRsp::?relay`:
        CODE
        LCALL   ?BDISPATCH
        DATA24
        DC24    ZDP_MgmtRtgRsp

        RSEG BANK_RELAYS:CODE:REORDER:NOROOT(0)
`??ZDP_MgmtBindRsp::?relay`:
        CODE
        LCALL   ?BDISPATCH
        DATA24
        DC24    ZDP_MgmtBindRsp

        RSEG BANK_RELAYS:CODE:REORDER:NOROOT(0)
`??ZDP_MgmtNwkUpdateNotify::?relay`:
        CODE
        LCALL   ?BDISPATCH
        DATA24
        DC24    ZDP_MgmtNwkUpdateNotify

        RSEG BANK_RELAYS:CODE:REORDER:NOROOT(0)
`??ZDO_RegisterForZDOMsg::?relay`:
        CODE
        LCALL   ?BDISPATCH
        DATA24
        DC24    ZDO_RegisterForZDOMsg

        RSEG BANK_RELAYS:CODE:REORDER:NOROOT(0)
`??ZDO_RemoveRegisteredCB::?relay`:
        CODE
        LCALL   ?BDISPATCH
        DATA24
        DC24    ZDO_RemoveRegisteredCB

        RSEG BANK_RELAYS:CODE:REORDER:NOROOT(0)
`??ZDO_SendMsgCBs::?relay`:
        CODE
        LCALL   ?BDISPATCH
        DATA24
        DC24    ZDO_SendMsgCBs

        RSEG BANK_RELAYS:CODE:REORDER:NOROOT(0)
`??ZDP_IncomingData::?relay`:
        CODE
        LCALL   ?BDISPATCH
        DATA24
        DC24    ZDP_IncomingData

        END
// 2046 
// 2047 /*********************************************************************
// 2048 *********************************************************************/
// 2049 
// 
// 6 869 bytes in segment BANKED_CODE
//   210 bytes in segment BANK_RELAYS
//    41 bytes in segment CODE_C
//     2 bytes in segment XDATA_I
//     2 bytes in segment XDATA_ID
//    84 bytes in segment XDATA_Z
// 
//   253 bytes of CODE     memory
// 6 869 bytes of HUGECODE memory
//    86 bytes of XDATA    memory
//
//Errors: none
//Warnings: none
